	.text
	.file	"ufs_vendor_mode.c"
	.file	1 "/mnt/disk/jenkins/ci/workspace/chipset_pipeline_release/opensource/component_code/vendor/huawei/extra/build/build_script/kirin_kernel_release" "kernel/include/uapi/asm-generic/int-ll64.h"
	.file	2 "/mnt/disk/jenkins/ci/workspace/chipset_pipeline_release/opensource/component_code/vendor/huawei/extra/build/build_script/kirin_kernel_release" "kernel/include/asm-generic/int-ll64.h"
	.file	3 "/mnt/disk/jenkins/ci/workspace/chipset_pipeline_release/opensource/component_code/vendor/huawei/extra/build/build_script/kirin_kernel_release" "kernel/include/linux/types.h"
	.file	4 "/mnt/disk/jenkins/ci/workspace/chipset_pipeline_release/opensource/component_code/vendor/huawei/extra/build/build_script/kirin_kernel_release" "kernel/include/asm-generic/atomic-long.h"
	.file	5 "/mnt/disk/jenkins/ci/workspace/chipset_pipeline_release/opensource/component_code/vendor/huawei/extra/build/build_script/kirin_kernel_release" "kernel/include/linux/mutex.h"
	.file	6 "/mnt/disk/jenkins/ci/workspace/chipset_pipeline_release/opensource/component_code/vendor/huawei/extra/build/build_script/kirin_kernel_release" "kernel/include/asm-generic/qspinlock_types.h"
	.file	7 "/mnt/disk/jenkins/ci/workspace/chipset_pipeline_release/opensource/component_code/vendor/huawei/extra/build/build_script/kirin_kernel_release" "kernel/include/linux/spinlock_types.h"
	.file	8 "/mnt/disk/jenkins/ci/workspace/chipset_pipeline_release/opensource/component_code/vendor/huawei/extra/build/build_script/kirin_kernel_release" "kernel/include/linux/osq_lock.h"
	.file	9 "/mnt/disk/jenkins/ci/workspace/chipset_pipeline_release/opensource/component_code/vendor/huawei/extra/build/build_script/kirin_kernel_release" "kernel/arch/arm64/include/asm/thread_info.h"
	.file	10 "/mnt/disk/jenkins/ci/workspace/chipset_pipeline_release/opensource/component_code/vendor/huawei/extra/build/build_script/kirin_kernel_release" "kernel/include/linux/sched.h"
	.file	11 "/mnt/disk/jenkins/ci/workspace/chipset_pipeline_release/opensource/component_code/vendor/huawei/extra/build/build_script/kirin_kernel_release" "kernel/include/linux/refcount.h"
	.file	12 "/mnt/disk/jenkins/ci/workspace/chipset_pipeline_release/opensource/component_code/vendor/huawei/extra/build/build_script/kirin_kernel_release" "kernel/include/uapi/asm-generic/posix_types.h"
	.file	13 "/mnt/disk/jenkins/ci/workspace/chipset_pipeline_release/opensource/component_code/vendor/huawei/extra/build/build_script/kirin_kernel_release" "kernel/include/linux/llist.h"
	.file	14 "/mnt/disk/jenkins/ci/workspace/chipset_pipeline_release/opensource/component_code/vendor/huawei/extra/build/build_script/kirin_kernel_release" "kernel/include/linux/smp_types.h"
	.file	15 "/mnt/disk/jenkins/ci/workspace/chipset_pipeline_release/opensource/component_code/vendor/huawei/extra/build/build_script/kirin_kernel_release" "kernel/include/linux/rbtree.h"
	.file	16 "/mnt/disk/jenkins/ci/workspace/chipset_pipeline_release/opensource/component_code/vendor/huawei/extra/build/build_script/kirin_kernel_release" "kernel/include/linux/timerqueue.h"
	.file	17 "/mnt/disk/jenkins/ci/workspace/chipset_pipeline_release/opensource/component_code/vendor/huawei/extra/build/build_script/kirin_kernel_release" "kernel/include/linux/ktime.h"
	.file	18 "/mnt/disk/jenkins/ci/workspace/chipset_pipeline_release/opensource/component_code/vendor/huawei/extra/build/build_script/kirin_kernel_release" "kernel/include/linux/hrtimer.h"
	.file	19 "/mnt/disk/jenkins/ci/workspace/chipset_pipeline_release/opensource/component_code/vendor/huawei/extra/build/build_script/kirin_kernel_release" "kernel/include/linux/seqlock.h"
	.file	20 "/mnt/disk/jenkins/ci/workspace/chipset_pipeline_release/opensource/component_code/vendor/huawei/extra/build/build_script/kirin_kernel_release" "kernel/include/linux/cpumask.h"
	.file	21 "/mnt/disk/jenkins/ci/workspace/chipset_pipeline_release/opensource/component_code/vendor/huawei/extra/build/build_script/kirin_kernel_release" "kernel/include/linux/irq_work.h"
	.file	22 "/mnt/disk/jenkins/ci/workspace/chipset_pipeline_release/opensource/component_code/vendor/huawei/extra/build/build_script/kirin_kernel_release" "kernel/include/linux/plist.h"
	.file	23 "/mnt/disk/jenkins/ci/workspace/chipset_pipeline_release/opensource/component_code/vendor/huawei/extra/build/build_script/kirin_kernel_release" "kernel/include/linux/mm_types.h"
	.file	24 "/mnt/disk/jenkins/ci/workspace/chipset_pipeline_release/opensource/component_code/vendor/huawei/extra/build/build_script/kirin_kernel_release" "kernel/arch/arm64/include/asm/pgtable-types.h"
	.file	25 "/mnt/disk/jenkins/ci/workspace/chipset_pipeline_release/opensource/component_code/vendor/huawei/extra/build/build_script/kirin_kernel_release" "kernel/include/linux/mm.h"
	.file	26 "/mnt/disk/jenkins/ci/workspace/chipset_pipeline_release/opensource/component_code/vendor/huawei/extra/build/build_script/kirin_kernel_release" "kernel/include/asm-generic/pgtable-nop4d.h"
	.file	27 "/mnt/disk/jenkins/ci/workspace/chipset_pipeline_release/opensource/component_code/vendor/huawei/extra/build/build_script/kirin_kernel_release" "kernel/include/asm-generic/pgtable-nopud.h"
	.file	28 "/mnt/disk/jenkins/ci/workspace/chipset_pipeline_release/opensource/component_code/vendor/huawei/extra/build/build_script/kirin_kernel_release" "kernel/include/linux/fs.h"
	.file	29 "/mnt/disk/jenkins/ci/workspace/chipset_pipeline_release/opensource/component_code/vendor/huawei/extra/build/build_script/kirin_kernel_release" "kernel/include/linux/uidgid.h"
	.file	30 "/mnt/disk/jenkins/ci/workspace/chipset_pipeline_release/opensource/component_code/vendor/huawei/extra/build/build_script/kirin_kernel_release" "kernel/include/linux/dcache.h"
	.file	31 "/mnt/disk/jenkins/ci/workspace/chipset_pipeline_release/opensource/component_code/vendor/huawei/extra/build/build_script/kirin_kernel_release" "kernel/include/linux/list_bl.h"
	.file	32 "/mnt/disk/jenkins/ci/workspace/chipset_pipeline_release/opensource/component_code/vendor/huawei/extra/build/build_script/kirin_kernel_release" "kernel/include/linux/lockref.h"
	.file	33 "/mnt/disk/jenkins/ci/workspace/chipset_pipeline_release/opensource/component_code/vendor/huawei/extra/build/build_script/kirin_kernel_release" "kernel/include/linux/path.h"
	.file	34 "/mnt/disk/jenkins/ci/workspace/chipset_pipeline_release/opensource/component_code/vendor/huawei/extra/build/build_script/kirin_kernel_release" "kernel/include/linux/module.h"
	.file	35 "/mnt/disk/jenkins/ci/workspace/chipset_pipeline_release/opensource/component_code/vendor/huawei/extra/build/build_script/kirin_kernel_release" "kernel/include/linux/kobject.h"
	.file	36 "/mnt/disk/jenkins/ci/workspace/chipset_pipeline_release/opensource/component_code/vendor/huawei/extra/build/build_script/kirin_kernel_release" "kernel/include/linux/sysfs.h"
	.file	37 "/mnt/disk/jenkins/ci/workspace/chipset_pipeline_release/opensource/component_code/vendor/huawei/extra/build/build_script/kirin_kernel_release" "kernel/include/linux/pagemap.h"
	.file	38 "/mnt/disk/jenkins/ci/workspace/chipset_pipeline_release/opensource/component_code/vendor/huawei/extra/build/build_script/kirin_kernel_release" "kernel/include/linux/wait.h"
	.file	39 "/mnt/disk/jenkins/ci/workspace/chipset_pipeline_release/opensource/component_code/vendor/huawei/extra/build/build_script/kirin_kernel_release" "kernel/include/linux/uio.h"
	.file	40 "/mnt/disk/jenkins/ci/workspace/chipset_pipeline_release/opensource/component_code/vendor/huawei/extra/build/build_script/kirin_kernel_release" "kernel/include/uapi/linux/uio.h"
	.file	41 "/mnt/disk/jenkins/ci/workspace/chipset_pipeline_release/opensource/component_code/vendor/huawei/extra/build/build_script/kirin_kernel_release" "kernel/include/linux/bvec.h"
	.file	42 "/mnt/disk/jenkins/ci/workspace/chipset_pipeline_release/opensource/component_code/vendor/huawei/extra/build/build_script/kirin_kernel_release" "kernel/include/uapi/linux/types.h"
	.file	43 "/mnt/disk/jenkins/ci/workspace/chipset_pipeline_release/opensource/component_code/vendor/huawei/extra/build/build_script/kirin_kernel_release" "kernel/include/asm-generic/qrwlock_types.h"
	.file	44 "/mnt/disk/jenkins/ci/workspace/chipset_pipeline_release/opensource/component_code/vendor/huawei/extra/build/build_script/kirin_kernel_release" "kernel/include/linux/rwlock_types.h"
	.file	45 "/mnt/disk/jenkins/ci/workspace/chipset_pipeline_release/opensource/component_code/vendor/huawei/extra/build/build_script/kirin_kernel_release" "kernel/include/linux/nfs_fs_i.h"
	.file	46 "/mnt/disk/jenkins/ci/workspace/chipset_pipeline_release/opensource/component_code/vendor/huawei/extra/build/build_script/kirin_kernel_release" "kernel/include/linux/seq_file.h"
	.file	47 "/mnt/disk/jenkins/ci/workspace/chipset_pipeline_release/opensource/component_code/vendor/huawei/extra/build/build_script/kirin_kernel_release" "kernel/include/linux/pid.h"
	.file	48 "/mnt/disk/jenkins/ci/workspace/chipset_pipeline_release/opensource/component_code/vendor/huawei/extra/build/build_script/kirin_kernel_release" "kernel/include/linux/kref.h"
	.file	49 "/mnt/disk/jenkins/ci/workspace/chipset_pipeline_release/opensource/component_code/vendor/huawei/extra/build/build_script/kirin_kernel_release" "kernel/include/linux/pid_namespace.h"
	.file	50 "/mnt/disk/jenkins/ci/workspace/chipset_pipeline_release/opensource/component_code/vendor/huawei/extra/build/build_script/kirin_kernel_release" "kernel/include/linux/xarray.h"
	.file	51 "/mnt/disk/jenkins/ci/workspace/chipset_pipeline_release/opensource/component_code/vendor/huawei/extra/build/build_script/kirin_kernel_release" "kernel/include/linux/idr.h"
	.file	52 "/mnt/disk/jenkins/ci/workspace/chipset_pipeline_release/opensource/component_code/vendor/huawei/extra/build/build_script/kirin_kernel_release" "kernel/include/linux/user_namespace.h"
	.file	53 "/mnt/disk/jenkins/ci/workspace/chipset_pipeline_release/opensource/component_code/vendor/huawei/extra/build/build_script/kirin_kernel_release" "kernel/include/linux/ns_common.h"
	.file	54 "/mnt/disk/jenkins/ci/workspace/chipset_pipeline_release/opensource/component_code/vendor/huawei/extra/build/build_script/kirin_kernel_release" "kernel/include/linux/key.h"
	.file	55 "/mnt/disk/jenkins/ci/workspace/chipset_pipeline_release/opensource/component_code/vendor/huawei/extra/build/build_script/kirin_kernel_release" "kernel/include/linux/rwsem.h"
	.file	56 "/mnt/disk/jenkins/ci/workspace/chipset_pipeline_release/opensource/component_code/vendor/huawei/extra/build/build_script/kirin_kernel_release" "kernel/include/linux/time64.h"
	.file	57 "/mnt/disk/jenkins/ci/workspace/chipset_pipeline_release/opensource/component_code/vendor/huawei/extra/build/build_script/kirin_kernel_release" "kernel/include/linux/assoc_array.h"
	.file	58 "/mnt/disk/jenkins/ci/workspace/chipset_pipeline_release/opensource/component_code/vendor/huawei/extra/build/build_script/kirin_kernel_release" "kernel/include/linux/workqueue.h"
	.file	59 "/mnt/disk/jenkins/ci/workspace/chipset_pipeline_release/opensource/component_code/vendor/huawei/extra/build/build_script/kirin_kernel_release" "kernel/include/linux/sysctl.h"
	.file	60 "/mnt/disk/jenkins/ci/workspace/chipset_pipeline_release/opensource/component_code/vendor/huawei/extra/build/build_script/kirin_kernel_release" "kernel/include/linux/completion.h"
	.file	61 "/mnt/disk/jenkins/ci/workspace/chipset_pipeline_release/opensource/component_code/vendor/huawei/extra/build/build_script/kirin_kernel_release" "kernel/include/linux/swait.h"
	.file	62 "/mnt/disk/jenkins/ci/workspace/chipset_pipeline_release/opensource/component_code/vendor/huawei/extra/build/build_script/kirin_kernel_release" "kernel/include/linux/cred.h"
	.file	63 "/mnt/disk/jenkins/ci/workspace/chipset_pipeline_release/opensource/component_code/vendor/huawei/extra/build/build_script/kirin_kernel_release" "kernel/include/linux/capability.h"
	.file	64 "/mnt/disk/jenkins/ci/workspace/chipset_pipeline_release/opensource/component_code/vendor/huawei/extra/build/build_script/kirin_kernel_release" "kernel/include/linux/sched/user.h"
	.file	65 "/mnt/disk/jenkins/ci/workspace/chipset_pipeline_release/opensource/component_code/vendor/huawei/extra/build/build_script/kirin_kernel_release" "kernel/include/linux/ratelimit_types.h"
	.file	66 "/mnt/disk/jenkins/ci/workspace/chipset_pipeline_release/opensource/component_code/vendor/huawei/extra/build/build_script/kirin_kernel_release" "kernel/include/linux/errseq.h"
	.file	67 "/mnt/disk/jenkins/ci/workspace/chipset_pipeline_release/opensource/component_code/vendor/huawei/extra/build/build_script/kirin_kernel_release" "kernel/include/linux/kobject_ns.h"
	.file	68 "/mnt/disk/jenkins/ci/workspace/chipset_pipeline_release/opensource/component_code/vendor/huawei/extra/build/build_script/kirin_kernel_release" "kernel/include/linux/kernfs.h"
	.file	69 "/mnt/disk/jenkins/ci/workspace/chipset_pipeline_release/opensource/component_code/vendor/huawei/extra/build/build_script/kirin_kernel_release" "kernel/include/linux/export.h"
	.file	70 "/mnt/disk/jenkins/ci/workspace/chipset_pipeline_release/opensource/component_code/vendor/huawei/extra/build/build_script/kirin_kernel_release" "kernel/include/linux/moduleparam.h"
	.file	71 "/mnt/disk/jenkins/ci/workspace/chipset_pipeline_release/opensource/component_code/vendor/huawei/extra/build/build_script/kirin_kernel_release" "kernel/arch/arm64/include/asm/extable.h"
	.file	72 "/mnt/disk/jenkins/ci/workspace/chipset_pipeline_release/opensource/component_code/vendor/huawei/extra/build/build_script/kirin_kernel_release" "kernel/include/linux/rbtree_latch.h"
	.file	73 "/mnt/disk/jenkins/ci/workspace/chipset_pipeline_release/opensource/component_code/vendor/huawei/extra/build/build_script/kirin_kernel_release" "kernel/arch/arm64/include/asm/module.h"
	.file	74 "/mnt/disk/jenkins/ci/workspace/chipset_pipeline_release/opensource/component_code/vendor/huawei/extra/build/build_script/kirin_kernel_release" "kernel/include/uapi/linux/elf.h"
	.file	75 "/mnt/disk/jenkins/ci/workspace/chipset_pipeline_release/opensource/component_code/vendor/huawei/extra/build/build_script/kirin_kernel_release" "kernel/include/asm-generic/bug.h"
	.file	76 "/mnt/disk/jenkins/ci/workspace/chipset_pipeline_release/opensource/component_code/vendor/huawei/extra/build/build_script/kirin_kernel_release" "kernel/include/linux/tracepoint-defs.h"
	.file	77 "/mnt/disk/jenkins/ci/workspace/chipset_pipeline_release/opensource/component_code/vendor/huawei/extra/build/build_script/kirin_kernel_release" "kernel/include/linux/srcutree.h"
	.file	78 "/mnt/disk/jenkins/ci/workspace/chipset_pipeline_release/opensource/component_code/vendor/huawei/extra/build/build_script/kirin_kernel_release" "kernel/include/linux/rcu_segcblist.h"
	.file	79 "/mnt/disk/jenkins/ci/workspace/chipset_pipeline_release/opensource/component_code/vendor/huawei/extra/build/build_script/kirin_kernel_release" "kernel/include/linux/timer.h"
	.file	80 "/mnt/disk/jenkins/ci/workspace/chipset_pipeline_release/opensource/component_code/vendor/huawei/extra/build/build_script/kirin_kernel_release" "kernel/include/linux/lockdep_types.h"
	.file	81 "/mnt/disk/jenkins/ci/workspace/chipset_pipeline_release/opensource/component_code/vendor/huawei/extra/build/build_script/kirin_kernel_release" "kernel/include/linux/writeback.h"
	.file	82 "/mnt/disk/jenkins/ci/workspace/chipset_pipeline_release/opensource/component_code/vendor/huawei/extra/build/build_script/kirin_kernel_release" "kernel/include/linux/backing-dev-defs.h"
	.file	83 "/mnt/disk/jenkins/ci/workspace/chipset_pipeline_release/opensource/component_code/vendor/huawei/extra/build/build_script/kirin_kernel_release" "kernel/include/linux/device.h"
	.file	84 "/mnt/disk/jenkins/ci/workspace/chipset_pipeline_release/opensource/component_code/vendor/huawei/extra/build/build_script/kirin_kernel_release" "kernel/include/linux/pm.h"
	.file	85 "/mnt/disk/jenkins/ci/workspace/chipset_pipeline_release/opensource/component_code/vendor/huawei/extra/build/build_script/kirin_kernel_release" "kernel/include/linux/device/bus.h"
	.file	86 "/mnt/disk/jenkins/ci/workspace/chipset_pipeline_release/opensource/component_code/vendor/huawei/extra/build/build_script/kirin_kernel_release" "kernel/include/linux/device/driver.h"
	.file	87 "/mnt/disk/jenkins/ci/workspace/chipset_pipeline_release/opensource/component_code/vendor/huawei/extra/build/build_script/kirin_kernel_release" "kernel/include/linux/pm_wakeup.h"
	.file	88 "/mnt/disk/jenkins/ci/workspace/chipset_pipeline_release/opensource/component_code/vendor/huawei/extra/build/build_script/kirin_kernel_release" "kernel/include/linux/pm_qos.h"
	.file	89 "/mnt/disk/jenkins/ci/workspace/chipset_pipeline_release/opensource/component_code/vendor/huawei/extra/build/build_script/kirin_kernel_release" "kernel/include/linux/notifier.h"
	.file	90 "/mnt/disk/jenkins/ci/workspace/chipset_pipeline_release/opensource/component_code/vendor/huawei/extra/build/build_script/kirin_kernel_release" "kernel/include/linux/energy_model.h"
	.file	91 "/mnt/disk/jenkins/ci/workspace/chipset_pipeline_release/opensource/component_code/vendor/huawei/extra/build/build_script/kirin_kernel_release" "kernel/arch/arm64/include/asm/device.h"
	.file	92 "/mnt/disk/jenkins/ci/workspace/chipset_pipeline_release/opensource/component_code/vendor/huawei/extra/build/build_script/kirin_kernel_release" "kernel/include/linux/fwnode.h"
	.file	93 "/mnt/disk/jenkins/ci/workspace/chipset_pipeline_release/opensource/component_code/vendor/huawei/extra/build/build_script/kirin_kernel_release" "kernel/include/linux/device/class.h"
	.file	94 "/mnt/disk/jenkins/ci/workspace/chipset_pipeline_release/opensource/component_code/vendor/huawei/extra/build/build_script/kirin_kernel_release" "kernel/include/linux/blkdev.h"
	.file	95 "/mnt/disk/jenkins/ci/workspace/chipset_pipeline_release/opensource/component_code/vendor/huawei/extra/build/build_script/kirin_kernel_release" "kernel/include/linux/blk-mq.h"
	.file	96 "/mnt/disk/jenkins/ci/workspace/chipset_pipeline_release/opensource/component_code/vendor/huawei/extra/build/build_script/kirin_kernel_release" "kernel/include/linux/sbitmap.h"
	.file	97 "/mnt/disk/jenkins/ci/workspace/chipset_pipeline_release/opensource/component_code/vendor/huawei/extra/build/build_script/kirin_kernel_release" "kernel/include/linux/blk_types.h"
	.file	98 "/mnt/disk/jenkins/ci/workspace/chipset_pipeline_release/opensource/component_code/vendor/huawei/extra/build/build_script/kirin_kernel_release" "kernel/include/linux/genhd.h"
	.file	99 "/mnt/disk/jenkins/ci/workspace/chipset_pipeline_release/opensource/component_code/vendor/huawei/extra/build/build_script/kirin_kernel_release" "kernel/include/linux/percpu-refcount.h"
	.file	100 "/mnt/disk/jenkins/ci/workspace/chipset_pipeline_release/opensource/component_code/vendor/huawei/extra/build/build_script/kirin_kernel_release" "kernel/include/uapi/linux/blkzoned.h"
	.file	101 "/mnt/disk/jenkins/ci/workspace/chipset_pipeline_release/opensource/component_code/vendor/huawei/extra/build/build_script/kirin_kernel_release" "kernel/include/uapi/linux/time_types.h"
	.file	102 "/mnt/disk/jenkins/ci/workspace/chipset_pipeline_release/opensource/component_code/vendor/huawei/extra/build/build_script/kirin_kernel_release" "kernel/include/linux/blk-cgroup.h"
	.file	103 "/mnt/disk/jenkins/ci/workspace/chipset_pipeline_release/opensource/component_code/vendor/huawei/extra/build/build_script/kirin_kernel_release" "kernel/include/linux/cgroup-defs.h"
	.file	104 "/mnt/disk/jenkins/ci/workspace/chipset_pipeline_release/opensource/component_code/vendor/huawei/extra/build/build_script/kirin_kernel_release" "kernel/include/linux/u64_stats_sync.h"
	.file	105 "/mnt/disk/jenkins/ci/workspace/chipset_pipeline_release/opensource/component_code/vendor/huawei/extra/build/build_script/kirin_kernel_release" "kernel/include/linux/sched/types.h"
	.file	106 "/mnt/disk/jenkins/ci/workspace/chipset_pipeline_release/opensource/component_code/vendor/huawei/extra/build/build_script/kirin_kernel_release" "kernel/include/linux/psi_types.h"
	.file	107 "/mnt/disk/jenkins/ci/workspace/chipset_pipeline_release/opensource/component_code/vendor/huawei/extra/build/build_script/kirin_kernel_release" "kernel/include/linux/bpf.h"
	.file	108 "/mnt/disk/jenkins/ci/workspace/chipset_pipeline_release/opensource/component_code/vendor/huawei/extra/build/build_script/kirin_kernel_release" "kernel/include/linux/bpf-cgroup.h"
	.file	109 "/mnt/disk/jenkins/ci/workspace/chipset_pipeline_release/opensource/component_code/vendor/huawei/extra/build/build_script/kirin_kernel_release" "kernel/include/uapi/linux/bpf.h"
	.file	110 "/mnt/disk/jenkins/ci/workspace/chipset_pipeline_release/opensource/component_code/vendor/huawei/extra/build/build_script/kirin_kernel_release" "kernel/include/linux/bio.h"
	.file	111 "/mnt/disk/jenkins/ci/workspace/chipset_pipeline_release/opensource/component_code/vendor/huawei/extra/build/build_script/kirin_kernel_release" "kernel/include/linux/mempool.h"
	.file	112 "/mnt/disk/jenkins/ci/workspace/chipset_pipeline_release/opensource/component_code/vendor/huawei/extra/build/build_script/kirin_kernel_release" "kernel/include/linux/iocontext.h"
	.file	113 "/mnt/disk/jenkins/ci/workspace/chipset_pipeline_release/opensource/component_code/vendor/huawei/extra/build/build_script/kirin_kernel_release" "kernel/include/linux/smp.h"
	.file	114 "/mnt/disk/jenkins/ci/workspace/chipset_pipeline_release/opensource/component_code/vendor/huawei/extra/build/build_script/kirin_kernel_release" "kernel/include/linux/elevator.h"
	.file	115 "/mnt/disk/jenkins/ci/workspace/chipset_pipeline_release/opensource/component_code/vendor/huawei/extra/build/build_script/kirin_kernel_release" "kernel/include/scsi/scsi_host.h"
	.file	116 "/mnt/disk/jenkins/ci/workspace/chipset_pipeline_release/opensource/component_code/vendor/huawei/extra/build/build_script/kirin_kernel_release" "kernel/include/scsi/scsi_device.h"
	.file	117 "/mnt/disk/jenkins/ci/workspace/chipset_pipeline_release/opensource/component_code/vendor/huawei/extra/build/build_script/kirin_kernel_release" "kernel/include/scsi/scsi_request.h"
	.file	118 "/mnt/disk/jenkins/ci/workspace/chipset_pipeline_release/opensource/component_code/vendor/huawei/extra/build/build_script/kirin_kernel_release" "kernel/include/scsi/scsi_cmnd.h"
	.file	119 "/mnt/disk/jenkins/ci/workspace/chipset_pipeline_release/opensource/component_code/vendor/huawei/extra/build/build_script/kirin_kernel_release" "kernel/include/linux/iomt_host/dsm_iomt_host.h"
	.file	120 "/mnt/disk/jenkins/ci/workspace/chipset_pipeline_release/opensource/component_code/vendor/huawei/extra/build/build_script/kirin_kernel_release" "kernel/include/linux/dma-direction.h"
	.file	121 "/mnt/disk/jenkins/ci/workspace/chipset_pipeline_release/opensource/component_code/vendor/huawei/extra/build/build_script/kirin_kernel_release" "kernel/include/linux/scatterlist.h"
	.file	122 "/mnt/disk/jenkins/ci/workspace/chipset_pipeline_release/opensource/component_code/vendor/huawei/extra/build/build_script/kirin_kernel_release" "kernel/include/linux/mas_bkops_core.h"
	.file	123 "/mnt/disk/jenkins/ci/workspace/chipset_pipeline_release/opensource/component_code/vendor/huawei/extra/build/build_script/kirin_kernel_release" "kernel/include/linux/bsg.h"
	.file	124 "/mnt/disk/jenkins/ci/workspace/chipset_pipeline_release/opensource/component_code/vendor/huawei/extra/build/build_script/kirin_kernel_release" "kernel/include/uapi/linux/bsg.h"
	.file	125 "/mnt/disk/jenkins/ci/workspace/chipset_pipeline_release/opensource/component_code/vendor/huawei/extra/build/build_script/kirin_kernel_release" "kernel/include/linux/percpu_counter.h"
	.file	126 "/mnt/disk/jenkins/ci/workspace/chipset_pipeline_release/opensource/component_code/vendor/huawei/extra/build/build_script/kirin_kernel_release" "kernel/include/linux/flex_proportions.h"
	.file	127 "/mnt/disk/jenkins/ci/workspace/chipset_pipeline_release/opensource/component_code/vendor/huawei/extra/build/build_script/kirin_kernel_release" "kernel/include/linux/quota.h"
	.file	128 "/mnt/disk/jenkins/ci/workspace/chipset_pipeline_release/opensource/component_code/vendor/huawei/extra/build/build_script/kirin_kernel_release" "kernel/include/linux/projid.h"
	.file	129 "/mnt/disk/jenkins/ci/workspace/chipset_pipeline_release/opensource/component_code/vendor/huawei/extra/build/build_script/kirin_kernel_release" "kernel/include/linux/shrinker.h"
	.file	130 "/mnt/disk/jenkins/ci/workspace/chipset_pipeline_release/opensource/component_code/vendor/huawei/extra/build/build_script/kirin_kernel_release" "kernel/include/linux/memcontrol.h"
	.file	131 "/mnt/disk/jenkins/ci/workspace/chipset_pipeline_release/opensource/component_code/vendor/huawei/extra/build/build_script/kirin_kernel_release" "kernel/include/linux/page_counter.h"
	.file	132 "/mnt/disk/jenkins/ci/workspace/chipset_pipeline_release/opensource/component_code/vendor/huawei/extra/build/build_script/kirin_kernel_release" "kernel/include/linux/vmpressure.h"
	.file	133 "/mnt/disk/jenkins/ci/workspace/chipset_pipeline_release/opensource/component_code/vendor/huawei/extra/build/build_script/kirin_kernel_release" "kernel/include/linux/memcg_policy.h"
	.file	134 "/mnt/disk/jenkins/ci/workspace/chipset_pipeline_release/opensource/component_code/vendor/huawei/extra/build/build_script/kirin_kernel_release" "kernel/include/linux/mmzone.h"
	.file	135 "/mnt/disk/jenkins/ci/workspace/chipset_pipeline_release/opensource/component_code/vendor/huawei/extra/build/build_script/kirin_kernel_release" "kernel/include/linux/rcu_sync.h"
	.file	136 "/mnt/disk/jenkins/ci/workspace/chipset_pipeline_release/opensource/component_code/vendor/huawei/extra/build/build_script/kirin_kernel_release" "kernel/include/linux/percpu-rwsem.h"
	.file	137 "/mnt/disk/jenkins/ci/workspace/chipset_pipeline_release/opensource/component_code/vendor/huawei/extra/build/build_script/kirin_kernel_release" "kernel/include/linux/rcuwait.h"
	.file	138 "/mnt/disk/jenkins/ci/workspace/chipset_pipeline_release/opensource/component_code/vendor/huawei/extra/build/build_script/kirin_kernel_release" "kernel/include/linux/uuid.h"
	.file	139 "/mnt/disk/jenkins/ci/workspace/chipset_pipeline_release/opensource/component_code/vendor/huawei/extra/build/build_script/kirin_kernel_release" "kernel/include/linux/list_lru.h"
	.file	140 "/mnt/disk/jenkins/ci/workspace/chipset_pipeline_release/opensource/component_code/vendor/huawei/extra/build/build_script/kirin_kernel_release" "kernel/include/linux/delayed_call.h"
	.file	141 "/mnt/disk/jenkins/ci/workspace/chipset_pipeline_release/opensource/component_code/vendor/huawei/extra/build/build_script/kirin_kernel_release" "kernel/include/linux/stat.h"
	.file	142 "/mnt/disk/jenkins/ci/workspace/chipset_pipeline_release/opensource/component_code/vendor/huawei/extra/build/build_script/kirin_kernel_release" "kernel/include/linux/migrate_mode.h"
	.file	143 "/mnt/disk/jenkins/ci/workspace/chipset_pipeline_release/opensource/component_code/vendor/huawei/extra/build/build_script/kirin_kernel_release" "kernel/include/linux/swap.h"
	.file	144 "/mnt/disk/jenkins/ci/workspace/chipset_pipeline_release/opensource/component_code/vendor/huawei/extra/build/build_script/kirin_kernel_release" "kernel/arch/arm64/include/asm/page.h"
	.file	145 "/mnt/disk/jenkins/ci/workspace/chipset_pipeline_release/opensource/component_code/vendor/huawei/extra/build/build_script/kirin_kernel_release" "kernel/include/linux/memremap.h"
	.file	146 "/mnt/disk/jenkins/ci/workspace/chipset_pipeline_release/opensource/component_code/vendor/huawei/extra/build/build_script/kirin_kernel_release" "kernel/include/linux/range.h"
	.file	147 "/mnt/disk/jenkins/ci/workspace/chipset_pipeline_release/opensource/component_code/vendor/huawei/extra/build/build_script/kirin_kernel_release" "kernel/include/linux/mm_types_task.h"
	.file	148 "/mnt/disk/jenkins/ci/workspace/chipset_pipeline_release/opensource/component_code/vendor/huawei/extra/build/build_script/kirin_kernel_release" "kernel/arch/arm64/include/asm/mmu.h"
	.file	149 "/mnt/disk/jenkins/ci/workspace/chipset_pipeline_release/opensource/component_code/vendor/huawei/extra/build/build_script/kirin_kernel_release" "kernel/include/linux/uprobes.h"
	.file	150 "/mnt/disk/jenkins/ci/workspace/chipset_pipeline_release/opensource/component_code/vendor/huawei/extra/build/build_script/kirin_kernel_release" "kernel/include/linux/xreclaimer_types.h"
	.file	151 "/mnt/disk/jenkins/ci/workspace/chipset_pipeline_release/opensource/component_code/vendor/huawei/extra/build/build_script/kirin_kernel_release" "kernel/include/linux/restart_block.h"
	.file	152 "/mnt/disk/jenkins/ci/workspace/chipset_pipeline_release/opensource/component_code/vendor/huawei/extra/build/build_script/kirin_kernel_release" "kernel/include/vdso/time32.h"
	.file	153 "/mnt/disk/jenkins/ci/workspace/chipset_pipeline_release/opensource/component_code/vendor/huawei/extra/build/build_script/kirin_kernel_release" "kernel/include/linux/posix-timers.h"
	.file	154 "/mnt/disk/jenkins/ci/workspace/chipset_pipeline_release/opensource/component_code/vendor/huawei/extra/build/build_script/kirin_kernel_release" "kernel/include/linux/nsproxy.h"
	.file	155 "/mnt/disk/jenkins/ci/workspace/chipset_pipeline_release/opensource/component_code/vendor/huawei/extra/build/build_script/kirin_kernel_release" "kernel/include/linux/cgroup.h"
	.file	156 "/mnt/disk/jenkins/ci/workspace/chipset_pipeline_release/opensource/component_code/vendor/huawei/extra/build/build_script/kirin_kernel_release" "kernel/include/linux/sched/signal.h"
	.file	157 "/mnt/disk/jenkins/ci/workspace/chipset_pipeline_release/opensource/component_code/vendor/huawei/extra/build/build_script/kirin_kernel_release" "kernel/include/linux/signal_types.h"
	.file	158 "/mnt/disk/jenkins/ci/workspace/chipset_pipeline_release/opensource/component_code/vendor/huawei/extra/build/build_script/kirin_kernel_release" "kernel/include/uapi/asm-generic/signal.h"
	.file	159 "/mnt/disk/jenkins/ci/workspace/chipset_pipeline_release/opensource/component_code/vendor/huawei/extra/build/build_script/kirin_kernel_release" "kernel/include/linux/task_io_accounting.h"
	.file	160 "/mnt/disk/jenkins/ci/workspace/chipset_pipeline_release/opensource/component_code/vendor/huawei/extra/build/build_script/kirin_kernel_release" "kernel/include/uapi/linux/resource.h"
	.file	161 "/mnt/disk/jenkins/ci/workspace/chipset_pipeline_release/opensource/component_code/vendor/huawei/extra/build/build_script/kirin_kernel_release" "kernel/include/uapi/linux/taskstats.h"
	.file	162 "/mnt/disk/jenkins/ci/workspace/chipset_pipeline_release/opensource/component_code/vendor/huawei/extra/build/build_script/kirin_kernel_release" "kernel/include/uapi/asm-generic/signal-defs.h"
	.file	163 "/mnt/disk/jenkins/ci/workspace/chipset_pipeline_release/opensource/component_code/vendor/huawei/extra/build/build_script/kirin_kernel_release" "kernel/include/linux/seccomp.h"
	.file	164 "/mnt/disk/jenkins/ci/workspace/chipset_pipeline_release/opensource/component_code/vendor/huawei/extra/build/build_script/kirin_kernel_release" "kernel/include/uapi/asm-generic/siginfo.h"
	.file	165 "/mnt/disk/jenkins/ci/workspace/chipset_pipeline_release/opensource/component_code/vendor/huawei/extra/build/build_script/kirin_kernel_release" "kernel/include/linux/nodemask.h"
	.file	166 "/mnt/disk/jenkins/ci/workspace/chipset_pipeline_release/opensource/component_code/vendor/huawei/extra/build/build_script/kirin_kernel_release" "kernel/include/asm-generic/compat.h"
	.file	167 "/mnt/disk/jenkins/ci/workspace/chipset_pipeline_release/opensource/component_code/vendor/huawei/extra/build/build_script/kirin_kernel_release" "kernel/include/linux/compat.h"
	.file	168 "/mnt/disk/jenkins/ci/workspace/chipset_pipeline_release/opensource/component_code/vendor/huawei/extra/build/build_script/kirin_kernel_release" "kernel/arch/arm64/include/asm/processor.h"
	.file	169 "/mnt/disk/jenkins/ci/workspace/chipset_pipeline_release/opensource/component_code/vendor/huawei/extra/build/build_script/kirin_kernel_release" "kernel/drivers/scsi/ufs/ufs_vendor_mode.c"
	.file	170 "/mnt/disk/jenkins/ci/workspace/chipset_pipeline_release/opensource/component_code/vendor/huawei/extra/build/build_script/kirin_kernel_release" "kernel/arch/arm64/include/uapi/asm/ptrace.h"
	.file	171 "/mnt/disk/jenkins/ci/workspace/chipset_pipeline_release/opensource/component_code/vendor/huawei/extra/build/build_script/kirin_kernel_release" "kernel/drivers/scsi/ufs/ufs.h"
	.file	172 "/mnt/disk/jenkins/ci/workspace/chipset_pipeline_release/opensource/component_code/vendor/huawei/extra/build/build_script/kirin_kernel_release" "kernel/drivers/scsi/ufs/ufshcd.h"
	.file	173 "/mnt/disk/jenkins/ci/workspace/chipset_pipeline_release/opensource/component_code/vendor/huawei/extra/build/build_script/kirin_kernel_release" "kernel/drivers/scsi/ufs/ufshci.h"
	.file	174 "/mnt/disk/jenkins/ci/workspace/chipset_pipeline_release/opensource/component_code/vendor/huawei/extra/build/build_script/kirin_kernel_release" "kernel/include/linux/devfreq.h"
	.file	175 "/mnt/disk/jenkins/ci/workspace/chipset_pipeline_release/opensource/component_code/vendor/huawei/extra/build/build_script/kirin_kernel_release" "kernel/drivers/scsi/ufs/ufs_func.h"
	.file	176 "/mnt/disk/jenkins/ci/workspace/chipset_pipeline_release/opensource/component_code/vendor/huawei/extra/build/build_script/kirin_kernel_release" "kernel/include/linux/slab.h"
	.file	177 "/mnt/disk/jenkins/ci/workspace/chipset_pipeline_release/opensource/component_code/vendor/huawei/extra/build/build_script/kirin_kernel_release" "kernel/include/linux/stddef.h"
	.globl	ufs_ioctl_vendor_package        // -- Begin function ufs_ioctl_vendor_package
	.p2align	2
	.type	ufs_ioctl_vendor_package,@function
ufs_ioctl_vendor_package:               // @ufs_ioctl_vendor_package
.Lfunc_begin0:
	.loc	169 78 0                        // kernel/drivers/scsi/ufs/ufs_vendor_mode.c:78:0
	.cfi_sections .debug_frame
	.cfi_startproc
// %bb.0:
	//DEBUG_VALUE: ufs_ioctl_vendor_package:hba <- $x0
	//DEBUG_VALUE: ufs_ioctl_vendor_package:ufs_vendor_ioctl_state_p <- $x1
	//DEBUG_VALUE: ufs_ioctl_vendor_package:buffer <- $x2
	sub	sp, sp, #80                     // =80
	stp	x29, x30, [sp, #16]             // 16-byte Folded Spill
	stp	x24, x23, [sp, #32]             // 16-byte Folded Spill
	stp	x22, x21, [sp, #48]             // 16-byte Folded Spill
	stp	x20, x19, [sp, #64]             // 16-byte Folded Spill
	add	x29, sp, #16                    // =16
	.cfi_def_cfa w29, 64
	.cfi_offset w19, -8
	.cfi_offset w20, -16
	.cfi_offset w21, -24
	.cfi_offset w22, -32
	.cfi_offset w23, -40
	.cfi_offset w24, -48
	.cfi_offset w30, -56
	.cfi_offset w29, -64
	mov	x20, x0
.Ltmp0:
	//DEBUG_VALUE: ufs_ioctl_vendor_package:hba <- $x20
	//DEBUG_VALUE: ufs_ioctl_vendor_package:err <- 0
	//DEBUG_VALUE: ufs_ioctl_vendor_package:buffer <- $x2
	//DEBUG_VALUE: ufs_ioctl_vendor_package:ufs_vendor_ioctl_state_p <- $x1
	//DEBUG_VALUE: ufs_ioctl_vendor_package:hba <- $x20
	.loc	169 81 6 prologue_end           // kernel/drivers/scsi/ufs/ufs_vendor_mode.c:81:6
	cbnz	x1, .LBB0_2
.Ltmp1:
// %bb.1:
	//DEBUG_VALUE: ufs_ioctl_vendor_package:hba <- $x20
	//DEBUG_VALUE: ufs_ioctl_vendor_package:buffer <- $x2
	//DEBUG_VALUE: ufs_ioctl_vendor_package:ufs_vendor_ioctl_state_p <- $x1
	//DEBUG_VALUE: ufs_ioctl_vendor_package:err <- 0
	.loc	169 82 3                        // kernel/drivers/scsi/ufs/ufs_vendor_mode.c:82:3
	ldr	x0, [x20, #15352]
	adrp	x1, .L.str
.Ltmp2:
	//DEBUG_VALUE: ufs_ioctl_vendor_package:ufs_vendor_ioctl_state_p <- [DW_OP_LLVM_entry_value 1] $x1
	add	x1, x1, :lo12:.L.str
	bl	_dev_err
.Ltmp3:
	//DEBUG_VALUE: ufs_ioctl_vendor_package:buffer <- [DW_OP_LLVM_entry_value 1] $x2
	.loc	169 0 3 is_stmt 0               // kernel/drivers/scsi/ufs/ufs_vendor_mode.c:0:3
	mov	w20, #-22
.Ltmp4:
	b	.LBB0_27
.Ltmp5:
.LBB0_2:
	//DEBUG_VALUE: ufs_ioctl_vendor_package:hba <- $x20
	//DEBUG_VALUE: ufs_ioctl_vendor_package:buffer <- $x2
	//DEBUG_VALUE: ufs_ioctl_vendor_package:ufs_vendor_ioctl_state_p <- $x1
	//DEBUG_VALUE: ufs_ioctl_vendor_package:err <- 0
	mov	x21, x2
.Ltmp6:
	//DEBUG_VALUE: ufs_ioctl_vendor_package:buffer <- $x21
	//DEBUG_VALUE: ufs_ioctl_vendor_package:ufs_vendor_ioctl_state_p <- $x1
	.loc	169 85 6 is_stmt 1              // kernel/drivers/scsi/ufs/ufs_vendor_mode.c:85:6
	cbnz	x2, .LBB0_4
.Ltmp7:
// %bb.3:
	//DEBUG_VALUE: ufs_ioctl_vendor_package:buffer <- $x21
	//DEBUG_VALUE: ufs_ioctl_vendor_package:hba <- $x20
	//DEBUG_VALUE: ufs_ioctl_vendor_package:ufs_vendor_ioctl_state_p <- $x1
	//DEBUG_VALUE: ufs_ioctl_vendor_package:err <- 0
	.loc	169 86 3                        // kernel/drivers/scsi/ufs/ufs_vendor_mode.c:86:3
	ldr	x0, [x20, #15352]
	adrp	x1, .L.str.1
.Ltmp8:
	//DEBUG_VALUE: ufs_ioctl_vendor_package:ufs_vendor_ioctl_state_p <- [DW_OP_LLVM_entry_value 1] $x1
	adrp	x2, .L__func__.ufs_ioctl_vendor_package
	add	x1, x1, :lo12:.L.str.1
	add	x2, x2, :lo12:.L__func__.ufs_ioctl_vendor_package
	bl	_dev_err
.Ltmp9:
	.loc	169 0 3 is_stmt 0               // kernel/drivers/scsi/ufs/ufs_vendor_mode.c:0:3
	mov	w20, #-22
.Ltmp10:
	b	.LBB0_27
.Ltmp11:
.LBB0_4:
	//DEBUG_VALUE: ufs_ioctl_vendor_package:buffer <- $x21
	//DEBUG_VALUE: ufs_ioctl_vendor_package:hba <- $x20
	//DEBUG_VALUE: ufs_ioctl_vendor_package:ufs_vendor_ioctl_state_p <- $x1
	//DEBUG_VALUE: ufs_ioctl_vendor_package:err <- 0
	.loc	169 89 2 is_stmt 1              // kernel/drivers/scsi/ufs/ufs_vendor_mode.c:89:2
	adrp	x0, s_health_info_lock
	add	x0, x0, :lo12:s_health_info_lock
	mov	x19, x1
.Ltmp12:
	//DEBUG_VALUE: ufs_ioctl_vendor_package:ufs_vendor_ioctl_state_p <- $x19
	//DEBUG_VALUE: ufs_ioctl_vendor_package:ufs_vendor_ioctl_state_p <- $x19
	bl	mutex_lock
.Ltmp13:
	.loc	169 90 2                        // kernel/drivers/scsi/ufs/ufs_vendor_mode.c:90:2
	ldr	x0, [x20, #15352]
	adrp	x1, .L.str.2
	adrp	x2, .L__func__.ufs_ioctl_vendor_package
	add	x1, x1, :lo12:.L.str.2
	add	x2, x2, :lo12:.L__func__.ufs_ioctl_vendor_package
	bl	_dev_info
.Ltmp14:
	.loc	169 91 32                       // kernel/drivers/scsi/ufs/ufs_vendor_mode.c:91:32
	ldr	w3, [x19, #8]
.Ltmp15:
	.loc	169 91 6 is_stmt 0              // kernel/drivers/scsi/ufs/ufs_vendor_mode.c:91:6
	cmp	w3, #10                         // =10
	b.ge	.LBB0_22
.Ltmp16:
// %bb.5:
	//DEBUG_VALUE: ufs_ioctl_vendor_package:buffer <- $x21
	//DEBUG_VALUE: ufs_ioctl_vendor_package:hba <- $x20
	//DEBUG_VALUE: ufs_ioctl_vendor_package:ufs_vendor_ioctl_state_p <- $x19
	//DEBUG_VALUE: ufs_ioctl_vendor_package:err <- 0
	.loc	169 98 33 is_stmt 1             // kernel/drivers/scsi/ufs/ufs_vendor_mode.c:98:33
	ldr	x22, [x19]
.Ltmp17:
	.loc	169 98 6 is_stmt 0              // kernel/drivers/scsi/ufs/ufs_vendor_mode.c:98:6
	cbnz	x22, .LBB0_8
.Ltmp18:
// %bb.6:
	//DEBUG_VALUE: ufs_ioctl_vendor_package:buffer <- $x21
	//DEBUG_VALUE: ufs_ioctl_vendor_package:hba <- $x20
	//DEBUG_VALUE: ufs_ioctl_vendor_package:ufs_vendor_ioctl_state_p <- $x19
	//DEBUG_VALUE: ufs_ioctl_vendor_package:err <- 0
	//DEBUG_VALUE: kzalloc:size <- 320
	//DEBUG_VALUE: kzalloc:flags <- 3264
	//DEBUG_VALUE: kmalloc:size <- 320
	//DEBUG_VALUE: kmalloc:flags <- 3520
	//DEBUG_VALUE: index <- undef
	.loc	176 566 5 is_stmt 1             // kernel/include/linux/slab.h:566:5
	adrp	x8, kmalloc_caches+72
	ldr	x0, [x8, :lo12:kmalloc_caches+72]
	.loc	176 565 10                      // kernel/include/linux/slab.h:565:10
	mov	w1, #3520
	mov	w2, #320
	bl	kmem_cache_alloc_trace
.Ltmp19:
	.loc	169 99 40                       // kernel/drivers/scsi/ufs/ufs_vendor_mode.c:99:40
	str	x0, [x19]
	.loc	169 103 7                       // kernel/drivers/scsi/ufs/ufs_vendor_mode.c:103:7
	cbz	x0, .LBB0_23
.Ltmp20:
// %bb.7:
	//DEBUG_VALUE: ufs_ioctl_vendor_package:buffer <- $x21
	//DEBUG_VALUE: ufs_ioctl_vendor_package:hba <- $x20
	//DEBUG_VALUE: ufs_ioctl_vendor_package:ufs_vendor_ioctl_state_p <- $x19
	//DEBUG_VALUE: ufs_ioctl_vendor_package:err <- 0
	.loc	169 0 0 is_stmt 0               // kernel/drivers/scsi/ufs/ufs_vendor_mode.c:0:0
	mov	x22, x0
.Ltmp21:
	.loc	169 45 30 is_stmt 1             // kernel/drivers/scsi/ufs/ufs_vendor_mode.c:45:30
	mov	w3, wzr
.Ltmp22:
	.loc	169 109 39                      // kernel/drivers/scsi/ufs/ufs_vendor_mode.c:109:39
	str	wzr, [x19, #8]
.Ltmp23:
.LBB0_8:
	//DEBUG_VALUE: ufs_ioctl_vendor_package:buffer <- $x21
	//DEBUG_VALUE: ufs_ioctl_vendor_package:hba <- $x20
	//DEBUG_VALUE: ufs_ioctl_vendor_package:ufs_vendor_ioctl_state_p <- $x19
	//DEBUG_VALUE: ufs_ioctl_vendor_package:err <- 0
	//DEBUG_VALUE: ufs_get_user_cmd:ufs_vendor_ioctl_state_p <- $x19
	//DEBUG_VALUE: ufs_get_user_cmd:hba <- $x20
	//DEBUG_VALUE: ufs_get_user_cmd:buffer <- $x21
	//DEBUG_VALUE: ufs_get_user_cmd:data_flag <- 0
	.loc	169 41 7                        // kernel/drivers/scsi/ufs/ufs_vendor_mode.c:41:7
	sturb	wzr, [x29, #-4]
.Ltmp24:
	.file	178 "/mnt/disk/jenkins/ci/workspace/chipset_pipeline_release/opensource/component_code/vendor/huawei/extra/build/build_script/kirin_kernel_release" "kernel/arch/arm64/include/asm/current.h"
	.loc	178 19 2                        // kernel/arch/arm64/include/asm/current.h:19:2
	//APP
	mrs	x23, SP_EL0
	//NO_APP
.Ltmp25:
	//DEBUG_VALUE: get_current:sp_el0 <- $x23
	//DEBUG_VALUE: get_current:sp_el0 <- $x23
	.file	179 "/mnt/disk/jenkins/ci/workspace/chipset_pipeline_release/opensource/component_code/vendor/huawei/extra/build/build_script/kirin_kernel_release" "kernel/arch/arm64/include/asm/uaccess.h"
	.loc	179 76 35                       // kernel/arch/arm64/include/asm/uaccess.h:76:35
	ldrb	w10, [x23, #46]
.Ltmp26:
	.loc	179 68 52                       // kernel/arch/arm64/include/asm/uaccess.h:68:52
	ldr	x9, [x23, #8]
.Ltmp27:
	//DEBUG_VALUE: __range_ok:limit <- $x9
	.loc	169 44 25                       // kernel/drivers/scsi/ufs/ufs_vendor_mode.c:44:25
	sxtw	x24, w3
	.loc	169 44 23 is_stmt 0             // kernel/drivers/scsi/ufs/ufs_vendor_mode.c:44:23
	add	x0, x22, x24, lsl #5
	lsl	x8, x21, #8
.Ltmp28:
	//DEBUG_VALUE: __range_ok:size <- 16
	//DEBUG_VALUE: __range_ok:addr <- $x21
	//DEBUG_VALUE: _copy_from_user:res <- 16
	//DEBUG_VALUE: _copy_from_user:n <- 16
	//DEBUG_VALUE: _copy_from_user:from <- $x21
	//DEBUG_VALUE: copy_from_user:n <- 16
	//DEBUG_VALUE: copy_from_user:from <- $x21
	//DEBUG_VALUE: _copy_from_user:to <- $x0
	//DEBUG_VALUE: copy_from_user:to <- $x0
	//DEBUG_VALUE: __range_ok:limit <- $x9
	.loc	179 76 35 is_stmt 1             // kernel/arch/arm64/include/asm/uaccess.h:76:35
	tbnz	w10, #5, .LBB0_10
.Ltmp29:
// %bb.9:
	//DEBUG_VALUE: copy_from_user:from <- $x21
	//DEBUG_VALUE: _copy_from_user:from <- $x21
	//DEBUG_VALUE: __range_ok:addr <- $x21
	//DEBUG_VALUE: ufs_get_user_cmd:buffer <- $x21
	//DEBUG_VALUE: ufs_ioctl_vendor_package:buffer <- $x21
	//DEBUG_VALUE: ufs_get_user_cmd:hba <- $x20
	//DEBUG_VALUE: ufs_ioctl_vendor_package:hba <- $x20
	//DEBUG_VALUE: ufs_get_user_cmd:ufs_vendor_ioctl_state_p <- $x19
	//DEBUG_VALUE: ufs_ioctl_vendor_package:ufs_vendor_ioctl_state_p <- $x19
	//DEBUG_VALUE: __range_ok:limit <- $x9
	//DEBUG_VALUE: copy_from_user:to <- $x0
	//DEBUG_VALUE: _copy_from_user:to <- $x0
	//DEBUG_VALUE: copy_from_user:n <- 16
	//DEBUG_VALUE: _copy_from_user:n <- 16
	//DEBUG_VALUE: _copy_from_user:res <- 16
	//DEBUG_VALUE: __range_ok:size <- 16
	//DEBUG_VALUE: ufs_get_user_cmd:data_flag <- 0
	//DEBUG_VALUE: ufs_ioctl_vendor_package:err <- 0
	//DEBUG_VALUE: get_current:sp_el0 <- $x23
	//DEBUG_VALUE: test_ti_thread_flag:flag <- 26
	//DEBUG_VALUE: test_bit:nr <- 26
	//DEBUG_VALUE: test_bit:addr <- $x23
	.file	180 "/mnt/disk/jenkins/ci/workspace/chipset_pipeline_release/opensource/component_code/vendor/huawei/extra/build/build_script/kirin_kernel_release" "kernel/include/asm-generic/bitops/non-atomic.h"
	.loc	180 106 16                      // kernel/include/asm-generic/bitops/non-atomic.h:106:16
	ldr	x11, [x23]
.Ltmp30:
	//DEBUG_VALUE: test_ti_thread_flag:ti <- $x23
	.loc	180 0 16 is_stmt 0              // kernel/include/asm-generic/bitops/non-atomic.h:0:16
	mov	x10, x21
.Ltmp31:
	.loc	179 75 6 is_stmt 1              // kernel/arch/arm64/include/asm/uaccess.h:75:6
	tbz	w11, #26, .LBB0_11
.Ltmp32:
.LBB0_10:
	//DEBUG_VALUE: copy_from_user:from <- $x21
	//DEBUG_VALUE: _copy_from_user:from <- $x21
	//DEBUG_VALUE: __range_ok:addr <- $x21
	//DEBUG_VALUE: ufs_get_user_cmd:buffer <- $x21
	//DEBUG_VALUE: ufs_ioctl_vendor_package:buffer <- $x21
	//DEBUG_VALUE: ufs_get_user_cmd:hba <- $x20
	//DEBUG_VALUE: ufs_ioctl_vendor_package:hba <- $x20
	//DEBUG_VALUE: ufs_get_user_cmd:ufs_vendor_ioctl_state_p <- $x19
	//DEBUG_VALUE: ufs_ioctl_vendor_package:ufs_vendor_ioctl_state_p <- $x19
	//DEBUG_VALUE: __range_ok:limit <- $x9
	//DEBUG_VALUE: copy_from_user:to <- $x0
	//DEBUG_VALUE: _copy_from_user:to <- $x0
	//DEBUG_VALUE: copy_from_user:n <- 16
	//DEBUG_VALUE: _copy_from_user:n <- 16
	//DEBUG_VALUE: _copy_from_user:res <- 16
	//DEBUG_VALUE: __range_ok:size <- 16
	//DEBUG_VALUE: ufs_get_user_cmd:data_flag <- 0
	//DEBUG_VALUE: ufs_ioctl_vendor_package:err <- 0
	//DEBUG_VALUE: __addr <- $x21
	//DEBUG_VALUE: sign_extend64:value <- $x21
	//DEBUG_VALUE: sign_extend64:index <- 55
	//DEBUG_VALUE: sign_extend64:shift <- 8
	.loc	179 77 10                       // kernel/arch/arm64/include/asm/uaccess.h:77:10
	and	x10, x21, x8, asr #8
.Ltmp33:
	//DEBUG_VALUE: __addr <- $x10
	//DEBUG_VALUE: __range_ok:addr <- undef
.LBB0_11:
	//DEBUG_VALUE: copy_from_user:from <- $x21
	//DEBUG_VALUE: _copy_from_user:from <- $x21
	//DEBUG_VALUE: ufs_get_user_cmd:buffer <- $x21
	//DEBUG_VALUE: ufs_ioctl_vendor_package:buffer <- $x21
	//DEBUG_VALUE: ufs_get_user_cmd:hba <- $x20
	//DEBUG_VALUE: ufs_ioctl_vendor_package:hba <- $x20
	//DEBUG_VALUE: ufs_get_user_cmd:ufs_vendor_ioctl_state_p <- $x19
	//DEBUG_VALUE: ufs_ioctl_vendor_package:ufs_vendor_ioctl_state_p <- $x19
	//DEBUG_VALUE: __range_ok:limit <- $x9
	//DEBUG_VALUE: copy_from_user:to <- $x0
	//DEBUG_VALUE: _copy_from_user:to <- $x0
	//DEBUG_VALUE: copy_from_user:n <- 16
	//DEBUG_VALUE: _copy_from_user:n <- 16
	//DEBUG_VALUE: _copy_from_user:res <- 16
	//DEBUG_VALUE: __range_ok:size <- 16
	//DEBUG_VALUE: ufs_get_user_cmd:data_flag <- 0
	//DEBUG_VALUE: ufs_ioctl_vendor_package:err <- 0
	//DEBUG_VALUE: __range_ok:addr <- $x10
	.loc	179 80 2                        // kernel/arch/arm64/include/asm/uaccess.h:80:2
	//APP
	adds	x10, x10, #16                   // =16
	csel	x9, xzr, x9, hi
	csinv	x10, x10, xzr, lo
	sbcs	xzr, x10, x9
	cset	x10, ls

	//NO_APP
.Ltmp34:
	//DEBUG_VALUE: __range_ok:ret <- $x10
	//DEBUG_VALUE: __range_ok:limit <- undef
	.file	181 "/mnt/disk/jenkins/ci/workspace/chipset_pipeline_release/opensource/component_code/vendor/huawei/extra/build/build_script/kirin_kernel_release" "kernel/include/linux/uaccess.h"
	.loc	181 157 6                       // kernel/include/linux/uaccess.h:157:6
	cbz	x10, .LBB0_28
.Ltmp35:
// %bb.12:
	//DEBUG_VALUE: copy_from_user:from <- $x21
	//DEBUG_VALUE: _copy_from_user:from <- $x21
	//DEBUG_VALUE: ufs_get_user_cmd:buffer <- $x21
	//DEBUG_VALUE: ufs_ioctl_vendor_package:buffer <- $x21
	//DEBUG_VALUE: ufs_get_user_cmd:hba <- $x20
	//DEBUG_VALUE: ufs_ioctl_vendor_package:hba <- $x20
	//DEBUG_VALUE: ufs_get_user_cmd:ufs_vendor_ioctl_state_p <- $x19
	//DEBUG_VALUE: ufs_ioctl_vendor_package:ufs_vendor_ioctl_state_p <- $x19
	//DEBUG_VALUE: copy_from_user:to <- $x0
	//DEBUG_VALUE: _copy_from_user:to <- $x0
	//DEBUG_VALUE: copy_from_user:n <- 16
	//DEBUG_VALUE: _copy_from_user:n <- 16
	//DEBUG_VALUE: _copy_from_user:res <- 16
	//DEBUG_VALUE: ufs_get_user_cmd:data_flag <- 0
	//DEBUG_VALUE: ufs_ioctl_vendor_package:err <- 0
	.loc	179 277 2                       // kernel/arch/arm64/include/asm/uaccess.h:277:2
	//APP
.Ltmp36:
	nop
.Ltmp37:
	.section	.altinstructions,"a",@progbits
.Ltmp38:
	.word	.Ltmp36-.Ltmp38
.Ltmp40:
	.word	.Ltmp39-.Ltmp40
	.hword	10
	.byte	.Ltmp37-.Ltmp36
	.byte	.Ltmp41-.Ltmp39
	.text

	.text	1
.Ltmp39:
	.inst	0xd500409f

.Ltmp41:
.Ltmp42:
.org (.Ltmp42-(.Ltmp41-.Ltmp39))+(.Ltmp37-.Ltmp36), 0
.Ltmp43:
.org (.Ltmp43-(.Ltmp37-.Ltmp36))+(.Ltmp41-.Ltmp39), 0
	.text


	//NO_APP
.Ltmp44:
	//DEBUG_VALUE: get_current:sp_el0 <- $x23
	//DEBUG_VALUE: __uaccess_mask_ptr:ptr <- $x21
	.loc	179 294 43                      // kernel/arch/arm64/include/asm/uaccess.h:294:43
	ldr	x9, [x23, #8]
.Ltmp45:
	//DEBUG_VALUE: sign_extend64:shift <- 8
	//DEBUG_VALUE: sign_extend64:index <- 55
	//DEBUG_VALUE: sign_extend64:value <- $x21
	//DEBUG_VALUE: __addr <- $x21
	.loc	179 295 9                       // kernel/arch/arm64/include/asm/uaccess.h:295:9
	and	x8, x21, x8, asr #8
.Ltmp46:
	//DEBUG_VALUE: __addr <- $x8
	.loc	179 290 2                       // kernel/arch/arm64/include/asm/uaccess.h:290:2
	//APP
	bics	xzr, x8, x9
	csel	x1, x21, xzr, eq

	//NO_APP
.Ltmp47:
	//DEBUG_VALUE: __uaccess_mask_ptr:safe_ptr <- $x1
	.loc	179 298 2                       // kernel/arch/arm64/include/asm/uaccess.h:298:2
	//APP
	csdb
	//NO_APP
.Ltmp48:
	.loc	181 159 9                       // kernel/include/linux/uaccess.h:159:9
	mov	w2, #16
	bl	__arch_copy_from_user
.Ltmp49:
	//DEBUG_VALUE: __acfu_ret <- $x0
	//DEBUG_VALUE: _copy_from_user:res <- $x0
	//DEBUG_VALUE: copy_from_user:n <- $x0
	.loc	179 272 2                       // kernel/arch/arm64/include/asm/uaccess.h:272:2
	//APP
.Ltmp50:
	nop
.Ltmp51:
	.section	.altinstructions,"a",@progbits
.Ltmp52:
	.word	.Ltmp50-.Ltmp52
.Ltmp54:
	.word	.Ltmp53-.Ltmp54
	.hword	10
	.byte	.Ltmp51-.Ltmp50
	.byte	.Ltmp55-.Ltmp53
	.text

	.text	1
.Ltmp53:
	.inst	0xd500419f

.Ltmp55:
.Ltmp56:
.org (.Ltmp56-(.Ltmp55-.Ltmp53))+(.Ltmp51-.Ltmp50), 0
.Ltmp57:
.org (.Ltmp57-(.Ltmp51-.Ltmp50))+(.Ltmp55-.Ltmp53), 0
	.text


	//NO_APP
.Ltmp58:
	.loc	181 161 6                       // kernel/include/linux/uaccess.h:161:6
	cbnz	x0, .LBB0_29
.Ltmp59:
.LBB0_13:
	//DEBUG_VALUE: ufs_get_user_cmd:buffer <- $x21
	//DEBUG_VALUE: ufs_ioctl_vendor_package:buffer <- $x21
	//DEBUG_VALUE: ufs_get_user_cmd:hba <- $x20
	//DEBUG_VALUE: ufs_ioctl_vendor_package:hba <- $x20
	//DEBUG_VALUE: ufs_get_user_cmd:ufs_vendor_ioctl_state_p <- $x19
	//DEBUG_VALUE: ufs_ioctl_vendor_package:ufs_vendor_ioctl_state_p <- $x19
	//DEBUG_VALUE: ufs_get_user_cmd:data_flag <- 0
	//DEBUG_VALUE: ufs_ioctl_vendor_package:err <- 0
	.loc	179 76 35                       // kernel/arch/arm64/include/asm/uaccess.h:76:35
	ldrb	w11, [x23, #46]
.Ltmp60:
	.loc	179 68 52                       // kernel/arch/arm64/include/asm/uaccess.h:68:52
	ldr	x10, [x23, #8]
.Ltmp61:
	//DEBUG_VALUE: get_current:sp_el0 <- $x23
	//DEBUG_VALUE: __range_ok:limit <- $x10
	.loc	169 52 42                       // kernel/drivers/scsi/ufs/ufs_vendor_mode.c:52:42
	add	x8, x21, #16                    // =16
.Ltmp62:
	//DEBUG_VALUE: get_current:sp_el0 <- $x23
	//DEBUG_VALUE: ufs_get_user_cmd:data_flag <- [DW_OP_constu 4, DW_OP_minus, DW_OP_deref] $fp
	.loc	169 0 42 is_stmt 0              // kernel/drivers/scsi/ufs/ufs_vendor_mode.c:0:42
	lsl	x9, x8, #8
.Ltmp63:
	//DEBUG_VALUE: __range_ok:size <- 1
	//DEBUG_VALUE: _copy_from_user:res <- 1
	//DEBUG_VALUE: _copy_from_user:n <- 1
	//DEBUG_VALUE: _copy_from_user:to <- [DW_OP_constu 4, DW_OP_minus, DW_OP_stack_value] $fp
	//DEBUG_VALUE: copy_from_user:n <- 1
	//DEBUG_VALUE: copy_from_user:to <- [DW_OP_constu 4, DW_OP_minus, DW_OP_stack_value] $fp
	//DEBUG_VALUE: __range_ok:addr <- $x8
	//DEBUG_VALUE: _copy_from_user:from <- $x8
	//DEBUG_VALUE: copy_from_user:from <- $x8
	//DEBUG_VALUE: __range_ok:limit <- $x10
	.loc	179 76 35 is_stmt 1             // kernel/arch/arm64/include/asm/uaccess.h:76:35
	tbnz	w11, #5, .LBB0_15
.Ltmp64:
// %bb.14:
	//DEBUG_VALUE: ufs_get_user_cmd:buffer <- $x21
	//DEBUG_VALUE: ufs_ioctl_vendor_package:buffer <- $x21
	//DEBUG_VALUE: ufs_get_user_cmd:hba <- $x20
	//DEBUG_VALUE: ufs_ioctl_vendor_package:hba <- $x20
	//DEBUG_VALUE: ufs_get_user_cmd:ufs_vendor_ioctl_state_p <- $x19
	//DEBUG_VALUE: ufs_ioctl_vendor_package:ufs_vendor_ioctl_state_p <- $x19
	//DEBUG_VALUE: __range_ok:limit <- $x10
	//DEBUG_VALUE: copy_from_user:from <- $x8
	//DEBUG_VALUE: _copy_from_user:from <- $x8
	//DEBUG_VALUE: __range_ok:addr <- $x8
	//DEBUG_VALUE: copy_from_user:to <- [DW_OP_constu 4, DW_OP_minus, DW_OP_stack_value] $fp
	//DEBUG_VALUE: _copy_from_user:to <- [DW_OP_constu 4, DW_OP_minus, DW_OP_stack_value] $fp
	//DEBUG_VALUE: ufs_get_user_cmd:data_flag <- [DW_OP_constu 4, DW_OP_minus, DW_OP_deref] $fp
	//DEBUG_VALUE: copy_from_user:n <- 1
	//DEBUG_VALUE: _copy_from_user:n <- 1
	//DEBUG_VALUE: _copy_from_user:res <- 1
	//DEBUG_VALUE: __range_ok:size <- 1
	//DEBUG_VALUE: ufs_ioctl_vendor_package:err <- 0
	//DEBUG_VALUE: get_current:sp_el0 <- $x23
	//DEBUG_VALUE: test_ti_thread_flag:flag <- 26
	//DEBUG_VALUE: test_bit:nr <- 26
	//DEBUG_VALUE: test_bit:addr <- $x23
	.loc	180 106 16                      // kernel/include/asm-generic/bitops/non-atomic.h:106:16
	ldr	x12, [x23]
.Ltmp65:
	//DEBUG_VALUE: test_ti_thread_flag:ti <- $x23
	.loc	180 0 16 is_stmt 0              // kernel/include/asm-generic/bitops/non-atomic.h:0:16
	mov	x11, x8
.Ltmp66:
	.loc	179 75 6 is_stmt 1              // kernel/arch/arm64/include/asm/uaccess.h:75:6
	tbz	w12, #26, .LBB0_16
.Ltmp67:
.LBB0_15:
	//DEBUG_VALUE: ufs_get_user_cmd:buffer <- $x21
	//DEBUG_VALUE: ufs_ioctl_vendor_package:buffer <- $x21
	//DEBUG_VALUE: ufs_get_user_cmd:hba <- $x20
	//DEBUG_VALUE: ufs_ioctl_vendor_package:hba <- $x20
	//DEBUG_VALUE: ufs_get_user_cmd:ufs_vendor_ioctl_state_p <- $x19
	//DEBUG_VALUE: ufs_ioctl_vendor_package:ufs_vendor_ioctl_state_p <- $x19
	//DEBUG_VALUE: __range_ok:limit <- $x10
	//DEBUG_VALUE: copy_from_user:from <- $x8
	//DEBUG_VALUE: _copy_from_user:from <- $x8
	//DEBUG_VALUE: __range_ok:addr <- $x8
	//DEBUG_VALUE: copy_from_user:to <- [DW_OP_constu 4, DW_OP_minus, DW_OP_stack_value] $fp
	//DEBUG_VALUE: _copy_from_user:to <- [DW_OP_constu 4, DW_OP_minus, DW_OP_stack_value] $fp
	//DEBUG_VALUE: ufs_get_user_cmd:data_flag <- [DW_OP_constu 4, DW_OP_minus, DW_OP_deref] $fp
	//DEBUG_VALUE: copy_from_user:n <- 1
	//DEBUG_VALUE: _copy_from_user:n <- 1
	//DEBUG_VALUE: _copy_from_user:res <- 1
	//DEBUG_VALUE: __range_ok:size <- 1
	//DEBUG_VALUE: ufs_ioctl_vendor_package:err <- 0
	//DEBUG_VALUE: __addr <- $x8
	//DEBUG_VALUE: sign_extend64:value <- $x8
	//DEBUG_VALUE: sign_extend64:index <- 55
	//DEBUG_VALUE: sign_extend64:shift <- 8
	.loc	179 77 10                       // kernel/arch/arm64/include/asm/uaccess.h:77:10
	and	x11, x8, x9, asr #8
.Ltmp68:
	//DEBUG_VALUE: __addr <- $x11
	//DEBUG_VALUE: __range_ok:addr <- undef
.LBB0_16:
	//DEBUG_VALUE: ufs_get_user_cmd:buffer <- $x21
	//DEBUG_VALUE: ufs_ioctl_vendor_package:buffer <- $x21
	//DEBUG_VALUE: ufs_get_user_cmd:hba <- $x20
	//DEBUG_VALUE: ufs_ioctl_vendor_package:hba <- $x20
	//DEBUG_VALUE: ufs_get_user_cmd:ufs_vendor_ioctl_state_p <- $x19
	//DEBUG_VALUE: ufs_ioctl_vendor_package:ufs_vendor_ioctl_state_p <- $x19
	//DEBUG_VALUE: __range_ok:limit <- $x10
	//DEBUG_VALUE: copy_from_user:from <- $x8
	//DEBUG_VALUE: _copy_from_user:from <- $x8
	//DEBUG_VALUE: copy_from_user:to <- [DW_OP_constu 4, DW_OP_minus, DW_OP_stack_value] $fp
	//DEBUG_VALUE: _copy_from_user:to <- [DW_OP_constu 4, DW_OP_minus, DW_OP_stack_value] $fp
	//DEBUG_VALUE: ufs_get_user_cmd:data_flag <- [DW_OP_constu 4, DW_OP_minus, DW_OP_deref] $fp
	//DEBUG_VALUE: copy_from_user:n <- 1
	//DEBUG_VALUE: _copy_from_user:n <- 1
	//DEBUG_VALUE: _copy_from_user:res <- 1
	//DEBUG_VALUE: __range_ok:size <- 1
	//DEBUG_VALUE: ufs_ioctl_vendor_package:err <- 0
	//DEBUG_VALUE: __range_ok:addr <- $x11
	.loc	179 80 2                        // kernel/arch/arm64/include/asm/uaccess.h:80:2
	//APP
	adds	x11, x11, #1                    // =1
	csel	x10, xzr, x10, hi
	csinv	x11, x11, xzr, lo
	sbcs	xzr, x11, x10
	cset	x11, ls

	//NO_APP
.Ltmp69:
	//DEBUG_VALUE: __range_ok:ret <- $x11
	//DEBUG_VALUE: __range_ok:limit <- undef
	.loc	181 157 6                       // kernel/include/linux/uaccess.h:157:6
	cbz	x11, .LBB0_31
.Ltmp70:
// %bb.17:
	//DEBUG_VALUE: ufs_get_user_cmd:buffer <- $x21
	//DEBUG_VALUE: ufs_ioctl_vendor_package:buffer <- $x21
	//DEBUG_VALUE: ufs_get_user_cmd:hba <- $x20
	//DEBUG_VALUE: ufs_ioctl_vendor_package:hba <- $x20
	//DEBUG_VALUE: ufs_get_user_cmd:ufs_vendor_ioctl_state_p <- $x19
	//DEBUG_VALUE: ufs_ioctl_vendor_package:ufs_vendor_ioctl_state_p <- $x19
	//DEBUG_VALUE: copy_from_user:from <- $x8
	//DEBUG_VALUE: _copy_from_user:from <- $x8
	//DEBUG_VALUE: copy_from_user:to <- [DW_OP_constu 4, DW_OP_minus, DW_OP_stack_value] $fp
	//DEBUG_VALUE: _copy_from_user:to <- [DW_OP_constu 4, DW_OP_minus, DW_OP_stack_value] $fp
	//DEBUG_VALUE: ufs_get_user_cmd:data_flag <- [DW_OP_constu 4, DW_OP_minus, DW_OP_deref] $fp
	//DEBUG_VALUE: copy_from_user:n <- 1
	//DEBUG_VALUE: _copy_from_user:n <- 1
	//DEBUG_VALUE: _copy_from_user:res <- 1
	//DEBUG_VALUE: ufs_ioctl_vendor_package:err <- 0
	.loc	179 277 2                       // kernel/arch/arm64/include/asm/uaccess.h:277:2
	//APP
.Ltmp71:
	nop
.Ltmp72:
	.section	.altinstructions,"a",@progbits
.Ltmp73:
	.word	.Ltmp71-.Ltmp73
.Ltmp75:
	.word	.Ltmp74-.Ltmp75
	.hword	10
	.byte	.Ltmp72-.Ltmp71
	.byte	.Ltmp76-.Ltmp74
	.text

	.text	1
.Ltmp74:
	.inst	0xd500409f

.Ltmp76:
.Ltmp77:
.org (.Ltmp77-(.Ltmp76-.Ltmp74))+(.Ltmp72-.Ltmp71), 0
.Ltmp78:
.org (.Ltmp78-(.Ltmp72-.Ltmp71))+(.Ltmp76-.Ltmp74), 0
	.text


	//NO_APP
.Ltmp79:
	//DEBUG_VALUE: get_current:sp_el0 <- $x23
	//DEBUG_VALUE: __uaccess_mask_ptr:ptr <- $x8
	.loc	179 294 43                      // kernel/arch/arm64/include/asm/uaccess.h:294:43
	ldr	x10, [x23, #8]
.Ltmp80:
	//DEBUG_VALUE: sign_extend64:shift <- 8
	//DEBUG_VALUE: sign_extend64:index <- 55
	//DEBUG_VALUE: sign_extend64:value <- $x8
	//DEBUG_VALUE: __addr <- $x8
	.loc	179 295 9                       // kernel/arch/arm64/include/asm/uaccess.h:295:9
	and	x9, x8, x9, asr #8
.Ltmp81:
	//DEBUG_VALUE: __addr <- $x9
	.loc	179 290 2                       // kernel/arch/arm64/include/asm/uaccess.h:290:2
	//APP
	bics	xzr, x9, x10
	csel	x1, x8, xzr, eq

	//NO_APP
.Ltmp82:
	//DEBUG_VALUE: __uaccess_mask_ptr:safe_ptr <- $x1
	.loc	179 298 2                       // kernel/arch/arm64/include/asm/uaccess.h:298:2
	//APP
	csdb
	//NO_APP
.Ltmp83:
	.loc	181 159 9                       // kernel/include/linux/uaccess.h:159:9
	sub	x0, x29, #4                     // =4
	mov	w2, #1
	sub	x22, x29, #4                    // =4
	bl	__arch_copy_from_user
.Ltmp84:
	//DEBUG_VALUE: __acfu_ret <- $x0
	//DEBUG_VALUE: _copy_from_user:res <- $x0
	//DEBUG_VALUE: copy_from_user:n <- $x0
	.loc	179 272 2                       // kernel/arch/arm64/include/asm/uaccess.h:272:2
	//APP
.Ltmp85:
	nop
.Ltmp86:
	.section	.altinstructions,"a",@progbits
.Ltmp87:
	.word	.Ltmp85-.Ltmp87
.Ltmp89:
	.word	.Ltmp88-.Ltmp89
	.hword	10
	.byte	.Ltmp86-.Ltmp85
	.byte	.Ltmp90-.Ltmp88
	.text

	.text	1
.Ltmp88:
	.inst	0xd500419f

.Ltmp90:
.Ltmp91:
.org (.Ltmp91-(.Ltmp90-.Ltmp88))+(.Ltmp86-.Ltmp85), 0
.Ltmp92:
.org (.Ltmp92-(.Ltmp86-.Ltmp85))+(.Ltmp90-.Ltmp88), 0
	.text


	//NO_APP
.Ltmp93:
	.loc	181 161 6                       // kernel/include/linux/uaccess.h:161:6
	cbnz	x0, .LBB0_34
.Ltmp94:
.LBB0_18:
	//DEBUG_VALUE: ufs_get_user_cmd:hba <- $x20
	//DEBUG_VALUE: ufs_ioctl_vendor_package:hba <- $x20
	//DEBUG_VALUE: ufs_get_user_cmd:ufs_vendor_ioctl_state_p <- $x19
	//DEBUG_VALUE: ufs_ioctl_vendor_package:ufs_vendor_ioctl_state_p <- $x19
	//DEBUG_VALUE: ufs_get_user_cmd:data_flag <- [DW_OP_constu 4, DW_OP_minus, DW_OP_deref] $fp
	//DEBUG_VALUE: ufs_ioctl_vendor_package:err <- 0
	.loc	169 57 6                        // kernel/drivers/scsi/ufs/ufs_vendor_mode.c:57:6
	ldurb	w8, [x29, #-4]
.Ltmp95:
	//DEBUG_VALUE: ufs_get_user_cmd:data_flag <- $w8
	.loc	169 57 6 is_stmt 0              // kernel/drivers/scsi/ufs/ufs_vendor_mode.c:57:6
	cbz	w8, .LBB0_21
.Ltmp96:
// %bb.19:
	//DEBUG_VALUE: ufs_get_user_cmd:hba <- $x20
	//DEBUG_VALUE: ufs_ioctl_vendor_package:hba <- $x20
	//DEBUG_VALUE: ufs_get_user_cmd:ufs_vendor_ioctl_state_p <- $x19
	//DEBUG_VALUE: ufs_ioctl_vendor_package:ufs_vendor_ioctl_state_p <- $x19
	//DEBUG_VALUE: ufs_get_user_cmd:data_flag <- $w8
	//DEBUG_VALUE: ufs_ioctl_vendor_package:err <- 0
	//DEBUG_VALUE: kzalloc:size <- 4096
	//DEBUG_VALUE: kzalloc:flags <- 3264
	//DEBUG_VALUE: kmalloc:size <- 4096
	//DEBUG_VALUE: kmalloc:flags <- 3520
	//DEBUG_VALUE: index <- undef
	.loc	176 566 5 is_stmt 1             // kernel/include/linux/slab.h:566:5
	adrp	x8, kmalloc_caches+96
.Ltmp97:
	ldr	x0, [x8, :lo12:kmalloc_caches+96]
	.loc	176 565 10                      // kernel/include/linux/slab.h:565:10
	mov	w1, #3520
	mov	w2, #4096
	bl	kmem_cache_alloc_trace
.Ltmp98:
	.loc	169 59 6                        // kernel/drivers/scsi/ufs/ufs_vendor_mode.c:59:6
	ldr	x8, [x19]
	.loc	169 59 43 is_stmt 0             // kernel/drivers/scsi/ufs/ufs_vendor_mode.c:59:43
	ldrsw	x9, [x19, #8]
	.loc	169 60 5 is_stmt 1              // kernel/drivers/scsi/ufs/ufs_vendor_mode.c:60:5
	add	x8, x8, x9, lsl #5
	.loc	169 60 9 is_stmt 0              // kernel/drivers/scsi/ufs/ufs_vendor_mode.c:60:9
	str	x0, [x8, #24]
.Ltmp99:
	.loc	169 62 6 is_stmt 1              // kernel/drivers/scsi/ufs/ufs_vendor_mode.c:62:6
	ldr	x8, [x19]
	.loc	169 62 43 is_stmt 0             // kernel/drivers/scsi/ufs/ufs_vendor_mode.c:62:43
	ldrsw	x9, [x19, #8]
	.loc	169 63 5 is_stmt 1              // kernel/drivers/scsi/ufs/ufs_vendor_mode.c:63:5
	add	x8, x8, x9, lsl #5
	ldr	x9, [x8, #24]
.Ltmp100:
	.loc	169 61 7                        // kernel/drivers/scsi/ufs/ufs_vendor_mode.c:61:7
	cbz	x9, .LBB0_25
.Ltmp101:
// %bb.20:
	//DEBUG_VALUE: ufs_get_user_cmd:hba <- $x20
	//DEBUG_VALUE: ufs_ioctl_vendor_package:hba <- $x20
	//DEBUG_VALUE: ufs_get_user_cmd:ufs_vendor_ioctl_state_p <- $x19
	//DEBUG_VALUE: ufs_ioctl_vendor_package:ufs_vendor_ioctl_state_p <- $x19
	//DEBUG_VALUE: ufs_ioctl_vendor_package:err <- 0
	.loc	169 0 7 is_stmt 0               // kernel/drivers/scsi/ufs/ufs_vendor_mode.c:0:7
	mov	w9, #1
	.loc	169 68 15 is_stmt 1             // kernel/drivers/scsi/ufs/ufs_vendor_mode.c:68:15
	str	w9, [x8, #16]
.Ltmp102:
.LBB0_21:
	//DEBUG_VALUE: ufs_get_user_cmd:hba <- $x20
	//DEBUG_VALUE: ufs_ioctl_vendor_package:hba <- $x20
	//DEBUG_VALUE: ufs_get_user_cmd:ufs_vendor_ioctl_state_p <- $x19
	//DEBUG_VALUE: ufs_ioctl_vendor_package:ufs_vendor_ioctl_state_p <- $x19
	//DEBUG_VALUE: ufs_ioctl_vendor_package:err <- 0
	.loc	169 70 37                       // kernel/drivers/scsi/ufs/ufs_vendor_mode.c:70:37
	ldr	w8, [x19, #8]
.Ltmp103:
	.loc	169 0 0 is_stmt 0               // kernel/drivers/scsi/ufs/ufs_vendor_mode.c:0:0
	mov	w20, wzr
.Ltmp104:
	.loc	169 70 37                       // kernel/drivers/scsi/ufs/ufs_vendor_mode.c:70:37
	add	w8, w8, #1                      // =1
	str	w8, [x19, #8]
	b	.LBB0_26
.Ltmp105:
.LBB0_22:
	//DEBUG_VALUE: ufs_ioctl_vendor_package:buffer <- $x21
	//DEBUG_VALUE: ufs_ioctl_vendor_package:hba <- $x20
	//DEBUG_VALUE: ufs_ioctl_vendor_package:ufs_vendor_ioctl_state_p <- $x19
	//DEBUG_VALUE: ufs_ioctl_vendor_package:err <- 0
	.loc	169 93 3 is_stmt 1              // kernel/drivers/scsi/ufs/ufs_vendor_mode.c:93:3
	ldr	x0, [x20, #15352]
	adrp	x1, .L.str.3
	adrp	x2, .L__func__.ufs_ioctl_vendor_package
	add	x1, x1, :lo12:.L.str.3
	add	x2, x2, :lo12:.L__func__.ufs_ioctl_vendor_package
                                        // kill: def $w3 killed $w3 killed $x3
	bl	_dev_err
.Ltmp106:
	.loc	169 0 3 is_stmt 0               // kernel/drivers/scsi/ufs/ufs_vendor_mode.c:0:3
	mov	w20, #-22
.Ltmp107:
	//DEBUG_VALUE: ufs_ioctl_vendor_package:err <- -22
	b	.LBB0_26
.Ltmp108:
.LBB0_23:
	//DEBUG_VALUE: ufs_ioctl_vendor_package:buffer <- $x21
	//DEBUG_VALUE: ufs_ioctl_vendor_package:hba <- $x20
	//DEBUG_VALUE: ufs_ioctl_vendor_package:ufs_vendor_ioctl_state_p <- $x19
	//DEBUG_VALUE: ufs_ioctl_vendor_package:err <- 0
	.loc	169 104 4 is_stmt 1             // kernel/drivers/scsi/ufs/ufs_vendor_mode.c:104:4
	ldr	x0, [x20, #15352]
	adrp	x1, .L.str.4
	adrp	x2, .L__func__.ufs_ioctl_vendor_package
	add	x1, x1, :lo12:.L.str.4
	add	x2, x2, :lo12:.L__func__.ufs_ioctl_vendor_package
.Ltmp109:
.LBB0_24:
	//DEBUG_VALUE: ufs_ioctl_vendor_package:hba <- $x20
	//DEBUG_VALUE: ufs_ioctl_vendor_package:ufs_vendor_ioctl_state_p <- $x19
	//DEBUG_VALUE: ufs_ioctl_vendor_package:err <- 0
	.loc	169 0 0 is_stmt 0               // kernel/drivers/scsi/ufs/ufs_vendor_mode.c:0:0
	bl	_dev_err
.Ltmp110:
.LBB0_25:
	//DEBUG_VALUE: ufs_ioctl_vendor_package:hba <- $x20
	//DEBUG_VALUE: ufs_ioctl_vendor_package:ufs_vendor_ioctl_state_p <- $x19
	//DEBUG_VALUE: ufs_ioctl_vendor_package:err <- 0
	mov	w20, #-12
.Ltmp111:
.LBB0_26:
	//DEBUG_VALUE: ufs_ioctl_vendor_package:ufs_vendor_ioctl_state_p <- $x19
	//DEBUG_VALUE: ufs_ioctl_vendor_package:err <- $w20
	//DEBUG_LABEL: ufs_ioctl_vendor_package:out
	.loc	169 116 2 is_stmt 1             // kernel/drivers/scsi/ufs/ufs_vendor_mode.c:116:2
	adrp	x0, s_health_info_lock
	add	x0, x0, :lo12:s_health_info_lock
	bl	mutex_unlock
.Ltmp112:
.LBB0_27:
	.loc	169 119 1                       // kernel/drivers/scsi/ufs/ufs_vendor_mode.c:119:1
	mov	w0, w20
	ldp	x20, x19, [sp, #64]             // 16-byte Folded Reload
	ldp	x22, x21, [sp, #48]             // 16-byte Folded Reload
	ldp	x24, x23, [sp, #32]             // 16-byte Folded Reload
	ldp	x29, x30, [sp, #16]             // 16-byte Folded Reload
	add	sp, sp, #80                     // =80
	ret
.LBB0_28:
.Ltmp113:
	//DEBUG_VALUE: copy_from_user:from <- $x21
	//DEBUG_VALUE: _copy_from_user:from <- $x21
	//DEBUG_VALUE: ufs_get_user_cmd:buffer <- $x21
	//DEBUG_VALUE: ufs_ioctl_vendor_package:buffer <- $x21
	//DEBUG_VALUE: ufs_get_user_cmd:hba <- $x20
	//DEBUG_VALUE: ufs_ioctl_vendor_package:hba <- $x20
	//DEBUG_VALUE: ufs_get_user_cmd:ufs_vendor_ioctl_state_p <- $x19
	//DEBUG_VALUE: ufs_ioctl_vendor_package:ufs_vendor_ioctl_state_p <- $x19
	//DEBUG_VALUE: copy_from_user:to <- $x0
	//DEBUG_VALUE: _copy_from_user:to <- $x0
	//DEBUG_VALUE: copy_from_user:n <- 16
	//DEBUG_VALUE: _copy_from_user:n <- 16
	//DEBUG_VALUE: _copy_from_user:res <- 16
	//DEBUG_VALUE: ufs_get_user_cmd:data_flag <- 0
	//DEBUG_VALUE: ufs_ioctl_vendor_package:err <- 0
	.loc	169 0 1 is_stmt 0               // kernel/drivers/scsi/ufs/ufs_vendor_mode.c:0:1
	adrp	x1, .L.str.10
.Ltmp114:
	.loc	181 162 3 is_stmt 1             // kernel/include/linux/uaccess.h:162:3
	stp	xzr, xzr, [x0]
	add	x1, x1, :lo12:.L.str.10
	b	.LBB0_33
.Ltmp115:
.LBB0_29:
	//DEBUG_VALUE: copy_from_user:from <- $x21
	//DEBUG_VALUE: _copy_from_user:from <- $x21
	//DEBUG_VALUE: ufs_get_user_cmd:buffer <- $x21
	//DEBUG_VALUE: ufs_ioctl_vendor_package:buffer <- $x21
	//DEBUG_VALUE: ufs_get_user_cmd:hba <- $x20
	//DEBUG_VALUE: ufs_ioctl_vendor_package:hba <- $x20
	//DEBUG_VALUE: ufs_get_user_cmd:ufs_vendor_ioctl_state_p <- $x19
	//DEBUG_VALUE: ufs_ioctl_vendor_package:ufs_vendor_ioctl_state_p <- $x19
	//DEBUG_VALUE: copy_from_user:n <- $x0
	//DEBUG_VALUE: _copy_from_user:res <- $x0
	//DEBUG_VALUE: _copy_from_user:n <- 16
	//DEBUG_VALUE: ufs_get_user_cmd:data_flag <- 0
	//DEBUG_VALUE: ufs_ioctl_vendor_package:err <- 0
	.loc	181 162 13 is_stmt 0            // kernel/include/linux/uaccess.h:162:13
	add	x8, x22, x24, lsl #5
	sub	x8, x8, x0
	add	x8, x8, #16                     // =16
	mov	x22, x0
.Ltmp116:
	//DEBUG_VALUE: _copy_from_user:res <- $x22
	.loc	181 162 3                       // kernel/include/linux/uaccess.h:162:3
	mov	x0, x8
.Ltmp117:
	mov	w1, wzr
	mov	x2, x22
	bl	memset
.Ltmp118:
	//DEBUG_VALUE: ufs_get_user_cmd:err <- $w22
	//DEBUG_VALUE: copy_from_user:n <- $x22
	.loc	169 47 6 is_stmt 1              // kernel/drivers/scsi/ufs/ufs_vendor_mode.c:47:6
	cbz	w22, .LBB0_13
.Ltmp119:
// %bb.30:
	//DEBUG_VALUE: copy_from_user:n <- $x22
	//DEBUG_VALUE: _copy_from_user:res <- $x22
	//DEBUG_VALUE: copy_from_user:from <- $x21
	//DEBUG_VALUE: _copy_from_user:from <- $x21
	//DEBUG_VALUE: ufs_get_user_cmd:buffer <- $x21
	//DEBUG_VALUE: ufs_ioctl_vendor_package:buffer <- $x21
	//DEBUG_VALUE: ufs_get_user_cmd:hba <- $x20
	//DEBUG_VALUE: ufs_ioctl_vendor_package:hba <- $x20
	//DEBUG_VALUE: ufs_get_user_cmd:ufs_vendor_ioctl_state_p <- $x19
	//DEBUG_VALUE: ufs_ioctl_vendor_package:ufs_vendor_ioctl_state_p <- $x19
	//DEBUG_VALUE: ufs_get_user_cmd:err <- $w22
	//DEBUG_VALUE: _copy_from_user:n <- 16
	//DEBUG_VALUE: ufs_get_user_cmd:data_flag <- 0
	//DEBUG_VALUE: ufs_ioctl_vendor_package:err <- 0
	.loc	169 0 6 is_stmt 0               // kernel/drivers/scsi/ufs/ufs_vendor_mode.c:0:6
	adrp	x1, .L.str.10
	add	x1, x1, :lo12:.L.str.10
	b	.LBB0_33
.Ltmp120:
.LBB0_31:
	//DEBUG_VALUE: ufs_get_user_cmd:buffer <- $x21
	//DEBUG_VALUE: ufs_ioctl_vendor_package:buffer <- $x21
	//DEBUG_VALUE: ufs_get_user_cmd:hba <- $x20
	//DEBUG_VALUE: ufs_ioctl_vendor_package:hba <- $x20
	//DEBUG_VALUE: ufs_get_user_cmd:ufs_vendor_ioctl_state_p <- $x19
	//DEBUG_VALUE: ufs_ioctl_vendor_package:ufs_vendor_ioctl_state_p <- $x19
	//DEBUG_VALUE: copy_from_user:from <- $x8
	//DEBUG_VALUE: _copy_from_user:from <- $x8
	//DEBUG_VALUE: copy_from_user:to <- [DW_OP_constu 4, DW_OP_minus, DW_OP_stack_value] $fp
	//DEBUG_VALUE: _copy_from_user:to <- [DW_OP_constu 4, DW_OP_minus, DW_OP_stack_value] $fp
	//DEBUG_VALUE: ufs_get_user_cmd:data_flag <- [DW_OP_constu 4, DW_OP_minus, DW_OP_deref] $fp
	//DEBUG_VALUE: copy_from_user:n <- 1
	//DEBUG_VALUE: _copy_from_user:n <- 1
	//DEBUG_VALUE: _copy_from_user:res <- 1
	//DEBUG_VALUE: ufs_ioctl_vendor_package:err <- 0
	.loc	181 162 3 is_stmt 1             // kernel/include/linux/uaccess.h:162:3
	sturb	wzr, [x29, #-4]
.Ltmp121:
.LBB0_32:
	//DEBUG_VALUE: ufs_get_user_cmd:hba <- $x20
	//DEBUG_VALUE: ufs_ioctl_vendor_package:hba <- $x20
	//DEBUG_VALUE: ufs_get_user_cmd:ufs_vendor_ioctl_state_p <- $x19
	//DEBUG_VALUE: ufs_ioctl_vendor_package:ufs_vendor_ioctl_state_p <- $x19
	//DEBUG_VALUE: copy_from_user:to <- [DW_OP_constu 4, DW_OP_minus, DW_OP_stack_value] $fp
	//DEBUG_VALUE: _copy_from_user:to <- [DW_OP_constu 4, DW_OP_minus, DW_OP_stack_value] $fp
	//DEBUG_VALUE: ufs_get_user_cmd:data_flag <- [DW_OP_constu 4, DW_OP_minus, DW_OP_deref] $fp
	//DEBUG_VALUE: _copy_from_user:n <- 1
	//DEBUG_VALUE: ufs_ioctl_vendor_package:err <- 0
	.loc	181 0 3 is_stmt 0               // kernel/include/linux/uaccess.h:0:3
	adrp	x1, .L.str.11
	add	x1, x1, :lo12:.L.str.11
.Ltmp122:
.LBB0_33:
	//DEBUG_VALUE: ufs_get_user_cmd:hba <- $x20
	//DEBUG_VALUE: ufs_ioctl_vendor_package:hba <- $x20
	//DEBUG_VALUE: ufs_get_user_cmd:ufs_vendor_ioctl_state_p <- $x19
	//DEBUG_VALUE: ufs_ioctl_vendor_package:ufs_vendor_ioctl_state_p <- $x19
	//DEBUG_VALUE: ufs_ioctl_vendor_package:err <- 0
	ldr	x0, [x20, #15352]
	adrp	x2, .L__func__.ufs_get_user_cmd
	add	x2, x2, :lo12:.L__func__.ufs_get_user_cmd
	b	.LBB0_24
.Ltmp123:
.LBB0_34:
	//DEBUG_VALUE: ufs_get_user_cmd:buffer <- $x21
	//DEBUG_VALUE: ufs_ioctl_vendor_package:buffer <- $x21
	//DEBUG_VALUE: ufs_get_user_cmd:hba <- $x20
	//DEBUG_VALUE: ufs_ioctl_vendor_package:hba <- $x20
	//DEBUG_VALUE: ufs_get_user_cmd:ufs_vendor_ioctl_state_p <- $x19
	//DEBUG_VALUE: ufs_ioctl_vendor_package:ufs_vendor_ioctl_state_p <- $x19
	//DEBUG_VALUE: copy_from_user:n <- $x0
	//DEBUG_VALUE: _copy_from_user:res <- $x0
	//DEBUG_VALUE: copy_from_user:to <- [DW_OP_constu 4, DW_OP_minus, DW_OP_stack_value] $fp
	//DEBUG_VALUE: _copy_from_user:to <- [DW_OP_constu 4, DW_OP_minus, DW_OP_stack_value] $fp
	//DEBUG_VALUE: ufs_get_user_cmd:data_flag <- [DW_OP_constu 4, DW_OP_minus, DW_OP_deref] $fp
	//DEBUG_VALUE: _copy_from_user:n <- 1
	//DEBUG_VALUE: ufs_ioctl_vendor_package:err <- 0
	mov	x21, x0
.Ltmp124:
	//DEBUG_VALUE: ufs_ioctl_vendor_package:buffer <- [DW_OP_LLVM_entry_value 1] $x2
	//DEBUG_VALUE: copy_from_user:n <- $x21
	//DEBUG_VALUE: _copy_from_user:res <- $x21
	//DEBUG_VALUE: __acfu_ret <- $x21
	.loc	181 162 13                      // kernel/include/linux/uaccess.h:162:13
	sub	x8, x22, x0
	add	x0, x8, #1                      // =1
	.loc	181 162 3                       // kernel/include/linux/uaccess.h:162:3
	mov	w1, wzr
	mov	x2, x21
	bl	memset
.Ltmp125:
	//DEBUG_VALUE: copy_from_user:n <- $x21
	//DEBUG_VALUE: ufs_get_user_cmd:err <- $w21
	.loc	169 53 6 is_stmt 1              // kernel/drivers/scsi/ufs/ufs_vendor_mode.c:53:6
	cbz	w21, .LBB0_18
	b	.LBB0_32
.Ltmp126:
.Lfunc_end0:
	.size	ufs_ioctl_vendor_package, .Lfunc_end0-ufs_ioctl_vendor_package
	.cfi_endproc
	.file	182 "/mnt/disk/jenkins/ci/workspace/chipset_pipeline_release/opensource/component_code/vendor/huawei/extra/build/build_script/kirin_kernel_release" "kernel/drivers/scsi/ufs/ufs_vendor_mode.h"
	.file	183 "/mnt/disk/jenkins/ci/workspace/chipset_pipeline_release/opensource/component_code/vendor/huawei/extra/build/build_script/kirin_kernel_release" "kernel/include/uapi/scsi/scsi_bsg_ufs.h"
	.file	184 "/mnt/disk/jenkins/ci/workspace/chipset_pipeline_release/opensource/component_code/vendor/huawei/extra/build/build_script/kirin_kernel_release" "kernel/include/linux/semaphore.h"
	.file	185 "/mnt/disk/jenkins/ci/workspace/chipset_pipeline_release/opensource/component_code/vendor/huawei/extra/build/build_script/kirin_kernel_release" "kernel/include/linux/kthread.h"
	.file	186 "/mnt/disk/jenkins/ci/workspace/chipset_pipeline_release/opensource/component_code/vendor/huawei/extra/build/build_script/kirin_kernel_release" "kernel/include/linux/thread_info.h"
	.file	187 "/mnt/disk/jenkins/ci/workspace/chipset_pipeline_release/opensource/component_code/vendor/huawei/extra/build/build_script/kirin_kernel_release" "kernel/include/linux/dev_printk.h"
                                        // -- End function
	.globl	ufs_ioctl_vendor_package_tick   // -- Begin function ufs_ioctl_vendor_package_tick
	.p2align	2
	.type	ufs_ioctl_vendor_package_tick,@function
ufs_ioctl_vendor_package_tick:          // @ufs_ioctl_vendor_package_tick
.Lfunc_begin1:
	.loc	169 190 0                       // kernel/drivers/scsi/ufs/ufs_vendor_mode.c:190:0
	.cfi_startproc
// %bb.0:
	//DEBUG_VALUE: ufs_ioctl_vendor_package_tick:hba <- $x0
	//DEBUG_VALUE: ufs_ioctl_vendor_package_tick:dev <- $x1
	//DEBUG_VALUE: ufs_ioctl_vendor_package_tick:ufs_vendor_ioctl_state_p <- $x2
	//DEBUG_VALUE: ufs_ioctl_vendor_package_tick:buffer <- $x3
	//DEBUG_VALUE: ufs_ioctl_vendor_package_tick:buffer <- $x3
	//DEBUG_VALUE: ufs_ioctl_vendor_package_tick:ufs_vendor_ioctl_state_p <- $x2
	//DEBUG_VALUE: ufs_ioctl_vendor_package_tick:dev <- $x1
	//DEBUG_VALUE: ufs_ioctl_vendor_package_tick:hba <- $x0
	sub	sp, sp, #112                    // =112
	stp	x29, x30, [sp, #16]             // 16-byte Folded Spill
	stp	x28, x27, [sp, #32]             // 16-byte Folded Spill
	stp	x26, x25, [sp, #48]             // 16-byte Folded Spill
	stp	x24, x23, [sp, #64]             // 16-byte Folded Spill
	stp	x22, x21, [sp, #80]             // 16-byte Folded Spill
	stp	x20, x19, [sp, #96]             // 16-byte Folded Spill
	add	x29, sp, #16                    // =16
	.cfi_def_cfa w29, 96
	.cfi_offset w19, -8
	.cfi_offset w20, -16
	.cfi_offset w21, -24
	.cfi_offset w22, -32
	.cfi_offset w23, -40
	.cfi_offset w24, -48
	.cfi_offset w25, -56
	.cfi_offset w26, -64
	.cfi_offset w27, -72
	.cfi_offset w28, -80
	.cfi_offset w30, -88
	.cfi_offset w29, -96
.Ltmp127:
	//DEBUG_VALUE: ufs_ioctl_vendor_package_tick:err <- 0
	.loc	169 195 11 prologue_end         // kernel/drivers/scsi/ufs/ufs_vendor_mode.c:195:11
	cbz	x0, .LBB1_4
.Ltmp128:
// %bb.1:
	//DEBUG_VALUE: ufs_ioctl_vendor_package_tick:buffer <- $x3
	//DEBUG_VALUE: ufs_ioctl_vendor_package_tick:ufs_vendor_ioctl_state_p <- $x2
	//DEBUG_VALUE: ufs_ioctl_vendor_package_tick:dev <- $x1
	//DEBUG_VALUE: ufs_ioctl_vendor_package_tick:hba <- $x0
	//DEBUG_VALUE: ufs_ioctl_vendor_package_tick:err <- 0
	//DEBUG_VALUE: ufs_ioctl_vendor_package_tick:buffer <- $x3
	//DEBUG_VALUE: ufs_ioctl_vendor_package_tick:ufs_vendor_ioctl_state_p <- $x2
	.loc	169 0 11 is_stmt 0              // kernel/drivers/scsi/ufs/ufs_vendor_mode.c:0:11
	mov	x23, x1
.Ltmp129:
	//DEBUG_VALUE: ufs_ioctl_vendor_package_tick:dev <- $x23
	//DEBUG_VALUE: ufs_ioctl_vendor_package_tick:hba <- $x0
	.loc	169 195 11                      // kernel/drivers/scsi/ufs/ufs_vendor_mode.c:195:11
	cbz	x1, .LBB1_4
.Ltmp130:
// %bb.2:
	//DEBUG_VALUE: ufs_ioctl_vendor_package_tick:dev <- $x23
	//DEBUG_VALUE: ufs_ioctl_vendor_package_tick:buffer <- $x3
	//DEBUG_VALUE: ufs_ioctl_vendor_package_tick:ufs_vendor_ioctl_state_p <- $x2
	//DEBUG_VALUE: ufs_ioctl_vendor_package_tick:hba <- $x0
	//DEBUG_VALUE: ufs_ioctl_vendor_package_tick:err <- 0
	//DEBUG_VALUE: ufs_ioctl_vendor_package_tick:buffer <- $x3
	.loc	169 0 11                        // kernel/drivers/scsi/ufs/ufs_vendor_mode.c:0:11
	mov	x19, x2
.Ltmp131:
	//DEBUG_VALUE: ufs_ioctl_vendor_package_tick:ufs_vendor_ioctl_state_p <- $x19
	mov	x20, x0
.Ltmp132:
	//DEBUG_VALUE: ufs_ioctl_vendor_package_tick:hba <- $x20
	//DEBUG_VALUE: ufs_ioctl_vendor_package_tick:hba <- $x20
	.loc	169 199 6 is_stmt 1             // kernel/drivers/scsi/ufs/ufs_vendor_mode.c:199:6
	cbnz	x2, .LBB1_7
.Ltmp133:
// %bb.3:
	//DEBUG_VALUE: ufs_ioctl_vendor_package_tick:dev <- $x23
	//DEBUG_VALUE: ufs_ioctl_vendor_package_tick:hba <- $x20
	//DEBUG_VALUE: ufs_ioctl_vendor_package_tick:ufs_vendor_ioctl_state_p <- $x19
	//DEBUG_VALUE: ufs_ioctl_vendor_package_tick:buffer <- $x3
	//DEBUG_VALUE: ufs_ioctl_vendor_package_tick:err <- 0
	.loc	169 200 3                       // kernel/drivers/scsi/ufs/ufs_vendor_mode.c:200:3
	ldr	x0, [x20, #15352]
	adrp	x1, .L.str
	add	x1, x1, :lo12:.L.str
	bl	_dev_err
.Ltmp134:
	//DEBUG_VALUE: ufs_ioctl_vendor_package_tick:buffer <- [DW_OP_LLVM_entry_value 1] $x3
	.loc	169 0 3 is_stmt 0               // kernel/drivers/scsi/ufs/ufs_vendor_mode.c:0:3
	b	.LBB1_5
.Ltmp135:
.LBB1_4:
	//DEBUG_VALUE: ufs_ioctl_vendor_package_tick:buffer <- $x3
	//DEBUG_VALUE: ufs_ioctl_vendor_package_tick:ufs_vendor_ioctl_state_p <- $x2
	//DEBUG_VALUE: ufs_ioctl_vendor_package_tick:hba <- $x0
	//DEBUG_VALUE: ufs_ioctl_vendor_package_tick:err <- 0
	.loc	169 196 3 is_stmt 1             // kernel/drivers/scsi/ufs/ufs_vendor_mode.c:196:3
	adrp	x0, .L.str.5
.Ltmp136:
	//DEBUG_VALUE: ufs_ioctl_vendor_package_tick:hba <- [DW_OP_LLVM_entry_value 1] $x0
	add	x0, x0, :lo12:.L.str.5
	bl	printk
.Ltmp137:
	//DEBUG_VALUE: ufs_ioctl_vendor_package_tick:buffer <- [DW_OP_LLVM_entry_value 1] $x3
	//DEBUG_VALUE: ufs_ioctl_vendor_package_tick:ufs_vendor_ioctl_state_p <- [DW_OP_LLVM_entry_value 1] $x2
.LBB1_5:
	//DEBUG_VALUE: ufs_ioctl_vendor_package_tick:err <- 0
	.loc	169 0 3 is_stmt 0               // kernel/drivers/scsi/ufs/ufs_vendor_mode.c:0:3
	mov	w21, #-22
.Ltmp138:
.LBB1_6:
	.loc	169 238 1 is_stmt 1             // kernel/drivers/scsi/ufs/ufs_vendor_mode.c:238:1
	mov	w0, w21
	ldp	x20, x19, [sp, #96]             // 16-byte Folded Reload
	ldp	x22, x21, [sp, #80]             // 16-byte Folded Reload
	ldp	x24, x23, [sp, #64]             // 16-byte Folded Reload
	ldp	x26, x25, [sp, #48]             // 16-byte Folded Reload
	ldp	x28, x27, [sp, #32]             // 16-byte Folded Reload
	ldp	x29, x30, [sp, #16]             // 16-byte Folded Reload
	add	sp, sp, #112                    // =112
	ret
.LBB1_7:
.Ltmp139:
	//DEBUG_VALUE: ufs_ioctl_vendor_package_tick:dev <- $x23
	//DEBUG_VALUE: ufs_ioctl_vendor_package_tick:hba <- $x20
	//DEBUG_VALUE: ufs_ioctl_vendor_package_tick:ufs_vendor_ioctl_state_p <- $x19
	//DEBUG_VALUE: ufs_ioctl_vendor_package_tick:buffer <- $x3
	//DEBUG_VALUE: ufs_ioctl_vendor_package_tick:err <- 0
	.loc	169 0 1 is_stmt 0               // kernel/drivers/scsi/ufs/ufs_vendor_mode.c:0:1
	mov	x22, x3
.Ltmp140:
	//DEBUG_VALUE: ufs_ioctl_vendor_package_tick:buffer <- $x22
	.loc	169 203 6 is_stmt 1             // kernel/drivers/scsi/ufs/ufs_vendor_mode.c:203:6
	cbnz	x3, .LBB1_9
.Ltmp141:
// %bb.8:
	//DEBUG_VALUE: ufs_ioctl_vendor_package_tick:dev <- $x23
	//DEBUG_VALUE: ufs_ioctl_vendor_package_tick:buffer <- $x22
	//DEBUG_VALUE: ufs_ioctl_vendor_package_tick:hba <- $x20
	//DEBUG_VALUE: ufs_ioctl_vendor_package_tick:ufs_vendor_ioctl_state_p <- $x19
	//DEBUG_VALUE: ufs_ioctl_vendor_package_tick:err <- 0
	.loc	169 204 3                       // kernel/drivers/scsi/ufs/ufs_vendor_mode.c:204:3
	ldr	x0, [x20, #15352]
	adrp	x1, .L.str.1
	adrp	x2, .L__func__.ufs_ioctl_vendor_package_tick
	add	x1, x1, :lo12:.L.str.1
	add	x2, x2, :lo12:.L__func__.ufs_ioctl_vendor_package_tick
	bl	_dev_err
.Ltmp142:
	.loc	169 0 3 is_stmt 0               // kernel/drivers/scsi/ufs/ufs_vendor_mode.c:0:3
	b	.LBB1_5
.Ltmp143:
.LBB1_9:
	//DEBUG_VALUE: ufs_ioctl_vendor_package_tick:dev <- $x23
	//DEBUG_VALUE: ufs_ioctl_vendor_package_tick:buffer <- $x22
	//DEBUG_VALUE: ufs_ioctl_vendor_package_tick:hba <- $x20
	//DEBUG_VALUE: ufs_ioctl_vendor_package_tick:ufs_vendor_ioctl_state_p <- $x19
	//DEBUG_VALUE: ufs_ioctl_vendor_package_tick:err <- 0
	.loc	169 207 2 is_stmt 1             // kernel/drivers/scsi/ufs/ufs_vendor_mode.c:207:2
	adrp	x0, s_health_info_lock
	add	x0, x0, :lo12:s_health_info_lock
	bl	mutex_lock
.Ltmp144:
	.loc	169 209 6                       // kernel/drivers/scsi/ufs/ufs_vendor_mode.c:209:6
	adrp	x9, jiffies
	adrp	x8, ufs_ioctl_vendor_package_tick.s_timeout
	ldr	x10, [x9, :lo12:jiffies]
	ldr	x11, [x8, :lo12:ufs_ioctl_vendor_package_tick.s_timeout]
	cmp	x10, x11
.Ltmp145:
	.loc	169 209 6 is_stmt 0             // kernel/drivers/scsi/ufs/ufs_vendor_mode.c:209:6
	b.pl	.LBB1_11
.Ltmp146:
// %bb.10:
	//DEBUG_VALUE: ufs_ioctl_vendor_package_tick:dev <- $x23
	//DEBUG_VALUE: ufs_ioctl_vendor_package_tick:buffer <- $x22
	//DEBUG_VALUE: ufs_ioctl_vendor_package_tick:hba <- $x20
	//DEBUG_VALUE: ufs_ioctl_vendor_package_tick:ufs_vendor_ioctl_state_p <- $x19
	//DEBUG_VALUE: ufs_ioctl_vendor_package_tick:err <- 0
	.loc	169 210 3 is_stmt 1             // kernel/drivers/scsi/ufs/ufs_vendor_mode.c:210:3
	ldr	x0, [x20, #15352]
	adrp	x1, .L.str.6
	adrp	x2, .L__func__.ufs_ioctl_vendor_package_tick
	add	x1, x1, :lo12:.L.str.6
	add	x2, x2, :lo12:.L__func__.ufs_ioctl_vendor_package_tick
	bl	_dev_err
.Ltmp147:
	.loc	169 0 3 is_stmt 0               // kernel/drivers/scsi/ufs/ufs_vendor_mode.c:0:3
	mov	w21, #-16
.Ltmp148:
	//DEBUG_VALUE: ufs_ioctl_vendor_package_tick:err <- -16
	b	.LBB1_39
.Ltmp149:
.LBB1_11:
	//DEBUG_VALUE: ufs_ioctl_vendor_package_tick:dev <- $x23
	//DEBUG_VALUE: ufs_ioctl_vendor_package_tick:buffer <- $x22
	//DEBUG_VALUE: ufs_ioctl_vendor_package_tick:hba <- $x20
	//DEBUG_VALUE: ufs_ioctl_vendor_package_tick:ufs_vendor_ioctl_state_p <- $x19
	//DEBUG_VALUE: ufs_ioctl_vendor_package_tick:err <- 0
	.loc	169 214 15 is_stmt 1            // kernel/drivers/scsi/ufs/ufs_vendor_mode.c:214:15
	ldr	x9, [x9, :lo12:jiffies]
	mov	w10, #56784
	movk	w10, #6, lsl #16
.Ltmp150:
	.loc	169 217 2                       // kernel/drivers/scsi/ufs/ufs_vendor_mode.c:217:2
	adrp	x1, .L.str.7
.Ltmp151:
	.loc	169 214 23                      // kernel/drivers/scsi/ufs/ufs_vendor_mode.c:214:23
	add	x9, x9, x10
	.loc	169 214 13 is_stmt 0            // kernel/drivers/scsi/ufs/ufs_vendor_mode.c:214:13
	str	x9, [x8, :lo12:ufs_ioctl_vendor_package_tick.s_timeout]
.Ltmp152:
	.loc	169 217 2 is_stmt 1             // kernel/drivers/scsi/ufs/ufs_vendor_mode.c:217:2
	ldr	x0, [x20, #15352]
	adrp	x2, .L__func__.ufs_ioctl_vendor_package_tick
	add	x1, x1, :lo12:.L.str.7
	add	x2, x2, :lo12:.L__func__.ufs_ioctl_vendor_package_tick
	bl	_dev_info
.Ltmp153:
	.loc	169 218 32                      // kernel/drivers/scsi/ufs/ufs_vendor_mode.c:218:32
	ldr	x8, [x19]
.Ltmp154:
	.loc	169 218 6 is_stmt 0             // kernel/drivers/scsi/ufs/ufs_vendor_mode.c:218:6
	cbz	x8, .LBB1_31
.Ltmp155:
// %bb.12:
	//DEBUG_VALUE: ufs_ioctl_vendor_package_tick:dev <- $x23
	//DEBUG_VALUE: ufs_ioctl_vendor_package_tick:buffer <- $x22
	//DEBUG_VALUE: ufs_ioctl_vendor_package_tick:hba <- $x20
	//DEBUG_VALUE: ufs_ioctl_vendor_package_tick:ufs_vendor_ioctl_state_p <- $x19
	//DEBUG_VALUE: ufs_ioctl_vendor_package_tick:err <- 0
	.loc	169 223 27 is_stmt 1            // kernel/drivers/scsi/ufs/ufs_vendor_mode.c:223:27
	ldr	x0, [x20, #15344]
	.loc	169 223 2 is_stmt 0             // kernel/drivers/scsi/ufs/ufs_vendor_mode.c:223:2
	bl	scsi_block_requests
.Ltmp156:
	.loc	169 224 8 is_stmt 1             // kernel/drivers/scsi/ufs/ufs_vendor_mode.c:224:8
	mov	w1, #5000
	mov	x0, x20
	bl	wait_for_ufs_all_complete
.Ltmp157:
	//DEBUG_VALUE: ufs_ioctl_vendor_package_tick:err <- $w0
	.loc	169 225 6                       // kernel/drivers/scsi/ufs/ufs_vendor_mode.c:225:6
	cbnz	w0, .LBB1_32
.Ltmp158:
// %bb.13:
	//DEBUG_VALUE: ufs_ioctl_vendor_package_tick:dev <- $x23
	//DEBUG_VALUE: ufs_ioctl_vendor_package_tick:buffer <- $x22
	//DEBUG_VALUE: ufs_ioctl_vendor_package_tick:hba <- $x20
	//DEBUG_VALUE: ufs_ioctl_vendor_package_tick:ufs_vendor_ioctl_state_p <- $x19
	//DEBUG_VALUE: ufs_ioctl_vendor_package_tick:err <- $w0
	//DEBUG_VALUE: vendor_data_copy:ufs_vendor_ioctl_state_p <- $x19
	//DEBUG_VALUE: vendor_data_copy:hba <- $x20
	//DEBUG_VALUE: vendor_data_copy:dev <- $x23
	//DEBUG_VALUE: vendor_data_copy:buffer <- $x22
	//DEBUG_VALUE: vendor_data_copy:vendor_cmd <- 0
	//DEBUG_VALUE: vendor_data_copy:buf <- 0
	//DEBUG_VALUE: vendor_data_copy:err <- 0
	//DEBUG_VALUE: vendor_data_copy:index <- 0
	.loc	169 149 52                      // kernel/drivers/scsi/ufs/ufs_vendor_mode.c:149:52
	ldr	w8, [x19, #8]
.Ltmp159:
	.loc	169 149 2 is_stmt 0             // kernel/drivers/scsi/ufs/ufs_vendor_mode.c:149:2
	cmp	w8, #1                          // =1
	b.lt	.LBB1_29
.Ltmp160:
// %bb.14:
	//DEBUG_VALUE: vendor_data_copy:dev <- $x23
	//DEBUG_VALUE: ufs_ioctl_vendor_package_tick:dev <- $x23
	//DEBUG_VALUE: vendor_data_copy:buffer <- $x22
	//DEBUG_VALUE: ufs_ioctl_vendor_package_tick:buffer <- $x22
	//DEBUG_VALUE: vendor_data_copy:hba <- $x20
	//DEBUG_VALUE: ufs_ioctl_vendor_package_tick:hba <- $x20
	//DEBUG_VALUE: vendor_data_copy:ufs_vendor_ioctl_state_p <- $x19
	//DEBUG_VALUE: ufs_ioctl_vendor_package_tick:ufs_vendor_ioctl_state_p <- $x19
	//DEBUG_VALUE: ufs_ioctl_vendor_package_tick:err <- $w0
	//DEBUG_VALUE: vendor_data_copy:index <- 0
	//DEBUG_VALUE: vendor_data_copy:err <- 0
	//DEBUG_VALUE: vendor_data_copy:buf <- 0
	//DEBUG_VALUE: vendor_data_copy:vendor_cmd <- 0
	.loc	169 0 2                         // kernel/drivers/scsi/ufs/ufs_vendor_mode.c:0:2
	mov	x25, xzr
	mov	x26, xzr
	mov	x27, xzr
	mov	x24, xzr
	str	x22, [sp, #8]                   // 8-byte Folded Spill
.Ltmp161:
	//DEBUG_VALUE: ufs_ioctl_vendor_package_tick:buffer <- [DW_OP_plus_uconst 8] [$sp+0]
	//APP
	mrs	x28, SP_EL0
	//NO_APP
	b	.LBB1_16
.Ltmp162:
.LBB1_15:                               //   in Loop: Header=BB1_16 Depth=1
	//DEBUG_VALUE: ufs_ioctl_vendor_package_tick:buffer <- [DW_OP_plus_uconst 8] [$sp+0]
	//DEBUG_VALUE: vendor_data_copy:index <- $x27
	//DEBUG_VALUE: vendor_data_copy:buf <- $x24
	//DEBUG_VALUE: vendor_data_copy:dev <- $x23
	//DEBUG_VALUE: ufs_ioctl_vendor_package_tick:dev <- $x23
	//DEBUG_VALUE: vendor_data_copy:hba <- $x20
	//DEBUG_VALUE: ufs_ioctl_vendor_package_tick:hba <- $x20
	//DEBUG_VALUE: vendor_data_copy:ufs_vendor_ioctl_state_p <- $x19
	//DEBUG_VALUE: ufs_ioctl_vendor_package_tick:ufs_vendor_ioctl_state_p <- $x19
	//DEBUG_VALUE: vendor_data_copy:err <- 0
	.loc	169 149 52                      // kernel/drivers/scsi/ufs/ufs_vendor_mode.c:149:52
	ldrsw	x8, [x19, #8]
	.loc	169 149 68                      // kernel/drivers/scsi/ufs/ufs_vendor_mode.c:149:68
	add	x27, x27, #1                    // =1
.Ltmp163:
	//DEBUG_VALUE: vendor_data_copy:index <- $x27
	//DEBUG_VALUE: vendor_data_copy:buf <- $x24
	.loc	169 149 24                      // kernel/drivers/scsi/ufs/ufs_vendor_mode.c:149:24
	add	x26, x26, #256                  // =256
	add	x25, x25, #32                   // =32
.Ltmp164:
	.loc	169 149 2                       // kernel/drivers/scsi/ufs/ufs_vendor_mode.c:149:2
	cmp	x27, x8
	b.ge	.LBB1_29
.Ltmp165:
.LBB1_16:                               // =>This Inner Loop Header: Depth=1
	//DEBUG_VALUE: ufs_ioctl_vendor_package_tick:buffer <- [DW_OP_plus_uconst 8] [$sp+0]
	//DEBUG_VALUE: vendor_data_copy:dev <- $x23
	//DEBUG_VALUE: ufs_ioctl_vendor_package_tick:dev <- $x23
	//DEBUG_VALUE: vendor_data_copy:hba <- $x20
	//DEBUG_VALUE: ufs_ioctl_vendor_package_tick:hba <- $x20
	//DEBUG_VALUE: vendor_data_copy:ufs_vendor_ioctl_state_p <- $x19
	//DEBUG_VALUE: ufs_ioctl_vendor_package_tick:ufs_vendor_ioctl_state_p <- $x19
	//DEBUG_VALUE: vendor_data_copy:err <- 0
	//DEBUG_VALUE: vendor_data_copy:buf <- $x24
	//DEBUG_VALUE: vendor_data_copy:index <- $x27
	.loc	169 150 44 is_stmt 1            // kernel/drivers/scsi/ufs/ufs_vendor_mode.c:150:44
	ldr	x22, [x19]
.Ltmp166:
	//DEBUG_VALUE: vendor_data_copy:vendor_cmd <- undef
	.loc	169 151 21                      // kernel/drivers/scsi/ufs/ufs_vendor_mode.c:151:21
	add	x2, x22, x25
	ldrb	w3, [x2]
.Ltmp167:
	//DEBUG_VALUE: ufs_cmd_judge:vendor_cdb <- undef
	.loc	169 29 34                       // kernel/drivers/scsi/ufs/ufs_vendor_mode.c:29:34
	sub	w8, w3, #4                      // =4
	cmp	w8, #62                         // =62
	b.hi	.LBB1_18
.Ltmp168:
// %bb.17:                              //   in Loop: Header=BB1_16 Depth=1
	//DEBUG_VALUE: ufs_ioctl_vendor_package_tick:buffer <- [DW_OP_plus_uconst 8] [$sp+0]
	//DEBUG_VALUE: vendor_data_copy:index <- $x27
	//DEBUG_VALUE: vendor_data_copy:buf <- $x24
	//DEBUG_VALUE: vendor_data_copy:dev <- $x23
	//DEBUG_VALUE: ufs_ioctl_vendor_package_tick:dev <- $x23
	//DEBUG_VALUE: vendor_data_copy:hba <- $x20
	//DEBUG_VALUE: ufs_ioctl_vendor_package_tick:hba <- $x20
	//DEBUG_VALUE: vendor_data_copy:ufs_vendor_ioctl_state_p <- $x19
	//DEBUG_VALUE: ufs_ioctl_vendor_package_tick:ufs_vendor_ioctl_state_p <- $x19
	//DEBUG_VALUE: vendor_data_copy:err <- 0
	.loc	169 0 34 is_stmt 0              // kernel/drivers/scsi/ufs/ufs_vendor_mode.c:0:34
	mov	w9, #1
	lsl	x8, x9, x8
	mov	x9, #81
	movk	x9, #80, lsl #32
	movk	x9, #16384, lsl #48
	tst	x8, x9
	b.ne	.LBB1_30
.Ltmp169:
.LBB1_18:                               //   in Loop: Header=BB1_16 Depth=1
	//DEBUG_VALUE: ufs_ioctl_vendor_package_tick:buffer <- [DW_OP_plus_uconst 8] [$sp+0]
	//DEBUG_VALUE: vendor_data_copy:index <- $x27
	//DEBUG_VALUE: vendor_data_copy:buf <- $x24
	//DEBUG_VALUE: vendor_data_copy:dev <- $x23
	//DEBUG_VALUE: ufs_ioctl_vendor_package_tick:dev <- $x23
	//DEBUG_VALUE: vendor_data_copy:hba <- $x20
	//DEBUG_VALUE: ufs_ioctl_vendor_package_tick:hba <- $x20
	//DEBUG_VALUE: vendor_data_copy:ufs_vendor_ioctl_state_p <- $x19
	//DEBUG_VALUE: ufs_ioctl_vendor_package_tick:ufs_vendor_ioctl_state_p <- $x19
	//DEBUG_VALUE: vendor_data_copy:err <- 0
	.loc	169 29 34                       // kernel/drivers/scsi/ufs/ufs_vendor_mode.c:29:34
	cmp	w3, #138                        // =138
	b.eq	.LBB1_30
.Ltmp170:
// %bb.19:                              //   in Loop: Header=BB1_16 Depth=1
	//DEBUG_VALUE: ufs_ioctl_vendor_package_tick:buffer <- [DW_OP_plus_uconst 8] [$sp+0]
	//DEBUG_VALUE: vendor_data_copy:index <- $x27
	//DEBUG_VALUE: vendor_data_copy:buf <- $x24
	//DEBUG_VALUE: vendor_data_copy:dev <- $x23
	//DEBUG_VALUE: ufs_ioctl_vendor_package_tick:dev <- $x23
	//DEBUG_VALUE: vendor_data_copy:hba <- $x20
	//DEBUG_VALUE: ufs_ioctl_vendor_package_tick:hba <- $x20
	//DEBUG_VALUE: vendor_data_copy:ufs_vendor_ioctl_state_p <- $x19
	//DEBUG_VALUE: ufs_ioctl_vendor_package_tick:ufs_vendor_ioctl_state_p <- $x19
	//DEBUG_VALUE: vendor_data_copy:err <- 0
	cmp	w3, #136                        // =136
	b.eq	.LBB1_30
.Ltmp171:
// %bb.20:                              //   in Loop: Header=BB1_16 Depth=1
	//DEBUG_VALUE: ufs_ioctl_vendor_package_tick:buffer <- [DW_OP_plus_uconst 8] [$sp+0]
	//DEBUG_VALUE: vendor_data_copy:index <- $x27
	//DEBUG_VALUE: vendor_data_copy:buf <- $x24
	//DEBUG_VALUE: vendor_data_copy:dev <- $x23
	//DEBUG_VALUE: ufs_ioctl_vendor_package_tick:dev <- $x23
	//DEBUG_VALUE: vendor_data_copy:hba <- $x20
	//DEBUG_VALUE: ufs_ioctl_vendor_package_tick:hba <- $x20
	//DEBUG_VALUE: vendor_data_copy:ufs_vendor_ioctl_state_p <- $x19
	//DEBUG_VALUE: ufs_ioctl_vendor_package_tick:ufs_vendor_ioctl_state_p <- $x19
	//DEBUG_VALUE: vendor_data_copy:err <- 0
	.loc	169 157 19 is_stmt 1            // kernel/drivers/scsi/ufs/ufs_vendor_mode.c:157:19
	add	x8, x22, x25
	ldr	w9, [x8, #16]
.Ltmp172:
	.loc	169 157 7 is_stmt 0             // kernel/drivers/scsi/ufs/ufs_vendor_mode.c:157:7
	cbz	w9, .LBB1_22
.Ltmp173:
// %bb.21:                              //   in Loop: Header=BB1_16 Depth=1
	//DEBUG_VALUE: ufs_ioctl_vendor_package_tick:buffer <- [DW_OP_plus_uconst 8] [$sp+0]
	//DEBUG_VALUE: vendor_data_copy:index <- $x27
	//DEBUG_VALUE: vendor_data_copy:buf <- $x24
	//DEBUG_VALUE: vendor_data_copy:dev <- $x23
	//DEBUG_VALUE: ufs_ioctl_vendor_package_tick:dev <- $x23
	//DEBUG_VALUE: vendor_data_copy:hba <- $x20
	//DEBUG_VALUE: ufs_ioctl_vendor_package_tick:hba <- $x20
	//DEBUG_VALUE: vendor_data_copy:ufs_vendor_ioctl_state_p <- $x19
	//DEBUG_VALUE: ufs_ioctl_vendor_package_tick:ufs_vendor_ioctl_state_p <- $x19
	//DEBUG_VALUE: vendor_data_copy:err <- 0
	.loc	169 158 21 is_stmt 1            // kernel/drivers/scsi/ufs/ufs_vendor_mode.c:158:21
	ldr	x24, [x8, #24]
.Ltmp174:
	.loc	169 158 8 is_stmt 0             // kernel/drivers/scsi/ufs/ufs_vendor_mode.c:158:8
	cbz	x24, .LBB1_34
.Ltmp175:
.LBB1_22:                               //   in Loop: Header=BB1_16 Depth=1
	//DEBUG_VALUE: ufs_ioctl_vendor_package_tick:buffer <- [DW_OP_plus_uconst 8] [$sp+0]
	//DEBUG_VALUE: vendor_data_copy:index <- $x27
	//DEBUG_VALUE: vendor_data_copy:dev <- $x23
	//DEBUG_VALUE: ufs_ioctl_vendor_package_tick:dev <- $x23
	//DEBUG_VALUE: vendor_data_copy:hba <- $x20
	//DEBUG_VALUE: ufs_ioctl_vendor_package_tick:hba <- $x20
	//DEBUG_VALUE: vendor_data_copy:ufs_vendor_ioctl_state_p <- $x19
	//DEBUG_VALUE: ufs_ioctl_vendor_package_tick:ufs_vendor_ioctl_state_p <- $x19
	//DEBUG_VALUE: vendor_data_copy:err <- 0
	//DEBUG_VALUE: vendor_data_copy:buf <- $x24
	.loc	169 165 9 is_stmt 1             // kernel/drivers/scsi/ufs/ufs_vendor_mode.c:165:9
	mov	x0, x20
	mov	x1, x23
	mov	x3, x24
	bl	ufshcd_send_vendor_scsi_cmd
.Ltmp176:
	//DEBUG_VALUE: vendor_data_copy:err <- $w0
	.loc	169 167 7                       // kernel/drivers/scsi/ufs/ufs_vendor_mode.c:167:7
	cbnz	w0, .LBB1_33
.Ltmp177:
// %bb.23:                              //   in Loop: Header=BB1_16 Depth=1
	//DEBUG_VALUE: ufs_ioctl_vendor_package_tick:buffer <- [DW_OP_plus_uconst 8] [$sp+0]
	//DEBUG_VALUE: vendor_data_copy:index <- $x27
	//DEBUG_VALUE: vendor_data_copy:buf <- $x24
	//DEBUG_VALUE: vendor_data_copy:dev <- $x23
	//DEBUG_VALUE: ufs_ioctl_vendor_package_tick:dev <- $x23
	//DEBUG_VALUE: vendor_data_copy:hba <- $x20
	//DEBUG_VALUE: ufs_ioctl_vendor_package_tick:hba <- $x20
	//DEBUG_VALUE: vendor_data_copy:ufs_vendor_ioctl_state_p <- $x19
	//DEBUG_VALUE: ufs_ioctl_vendor_package_tick:ufs_vendor_ioctl_state_p <- $x19
	//DEBUG_VALUE: vendor_data_copy:err <- $w0
	.loc	169 172 7                       // kernel/drivers/scsi/ufs/ufs_vendor_mode.c:172:7
	cbz	x24, .LBB1_15
.Ltmp178:
// %bb.24:                              //   in Loop: Header=BB1_16 Depth=1
	//DEBUG_VALUE: ufs_ioctl_vendor_package_tick:buffer <- [DW_OP_plus_uconst 8] [$sp+0]
	//DEBUG_VALUE: vendor_data_copy:index <- $x27
	//DEBUG_VALUE: vendor_data_copy:buf <- $x24
	//DEBUG_VALUE: vendor_data_copy:dev <- $x23
	//DEBUG_VALUE: ufs_ioctl_vendor_package_tick:dev <- $x23
	//DEBUG_VALUE: vendor_data_copy:hba <- $x20
	//DEBUG_VALUE: ufs_ioctl_vendor_package_tick:hba <- $x20
	//DEBUG_VALUE: vendor_data_copy:ufs_vendor_ioctl_state_p <- $x19
	//DEBUG_VALUE: ufs_ioctl_vendor_package_tick:ufs_vendor_ioctl_state_p <- $x19
	//DEBUG_VALUE: vendor_data_copy:err <- $w0
	.loc	169 0 7 is_stmt 0               // kernel/drivers/scsi/ufs/ufs_vendor_mode.c:0:7
	ldr	x9, [sp, #8]                    // 8-byte Folded Reload
.Ltmp179:
	.loc	179 76 35 is_stmt 1             // kernel/arch/arm64/include/asm/uaccess.h:76:35
	ldrb	w11, [x28, #46]
.Ltmp180:
	.loc	179 68 52                       // kernel/arch/arm64/include/asm/uaccess.h:68:52
	ldr	x10, [x28, #8]
.Ltmp181:
	//DEBUG_VALUE: __range_ok:limit <- $x10
	.loc	169 174 12                      // kernel/drivers/scsi/ufs/ufs_vendor_mode.c:174:12
	and	x8, x26, #0xffffff00
	add	x8, x9, x8
.Ltmp182:
	//DEBUG_VALUE: get_current:sp_el0 <- $x28
	//DEBUG_VALUE: get_current:sp_el0 <- $x28
	.loc	169 0 12 is_stmt 0              // kernel/drivers/scsi/ufs/ufs_vendor_mode.c:0:12
	lsl	x9, x8, #8
.Ltmp183:
	//DEBUG_VALUE: __range_ok:size <- 256
	//DEBUG_VALUE: _copy_to_user:n <- 256
	//DEBUG_VALUE: _copy_to_user:from <- $x24
	//DEBUG_VALUE: copy_to_user:n <- 256
	//DEBUG_VALUE: copy_to_user:from <- $x24
	//DEBUG_VALUE: __range_ok:addr <- $x8
	//DEBUG_VALUE: _copy_to_user:to <- $x8
	//DEBUG_VALUE: copy_to_user:to <- $x8
	//DEBUG_VALUE: __range_ok:limit <- $x10
	.loc	179 76 35 is_stmt 1             // kernel/arch/arm64/include/asm/uaccess.h:76:35
	tbnz	w11, #5, .LBB1_26
.Ltmp184:
// %bb.25:                              //   in Loop: Header=BB1_16 Depth=1
	//DEBUG_VALUE: ufs_ioctl_vendor_package_tick:buffer <- [DW_OP_plus_uconst 8] [$sp+0]
	//DEBUG_VALUE: vendor_data_copy:index <- $x27
	//DEBUG_VALUE: copy_to_user:from <- $x24
	//DEBUG_VALUE: _copy_to_user:from <- $x24
	//DEBUG_VALUE: vendor_data_copy:buf <- $x24
	//DEBUG_VALUE: vendor_data_copy:dev <- $x23
	//DEBUG_VALUE: ufs_ioctl_vendor_package_tick:dev <- $x23
	//DEBUG_VALUE: vendor_data_copy:hba <- $x20
	//DEBUG_VALUE: ufs_ioctl_vendor_package_tick:hba <- $x20
	//DEBUG_VALUE: vendor_data_copy:ufs_vendor_ioctl_state_p <- $x19
	//DEBUG_VALUE: ufs_ioctl_vendor_package_tick:ufs_vendor_ioctl_state_p <- $x19
	//DEBUG_VALUE: __range_ok:limit <- $x10
	//DEBUG_VALUE: copy_to_user:to <- $x8
	//DEBUG_VALUE: _copy_to_user:to <- $x8
	//DEBUG_VALUE: __range_ok:addr <- $x8
	//DEBUG_VALUE: vendor_data_copy:err <- $w0
	//DEBUG_VALUE: copy_to_user:n <- 256
	//DEBUG_VALUE: _copy_to_user:n <- 256
	//DEBUG_VALUE: __range_ok:size <- 256
	//DEBUG_VALUE: get_current:sp_el0 <- $x28
	//DEBUG_VALUE: test_ti_thread_flag:flag <- 26
	//DEBUG_VALUE: test_bit:nr <- 26
	//DEBUG_VALUE: test_bit:addr <- $x28
	.loc	180 106 16                      // kernel/include/asm-generic/bitops/non-atomic.h:106:16
	ldr	x12, [x28]
.Ltmp185:
	//DEBUG_VALUE: test_ti_thread_flag:ti <- $x28
	.loc	180 0 16 is_stmt 0              // kernel/include/asm-generic/bitops/non-atomic.h:0:16
	mov	x11, x8
.Ltmp186:
	.loc	179 75 6 is_stmt 1              // kernel/arch/arm64/include/asm/uaccess.h:75:6
	tbz	w12, #26, .LBB1_27
.Ltmp187:
.LBB1_26:                               //   in Loop: Header=BB1_16 Depth=1
	//DEBUG_VALUE: ufs_ioctl_vendor_package_tick:buffer <- [DW_OP_plus_uconst 8] [$sp+0]
	//DEBUG_VALUE: vendor_data_copy:index <- $x27
	//DEBUG_VALUE: copy_to_user:from <- $x24
	//DEBUG_VALUE: _copy_to_user:from <- $x24
	//DEBUG_VALUE: vendor_data_copy:buf <- $x24
	//DEBUG_VALUE: vendor_data_copy:dev <- $x23
	//DEBUG_VALUE: ufs_ioctl_vendor_package_tick:dev <- $x23
	//DEBUG_VALUE: vendor_data_copy:hba <- $x20
	//DEBUG_VALUE: ufs_ioctl_vendor_package_tick:hba <- $x20
	//DEBUG_VALUE: vendor_data_copy:ufs_vendor_ioctl_state_p <- $x19
	//DEBUG_VALUE: ufs_ioctl_vendor_package_tick:ufs_vendor_ioctl_state_p <- $x19
	//DEBUG_VALUE: __range_ok:limit <- $x10
	//DEBUG_VALUE: copy_to_user:to <- $x8
	//DEBUG_VALUE: _copy_to_user:to <- $x8
	//DEBUG_VALUE: __range_ok:addr <- $x8
	//DEBUG_VALUE: vendor_data_copy:err <- $w0
	//DEBUG_VALUE: copy_to_user:n <- 256
	//DEBUG_VALUE: _copy_to_user:n <- 256
	//DEBUG_VALUE: __range_ok:size <- 256
	//DEBUG_VALUE: __addr <- $x8
	//DEBUG_VALUE: sign_extend64:value <- $x8
	//DEBUG_VALUE: sign_extend64:index <- 55
	//DEBUG_VALUE: sign_extend64:shift <- 8
	.loc	179 77 10                       // kernel/arch/arm64/include/asm/uaccess.h:77:10
	and	x11, x8, x9, asr #8
.Ltmp188:
	//DEBUG_VALUE: __addr <- $x11
	//DEBUG_VALUE: __range_ok:addr <- undef
.LBB1_27:                               //   in Loop: Header=BB1_16 Depth=1
	//DEBUG_VALUE: ufs_ioctl_vendor_package_tick:buffer <- [DW_OP_plus_uconst 8] [$sp+0]
	//DEBUG_VALUE: vendor_data_copy:index <- $x27
	//DEBUG_VALUE: copy_to_user:from <- $x24
	//DEBUG_VALUE: _copy_to_user:from <- $x24
	//DEBUG_VALUE: vendor_data_copy:buf <- $x24
	//DEBUG_VALUE: vendor_data_copy:dev <- $x23
	//DEBUG_VALUE: ufs_ioctl_vendor_package_tick:dev <- $x23
	//DEBUG_VALUE: vendor_data_copy:hba <- $x20
	//DEBUG_VALUE: ufs_ioctl_vendor_package_tick:hba <- $x20
	//DEBUG_VALUE: vendor_data_copy:ufs_vendor_ioctl_state_p <- $x19
	//DEBUG_VALUE: ufs_ioctl_vendor_package_tick:ufs_vendor_ioctl_state_p <- $x19
	//DEBUG_VALUE: __range_ok:limit <- $x10
	//DEBUG_VALUE: copy_to_user:to <- $x8
	//DEBUG_VALUE: _copy_to_user:to <- $x8
	//DEBUG_VALUE: vendor_data_copy:err <- $w0
	//DEBUG_VALUE: copy_to_user:n <- 256
	//DEBUG_VALUE: _copy_to_user:n <- 256
	//DEBUG_VALUE: __range_ok:size <- 256
	//DEBUG_VALUE: __range_ok:addr <- $x11
	.loc	179 80 2                        // kernel/arch/arm64/include/asm/uaccess.h:80:2
	//APP
	adds	x11, x11, #256                  // =256
	csel	x10, xzr, x10, hi
	csinv	x11, x11, xzr, lo
	sbcs	xzr, x11, x10
	cset	x11, ls

	//NO_APP
.Ltmp189:
	//DEBUG_VALUE: __range_ok:ret <- $x11
	//DEBUG_VALUE: __range_ok:limit <- undef
	.loc	181 177 6                       // kernel/include/linux/uaccess.h:177:6
	cbz	x11, .LBB1_35
.Ltmp190:
// %bb.28:                              //   in Loop: Header=BB1_16 Depth=1
	//DEBUG_VALUE: ufs_ioctl_vendor_package_tick:buffer <- [DW_OP_plus_uconst 8] [$sp+0]
	//DEBUG_VALUE: vendor_data_copy:index <- $x27
	//DEBUG_VALUE: copy_to_user:from <- $x24
	//DEBUG_VALUE: _copy_to_user:from <- $x24
	//DEBUG_VALUE: vendor_data_copy:buf <- $x24
	//DEBUG_VALUE: vendor_data_copy:dev <- $x23
	//DEBUG_VALUE: ufs_ioctl_vendor_package_tick:dev <- $x23
	//DEBUG_VALUE: vendor_data_copy:hba <- $x20
	//DEBUG_VALUE: ufs_ioctl_vendor_package_tick:hba <- $x20
	//DEBUG_VALUE: vendor_data_copy:ufs_vendor_ioctl_state_p <- $x19
	//DEBUG_VALUE: ufs_ioctl_vendor_package_tick:ufs_vendor_ioctl_state_p <- $x19
	//DEBUG_VALUE: copy_to_user:to <- $x8
	//DEBUG_VALUE: _copy_to_user:to <- $x8
	//DEBUG_VALUE: vendor_data_copy:err <- $w0
	//DEBUG_VALUE: copy_to_user:n <- 256
	//DEBUG_VALUE: _copy_to_user:n <- 256
	.loc	179 277 2                       // kernel/arch/arm64/include/asm/uaccess.h:277:2
	//APP
.Ltmp191:
	nop
.Ltmp192:
	.section	.altinstructions,"a",@progbits
.Ltmp193:
	.word	.Ltmp191-.Ltmp193
.Ltmp195:
	.word	.Ltmp194-.Ltmp195
	.hword	10
	.byte	.Ltmp192-.Ltmp191
	.byte	.Ltmp196-.Ltmp194
	.text

	.text	1
.Ltmp194:
	.inst	0xd500409f

.Ltmp196:
.Ltmp197:
.org (.Ltmp197-(.Ltmp196-.Ltmp194))+(.Ltmp192-.Ltmp191), 0
.Ltmp198:
.org (.Ltmp198-(.Ltmp192-.Ltmp191))+(.Ltmp196-.Ltmp194), 0
	.text


	//NO_APP
.Ltmp199:
	//DEBUG_VALUE: get_current:sp_el0 <- $x28
	//DEBUG_VALUE: __uaccess_mask_ptr:ptr <- $x8
	.loc	179 294 43                      // kernel/arch/arm64/include/asm/uaccess.h:294:43
	ldr	x10, [x28, #8]
.Ltmp200:
	//DEBUG_VALUE: sign_extend64:shift <- 8
	//DEBUG_VALUE: sign_extend64:index <- 55
	//DEBUG_VALUE: sign_extend64:value <- $x8
	//DEBUG_VALUE: __addr <- $x8
	.loc	179 295 9                       // kernel/arch/arm64/include/asm/uaccess.h:295:9
	and	x9, x8, x9, asr #8
.Ltmp201:
	//DEBUG_VALUE: __addr <- $x9
	.loc	179 290 2                       // kernel/arch/arm64/include/asm/uaccess.h:290:2
	//APP
	bics	xzr, x9, x10
	csel	x0, x8, xzr, eq

	//NO_APP
.Ltmp202:
	//DEBUG_VALUE: __uaccess_mask_ptr:safe_ptr <- $x0
	.loc	179 298 2                       // kernel/arch/arm64/include/asm/uaccess.h:298:2
	//APP
	csdb
	//NO_APP
.Ltmp203:
	.loc	181 179 7                       // kernel/include/linux/uaccess.h:179:7
	mov	w2, #256
	mov	x1, x24
	bl	__arch_copy_to_user
.Ltmp204:
	mov	x21, x0
.Ltmp205:
	//DEBUG_VALUE: __actu_ret <- $x21
	//DEBUG_VALUE: _copy_to_user:n <- $x21
	//DEBUG_VALUE: copy_to_user:n <- $x21
	.loc	179 272 2                       // kernel/arch/arm64/include/asm/uaccess.h:272:2
	//APP
.Ltmp206:
	nop
.Ltmp207:
	.section	.altinstructions,"a",@progbits
.Ltmp208:
	.word	.Ltmp206-.Ltmp208
.Ltmp210:
	.word	.Ltmp209-.Ltmp210
	.hword	10
	.byte	.Ltmp207-.Ltmp206
	.byte	.Ltmp211-.Ltmp209
	.text

	.text	1
.Ltmp209:
	.inst	0xd500419f

.Ltmp211:
.Ltmp212:
.org (.Ltmp212-(.Ltmp211-.Ltmp209))+(.Ltmp207-.Ltmp206), 0
.Ltmp213:
.org (.Ltmp213-(.Ltmp207-.Ltmp206))+(.Ltmp211-.Ltmp209), 0
	.text


	//NO_APP
.Ltmp214:
	//DEBUG_VALUE: vendor_data_copy:err <- $w21
	.loc	179 0 2 is_stmt 0               // kernel/arch/arm64/include/asm/uaccess.h:0:2
	cbz	w21, .LBB1_15
	b	.LBB1_36
.Ltmp215:
.LBB1_29:
	//DEBUG_VALUE: vendor_data_copy:dev <- $x23
	//DEBUG_VALUE: ufs_ioctl_vendor_package_tick:dev <- $x23
	//DEBUG_VALUE: vendor_data_copy:hba <- $x20
	//DEBUG_VALUE: ufs_ioctl_vendor_package_tick:hba <- $x20
	//DEBUG_VALUE: vendor_data_copy:ufs_vendor_ioctl_state_p <- $x19
	//DEBUG_VALUE: ufs_ioctl_vendor_package_tick:ufs_vendor_ioctl_state_p <- $x19
	//DEBUG_VALUE: vendor_data_copy:err <- 0
	mov	w21, wzr
	b	.LBB1_38
.Ltmp216:
.LBB1_30:
	//DEBUG_VALUE: ufs_ioctl_vendor_package_tick:buffer <- [DW_OP_plus_uconst 8] [$sp+0]
	//DEBUG_VALUE: vendor_data_copy:index <- $x27
	//DEBUG_VALUE: vendor_data_copy:buf <- $x24
	//DEBUG_VALUE: vendor_data_copy:dev <- $x23
	//DEBUG_VALUE: ufs_ioctl_vendor_package_tick:dev <- $x23
	//DEBUG_VALUE: vendor_data_copy:hba <- $x20
	//DEBUG_VALUE: ufs_ioctl_vendor_package_tick:hba <- $x20
	//DEBUG_VALUE: vendor_data_copy:ufs_vendor_ioctl_state_p <- $x19
	//DEBUG_VALUE: ufs_ioctl_vendor_package_tick:ufs_vendor_ioctl_state_p <- $x19
	//DEBUG_VALUE: vendor_data_copy:err <- 0
	.loc	169 152 4 is_stmt 1             // kernel/drivers/scsi/ufs/ufs_vendor_mode.c:152:4
	ldr	x0, [x20, #15352]
	adrp	x1, .L.str.13
	adrp	x2, .L__func__.vendor_data_copy
	add	x1, x1, :lo12:.L.str.13
	add	x2, x2, :lo12:.L__func__.vendor_data_copy
	bl	_dev_err
.Ltmp217:
	.loc	169 0 4 is_stmt 0               // kernel/drivers/scsi/ufs/ufs_vendor_mode.c:0:4
	mov	w21, #-22
.Ltmp218:
	//DEBUG_VALUE: vendor_data_copy:err <- -22
	b	.LBB1_38
.Ltmp219:
.LBB1_31:
	//DEBUG_VALUE: ufs_ioctl_vendor_package_tick:dev <- $x23
	//DEBUG_VALUE: ufs_ioctl_vendor_package_tick:buffer <- $x22
	//DEBUG_VALUE: ufs_ioctl_vendor_package_tick:hba <- $x20
	//DEBUG_VALUE: ufs_ioctl_vendor_package_tick:ufs_vendor_ioctl_state_p <- $x19
	//DEBUG_VALUE: ufs_ioctl_vendor_package_tick:err <- 0
	.loc	169 219 3 is_stmt 1             // kernel/drivers/scsi/ufs/ufs_vendor_mode.c:219:3
	ldr	x0, [x20, #15352]
	adrp	x1, .L.str.8
	adrp	x2, .L__func__.ufs_ioctl_vendor_package_tick
	add	x1, x1, :lo12:.L.str.8
	add	x2, x2, :lo12:.L__func__.ufs_ioctl_vendor_package_tick
	bl	_dev_err
.Ltmp220:
	.loc	169 0 3 is_stmt 0               // kernel/drivers/scsi/ufs/ufs_vendor_mode.c:0:3
	mov	w21, #-22
.Ltmp221:
	//DEBUG_VALUE: ufs_ioctl_vendor_package_tick:err <- -22
	b	.LBB1_39
.Ltmp222:
.LBB1_32:
	//DEBUG_VALUE: ufs_ioctl_vendor_package_tick:dev <- $x23
	//DEBUG_VALUE: ufs_ioctl_vendor_package_tick:buffer <- $x22
	//DEBUG_VALUE: ufs_ioctl_vendor_package_tick:hba <- $x20
	//DEBUG_VALUE: ufs_ioctl_vendor_package_tick:ufs_vendor_ioctl_state_p <- $x19
	//DEBUG_VALUE: ufs_ioctl_vendor_package_tick:err <- $w0
	mov	w21, w0
.Ltmp223:
	//DEBUG_VALUE: ufs_ioctl_vendor_package_tick:err <- $w21
	//DEBUG_VALUE: ufs_ioctl_vendor_package_tick:err <- $w21
	.loc	169 226 3 is_stmt 1             // kernel/drivers/scsi/ufs/ufs_vendor_mode.c:226:3
	ldr	x0, [x20, #15352]
	adrp	x1, .L.str.9
	adrp	x2, .L__func__.ufs_ioctl_vendor_package_tick
	add	x1, x1, :lo12:.L.str.9
	add	x2, x2, :lo12:.L__func__.ufs_ioctl_vendor_package_tick
	b	.LBB1_37
.Ltmp224:
.LBB1_33:
	//DEBUG_VALUE: ufs_ioctl_vendor_package_tick:buffer <- [DW_OP_plus_uconst 8] [$sp+0]
	//DEBUG_VALUE: vendor_data_copy:index <- $x27
	//DEBUG_VALUE: vendor_data_copy:buf <- $x24
	//DEBUG_VALUE: vendor_data_copy:dev <- $x23
	//DEBUG_VALUE: ufs_ioctl_vendor_package_tick:dev <- $x23
	//DEBUG_VALUE: vendor_data_copy:hba <- $x20
	//DEBUG_VALUE: ufs_ioctl_vendor_package_tick:hba <- $x20
	//DEBUG_VALUE: vendor_data_copy:ufs_vendor_ioctl_state_p <- $x19
	//DEBUG_VALUE: ufs_ioctl_vendor_package_tick:ufs_vendor_ioctl_state_p <- $x19
	//DEBUG_VALUE: vendor_data_copy:err <- $w0
	.loc	169 0 0 is_stmt 0               // kernel/drivers/scsi/ufs/ufs_vendor_mode.c:0:0
	mov	w21, w0
.Ltmp225:
	//DEBUG_VALUE: vendor_data_copy:err <- $w21
	//DEBUG_VALUE: vendor_data_copy:err <- $w21
	.loc	169 168 4 is_stmt 1             // kernel/drivers/scsi/ufs/ufs_vendor_mode.c:168:4
	ldr	x0, [x20, #15352]
	ldrb	w3, [x22, x25]
	adrp	x1, .L.str.15
	adrp	x2, .L__func__.vendor_data_copy
	add	x1, x1, :lo12:.L.str.15
	add	x2, x2, :lo12:.L__func__.vendor_data_copy
	mov	w4, w21
	bl	_dev_err
.Ltmp226:
	.loc	169 0 4 is_stmt 0               // kernel/drivers/scsi/ufs/ufs_vendor_mode.c:0:4
	b	.LBB1_38
.Ltmp227:
.LBB1_34:
	//DEBUG_VALUE: ufs_ioctl_vendor_package_tick:buffer <- [DW_OP_plus_uconst 8] [$sp+0]
	//DEBUG_VALUE: vendor_data_copy:index <- $x27
	//DEBUG_VALUE: vendor_data_copy:dev <- $x23
	//DEBUG_VALUE: ufs_ioctl_vendor_package_tick:dev <- $x23
	//DEBUG_VALUE: vendor_data_copy:hba <- $x20
	//DEBUG_VALUE: ufs_ioctl_vendor_package_tick:hba <- $x20
	//DEBUG_VALUE: vendor_data_copy:ufs_vendor_ioctl_state_p <- $x19
	//DEBUG_VALUE: ufs_ioctl_vendor_package_tick:ufs_vendor_ioctl_state_p <- $x19
	//DEBUG_VALUE: vendor_data_copy:err <- 0
	.loc	169 159 5 is_stmt 1             // kernel/drivers/scsi/ufs/ufs_vendor_mode.c:159:5
	ldr	x0, [x20, #15352]
	adrp	x1, .L.str.14
	add	x1, x1, :lo12:.L.str.14
	bl	_dev_err
.Ltmp228:
	.loc	169 0 5 is_stmt 0               // kernel/drivers/scsi/ufs/ufs_vendor_mode.c:0:5
	mov	w21, #-22
.Ltmp229:
	//DEBUG_VALUE: vendor_data_copy:err <- -22
	b	.LBB1_38
.Ltmp230:
.LBB1_35:
	//DEBUG_VALUE: ufs_ioctl_vendor_package_tick:buffer <- [DW_OP_plus_uconst 8] [$sp+0]
	//DEBUG_VALUE: vendor_data_copy:index <- $x27
	//DEBUG_VALUE: copy_to_user:from <- $x24
	//DEBUG_VALUE: _copy_to_user:from <- $x24
	//DEBUG_VALUE: vendor_data_copy:buf <- $x24
	//DEBUG_VALUE: vendor_data_copy:dev <- $x23
	//DEBUG_VALUE: ufs_ioctl_vendor_package_tick:dev <- $x23
	//DEBUG_VALUE: vendor_data_copy:hba <- $x20
	//DEBUG_VALUE: ufs_ioctl_vendor_package_tick:hba <- $x20
	//DEBUG_VALUE: vendor_data_copy:ufs_vendor_ioctl_state_p <- $x19
	//DEBUG_VALUE: ufs_ioctl_vendor_package_tick:ufs_vendor_ioctl_state_p <- $x19
	//DEBUG_VALUE: __range_ok:ret <- $x11
	//DEBUG_VALUE: copy_to_user:to <- $x8
	//DEBUG_VALUE: _copy_to_user:to <- $x8
	//DEBUG_VALUE: vendor_data_copy:err <- $w0
	//DEBUG_VALUE: copy_to_user:n <- 256
	//DEBUG_VALUE: _copy_to_user:n <- 256
	//DEBUG_VALUE: __range_ok:size <- 256
	mov	w21, #256
.Ltmp231:
.LBB1_36:
	//DEBUG_VALUE: ufs_ioctl_vendor_package_tick:buffer <- [DW_OP_plus_uconst 8] [$sp+0]
	//DEBUG_VALUE: vendor_data_copy:index <- $x27
	//DEBUG_VALUE: vendor_data_copy:buf <- $x24
	//DEBUG_VALUE: vendor_data_copy:dev <- $x23
	//DEBUG_VALUE: ufs_ioctl_vendor_package_tick:dev <- $x23
	//DEBUG_VALUE: vendor_data_copy:hba <- $x20
	//DEBUG_VALUE: ufs_ioctl_vendor_package_tick:hba <- $x20
	//DEBUG_VALUE: vendor_data_copy:ufs_vendor_ioctl_state_p <- $x19
	//DEBUG_VALUE: ufs_ioctl_vendor_package_tick:ufs_vendor_ioctl_state_p <- $x19
	.loc	169 178 5 is_stmt 1             // kernel/drivers/scsi/ufs/ufs_vendor_mode.c:178:5
	ldr	x0, [x20, #15352]
	adrp	x1, .L.str.16
	adrp	x2, .L__func__.vendor_data_copy
	add	x1, x1, :lo12:.L.str.16
	add	x2, x2, :lo12:.L__func__.vendor_data_copy
.Ltmp232:
.LBB1_37:
	//DEBUG_VALUE: ufs_ioctl_vendor_package_tick:dev <- $x23
	//DEBUG_VALUE: ufs_ioctl_vendor_package_tick:hba <- $x20
	//DEBUG_VALUE: ufs_ioctl_vendor_package_tick:ufs_vendor_ioctl_state_p <- $x19
	.loc	169 0 0 is_stmt 0               // kernel/drivers/scsi/ufs/ufs_vendor_mode.c:0:0
	mov	w3, w21
	bl	_dev_err
.Ltmp233:
.LBB1_38:
	//DEBUG_VALUE: ufs_ioctl_vendor_package_tick:dev <- $x23
	//DEBUG_VALUE: ufs_ioctl_vendor_package_tick:hba <- $x20
	//DEBUG_VALUE: ufs_ioctl_vendor_package_tick:ufs_vendor_ioctl_state_p <- $x19
	//DEBUG_VALUE: ufs_ioctl_vendor_package_tick:err <- $w21
	//DEBUG_LABEL: ufs_ioctl_vendor_package_tick:error_out
	.loc	169 233 29 is_stmt 1            // kernel/drivers/scsi/ufs/ufs_vendor_mode.c:233:29
	ldr	x0, [x20, #15344]
	.loc	169 233 2 is_stmt 0             // kernel/drivers/scsi/ufs/ufs_vendor_mode.c:233:2
	bl	scsi_unblock_requests
.Ltmp234:
.LBB1_39:
	//DEBUG_VALUE: ufs_ioctl_vendor_package_tick:dev <- $x23
	//DEBUG_VALUE: ufs_ioctl_vendor_package_tick:hba <- $x20
	//DEBUG_VALUE: ufs_ioctl_vendor_package_tick:ufs_vendor_ioctl_state_p <- $x19
	//DEBUG_VALUE: ufs_ioctl_vendor_package_tick:err <- $w21
	//DEBUG_VALUE: ufs_ioctl_error_handle:ufs_vendor_ioctl_state_p <- $x19
	//DEBUG_LABEL: ufs_ioctl_vendor_package_tick:out
	.loc	169 125 32 is_stmt 1            // kernel/drivers/scsi/ufs/ufs_vendor_mode.c:125:32
	ldr	x0, [x19]
.Ltmp235:
	.loc	169 125 6 is_stmt 0             // kernel/drivers/scsi/ufs/ufs_vendor_mode.c:125:6
	cbz	x0, .LBB1_50
.Ltmp236:
// %bb.40:
	//DEBUG_VALUE: ufs_ioctl_vendor_package_tick:dev <- $x23
	//DEBUG_VALUE: ufs_ioctl_vendor_package_tick:hba <- $x20
	//DEBUG_VALUE: ufs_ioctl_error_handle:ufs_vendor_ioctl_state_p <- $x19
	//DEBUG_VALUE: ufs_ioctl_vendor_package_tick:ufs_vendor_ioctl_state_p <- $x19
	//DEBUG_VALUE: ufs_ioctl_vendor_package_tick:err <- $w21
	//DEBUG_VALUE: ufs_ioctl_error_handle:index <- 0
	.loc	169 126 53 is_stmt 1            // kernel/drivers/scsi/ufs/ufs_vendor_mode.c:126:53
	ldr	w8, [x19, #8]
.Ltmp237:
	.loc	169 126 3 is_stmt 0             // kernel/drivers/scsi/ufs/ufs_vendor_mode.c:126:3
	cmp	w8, #1                          // =1
	b.lt	.LBB1_49
.Ltmp238:
// %bb.41:
	//DEBUG_VALUE: ufs_ioctl_vendor_package_tick:dev <- $x23
	//DEBUG_VALUE: ufs_ioctl_vendor_package_tick:hba <- $x20
	//DEBUG_VALUE: ufs_ioctl_error_handle:ufs_vendor_ioctl_state_p <- $x19
	//DEBUG_VALUE: ufs_ioctl_vendor_package_tick:ufs_vendor_ioctl_state_p <- $x19
	//DEBUG_VALUE: ufs_ioctl_vendor_package_tick:err <- $w21
	//DEBUG_VALUE: ufs_ioctl_error_handle:index <- 0
	.loc	169 128 34 is_stmt 1            // kernel/drivers/scsi/ufs/ufs_vendor_mode.c:128:34
	mov	x20, xzr
.Ltmp239:
	//DEBUG_VALUE: ufs_ioctl_vendor_package_tick:hba <- [DW_OP_LLVM_entry_value 1] $x0
	.loc	169 0 34 is_stmt 0              // kernel/drivers/scsi/ufs/ufs_vendor_mode.c:0:34
	mov	w22, #1
.Ltmp240:
.LBB1_42:                               // =>This Inner Loop Header: Depth=1
	//DEBUG_VALUE: ufs_ioctl_vendor_package_tick:dev <- $x23
	//DEBUG_VALUE: ufs_ioctl_error_handle:ufs_vendor_ioctl_state_p <- $x19
	//DEBUG_VALUE: ufs_ioctl_vendor_package_tick:ufs_vendor_ioctl_state_p <- $x19
	//DEBUG_VALUE: ufs_ioctl_vendor_package_tick:err <- $w21
	//DEBUG_VALUE: ufs_ioctl_vendor_package_tick:hba <- [DW_OP_LLVM_entry_value 1] $x0
	//DEBUG_VALUE: ufs_ioctl_error_handle:index <- [DW_OP_constu 1, DW_OP_minus, DW_OP_stack_value] $x22
	.loc	169 128 52                      // kernel/drivers/scsi/ufs/ufs_vendor_mode.c:128:52
	add	x8, x0, x20
	ldr	w9, [x8, #16]
.Ltmp241:
	.loc	169 128 8                       // kernel/drivers/scsi/ufs/ufs_vendor_mode.c:128:8
	cbz	w9, .LBB1_44
.Ltmp242:
// %bb.43:                              //   in Loop: Header=BB1_42 Depth=1
	//DEBUG_VALUE: ufs_ioctl_vendor_package_tick:dev <- $x23
	//DEBUG_VALUE: ufs_ioctl_error_handle:index <- [DW_OP_constu 1, DW_OP_minus, DW_OP_stack_value] $x22
	//DEBUG_VALUE: ufs_ioctl_error_handle:ufs_vendor_ioctl_state_p <- $x19
	//DEBUG_VALUE: ufs_ioctl_vendor_package_tick:ufs_vendor_ioctl_state_p <- $x19
	//DEBUG_VALUE: ufs_ioctl_vendor_package_tick:err <- $w21
	//DEBUG_VALUE: ufs_ioctl_vendor_package_tick:hba <- [DW_OP_LLVM_entry_value 1] $x0
	.loc	169 129 59 is_stmt 1            // kernel/drivers/scsi/ufs/ufs_vendor_mode.c:129:59
	str	wzr, [x8, #16]
.Ltmp243:
	.loc	169 130 34                      // kernel/drivers/scsi/ufs/ufs_vendor_mode.c:130:34
	ldr	x0, [x19]
.Ltmp244:
.LBB1_44:                               //   in Loop: Header=BB1_42 Depth=1
	//DEBUG_VALUE: ufs_ioctl_vendor_package_tick:dev <- $x23
	//DEBUG_VALUE: ufs_ioctl_error_handle:index <- [DW_OP_constu 1, DW_OP_minus, DW_OP_stack_value] $x22
	//DEBUG_VALUE: ufs_ioctl_error_handle:ufs_vendor_ioctl_state_p <- $x19
	//DEBUG_VALUE: ufs_ioctl_vendor_package_tick:ufs_vendor_ioctl_state_p <- $x19
	//DEBUG_VALUE: ufs_ioctl_vendor_package_tick:err <- $w21
	//DEBUG_VALUE: ufs_ioctl_vendor_package_tick:hba <- [DW_OP_LLVM_entry_value 1] $x0
	.loc	169 130 52 is_stmt 0            // kernel/drivers/scsi/ufs/ufs_vendor_mode.c:130:52
	add	x8, x0, x20
	ldr	x0, [x8, #24]
.Ltmp245:
	.loc	169 130 8                       // kernel/drivers/scsi/ufs/ufs_vendor_mode.c:130:8
	cbz	x0, .LBB1_46
.Ltmp246:
// %bb.45:                              //   in Loop: Header=BB1_42 Depth=1
	//DEBUG_VALUE: ufs_ioctl_vendor_package_tick:dev <- $x23
	//DEBUG_VALUE: ufs_ioctl_error_handle:index <- [DW_OP_constu 1, DW_OP_minus, DW_OP_stack_value] $x22
	//DEBUG_VALUE: ufs_ioctl_error_handle:ufs_vendor_ioctl_state_p <- $x19
	//DEBUG_VALUE: ufs_ioctl_vendor_package_tick:ufs_vendor_ioctl_state_p <- $x19
	//DEBUG_VALUE: ufs_ioctl_vendor_package_tick:err <- $w21
	//DEBUG_VALUE: ufs_ioctl_vendor_package_tick:hba <- [DW_OP_LLVM_entry_value 1] $x0
	.loc	169 131 5 is_stmt 1             // kernel/drivers/scsi/ufs/ufs_vendor_mode.c:131:5
	bl	kfree
.Ltmp247:
	.loc	169 132 31                      // kernel/drivers/scsi/ufs/ufs_vendor_mode.c:132:31
	ldr	x8, [x19]
	.loc	169 132 53 is_stmt 0            // kernel/drivers/scsi/ufs/ufs_vendor_mode.c:132:53
	add	x8, x8, x20
	str	xzr, [x8, #24]
.Ltmp248:
.LBB1_46:                               //   in Loop: Header=BB1_42 Depth=1
	//DEBUG_VALUE: ufs_ioctl_vendor_package_tick:dev <- $x23
	//DEBUG_VALUE: ufs_ioctl_error_handle:index <- [DW_OP_constu 1, DW_OP_minus, DW_OP_stack_value] $x22
	//DEBUG_VALUE: ufs_ioctl_error_handle:ufs_vendor_ioctl_state_p <- $x19
	//DEBUG_VALUE: ufs_ioctl_vendor_package_tick:ufs_vendor_ioctl_state_p <- $x19
	//DEBUG_VALUE: ufs_ioctl_vendor_package_tick:err <- $w21
	//DEBUG_VALUE: ufs_ioctl_vendor_package_tick:hba <- [DW_OP_LLVM_entry_value 1] $x0
	//DEBUG_VALUE: ufs_ioctl_error_handle:index <- $x22
	.loc	169 126 53 is_stmt 1            // kernel/drivers/scsi/ufs/ufs_vendor_mode.c:126:53
	ldrsw	x8, [x19, #8]
.Ltmp249:
	.loc	169 126 3 is_stmt 0             // kernel/drivers/scsi/ufs/ufs_vendor_mode.c:126:3
	cmp	x22, x8
	b.ge	.LBB1_48
.Ltmp250:
// %bb.47:                              //   in Loop: Header=BB1_42 Depth=1
	//DEBUG_VALUE: ufs_ioctl_vendor_package_tick:dev <- $x23
	//DEBUG_VALUE: ufs_ioctl_error_handle:index <- $x22
	//DEBUG_VALUE: ufs_ioctl_error_handle:ufs_vendor_ioctl_state_p <- $x19
	//DEBUG_VALUE: ufs_ioctl_vendor_package_tick:ufs_vendor_ioctl_state_p <- $x19
	//DEBUG_VALUE: ufs_ioctl_vendor_package_tick:err <- $w21
	//DEBUG_VALUE: ufs_ioctl_vendor_package_tick:hba <- [DW_OP_LLVM_entry_value 1] $x0
	.loc	169 128 34 is_stmt 1            // kernel/drivers/scsi/ufs/ufs_vendor_mode.c:128:34
	ldr	x0, [x19]
.Ltmp251:
	.loc	169 126 3                       // kernel/drivers/scsi/ufs/ufs_vendor_mode.c:126:3
	add	x22, x22, #1                    // =1
.Ltmp252:
	add	x20, x20, #32                   // =32
	b	.LBB1_42
.Ltmp253:
.LBB1_48:
	//DEBUG_VALUE: ufs_ioctl_vendor_package_tick:dev <- $x23
	//DEBUG_VALUE: ufs_ioctl_error_handle:index <- $x22
	//DEBUG_VALUE: ufs_ioctl_error_handle:ufs_vendor_ioctl_state_p <- $x19
	//DEBUG_VALUE: ufs_ioctl_vendor_package_tick:ufs_vendor_ioctl_state_p <- $x19
	//DEBUG_VALUE: ufs_ioctl_vendor_package_tick:err <- $w21
	//DEBUG_VALUE: ufs_ioctl_vendor_package_tick:hba <- [DW_OP_LLVM_entry_value 1] $x0
	.loc	169 135 35                      // kernel/drivers/scsi/ufs/ufs_vendor_mode.c:135:35
	ldr	x0, [x19]
.Ltmp254:
.LBB1_49:
	//DEBUG_VALUE: ufs_ioctl_vendor_package_tick:dev <- $x23
	//DEBUG_VALUE: ufs_ioctl_error_handle:ufs_vendor_ioctl_state_p <- $x19
	//DEBUG_VALUE: ufs_ioctl_vendor_package_tick:ufs_vendor_ioctl_state_p <- $x19
	//DEBUG_VALUE: ufs_ioctl_vendor_package_tick:err <- $w21
	.loc	169 135 3 is_stmt 0             // kernel/drivers/scsi/ufs/ufs_vendor_mode.c:135:3
	bl	kfree
.Ltmp255:
	.loc	169 136 40 is_stmt 1            // kernel/drivers/scsi/ufs/ufs_vendor_mode.c:136:40
	str	xzr, [x19]
.Ltmp256:
.LBB1_50:
	//DEBUG_VALUE: ufs_ioctl_vendor_package_tick:dev <- $x23
	//DEBUG_VALUE: ufs_ioctl_error_handle:ufs_vendor_ioctl_state_p <- $x19
	//DEBUG_VALUE: ufs_ioctl_vendor_package_tick:ufs_vendor_ioctl_state_p <- $x19
	//DEBUG_VALUE: ufs_ioctl_vendor_package_tick:err <- $w21
	.loc	169 236 2                       // kernel/drivers/scsi/ufs/ufs_vendor_mode.c:236:2
	adrp	x0, s_health_info_lock
	add	x0, x0, :lo12:s_health_info_lock
.Ltmp257:
	.loc	169 138 38                      // kernel/drivers/scsi/ufs/ufs_vendor_mode.c:138:38
	str	wzr, [x19, #8]
.Ltmp258:
	.loc	169 236 2                       // kernel/drivers/scsi/ufs/ufs_vendor_mode.c:236:2
	bl	mutex_unlock
.Ltmp259:
	.loc	169 0 2 is_stmt 0               // kernel/drivers/scsi/ufs/ufs_vendor_mode.c:0:2
	b	.LBB1_6
.Ltmp260:
.Lfunc_end1:
	.size	ufs_ioctl_vendor_package_tick, .Lfunc_end1-ufs_ioctl_vendor_package_tick
	.cfi_endproc
	.file	188 "/mnt/disk/jenkins/ci/workspace/chipset_pipeline_release/opensource/component_code/vendor/huawei/extra/build/build_script/kirin_kernel_release" "kernel/include/linux/printk.h"
                                        // -- End function
	.type	s_health_info_lock,@object      // @s_health_info_lock
	.data
	.globl	s_health_info_lock
	.p2align	3
s_health_info_lock:
	.zero	8
	.zero	4
	.word	3735899821                      // 0xdead4ead
	.word	4294967295                      // 0xffffffff
	.zero	4
	.xword	-1
	.zero	4
	.zero	4
	.xword	s_health_info_lock+40
	.xword	s_health_info_lock+40
	.xword	0
	.size	s_health_info_lock, 64

	.type	.L.str,@object                  // @.str
	.section	.rodata.str1.1,"aMS",@progbits,1
.L.str:
	.asciz	"ufs_vendor_ioctl_state_p addr is NULL\n"
	.size	.L.str, 39

	.type	.L.str.1,@object                // @.str.1
.L.str.1:
	.asciz	"%s: User buffer is NULL!\n"
	.size	.L.str.1, 26

	.type	.L__func__.ufs_ioctl_vendor_package,@object // @__func__.ufs_ioctl_vendor_package
.L__func__.ufs_ioctl_vendor_package:
	.asciz	"ufs_ioctl_vendor_package"
	.size	.L__func__.ufs_ioctl_vendor_package, 25

	.type	.L.str.2,@object                // @.str.2
.L.str.2:
	.asciz	"%s: ioctl vendor cmd buffering\n"
	.size	.L.str.2, 32

	.type	.L.str.3,@object                // @.str.3
.L.str.3:
	.asciz	"%s: ioctl vendor cmd over count, %d\n"
	.size	.L.str.3, 37

	.type	.L.str.4,@object                // @.str.4
.L.str.4:
	.asciz	"%s: vendor cmd mem alloc error\n"
	.size	.L.str.4, 32

	.type	ufs_ioctl_vendor_package_tick.s_timeout,@object // @ufs_ioctl_vendor_package_tick.s_timeout
	.local	ufs_ioctl_vendor_package_tick.s_timeout
	.comm	ufs_ioctl_vendor_package_tick.s_timeout,8,8
	.type	.L.str.5,@object                // @.str.5
.L.str.5:
	.asciz	"\0013ufshcd :hba addr is NULL\n"
	.size	.L.str.5, 28

	.type	.L__func__.ufs_ioctl_vendor_package_tick,@object // @__func__.ufs_ioctl_vendor_package_tick
.L__func__.ufs_ioctl_vendor_package_tick:
	.asciz	"ufs_ioctl_vendor_package_tick"
	.size	.L__func__.ufs_ioctl_vendor_package_tick, 30

	.type	.L.str.6,@object                // @.str.6
.L.str.6:
	.asciz	"%s: wait for half an hour and try again\n"
	.size	.L.str.6, 41

	.type	.L.str.7,@object                // @.str.7
.L.str.7:
	.asciz	"%s: send all vendor cmd\n"
	.size	.L.str.7, 25

	.type	.L.str.8,@object                // @.str.8
.L.str.8:
	.asciz	"%s: vendor package cmd not init\n"
	.size	.L.str.8, 33

	.type	.L.str.9,@object                // @.str.9
.L.str.9:
	.asciz	"%s: wait for req cleard time out, ret == %d\n"
	.size	.L.str.9, 45

	.type	.L.str.10,@object               // @.str.10
.L.str.10:
	.asciz	"%s: copy cdb error\n"
	.size	.L.str.10, 20

	.type	.L__func__.ufs_get_user_cmd,@object // @__func__.ufs_get_user_cmd
.L__func__.ufs_get_user_cmd:
	.asciz	"ufs_get_user_cmd"
	.size	.L__func__.ufs_get_user_cmd, 17

	.type	.L.str.11,@object               // @.str.11
.L.str.11:
	.asciz	"%s: copy data flag\n"
	.size	.L.str.11, 20

	.type	.L.str.13,@object               // @.str.13
.L.str.13:
	.asciz	"%s: not allow ioctl this cmd:0x%x\n"
	.size	.L.str.13, 35

	.type	.L__func__.vendor_data_copy,@object // @__func__.vendor_data_copy
.L__func__.vendor_data_copy:
	.asciz	"vendor_data_copy"
	.size	.L__func__.vendor_data_copy, 17

	.type	.L.str.14,@object               // @.str.14
.L.str.14:
	.asciz	"data bufffer is null\n"
	.size	.L.str.14, 22

	.type	.L.str.15,@object               // @.str.15
.L.str.15:
	.asciz	"%s: send cmd[0x%x] error %d\n"
	.size	.L.str.15, 29

	.type	.L.str.16,@object               // @.str.16
.L.str.16:
	.asciz	"%s: copy to user error %d\n"
	.size	.L.str.16, 27
