	.text
	.file	"pagecache_manage.c"
                                        // Start of file scope inline assembly
	.section	.initcall6.init,"a",@progbits
__initcall__kmod_pagecache_manage__426_1334___cfi_hisi_page_cache_manage_init6:
.Ltmp0:
	.word	__cfi_hisi_page_cache_manage_init-.Ltmp0
	.text


                                        // End of file scope inline assembly
	.file	1 "/mnt/disk/jenkins/ci/workspace/chipset_pipeline_release/opensource/component_code/vendor/huawei/extra/build/build_script/kirin_kernel_release" "kernel/mm/pagecache_manage.c"
	.file	2 "/mnt/disk/jenkins/ci/workspace/chipset_pipeline_release/opensource/component_code/vendor/huawei/extra/build/build_script/kirin_kernel_release" "kernel/include/linux/init.h"
	.file	3 "/mnt/disk/jenkins/ci/workspace/chipset_pipeline_release/opensource/component_code/vendor/huawei/extra/build/build_script/kirin_kernel_release" "kernel/include/linux/blkdev.h"
	.file	4 "/mnt/disk/jenkins/ci/workspace/chipset_pipeline_release/opensource/component_code/vendor/huawei/extra/build/build_script/kirin_kernel_release" "kernel/include/linux/types.h"
	.file	5 "/mnt/disk/jenkins/ci/workspace/chipset_pipeline_release/opensource/component_code/vendor/huawei/extra/build/build_script/kirin_kernel_release" "kernel/include/uapi/asm-generic/int-ll64.h"
	.file	6 "/mnt/disk/jenkins/ci/workspace/chipset_pipeline_release/opensource/component_code/vendor/huawei/extra/build/build_script/kirin_kernel_release" "kernel/include/asm-generic/int-ll64.h"
	.file	7 "/mnt/disk/jenkins/ci/workspace/chipset_pipeline_release/opensource/component_code/vendor/huawei/extra/build/build_script/kirin_kernel_release" "kernel/include/linux/blk_types.h"
	.file	8 "/mnt/disk/jenkins/ci/workspace/chipset_pipeline_release/opensource/component_code/vendor/huawei/extra/build/build_script/kirin_kernel_release" "kernel/include/linux/genhd.h"
	.file	9 "/mnt/disk/jenkins/ci/workspace/chipset_pipeline_release/opensource/component_code/vendor/huawei/extra/build/build_script/kirin_kernel_release" "kernel/include/linux/percpu-refcount.h"
	.file	10 "/mnt/disk/jenkins/ci/workspace/chipset_pipeline_release/opensource/component_code/vendor/huawei/extra/build/build_script/kirin_kernel_release" "kernel/include/asm-generic/atomic-long.h"
	.file	11 "/mnt/disk/jenkins/ci/workspace/chipset_pipeline_release/opensource/component_code/vendor/huawei/extra/build/build_script/kirin_kernel_release" "kernel/include/linux/kobject.h"
	.file	12 "/mnt/disk/jenkins/ci/workspace/chipset_pipeline_release/opensource/component_code/vendor/huawei/extra/build/build_script/kirin_kernel_release" "kernel/include/asm-generic/qspinlock_types.h"
	.file	13 "/mnt/disk/jenkins/ci/workspace/chipset_pipeline_release/opensource/component_code/vendor/huawei/extra/build/build_script/kirin_kernel_release" "kernel/include/linux/spinlock_types.h"
	.file	14 "/mnt/disk/jenkins/ci/workspace/chipset_pipeline_release/opensource/component_code/vendor/huawei/extra/build/build_script/kirin_kernel_release" "kernel/include/uapi/asm-generic/posix_types.h"
	.file	15 "/mnt/disk/jenkins/ci/workspace/chipset_pipeline_release/opensource/component_code/vendor/huawei/extra/build/build_script/kirin_kernel_release" "kernel/include/linux/sysfs.h"
	.file	16 "/mnt/disk/jenkins/ci/workspace/chipset_pipeline_release/opensource/component_code/vendor/huawei/extra/build/build_script/kirin_kernel_release" "kernel/include/linux/llist.h"
	.file	17 "/mnt/disk/jenkins/ci/workspace/chipset_pipeline_release/opensource/component_code/vendor/huawei/extra/build/build_script/kirin_kernel_release" "kernel/include/linux/fs.h"
	.file	18 "/mnt/disk/jenkins/ci/workspace/chipset_pipeline_release/opensource/component_code/vendor/huawei/extra/build/build_script/kirin_kernel_release" "kernel/include/linux/dcache.h"
	.file	19 "/mnt/disk/jenkins/ci/workspace/chipset_pipeline_release/opensource/component_code/vendor/huawei/extra/build/build_script/kirin_kernel_release" "kernel/include/linux/seqlock.h"
	.file	20 "/mnt/disk/jenkins/ci/workspace/chipset_pipeline_release/opensource/component_code/vendor/huawei/extra/build/build_script/kirin_kernel_release" "kernel/include/linux/list_bl.h"
	.file	21 "/mnt/disk/jenkins/ci/workspace/chipset_pipeline_release/opensource/component_code/vendor/huawei/extra/build/build_script/kirin_kernel_release" "kernel/include/linux/uidgid.h"
	.file	22 "/mnt/disk/jenkins/ci/workspace/chipset_pipeline_release/opensource/component_code/vendor/huawei/extra/build/build_script/kirin_kernel_release" "kernel/include/linux/delayed_call.h"
	.file	23 "/mnt/disk/jenkins/ci/workspace/chipset_pipeline_release/opensource/component_code/vendor/huawei/extra/build/build_script/kirin_kernel_release" "kernel/include/linux/time64.h"
	.file	24 "/mnt/disk/jenkins/ci/workspace/chipset_pipeline_release/opensource/component_code/vendor/huawei/extra/build/build_script/kirin_kernel_release" "kernel/include/linux/stat.h"
	.file	25 "/mnt/disk/jenkins/ci/workspace/chipset_pipeline_release/opensource/component_code/vendor/huawei/extra/build/build_script/kirin_kernel_release" "kernel/include/linux/module.h"
	.file	26 "/mnt/disk/jenkins/ci/workspace/chipset_pipeline_release/opensource/component_code/vendor/huawei/extra/build/build_script/kirin_kernel_release" "kernel/include/linux/completion.h"
	.file	27 "/mnt/disk/jenkins/ci/workspace/chipset_pipeline_release/opensource/component_code/vendor/huawei/extra/build/build_script/kirin_kernel_release" "kernel/include/linux/swait.h"
	.file	28 "/mnt/disk/jenkins/ci/workspace/chipset_pipeline_release/opensource/component_code/vendor/huawei/extra/build/build_script/kirin_kernel_release" "kernel/include/linux/export.h"
	.file	29 "/mnt/disk/jenkins/ci/workspace/chipset_pipeline_release/opensource/component_code/vendor/huawei/extra/build/build_script/kirin_kernel_release" "kernel/include/linux/mutex.h"
	.file	30 "/mnt/disk/jenkins/ci/workspace/chipset_pipeline_release/opensource/component_code/vendor/huawei/extra/build/build_script/kirin_kernel_release" "kernel/include/linux/osq_lock.h"
	.file	31 "/mnt/disk/jenkins/ci/workspace/chipset_pipeline_release/opensource/component_code/vendor/huawei/extra/build/build_script/kirin_kernel_release" "kernel/arch/arm64/include/asm/thread_info.h"
	.file	32 "/mnt/disk/jenkins/ci/workspace/chipset_pipeline_release/opensource/component_code/vendor/huawei/extra/build/build_script/kirin_kernel_release" "kernel/include/linux/sched.h"
	.file	33 "/mnt/disk/jenkins/ci/workspace/chipset_pipeline_release/opensource/component_code/vendor/huawei/extra/build/build_script/kirin_kernel_release" "kernel/include/linux/refcount.h"
	.file	34 "/mnt/disk/jenkins/ci/workspace/chipset_pipeline_release/opensource/component_code/vendor/huawei/extra/build/build_script/kirin_kernel_release" "kernel/include/linux/smp_types.h"
	.file	35 "/mnt/disk/jenkins/ci/workspace/chipset_pipeline_release/opensource/component_code/vendor/huawei/extra/build/build_script/kirin_kernel_release" "kernel/include/linux/rbtree.h"
	.file	36 "/mnt/disk/jenkins/ci/workspace/chipset_pipeline_release/opensource/component_code/vendor/huawei/extra/build/build_script/kirin_kernel_release" "kernel/include/linux/timerqueue.h"
	.file	37 "/mnt/disk/jenkins/ci/workspace/chipset_pipeline_release/opensource/component_code/vendor/huawei/extra/build/build_script/kirin_kernel_release" "kernel/include/linux/ktime.h"
	.file	38 "/mnt/disk/jenkins/ci/workspace/chipset_pipeline_release/opensource/component_code/vendor/huawei/extra/build/build_script/kirin_kernel_release" "kernel/include/linux/hrtimer.h"
	.file	39 "/mnt/disk/jenkins/ci/workspace/chipset_pipeline_release/opensource/component_code/vendor/huawei/extra/build/build_script/kirin_kernel_release" "kernel/include/linux/cpumask.h"
	.file	40 "/mnt/disk/jenkins/ci/workspace/chipset_pipeline_release/opensource/component_code/vendor/huawei/extra/build/build_script/kirin_kernel_release" "kernel/include/linux/irq_work.h"
	.file	41 "/mnt/disk/jenkins/ci/workspace/chipset_pipeline_release/opensource/component_code/vendor/huawei/extra/build/build_script/kirin_kernel_release" "kernel/include/linux/plist.h"
	.file	42 "/mnt/disk/jenkins/ci/workspace/chipset_pipeline_release/opensource/component_code/vendor/huawei/extra/build/build_script/kirin_kernel_release" "kernel/include/linux/mm_types.h"
	.file	43 "/mnt/disk/jenkins/ci/workspace/chipset_pipeline_release/opensource/component_code/vendor/huawei/extra/build/build_script/kirin_kernel_release" "kernel/arch/arm64/include/asm/pgtable-types.h"
	.file	44 "/mnt/disk/jenkins/ci/workspace/chipset_pipeline_release/opensource/component_code/vendor/huawei/extra/build/build_script/kirin_kernel_release" "kernel/include/linux/rmap.h"
	.file	45 "/mnt/disk/jenkins/ci/workspace/chipset_pipeline_release/opensource/component_code/vendor/huawei/extra/build/build_script/kirin_kernel_release" "kernel/include/linux/rwsem.h"
	.file	46 "/mnt/disk/jenkins/ci/workspace/chipset_pipeline_release/opensource/component_code/vendor/huawei/extra/build/build_script/kirin_kernel_release" "kernel/include/linux/mm.h"
	.file	47 "/mnt/disk/jenkins/ci/workspace/chipset_pipeline_release/opensource/component_code/vendor/huawei/extra/build/build_script/kirin_kernel_release" "kernel/include/asm-generic/pgtable-nop4d.h"
	.file	48 "/mnt/disk/jenkins/ci/workspace/chipset_pipeline_release/opensource/component_code/vendor/huawei/extra/build/build_script/kirin_kernel_release" "kernel/include/asm-generic/pgtable-nopud.h"
	.file	49 "/mnt/disk/jenkins/ci/workspace/chipset_pipeline_release/opensource/component_code/vendor/huawei/extra/build/build_script/kirin_kernel_release" "kernel/include/linux/xarray.h"
	.file	50 "/mnt/disk/jenkins/ci/workspace/chipset_pipeline_release/opensource/component_code/vendor/huawei/extra/build/build_script/kirin_kernel_release" "kernel/include/linux/writeback.h"
	.file	51 "/mnt/disk/jenkins/ci/workspace/chipset_pipeline_release/opensource/component_code/vendor/huawei/extra/build/build_script/kirin_kernel_release" "kernel/include/linux/backing-dev-defs.h"
	.file	52 "/mnt/disk/jenkins/ci/workspace/chipset_pipeline_release/opensource/component_code/vendor/huawei/extra/build/build_script/kirin_kernel_release" "kernel/include/linux/kref.h"
	.file	53 "/mnt/disk/jenkins/ci/workspace/chipset_pipeline_release/opensource/component_code/vendor/huawei/extra/build/build_script/kirin_kernel_release" "kernel/include/linux/wait.h"
	.file	54 "/mnt/disk/jenkins/ci/workspace/chipset_pipeline_release/opensource/component_code/vendor/huawei/extra/build/build_script/kirin_kernel_release" "kernel/include/linux/timer.h"
	.file	55 "/mnt/disk/jenkins/ci/workspace/chipset_pipeline_release/opensource/component_code/vendor/huawei/extra/build/build_script/kirin_kernel_release" "kernel/include/linux/percpu_counter.h"
	.file	56 "/mnt/disk/jenkins/ci/workspace/chipset_pipeline_release/opensource/component_code/vendor/huawei/extra/build/build_script/kirin_kernel_release" "kernel/include/linux/flex_proportions.h"
	.file	57 "/mnt/disk/jenkins/ci/workspace/chipset_pipeline_release/opensource/component_code/vendor/huawei/extra/build/build_script/kirin_kernel_release" "kernel/include/linux/workqueue.h"
	.file	58 "/mnt/disk/jenkins/ci/workspace/chipset_pipeline_release/opensource/component_code/vendor/huawei/extra/build/build_script/kirin_kernel_release" "kernel/include/linux/cgroup-defs.h"
	.file	59 "/mnt/disk/jenkins/ci/workspace/chipset_pipeline_release/opensource/component_code/vendor/huawei/extra/build/build_script/kirin_kernel_release" "kernel/include/linux/kernfs.h"
	.file	60 "/mnt/disk/jenkins/ci/workspace/chipset_pipeline_release/opensource/component_code/vendor/huawei/extra/build/build_script/kirin_kernel_release" "kernel/include/linux/idr.h"
	.file	61 "/mnt/disk/jenkins/ci/workspace/chipset_pipeline_release/opensource/component_code/vendor/huawei/extra/build/build_script/kirin_kernel_release" "kernel/include/linux/seq_file.h"
	.file	62 "/mnt/disk/jenkins/ci/workspace/chipset_pipeline_release/opensource/component_code/vendor/huawei/extra/build/build_script/kirin_kernel_release" "kernel/include/uapi/linux/types.h"
	.file	63 "/mnt/disk/jenkins/ci/workspace/chipset_pipeline_release/opensource/component_code/vendor/huawei/extra/build/build_script/kirin_kernel_release" "kernel/include/linux/u64_stats_sync.h"
	.file	64 "/mnt/disk/jenkins/ci/workspace/chipset_pipeline_release/opensource/component_code/vendor/huawei/extra/build/build_script/kirin_kernel_release" "kernel/include/linux/sched/types.h"
	.file	65 "/mnt/disk/jenkins/ci/workspace/chipset_pipeline_release/opensource/component_code/vendor/huawei/extra/build/build_script/kirin_kernel_release" "kernel/include/linux/psi_types.h"
	.file	66 "/mnt/disk/jenkins/ci/workspace/chipset_pipeline_release/opensource/component_code/vendor/huawei/extra/build/build_script/kirin_kernel_release" "kernel/include/linux/bpf.h"
	.file	67 "/mnt/disk/jenkins/ci/workspace/chipset_pipeline_release/opensource/component_code/vendor/huawei/extra/build/build_script/kirin_kernel_release" "kernel/include/linux/bpf-cgroup.h"
	.file	68 "/mnt/disk/jenkins/ci/workspace/chipset_pipeline_release/opensource/component_code/vendor/huawei/extra/build/build_script/kirin_kernel_release" "kernel/include/uapi/linux/bpf.h"
	.file	69 "/mnt/disk/jenkins/ci/workspace/chipset_pipeline_release/opensource/component_code/vendor/huawei/extra/build/build_script/kirin_kernel_release" "kernel/include/linux/pagemap.h"
	.file	70 "/mnt/disk/jenkins/ci/workspace/chipset_pipeline_release/opensource/component_code/vendor/huawei/extra/build/build_script/kirin_kernel_release" "kernel/include/linux/uio.h"
	.file	71 "/mnt/disk/jenkins/ci/workspace/chipset_pipeline_release/opensource/component_code/vendor/huawei/extra/build/build_script/kirin_kernel_release" "kernel/include/uapi/linux/uio.h"
	.file	72 "/mnt/disk/jenkins/ci/workspace/chipset_pipeline_release/opensource/component_code/vendor/huawei/extra/build/build_script/kirin_kernel_release" "kernel/include/linux/bvec.h"
	.file	73 "/mnt/disk/jenkins/ci/workspace/chipset_pipeline_release/opensource/component_code/vendor/huawei/extra/build/build_script/kirin_kernel_release" "kernel/include/linux/migrate_mode.h"
	.file	74 "/mnt/disk/jenkins/ci/workspace/chipset_pipeline_release/opensource/component_code/vendor/huawei/extra/build/build_script/kirin_kernel_release" "kernel/include/linux/mmzone.h"
	.file	75 "/mnt/disk/jenkins/ci/workspace/chipset_pipeline_release/opensource/component_code/vendor/huawei/extra/build/build_script/kirin_kernel_release" "kernel/include/linux/swap.h"
	.file	76 "/mnt/disk/jenkins/ci/workspace/chipset_pipeline_release/opensource/component_code/vendor/huawei/extra/build/build_script/kirin_kernel_release" "kernel/include/linux/errseq.h"
	.file	77 "/mnt/disk/jenkins/ci/workspace/chipset_pipeline_release/opensource/component_code/vendor/huawei/extra/build/build_script/kirin_kernel_release" "kernel/arch/arm64/include/asm/page.h"
	.file	78 "/mnt/disk/jenkins/ci/workspace/chipset_pipeline_release/opensource/component_code/vendor/huawei/extra/build/build_script/kirin_kernel_release" "kernel/include/linux/memremap.h"
	.file	79 "/mnt/disk/jenkins/ci/workspace/chipset_pipeline_release/opensource/component_code/vendor/huawei/extra/build/build_script/kirin_kernel_release" "kernel/include/linux/range.h"
	.file	80 "/mnt/disk/jenkins/ci/workspace/chipset_pipeline_release/opensource/component_code/vendor/huawei/extra/build/build_script/kirin_kernel_release" "kernel/include/linux/memcontrol.h"
	.file	81 "/mnt/disk/jenkins/ci/workspace/chipset_pipeline_release/opensource/component_code/vendor/huawei/extra/build/build_script/kirin_kernel_release" "kernel/include/linux/page_counter.h"
	.file	82 "/mnt/disk/jenkins/ci/workspace/chipset_pipeline_release/opensource/component_code/vendor/huawei/extra/build/build_script/kirin_kernel_release" "kernel/include/linux/vmpressure.h"
	.file	83 "/mnt/disk/jenkins/ci/workspace/chipset_pipeline_release/opensource/component_code/vendor/huawei/extra/build/build_script/kirin_kernel_release" "kernel/include/linux/memcg_policy.h"
	.file	84 "/mnt/disk/jenkins/ci/workspace/chipset_pipeline_release/opensource/component_code/vendor/huawei/extra/build/build_script/kirin_kernel_release" "kernel/include/asm-generic/qrwlock_types.h"
	.file	85 "/mnt/disk/jenkins/ci/workspace/chipset_pipeline_release/opensource/component_code/vendor/huawei/extra/build/build_script/kirin_kernel_release" "kernel/include/linux/rwlock_types.h"
	.file	86 "/mnt/disk/jenkins/ci/workspace/chipset_pipeline_release/opensource/component_code/vendor/huawei/extra/build/build_script/kirin_kernel_release" "kernel/include/linux/mm_types_task.h"
	.file	87 "/mnt/disk/jenkins/ci/workspace/chipset_pipeline_release/opensource/component_code/vendor/huawei/extra/build/build_script/kirin_kernel_release" "kernel/arch/arm64/include/asm/mmu.h"
	.file	88 "/mnt/disk/jenkins/ci/workspace/chipset_pipeline_release/opensource/component_code/vendor/huawei/extra/build/build_script/kirin_kernel_release" "kernel/include/linux/user_namespace.h"
	.file	89 "/mnt/disk/jenkins/ci/workspace/chipset_pipeline_release/opensource/component_code/vendor/huawei/extra/build/build_script/kirin_kernel_release" "kernel/include/linux/ns_common.h"
	.file	90 "/mnt/disk/jenkins/ci/workspace/chipset_pipeline_release/opensource/component_code/vendor/huawei/extra/build/build_script/kirin_kernel_release" "kernel/include/linux/key.h"
	.file	91 "/mnt/disk/jenkins/ci/workspace/chipset_pipeline_release/opensource/component_code/vendor/huawei/extra/build/build_script/kirin_kernel_release" "kernel/include/linux/assoc_array.h"
	.file	92 "/mnt/disk/jenkins/ci/workspace/chipset_pipeline_release/opensource/component_code/vendor/huawei/extra/build/build_script/kirin_kernel_release" "kernel/include/linux/sysctl.h"
	.file	93 "/mnt/disk/jenkins/ci/workspace/chipset_pipeline_release/opensource/component_code/vendor/huawei/extra/build/build_script/kirin_kernel_release" "kernel/include/linux/uprobes.h"
	.file	94 "/mnt/disk/jenkins/ci/workspace/chipset_pipeline_release/opensource/component_code/vendor/huawei/extra/build/build_script/kirin_kernel_release" "kernel/include/linux/xreclaimer_types.h"
	.file	95 "/mnt/disk/jenkins/ci/workspace/chipset_pipeline_release/opensource/component_code/vendor/huawei/extra/build/build_script/kirin_kernel_release" "kernel/include/linux/restart_block.h"
	.file	96 "/mnt/disk/jenkins/ci/workspace/chipset_pipeline_release/opensource/component_code/vendor/huawei/extra/build/build_script/kirin_kernel_release" "kernel/include/uapi/linux/time_types.h"
	.file	97 "/mnt/disk/jenkins/ci/workspace/chipset_pipeline_release/opensource/component_code/vendor/huawei/extra/build/build_script/kirin_kernel_release" "kernel/include/vdso/time32.h"
	.file	98 "/mnt/disk/jenkins/ci/workspace/chipset_pipeline_release/opensource/component_code/vendor/huawei/extra/build/build_script/kirin_kernel_release" "kernel/include/linux/pid.h"
	.file	99 "/mnt/disk/jenkins/ci/workspace/chipset_pipeline_release/opensource/component_code/vendor/huawei/extra/build/build_script/kirin_kernel_release" "kernel/include/linux/pid_namespace.h"
	.file	100 "/mnt/disk/jenkins/ci/workspace/chipset_pipeline_release/opensource/component_code/vendor/huawei/extra/build/build_script/kirin_kernel_release" "kernel/include/linux/posix-timers.h"
	.file	101 "/mnt/disk/jenkins/ci/workspace/chipset_pipeline_release/opensource/component_code/vendor/huawei/extra/build/build_script/kirin_kernel_release" "kernel/include/linux/cred.h"
	.file	102 "/mnt/disk/jenkins/ci/workspace/chipset_pipeline_release/opensource/component_code/vendor/huawei/extra/build/build_script/kirin_kernel_release" "kernel/include/linux/capability.h"
	.file	103 "/mnt/disk/jenkins/ci/workspace/chipset_pipeline_release/opensource/component_code/vendor/huawei/extra/build/build_script/kirin_kernel_release" "kernel/include/linux/sched/user.h"
	.file	104 "/mnt/disk/jenkins/ci/workspace/chipset_pipeline_release/opensource/component_code/vendor/huawei/extra/build/build_script/kirin_kernel_release" "kernel/include/linux/ratelimit_types.h"
	.file	105 "/mnt/disk/jenkins/ci/workspace/chipset_pipeline_release/opensource/component_code/vendor/huawei/extra/build/build_script/kirin_kernel_release" "kernel/include/linux/nsproxy.h"
	.file	106 "/mnt/disk/jenkins/ci/workspace/chipset_pipeline_release/opensource/component_code/vendor/huawei/extra/build/build_script/kirin_kernel_release" "kernel/include/linux/cgroup.h"
	.file	107 "/mnt/disk/jenkins/ci/workspace/chipset_pipeline_release/opensource/component_code/vendor/huawei/extra/build/build_script/kirin_kernel_release" "kernel/include/linux/sched/signal.h"
	.file	108 "/mnt/disk/jenkins/ci/workspace/chipset_pipeline_release/opensource/component_code/vendor/huawei/extra/build/build_script/kirin_kernel_release" "kernel/include/linux/signal_types.h"
	.file	109 "/mnt/disk/jenkins/ci/workspace/chipset_pipeline_release/opensource/component_code/vendor/huawei/extra/build/build_script/kirin_kernel_release" "kernel/include/uapi/asm-generic/signal.h"
	.file	110 "/mnt/disk/jenkins/ci/workspace/chipset_pipeline_release/opensource/component_code/vendor/huawei/extra/build/build_script/kirin_kernel_release" "kernel/include/linux/task_io_accounting.h"
	.file	111 "/mnt/disk/jenkins/ci/workspace/chipset_pipeline_release/opensource/component_code/vendor/huawei/extra/build/build_script/kirin_kernel_release" "kernel/include/uapi/linux/resource.h"
	.file	112 "/mnt/disk/jenkins/ci/workspace/chipset_pipeline_release/opensource/component_code/vendor/huawei/extra/build/build_script/kirin_kernel_release" "kernel/include/uapi/linux/taskstats.h"
	.file	113 "/mnt/disk/jenkins/ci/workspace/chipset_pipeline_release/opensource/component_code/vendor/huawei/extra/build/build_script/kirin_kernel_release" "kernel/include/uapi/asm-generic/signal-defs.h"
	.file	114 "/mnt/disk/jenkins/ci/workspace/chipset_pipeline_release/opensource/component_code/vendor/huawei/extra/build/build_script/kirin_kernel_release" "kernel/include/linux/seccomp.h"
	.file	115 "/mnt/disk/jenkins/ci/workspace/chipset_pipeline_release/opensource/component_code/vendor/huawei/extra/build/build_script/kirin_kernel_release" "kernel/include/linux/bio.h"
	.file	116 "/mnt/disk/jenkins/ci/workspace/chipset_pipeline_release/opensource/component_code/vendor/huawei/extra/build/build_script/kirin_kernel_release" "kernel/include/linux/iocontext.h"
	.file	117 "/mnt/disk/jenkins/ci/workspace/chipset_pipeline_release/opensource/component_code/vendor/huawei/extra/build/build_script/kirin_kernel_release" "kernel/mm/internal.h"
	.file	118 "/mnt/disk/jenkins/ci/workspace/chipset_pipeline_release/opensource/component_code/vendor/huawei/extra/build/build_script/kirin_kernel_release" "kernel/include/uapi/asm-generic/siginfo.h"
	.file	119 "/mnt/disk/jenkins/ci/workspace/chipset_pipeline_release/opensource/component_code/vendor/huawei/extra/build/build_script/kirin_kernel_release" "kernel/include/linux/nodemask.h"
	.file	120 "/mnt/disk/jenkins/ci/workspace/chipset_pipeline_release/opensource/component_code/vendor/huawei/extra/build/build_script/kirin_kernel_release" "kernel/include/asm-generic/compat.h"
	.file	121 "/mnt/disk/jenkins/ci/workspace/chipset_pipeline_release/opensource/component_code/vendor/huawei/extra/build/build_script/kirin_kernel_release" "kernel/include/linux/compat.h"
	.file	122 "/mnt/disk/jenkins/ci/workspace/chipset_pipeline_release/opensource/component_code/vendor/huawei/extra/build/build_script/kirin_kernel_release" "kernel/arch/arm64/include/asm/processor.h"
	.file	123 "/mnt/disk/jenkins/ci/workspace/chipset_pipeline_release/opensource/component_code/vendor/huawei/extra/build/build_script/kirin_kernel_release" "kernel/arch/arm64/include/uapi/asm/ptrace.h"
	.file	124 "/mnt/disk/jenkins/ci/workspace/chipset_pipeline_release/opensource/component_code/vendor/huawei/extra/build/build_script/kirin_kernel_release" "kernel/include/linux/moduleparam.h"
	.file	125 "/mnt/disk/jenkins/ci/workspace/chipset_pipeline_release/opensource/component_code/vendor/huawei/extra/build/build_script/kirin_kernel_release" "kernel/arch/arm64/include/asm/extable.h"
	.file	126 "/mnt/disk/jenkins/ci/workspace/chipset_pipeline_release/opensource/component_code/vendor/huawei/extra/build/build_script/kirin_kernel_release" "kernel/include/linux/rbtree_latch.h"
	.file	127 "/mnt/disk/jenkins/ci/workspace/chipset_pipeline_release/opensource/component_code/vendor/huawei/extra/build/build_script/kirin_kernel_release" "kernel/arch/arm64/include/asm/module.h"
	.file	128 "/mnt/disk/jenkins/ci/workspace/chipset_pipeline_release/opensource/component_code/vendor/huawei/extra/build/build_script/kirin_kernel_release" "kernel/include/uapi/linux/elf.h"
	.file	129 "/mnt/disk/jenkins/ci/workspace/chipset_pipeline_release/opensource/component_code/vendor/huawei/extra/build/build_script/kirin_kernel_release" "kernel/include/asm-generic/bug.h"
	.file	130 "/mnt/disk/jenkins/ci/workspace/chipset_pipeline_release/opensource/component_code/vendor/huawei/extra/build/build_script/kirin_kernel_release" "kernel/include/linux/tracepoint-defs.h"
	.file	131 "/mnt/disk/jenkins/ci/workspace/chipset_pipeline_release/opensource/component_code/vendor/huawei/extra/build/build_script/kirin_kernel_release" "kernel/include/linux/srcutree.h"
	.file	132 "/mnt/disk/jenkins/ci/workspace/chipset_pipeline_release/opensource/component_code/vendor/huawei/extra/build/build_script/kirin_kernel_release" "kernel/include/linux/rcu_segcblist.h"
	.file	133 "/mnt/disk/jenkins/ci/workspace/chipset_pipeline_release/opensource/component_code/vendor/huawei/extra/build/build_script/kirin_kernel_release" "kernel/include/linux/lockdep_types.h"
	.file	134 "/mnt/disk/jenkins/ci/workspace/chipset_pipeline_release/opensource/component_code/vendor/huawei/extra/build/build_script/kirin_kernel_release" "kernel/include/linux/statfs.h"
	.file	135 "/mnt/disk/jenkins/ci/workspace/chipset_pipeline_release/opensource/component_code/vendor/huawei/extra/build/build_script/kirin_kernel_release" "kernel/include/linux/quota.h"
	.file	136 "/mnt/disk/jenkins/ci/workspace/chipset_pipeline_release/opensource/component_code/vendor/huawei/extra/build/build_script/kirin_kernel_release" "kernel/include/linux/projid.h"
	.file	137 "/mnt/disk/jenkins/ci/workspace/chipset_pipeline_release/opensource/component_code/vendor/huawei/extra/build/build_script/kirin_kernel_release" "kernel/include/linux/shrinker.h"
	.file	138 "/mnt/disk/jenkins/ci/workspace/chipset_pipeline_release/opensource/component_code/vendor/huawei/extra/build/build_script/kirin_kernel_release" "kernel/include/linux/rcu_sync.h"
	.file	139 "/mnt/disk/jenkins/ci/workspace/chipset_pipeline_release/opensource/component_code/vendor/huawei/extra/build/build_script/kirin_kernel_release" "kernel/include/linux/percpu-rwsem.h"
	.file	140 "/mnt/disk/jenkins/ci/workspace/chipset_pipeline_release/opensource/component_code/vendor/huawei/extra/build/build_script/kirin_kernel_release" "kernel/include/linux/rcuwait.h"
	.file	141 "/mnt/disk/jenkins/ci/workspace/chipset_pipeline_release/opensource/component_code/vendor/huawei/extra/build/build_script/kirin_kernel_release" "kernel/include/linux/uuid.h"
	.file	142 "/mnt/disk/jenkins/ci/workspace/chipset_pipeline_release/opensource/component_code/vendor/huawei/extra/build/build_script/kirin_kernel_release" "kernel/include/linux/list_lru.h"
	.file	143 "/mnt/disk/jenkins/ci/workspace/chipset_pipeline_release/opensource/component_code/vendor/huawei/extra/build/build_script/kirin_kernel_release" "kernel/include/linux/nfs_fs_i.h"
	.file	144 "/mnt/disk/jenkins/ci/workspace/chipset_pipeline_release/opensource/component_code/vendor/huawei/extra/build/build_script/kirin_kernel_release" "kernel/include/linux/lockref.h"
	.file	145 "/mnt/disk/jenkins/ci/workspace/chipset_pipeline_release/opensource/component_code/vendor/huawei/extra/build/build_script/kirin_kernel_release" "kernel/include/linux/mount.h"
	.file	146 "/mnt/disk/jenkins/ci/workspace/chipset_pipeline_release/opensource/component_code/vendor/huawei/extra/build/build_script/kirin_kernel_release" "kernel/include/linux/path.h"
	.file	147 "/mnt/disk/jenkins/ci/workspace/chipset_pipeline_release/opensource/component_code/vendor/huawei/extra/build/build_script/kirin_kernel_release" "kernel/include/linux/kobject_ns.h"
	.file	148 "/mnt/disk/jenkins/ci/workspace/chipset_pipeline_release/opensource/component_code/vendor/huawei/extra/build/build_script/kirin_kernel_release" "kernel/include/linux/device.h"
	.file	149 "/mnt/disk/jenkins/ci/workspace/chipset_pipeline_release/opensource/component_code/vendor/huawei/extra/build/build_script/kirin_kernel_release" "kernel/include/linux/pm.h"
	.file	150 "/mnt/disk/jenkins/ci/workspace/chipset_pipeline_release/opensource/component_code/vendor/huawei/extra/build/build_script/kirin_kernel_release" "kernel/include/linux/device/bus.h"
	.file	151 "/mnt/disk/jenkins/ci/workspace/chipset_pipeline_release/opensource/component_code/vendor/huawei/extra/build/build_script/kirin_kernel_release" "kernel/include/linux/device/driver.h"
	.file	152 "/mnt/disk/jenkins/ci/workspace/chipset_pipeline_release/opensource/component_code/vendor/huawei/extra/build/build_script/kirin_kernel_release" "kernel/include/linux/pm_wakeup.h"
	.file	153 "/mnt/disk/jenkins/ci/workspace/chipset_pipeline_release/opensource/component_code/vendor/huawei/extra/build/build_script/kirin_kernel_release" "kernel/include/linux/energy_model.h"
	.file	154 "/mnt/disk/jenkins/ci/workspace/chipset_pipeline_release/opensource/component_code/vendor/huawei/extra/build/build_script/kirin_kernel_release" "kernel/arch/arm64/include/asm/device.h"
	.file	155 "/mnt/disk/jenkins/ci/workspace/chipset_pipeline_release/opensource/component_code/vendor/huawei/extra/build/build_script/kirin_kernel_release" "kernel/include/linux/fwnode.h"
	.file	156 "/mnt/disk/jenkins/ci/workspace/chipset_pipeline_release/opensource/component_code/vendor/huawei/extra/build/build_script/kirin_kernel_release" "kernel/include/linux/device/class.h"
	.file	157 "/mnt/disk/jenkins/ci/workspace/chipset_pipeline_release/opensource/component_code/vendor/huawei/extra/build/build_script/kirin_kernel_release" "kernel/include/uapi/linux/blkzoned.h"
	.file	158 "/mnt/disk/jenkins/ci/workspace/chipset_pipeline_release/opensource/component_code/vendor/huawei/extra/build/build_script/kirin_kernel_release" "kernel/include/linux/blk-cgroup.h"
	.file	159 "/mnt/disk/jenkins/ci/workspace/chipset_pipeline_release/opensource/component_code/vendor/huawei/extra/build/build_script/kirin_kernel_release" "kernel/include/linux/mempool.h"
	.file	160 "/mnt/disk/jenkins/ci/workspace/chipset_pipeline_release/opensource/component_code/vendor/huawei/extra/build/build_script/kirin_kernel_release" "kernel/include/linux/smp.h"
	.file	161 "/mnt/disk/jenkins/ci/workspace/chipset_pipeline_release/opensource/component_code/vendor/huawei/extra/build/build_script/kirin_kernel_release" "kernel/include/linux/elevator.h"
	.file	162 "/mnt/disk/jenkins/ci/workspace/chipset_pipeline_release/opensource/component_code/vendor/huawei/extra/build/build_script/kirin_kernel_release" "kernel/include/linux/bsg.h"
	.file	163 "/mnt/disk/jenkins/ci/workspace/chipset_pipeline_release/opensource/component_code/vendor/huawei/extra/build/build_script/kirin_kernel_release" "kernel/include/uapi/linux/bsg.h"
	.file	164 "/mnt/disk/jenkins/ci/workspace/chipset_pipeline_release/opensource/component_code/vendor/huawei/extra/build/build_script/kirin_kernel_release" "kernel/include/linux/notifier.h"
	.file	165 "/mnt/disk/jenkins/ci/workspace/chipset_pipeline_release/opensource/component_code/vendor/huawei/extra/build/build_script/kirin_kernel_release" "kernel/include/linux/semaphore.h"
	.file	166 "/mnt/disk/jenkins/ci/workspace/chipset_pipeline_release/opensource/component_code/vendor/huawei/extra/build/build_script/kirin_kernel_release" "kernel/include/linux/proc_fs.h"
	.file	167 "/mnt/disk/jenkins/ci/workspace/chipset_pipeline_release/opensource/component_code/vendor/huawei/extra/build/build_script/kirin_kernel_release" "kernel/include/linux/bootdevice.h"
	.file	168 "/mnt/disk/jenkins/ci/workspace/chipset_pipeline_release/opensource/component_code/vendor/huawei/extra/build/build_script/kirin_kernel_release" "kernel/include/linux/stddef.h"
	.file	169 "/mnt/disk/jenkins/ci/workspace/chipset_pipeline_release/opensource/component_code/vendor/huawei/extra/build/build_script/kirin_kernel_release" "kernel/include/linux/page-flags.h"
	.file	170 "/mnt/disk/jenkins/ci/workspace/chipset_pipeline_release/opensource/component_code/vendor/huawei/extra/build/build_script/kirin_kernel_release" "kernel/include/linux/slab.h"
	.globl	pch_lowmem_check                // -- Begin function pch_lowmem_check
	.p2align	2
	.type	pch_lowmem_check,@function
pch_lowmem_check:                       // @pch_lowmem_check
.Lfunc_begin0:
	.loc	1 261 0                         // kernel/mm/pagecache_manage.c:261:0
	.cfi_sections .debug_frame
	.cfi_startproc
// %bb.0:
	stp	x29, x30, [sp, #-32]!           // 16-byte Folded Spill
	stp	x20, x19, [sp, #16]             // 16-byte Folded Spill
	mov	x29, sp
	.cfi_def_cfa w29, 32
	.cfi_offset w19, -8
	.cfi_offset w20, -16
	.cfi_offset w30, -24
	.cfi_offset w29, -32
.Ltmp1:
	//DEBUG_VALUE: pch_lowmem_check:zone <- 0
	//DEBUG_VALUE: pch_lowmem_check:ret <- 0
	.loc	1 266 10 prologue_end           // kernel/mm/pagecache_manage.c:266:10
	bl	first_online_pgdat
.Ltmp2:
	//DEBUG_VALUE: pch_lowmem_check:zone <- $x0
	.loc	1 267 6                         // kernel/mm/pagecache_manage.c:267:6
	cbz	x0, .LBB0_2
.Ltmp3:
// %bb.1:
	//DEBUG_VALUE: pch_lowmem_check:zone <- $x0
	//DEBUG_VALUE: pch_lowmem_check:ret <- 0
	.loc	1 270 14                        // kernel/mm/pagecache_manage.c:270:14
	ldp	x8, x9, [x0, #16]
.Ltmp4:
	.loc	1 271 7                         // kernel/mm/pagecache_manage.c:271:7
	mov	w1, wzr
	mov	w3, wzr
	mov	w4, wzr
.Ltmp5:
	.loc	1 270 14                        // kernel/mm/pagecache_manage.c:270:14
	add	x8, x8, x9
	.loc	1 270 37 is_stmt 0              // kernel/mm/pagecache_manage.c:270:37
	add	x2, x8, #2                      // =2
.Ltmp6:
	//DEBUG_VALUE: pch_lowmem_check:watermark <- $x2
	.loc	1 0 0                           // kernel/mm/pagecache_manage.c:0:0
	mov	x19, x0
.Ltmp7:
	//DEBUG_VALUE: pch_lowmem_check:zone <- $x19
	.loc	1 271 7 is_stmt 1               // kernel/mm/pagecache_manage.c:271:7
	bl	zone_watermark_ok
.Ltmp8:
	.loc	1 274 14                        // kernel/mm/pagecache_manage.c:274:14
	ldr	x8, [x19, #8]
	ldr	x9, [x19, #24]
	.loc	1 271 6                         // kernel/mm/pagecache_manage.c:271:6
	mvn	w10, w0
.Ltmp9:
	.loc	1 275 7                         // kernel/mm/pagecache_manage.c:275:7
	mov	x0, x19
	mov	w1, wzr
.Ltmp10:
	.loc	1 274 14                        // kernel/mm/pagecache_manage.c:274:14
	add	x2, x9, x8
.Ltmp11:
	//DEBUG_VALUE: pch_lowmem_check:watermark <- $x2
	.loc	1 275 7                         // kernel/mm/pagecache_manage.c:275:7
	mov	w3, wzr
	mov	w4, wzr
.Ltmp12:
	.loc	1 271 6                         // kernel/mm/pagecache_manage.c:271:6
	and	w20, w10, #0x1
.Ltmp13:
	//DEBUG_VALUE: pch_lowmem_check:ret <- $w20
	.loc	1 275 7                         // kernel/mm/pagecache_manage.c:275:7
	bl	zone_watermark_ok
.Ltmp14:
	.loc	1 275 6 is_stmt 0               // kernel/mm/pagecache_manage.c:275:6
	tst	w0, #0x1
	mov	w8, #2
	csel	w0, w20, w8, ne
.Ltmp15:
.LBB0_2:
	.loc	1 279 1 is_stmt 1               // kernel/mm/pagecache_manage.c:279:1
	ldp	x20, x19, [sp, #16]             // 16-byte Folded Reload
	ldp	x29, x30, [sp], #32             // 16-byte Folded Reload
	ret
.Ltmp16:
.Lfunc_end0:
	.size	pch_lowmem_check, .Lfunc_end0-pch_lowmem_check
	.cfi_endproc
                                        // -- End function
	.globl	pch_lowmem_check2               // -- Begin function pch_lowmem_check2
	.p2align	2
	.type	pch_lowmem_check2,@function
pch_lowmem_check2:                      // @pch_lowmem_check2
.Lfunc_begin1:
	.loc	1 292 0                         // kernel/mm/pagecache_manage.c:292:0
	.cfi_startproc
// %bb.0:
	//DEBUG_VALUE: global_node_page_state:item <- 21
	//DEBUG_VALUE: global_node_page_state_pages:item <- 21
	//DEBUG_VALUE: atomic_long_read:v <- undef
	//DEBUG_VALUE: atomic64_read:v <- undef
	stp	x29, x30, [sp, #-32]!           // 16-byte Folded Spill
	stp	x20, x19, [sp, #16]             // 16-byte Folded Spill
	mov	x29, sp
	.cfi_def_cfa w29, 32
	.cfi_offset w19, -8
	.cfi_offset w20, -16
	.cfi_offset w30, -24
	.cfi_offset w29, -32
.Ltmp17:
	//DEBUG_VALUE: pch_lowmem_check2:array_size <- 4
	//DEBUG_VALUE: pch_lowmem_check2:minfree <- 0
	.file	171 "/mnt/disk/jenkins/ci/workspace/chipset_pipeline_release/opensource/component_code/vendor/huawei/extra/build/build_script/kirin_kernel_release" "kernel/include/asm-generic/atomic-instrumented.h"
	.loc	171 838 9 prologue_end          // kernel/include/asm-generic/atomic-instrumented.h:838:9
	adrp	x8, vm_node_stat+168
	add	x8, x8, :lo12:vm_node_stat+168
	ldr	x9, [x8]
.Ltmp18:
	//DEBUG_VALUE: global_node_page_state_pages:x <- $x9
	.loc	171 838 9 is_stmt 0             // kernel/include/asm-generic/atomic-instrumented.h:838:9
	ldr	x8, [x8, #32]
.Ltmp19:
	//DEBUG_VALUE: global_node_page_state_pages:x <- $x8
	.file	172 "/mnt/disk/jenkins/ci/workspace/chipset_pipeline_release/opensource/component_code/vendor/huawei/extra/build/build_script/kirin_kernel_release" "kernel/include/linux/vmstat.h"
	.loc	172 201 6 is_stmt 1             // kernel/include/linux/vmstat.h:201:6
	bic	x19, x9, x9, asr #63
.Ltmp20:
	//DEBUG_VALUE: atomic64_read:v <- undef
	//DEBUG_VALUE: atomic_long_read:v <- undef
	//DEBUG_VALUE: global_node_page_state_pages:item <- 25
	//DEBUG_VALUE: global_node_page_state:item <- 25
	//DEBUG_VALUE: global_node_page_state_pages:x <- $x19
	//DEBUG_VALUE: global_node_page_state_pages:x <- $x9
	//DEBUG_VALUE: global_node_page_state_pages:item <- 21
	//DEBUG_VALUE: global_node_page_state:item <- 21
	.loc	172 201 6 is_stmt 0             // kernel/include/linux/vmstat.h:201:6
	bic	x20, x8, x8, asr #63
.Ltmp21:
	//DEBUG_VALUE: global_node_page_state_pages:x <- $x20
	//DEBUG_VALUE: global_node_page_state_pages:x <- $x8
	.loc	1 299 5 is_stmt 1               // kernel/mm/pagecache_manage.c:299:5
	bl	total_swapcache_pages
.Ltmp22:
	.loc	171 838 9                       // kernel/include/asm-generic/atomic-instrumented.h:838:9
	adrp	x9, vm_zone_stat
	add	x9, x9, :lo12:vm_zone_stat
.Ltmp23:
	.loc	1 302 5                         // kernel/mm/pagecache_manage.c:302:5
	adrp	x10, totalreserve_pages
.Ltmp24:
	.loc	171 838 9                       // kernel/include/asm-generic/atomic-instrumented.h:838:9
	ldr	x11, [x9]
.Ltmp25:
	//DEBUG_VALUE: global_zone_page_state:x <- $x11
	.loc	171 838 9 is_stmt 0             // kernel/include/asm-generic/atomic-instrumented.h:838:9
	ldr	x9, [x9, #88]
.Ltmp26:
	//DEBUG_VALUE: global_zone_page_state:x <- $x9
	.loc	1 302 5 is_stmt 1               // kernel/mm/pagecache_manage.c:302:5
	ldr	x10, [x10, :lo12:totalreserve_pages]
	.loc	1 297 67                        // kernel/mm/pagecache_manage.c:297:67
	sub	x8, x19, x0
.Ltmp27:
	.loc	172 190 6                       // kernel/include/linux/vmstat.h:190:6
	bic	x11, x11, x11, asr #63
.Ltmp28:
	//DEBUG_VALUE: atomic64_read:v <- undef
	//DEBUG_VALUE: atomic_long_read:v <- undef
	//DEBUG_VALUE: global_zone_page_state:item <- 11
	//DEBUG_VALUE: global_zone_page_state:x <- $x11
	//DEBUG_VALUE: global_zone_page_state:x <- $x11
	.loc	172 190 6 is_stmt 0             // kernel/include/linux/vmstat.h:190:6
	bic	x9, x9, x9, asr #63
.Ltmp29:
	//DEBUG_VALUE: global_zone_page_state:x <- $x9
	//DEBUG_VALUE: global_zone_page_state:x <- $x9
	.loc	1 300 67 is_stmt 1              // kernel/mm/pagecache_manage.c:300:67
	sub	x10, x11, x10
	.loc	1 301 47                        // kernel/mm/pagecache_manage.c:301:47
	sub	x9, x10, x9
.Ltmp30:
	//DEBUG_VALUE: pch_lowmem_check2:i <- 0
	//DEBUG_VALUE: pch_lowmem_check2:other_free <- $x9
	//DEBUG_VALUE: pch_lowmem_check2:minfree <- 1536
	.loc	1 298 38                        // kernel/mm/pagecache_manage.c:298:38
	sub	x8, x8, x20
	//DEBUG_VALUE: atomic64_read:v <- undef
	//DEBUG_VALUE: atomic_long_read:v <- undef
	//DEBUG_VALUE: global_zone_page_state:item <- 0
.Ltmp31:
	//DEBUG_VALUE: pch_lowmem_check2:other_file <- $x8
	.loc	1 310 18                        // kernel/mm/pagecache_manage.c:310:18
	cmp	x9, #1536                       // =1536
	.loc	1 310 28 is_stmt 0              // kernel/mm/pagecache_manage.c:310:28
	orr	x9, x9, x8
.Ltmp32:
	.loc	1 310 18                        // kernel/mm/pagecache_manage.c:310:18
	cset	w10, lo
	cmp	x8, #1536                       // =1536
	cset	w8, lo
.Ltmp33:
	.loc	1 310 28                        // kernel/mm/pagecache_manage.c:310:28
	cmp	x9, #2048                       // =2048
	and	w8, w10, w8
.Ltmp34:
	//DEBUG_VALUE: pch_lowmem_check2:i <- [DW_OP_plus_uconst 1, DW_OP_stack_value] 0
	cset	w10, lo
	cmp	x9, #1, lsl #12                 // =4096
.Ltmp35:
	.loc	1 315 1 is_stmt 1               // kernel/mm/pagecache_manage.c:315:1
	ldp	x20, x19, [sp, #16]             // 16-byte Folded Reload
.Ltmp36:
	.loc	1 310 28                        // kernel/mm/pagecache_manage.c:310:28
	orr	w8, w8, w10
.Ltmp37:
	//DEBUG_VALUE: pch_lowmem_check2:i <- [DW_OP_plus_uconst 1, DW_OP_stack_value] 1
	//DEBUG_VALUE: pch_lowmem_check2:minfree <- 2048
	cset	w10, lo
	cmp	x9, #4, lsl #12                 // =16384
	orr	w8, w8, w10
.Ltmp38:
	//DEBUG_VALUE: pch_lowmem_check2:i <- [DW_OP_plus_uconst 1, DW_OP_stack_value] 2
	//DEBUG_VALUE: pch_lowmem_check2:minfree <- 4096
	cset	w9, lo
	orr	w0, w8, w9
.Ltmp39:
	//DEBUG_VALUE: pch_lowmem_check2:i <- [DW_OP_plus_uconst 1, DW_OP_stack_value] 3
	//DEBUG_VALUE: pch_lowmem_check2:minfree <- 16384
	.loc	1 315 1                         // kernel/mm/pagecache_manage.c:315:1
	ldp	x29, x30, [sp], #32             // 16-byte Folded Reload
	ret
.Ltmp40:
.Lfunc_end1:
	.size	pch_lowmem_check2, .Lfunc_end1-pch_lowmem_check2
	.cfi_endproc
                                        // -- End function
	.globl	pch_get_page                    // -- Begin function pch_get_page
	.p2align	2
	.type	pch_get_page,@function
pch_get_page:                           // @pch_get_page
.Lfunc_begin2:
	.loc	1 345 0                         // kernel/mm/pagecache_manage.c:345:0
	.cfi_startproc
// %bb.0:
	//DEBUG_VALUE: pch_get_page:mapping <- $x0
	//DEBUG_VALUE: pch_get_page:mapping <- $x0
	//DEBUG_VALUE: pch_get_page:offset <- $x1
	//DEBUG_VALUE: pch_get_page:offset <- $x1
	//DEBUG_VALUE: pch_get_page:fgp_flags <- $w2
	//DEBUG_VALUE: pch_get_page:fgp_flags <- $w2
	//DEBUG_VALUE: pch_get_page:gfp_mask <- $w3
	//DEBUG_VALUE: pch_get_page:gfp_mask <- $w3
	//DEBUG_VALUE: pch_get_page:gfp_mask <- $w3
	//DEBUG_VALUE: pch_get_page:fgp_flags <- $w2
	//DEBUG_VALUE: pch_get_page:offset <- $x1
	//DEBUG_VALUE: pch_get_page:mapping <- $x0
	stp	x29, x30, [sp, #-16]!           // 16-byte Folded Spill
	mov	x29, sp
	.cfi_def_cfa w29, 16
	.cfi_offset w30, -8
	.cfi_offset w29, -16
.Ltmp41:
	.loc	1 373 9 prologue_end            // kernel/mm/pagecache_manage.c:373:9
	bl	pagecache_get_page
.Ltmp42:
	//DEBUG_VALUE: pch_get_page:offset <- [DW_OP_LLVM_entry_value 1] $x1
	//DEBUG_VALUE: pch_get_page:mapping <- [DW_OP_LLVM_entry_value 1] $x0
	//DEBUG_VALUE: pch_get_page:gfp_mask <- [DW_OP_LLVM_entry_value 1] $w3
	//DEBUG_VALUE: pch_get_page:fgp_flags <- [DW_OP_LLVM_entry_value 1] $w2
	.loc	1 373 2 is_stmt 0               // kernel/mm/pagecache_manage.c:373:2
	ldp	x29, x30, [sp], #16             // 16-byte Folded Reload
	ret
.Ltmp43:
.Lfunc_end2:
	.size	pch_get_page, .Lfunc_end2-pch_get_page
	.cfi_endproc
                                        // -- End function
	.globl	pch_shrink_read_pages           // -- Begin function pch_shrink_read_pages
	.p2align	2
	.type	pch_shrink_read_pages,@function
pch_shrink_read_pages:                  // @pch_shrink_read_pages
.Lfunc_begin3:
	.loc	1 386 0 is_stmt 1               // kernel/mm/pagecache_manage.c:386:0
	.cfi_startproc
// %bb.0:
	//DEBUG_VALUE: pch_shrink_read_pages:nr <- $x0
	stp	x29, x30, [sp, #-48]!           // 16-byte Folded Spill
	stp	x22, x21, [sp, #16]             // 16-byte Folded Spill
	stp	x20, x19, [sp, #32]             // 16-byte Folded Spill
	mov	x29, sp
	.cfi_def_cfa w29, 48
	.cfi_offset w19, -8
	.cfi_offset w20, -16
	.cfi_offset w21, -24
	.cfi_offset w22, -32
	.cfi_offset w30, -40
	.cfi_offset w29, -48
.Ltmp44:
	.loc	1 389 7 prologue_end            // kernel/mm/pagecache_manage.c:389:7
	adrp	x22, pch_info
	ldr	x8, [x22, :lo12:pch_info]
	mov	x19, x0
.Ltmp45:
	//DEBUG_VALUE: pch_shrink_read_pages:nr <- $x19
	//DEBUG_VALUE: pch_shrink_read_pages:nr <- $x19
	.loc	1 389 16 is_stmt 0              // kernel/mm/pagecache_manage.c:389:16
	cbz	x8, .LBB3_8
.Ltmp46:
// %bb.1:
	//DEBUG_VALUE: pch_shrink_read_pages:nr <- $x19
	.loc	1 389 30                        // kernel/mm/pagecache_manage.c:389:30
	ldr	w9, [x8, #200]
.Ltmp47:
	.loc	1 389 6                         // kernel/mm/pagecache_manage.c:389:6
	cbz	w9, .LBB3_8
.Ltmp48:
// %bb.2:
	//DEBUG_VALUE: pch_shrink_read_pages:nr <- $x19
	.loc	1 392 16 is_stmt 1              // kernel/mm/pagecache_manage.c:392:16
	ldr	w9, [x8, #212]
.Ltmp49:
	.loc	1 392 6 is_stmt 0               // kernel/mm/pagecache_manage.c:392:6
	cmp	x9, x19
	b.hs	.LBB3_4
.Ltmp50:
// %bb.3:
	//DEBUG_VALUE: pch_shrink_read_pages:nr <- $x19
	.loc	1 393 24 is_stmt 1              // kernel/mm/pagecache_manage.c:393:24
	ldr	w19, [x8, #208]
.Ltmp51:
	//DEBUG_VALUE: pch_shrink_read_pages:nr <- [DW_OP_LLVM_entry_value 1] $x0
	//DEBUG_VALUE: pch_shrink_read_pages:ra_pages <- $x19
.LBB3_4:
	//DEBUG_VALUE: pch_shrink_read_pages:ra_pages <- $x19
	//DEBUG_VALUE: pch_lowmem_check:zone <- 0
	//DEBUG_VALUE: pch_lowmem_check:ret <- 0
	.loc	1 266 10                        // kernel/mm/pagecache_manage.c:266:10
	bl	first_online_pgdat
.Ltmp52:
	//DEBUG_VALUE: pch_lowmem_check:zone <- $x0
	.loc	1 267 6                         // kernel/mm/pagecache_manage.c:267:6
	cbz	x0, .LBB3_8
.Ltmp53:
// %bb.5:
	//DEBUG_VALUE: pch_shrink_read_pages:ra_pages <- $x19
	//DEBUG_VALUE: pch_lowmem_check:zone <- $x0
	//DEBUG_VALUE: pch_lowmem_check:ret <- 0
	.loc	1 270 14                        // kernel/mm/pagecache_manage.c:270:14
	ldp	x8, x9, [x0, #16]
.Ltmp54:
	.loc	1 271 7                         // kernel/mm/pagecache_manage.c:271:7
	mov	w1, wzr
	mov	w3, wzr
	mov	w4, wzr
.Ltmp55:
	.loc	1 270 14                        // kernel/mm/pagecache_manage.c:270:14
	add	x8, x8, x9
	.loc	1 270 37 is_stmt 0              // kernel/mm/pagecache_manage.c:270:37
	add	x2, x8, #2                      // =2
.Ltmp56:
	//DEBUG_VALUE: pch_lowmem_check:watermark <- $x2
	.loc	1 0 0                           // kernel/mm/pagecache_manage.c:0:0
	mov	x20, x0
.Ltmp57:
	//DEBUG_VALUE: pch_lowmem_check:zone <- $x20
	.loc	1 271 7 is_stmt 1               // kernel/mm/pagecache_manage.c:271:7
	bl	zone_watermark_ok
.Ltmp58:
	.loc	1 274 14                        // kernel/mm/pagecache_manage.c:274:14
	ldr	x8, [x20, #8]
	ldr	x9, [x20, #24]
.Ltmp59:
	.loc	1 271 7                         // kernel/mm/pagecache_manage.c:271:7
	mov	w21, w0
.Ltmp60:
	//DEBUG_VALUE: pch_lowmem_check:ret <- [DW_OP_constu 18446744073709551615, DW_OP_xor, DW_OP_LLVM_convert 1 7, DW_OP_LLVM_convert 32 7, DW_OP_stack_value] $w21
	.loc	1 275 7                         // kernel/mm/pagecache_manage.c:275:7
	mov	x0, x20
	mov	w1, wzr
.Ltmp61:
	.loc	1 274 14                        // kernel/mm/pagecache_manage.c:274:14
	add	x2, x9, x8
.Ltmp62:
	//DEBUG_VALUE: pch_lowmem_check:watermark <- $x2
	.loc	1 275 7                         // kernel/mm/pagecache_manage.c:275:7
	mov	w3, wzr
	mov	w4, wzr
	bl	zone_watermark_ok
.Ltmp63:
	.loc	1 0 7 is_stmt 0                 // kernel/mm/pagecache_manage.c:0:7
	tbz	w21, #0, .LBB3_7
.Ltmp64:
// %bb.6:
	//DEBUG_VALUE: pch_lowmem_check:zone <- $x20
	//DEBUG_VALUE: pch_shrink_read_pages:ra_pages <- $x19
	//DEBUG_VALUE: pch_lowmem_check:ret <- [DW_OP_constu 18446744073709551615, DW_OP_xor, DW_OP_LLVM_convert 1 7, DW_OP_LLVM_convert 32 7, DW_OP_stack_value] $w21
	tbnz	w0, #0, .LBB3_8
.Ltmp65:
.LBB3_7:
	//DEBUG_VALUE: pch_shrink_read_pages:ra_pages <- $x19
	.loc	1 398 5 is_stmt 1               // kernel/mm/pagecache_manage.c:398:5
	ldr	x8, [x22, :lo12:pch_info]
	.loc	1 398 15 is_stmt 0              // kernel/mm/pagecache_manage.c:398:15
	ldr	w8, [x8, #220]
.Ltmp66:
	.loc	1 397 6 is_stmt 1               // kernel/mm/pagecache_manage.c:397:6
	cmp	x19, x8
	csel	x19, x8, x19, hi
.Ltmp67:
.LBB3_8:
	.loc	1 0 0 is_stmt 0                 // kernel/mm/pagecache_manage.c:0:0
	cmp	x19, #512                       // =512
	mov	w8, #512
	csel	x0, x19, x8, lo
	.loc	1 402 1 is_stmt 1               // kernel/mm/pagecache_manage.c:402:1
	ldp	x20, x19, [sp, #32]             // 16-byte Folded Reload
	ldp	x22, x21, [sp, #16]             // 16-byte Folded Reload
	ldp	x29, x30, [sp], #48             // 16-byte Folded Reload
	ret
.Ltmp68:
.Lfunc_end3:
	.size	pch_shrink_read_pages, .Lfunc_end3-pch_shrink_read_pages
	.cfi_endproc
                                        // -- End function
	.globl	pch_shrink_mmap_pages           // -- Begin function pch_shrink_mmap_pages
	.p2align	2
	.type	pch_shrink_mmap_pages,@function
pch_shrink_mmap_pages:                  // @pch_shrink_mmap_pages
.Lfunc_begin4:
	.loc	1 413 0                         // kernel/mm/pagecache_manage.c:413:0
	.cfi_startproc
// %bb.0:
	//DEBUG_VALUE: pch_shrink_mmap_pages:nr <- $x0
	stp	x29, x30, [sp, #-48]!           // 16-byte Folded Spill
	stp	x22, x21, [sp, #16]             // 16-byte Folded Spill
	stp	x20, x19, [sp, #32]             // 16-byte Folded Spill
	mov	x29, sp
	.cfi_def_cfa w29, 48
	.cfi_offset w19, -8
	.cfi_offset w20, -16
	.cfi_offset w21, -24
	.cfi_offset w22, -32
	.cfi_offset w30, -40
	.cfi_offset w29, -48
.Ltmp69:
	.loc	1 416 7 prologue_end            // kernel/mm/pagecache_manage.c:416:7
	adrp	x22, pch_info
	ldr	x8, [x22, :lo12:pch_info]
	mov	x19, x0
.Ltmp70:
	//DEBUG_VALUE: pch_shrink_mmap_pages:nr <- $x19
	//DEBUG_VALUE: pch_shrink_mmap_pages:nr <- $x19
	.loc	1 416 16 is_stmt 0              // kernel/mm/pagecache_manage.c:416:16
	cbz	x8, .LBB4_6
.Ltmp71:
// %bb.1:
	//DEBUG_VALUE: pch_shrink_mmap_pages:nr <- $x19
	.loc	1 416 30                        // kernel/mm/pagecache_manage.c:416:30
	ldr	w9, [x8, #200]
.Ltmp72:
	.loc	1 416 6                         // kernel/mm/pagecache_manage.c:416:6
	cbz	w9, .LBB4_6
.Ltmp73:
// %bb.2:
	//DEBUG_VALUE: pch_shrink_mmap_pages:nr <- $x19
	.loc	1 419 16 is_stmt 1              // kernel/mm/pagecache_manage.c:419:16
	ldr	w8, [x8, #208]
.Ltmp74:
	.loc	1 419 6 is_stmt 0               // kernel/mm/pagecache_manage.c:419:6
	cmp	x8, x19
	csel	x19, x8, x19, lo
.Ltmp75:
	//DEBUG_VALUE: pch_shrink_mmap_pages:nr <- [DW_OP_LLVM_entry_value 1] $x0
	//DEBUG_VALUE: pch_lowmem_check:ret <- 0
	//DEBUG_VALUE: pch_lowmem_check:zone <- 0
	//DEBUG_VALUE: pch_shrink_mmap_pages:ra_pages <- $x19
	.loc	1 266 10 is_stmt 1              // kernel/mm/pagecache_manage.c:266:10
	bl	first_online_pgdat
.Ltmp76:
	//DEBUG_VALUE: pch_lowmem_check:zone <- $x0
	.loc	1 267 6                         // kernel/mm/pagecache_manage.c:267:6
	cbz	x0, .LBB4_6
.Ltmp77:
// %bb.3:
	//DEBUG_VALUE: pch_shrink_mmap_pages:ra_pages <- $x19
	//DEBUG_VALUE: pch_lowmem_check:zone <- $x0
	//DEBUG_VALUE: pch_lowmem_check:ret <- 0
	//DEBUG_VALUE: pch_shrink_mmap_pages:nr <- [DW_OP_LLVM_entry_value 1] $x0
	.loc	1 270 14                        // kernel/mm/pagecache_manage.c:270:14
	ldp	x8, x9, [x0, #16]
.Ltmp78:
	.loc	1 271 7                         // kernel/mm/pagecache_manage.c:271:7
	mov	w1, wzr
	mov	w3, wzr
	mov	w4, wzr
.Ltmp79:
	.loc	1 270 14                        // kernel/mm/pagecache_manage.c:270:14
	add	x8, x8, x9
	.loc	1 270 37 is_stmt 0              // kernel/mm/pagecache_manage.c:270:37
	add	x2, x8, #2                      // =2
.Ltmp80:
	//DEBUG_VALUE: pch_lowmem_check:watermark <- $x2
	.loc	1 0 0                           // kernel/mm/pagecache_manage.c:0:0
	mov	x20, x0
.Ltmp81:
	//DEBUG_VALUE: pch_lowmem_check:zone <- $x20
	.loc	1 271 7 is_stmt 1               // kernel/mm/pagecache_manage.c:271:7
	bl	zone_watermark_ok
.Ltmp82:
	.loc	1 274 14                        // kernel/mm/pagecache_manage.c:274:14
	ldr	x8, [x20, #8]
	ldr	x9, [x20, #24]
.Ltmp83:
	.loc	1 271 7                         // kernel/mm/pagecache_manage.c:271:7
	mov	w21, w0
.Ltmp84:
	//DEBUG_VALUE: pch_lowmem_check:ret <- [DW_OP_constu 18446744073709551615, DW_OP_xor, DW_OP_LLVM_convert 1 7, DW_OP_LLVM_convert 32 7, DW_OP_stack_value] $w21
	.loc	1 275 7                         // kernel/mm/pagecache_manage.c:275:7
	mov	x0, x20
	mov	w1, wzr
.Ltmp85:
	.loc	1 274 14                        // kernel/mm/pagecache_manage.c:274:14
	add	x2, x9, x8
.Ltmp86:
	//DEBUG_VALUE: pch_lowmem_check:watermark <- $x2
	.loc	1 275 7                         // kernel/mm/pagecache_manage.c:275:7
	mov	w3, wzr
	mov	w4, wzr
	bl	zone_watermark_ok
.Ltmp87:
	.loc	1 0 7 is_stmt 0                 // kernel/mm/pagecache_manage.c:0:7
	tbz	w21, #0, .LBB4_5
.Ltmp88:
// %bb.4:
	//DEBUG_VALUE: pch_lowmem_check:zone <- $x20
	//DEBUG_VALUE: pch_shrink_mmap_pages:ra_pages <- $x19
	//DEBUG_VALUE: pch_lowmem_check:ret <- [DW_OP_constu 18446744073709551615, DW_OP_xor, DW_OP_LLVM_convert 1 7, DW_OP_LLVM_convert 32 7, DW_OP_stack_value] $w21
	//DEBUG_VALUE: pch_shrink_mmap_pages:nr <- [DW_OP_LLVM_entry_value 1] $x0
	tbnz	w0, #0, .LBB4_6
.Ltmp89:
.LBB4_5:
	//DEBUG_VALUE: pch_shrink_mmap_pages:ra_pages <- $x19
	//DEBUG_VALUE: pch_shrink_mmap_pages:nr <- [DW_OP_LLVM_entry_value 1] $x0
	.loc	1 425 5 is_stmt 1               // kernel/mm/pagecache_manage.c:425:5
	ldr	x8, [x22, :lo12:pch_info]
	.loc	1 425 15 is_stmt 0              // kernel/mm/pagecache_manage.c:425:15
	ldr	w8, [x8, #220]
.Ltmp90:
	.loc	1 424 6 is_stmt 1               // kernel/mm/pagecache_manage.c:424:6
	cmp	x19, x8
	csel	x19, x8, x19, hi
.Ltmp91:
.LBB4_6:
	.loc	1 0 0 is_stmt 0                 // kernel/mm/pagecache_manage.c:0:0
	cmp	x19, #512                       // =512
	mov	w8, #512
	csel	x0, x19, x8, lo
	.loc	1 429 1 is_stmt 1               // kernel/mm/pagecache_manage.c:429:1
	ldp	x20, x19, [sp, #32]             // 16-byte Folded Reload
	ldp	x22, x21, [sp, #16]             // 16-byte Folded Reload
	ldp	x29, x30, [sp], #48             // 16-byte Folded Reload
	ret
.Ltmp92:
.Lfunc_end4:
	.size	pch_shrink_mmap_pages, .Lfunc_end4-pch_shrink_mmap_pages
	.cfi_endproc
                                        // -- End function
	.globl	pch_shrink_mmap_async_pages     // -- Begin function pch_shrink_mmap_async_pages
	.p2align	2
	.type	pch_shrink_mmap_async_pages,@function
pch_shrink_mmap_async_pages:            // @pch_shrink_mmap_async_pages
.Lfunc_begin5:
	.loc	1 440 0                         // kernel/mm/pagecache_manage.c:440:0
	.cfi_startproc
// %bb.0:
	//DEBUG_VALUE: pch_shrink_mmap_async_pages:nr <- $x0
	stp	x29, x30, [sp, #-48]!           // 16-byte Folded Spill
	str	x21, [sp, #16]                  // 8-byte Folded Spill
	stp	x20, x19, [sp, #32]             // 16-byte Folded Spill
	mov	x29, sp
	.cfi_def_cfa w29, 48
	.cfi_offset w19, -8
	.cfi_offset w20, -16
	.cfi_offset w21, -32
	.cfi_offset w30, -40
	.cfi_offset w29, -48
.Ltmp93:
	.loc	1 443 7 prologue_end            // kernel/mm/pagecache_manage.c:443:7
	adrp	x8, pch_info
	ldr	x8, [x8, :lo12:pch_info]
	mov	x19, x0
.Ltmp94:
	//DEBUG_VALUE: pch_shrink_mmap_async_pages:nr <- $x19
	//DEBUG_VALUE: pch_shrink_mmap_async_pages:nr <- $x19
	.loc	1 443 16 is_stmt 0              // kernel/mm/pagecache_manage.c:443:16
	cbz	x8, .LBB5_6
.Ltmp95:
// %bb.1:
	//DEBUG_VALUE: pch_shrink_mmap_async_pages:nr <- $x19
	.loc	1 443 30                        // kernel/mm/pagecache_manage.c:443:30
	ldr	w8, [x8, #200]
.Ltmp96:
	.loc	1 443 6                         // kernel/mm/pagecache_manage.c:443:6
	cbz	w8, .LBB5_6
.Ltmp97:
// %bb.2:
	//DEBUG_VALUE: pch_shrink_mmap_async_pages:nr <- $x19
	//DEBUG_VALUE: pch_lowmem_check:zone <- 0
	//DEBUG_VALUE: pch_lowmem_check:ret <- 0
	.loc	1 266 10 is_stmt 1              // kernel/mm/pagecache_manage.c:266:10
	bl	first_online_pgdat
.Ltmp98:
	//DEBUG_VALUE: pch_lowmem_check:zone <- $x0
	.loc	1 267 6                         // kernel/mm/pagecache_manage.c:267:6
	cbz	x0, .LBB5_5
.Ltmp99:
// %bb.3:
	//DEBUG_VALUE: pch_shrink_mmap_async_pages:nr <- $x19
	//DEBUG_VALUE: pch_lowmem_check:zone <- $x0
	//DEBUG_VALUE: pch_lowmem_check:ret <- 0
	.loc	1 270 14                        // kernel/mm/pagecache_manage.c:270:14
	ldp	x8, x9, [x0, #16]
.Ltmp100:
	.loc	1 271 7                         // kernel/mm/pagecache_manage.c:271:7
	mov	w1, wzr
	mov	w3, wzr
	mov	w4, wzr
.Ltmp101:
	.loc	1 270 14                        // kernel/mm/pagecache_manage.c:270:14
	add	x8, x8, x9
	.loc	1 270 37 is_stmt 0              // kernel/mm/pagecache_manage.c:270:37
	add	x2, x8, #2                      // =2
.Ltmp102:
	//DEBUG_VALUE: pch_lowmem_check:watermark <- $x2
	.loc	1 0 0                           // kernel/mm/pagecache_manage.c:0:0
	mov	x20, x0
.Ltmp103:
	//DEBUG_VALUE: pch_lowmem_check:zone <- $x20
	.loc	1 271 7 is_stmt 1               // kernel/mm/pagecache_manage.c:271:7
	bl	zone_watermark_ok
.Ltmp104:
	.loc	1 274 14                        // kernel/mm/pagecache_manage.c:274:14
	ldr	x8, [x20, #8]
	ldr	x9, [x20, #24]
.Ltmp105:
	.loc	1 271 7                         // kernel/mm/pagecache_manage.c:271:7
	mov	w21, w0
.Ltmp106:
	//DEBUG_VALUE: pch_lowmem_check:ret <- [DW_OP_constu 18446744073709551615, DW_OP_xor, DW_OP_LLVM_convert 1 7, DW_OP_LLVM_convert 32 7, DW_OP_stack_value] $w21
	.loc	1 275 7                         // kernel/mm/pagecache_manage.c:275:7
	mov	x0, x20
	mov	w1, wzr
.Ltmp107:
	.loc	1 274 14                        // kernel/mm/pagecache_manage.c:274:14
	add	x2, x9, x8
.Ltmp108:
	//DEBUG_VALUE: pch_lowmem_check:watermark <- $x2
	.loc	1 275 7                         // kernel/mm/pagecache_manage.c:275:7
	mov	w3, wzr
	mov	w4, wzr
	bl	zone_watermark_ok
.Ltmp109:
	mov	w8, w0
	mov	x0, xzr
	tbz	w21, #0, .LBB5_7
.Ltmp110:
// %bb.4:
	//DEBUG_VALUE: pch_lowmem_check:zone <- $x20
	//DEBUG_VALUE: pch_shrink_mmap_async_pages:nr <- $x19
	//DEBUG_VALUE: pch_lowmem_check:ret <- [DW_OP_constu 18446744073709551615, DW_OP_xor, DW_OP_LLVM_convert 1 7, DW_OP_LLVM_convert 32 7, DW_OP_stack_value] $w21
	.loc	1 0 7 is_stmt 0                 // kernel/mm/pagecache_manage.c:0:7
	tbz	w8, #0, .LBB5_7
.Ltmp111:
.LBB5_5:
	//DEBUG_VALUE: pch_shrink_mmap_async_pages:nr <- $x19
	mov	x0, x19
	b	.LBB5_7
.Ltmp112:
.LBB5_6:
	//DEBUG_VALUE: pch_shrink_mmap_async_pages:nr <- $x19
	//DEBUG_VALUE: __UNIQUE_ID___x413 <- $x19
	//DEBUG_VALUE: __UNIQUE_ID___y414 <- 512
	.loc	1 444 10 is_stmt 1              // kernel/mm/pagecache_manage.c:444:10
	cmp	x19, #512                       // =512
	mov	w8, #512
	csel	x0, x19, x8, lo
.Ltmp113:
.LBB5_7:
	//DEBUG_VALUE: pch_shrink_mmap_async_pages:nr <- $x19
	.loc	1 452 1                         // kernel/mm/pagecache_manage.c:452:1
	ldp	x20, x19, [sp, #32]             // 16-byte Folded Reload
.Ltmp114:
	//DEBUG_VALUE: pch_shrink_mmap_async_pages:nr <- [DW_OP_LLVM_entry_value 1] $x0
	ldr	x21, [sp, #16]                  // 8-byte Folded Reload
	ldp	x29, x30, [sp], #48             // 16-byte Folded Reload
	ret
.Ltmp115:
.Lfunc_end5:
	.size	pch_shrink_mmap_async_pages, .Lfunc_end5-pch_shrink_mmap_async_pages
	.cfi_endproc
                                        // -- End function
	.globl	pch_read_around                 // -- Begin function pch_read_around
	.p2align	2
	.type	pch_read_around,@function
pch_read_around:                        // @pch_read_around
.Lfunc_begin6:
	.loc	1 642 0                         // kernel/mm/pagecache_manage.c:642:0
	.cfi_startproc
// %bb.0:
	//DEBUG_VALUE: pch_read_around:ractl <- $x0
	//DEBUG_VALUE: pch_read_around:ra <- $x1
	//DEBUG_VALUE: pch_read_around:file <- $x2
	//DEBUG_VALUE: pch_read_around:offset <- $x3
	sub	sp, sp, #224                    // =224
	stp	x29, x30, [sp, #128]            // 16-byte Folded Spill
	stp	x28, x27, [sp, #144]            // 16-byte Folded Spill
	stp	x26, x25, [sp, #160]            // 16-byte Folded Spill
	stp	x24, x23, [sp, #176]            // 16-byte Folded Spill
	stp	x22, x21, [sp, #192]            // 16-byte Folded Spill
	stp	x20, x19, [sp, #208]            // 16-byte Folded Spill
	add	x29, sp, #128                   // =128
	.cfi_def_cfa w29, 96
	.cfi_offset w19, -8
	.cfi_offset w20, -16
	.cfi_offset w21, -24
	.cfi_offset w22, -32
	.cfi_offset w23, -40
	.cfi_offset w24, -48
	.cfi_offset w25, -56
	.cfi_offset w26, -64
	.cfi_offset w27, -72
	.cfi_offset w28, -80
	.cfi_offset w30, -88
	.cfi_offset w29, -96
.Ltmp116:
	.loc	1 648 35 prologue_end           // kernel/mm/pagecache_manage.c:648:35
	ldr	w8, [x1, #16]
	mov	x19, x0
.Ltmp117:
	//DEBUG_VALUE: pch_read_around:ractl <- $x19
	//DEBUG_VALUE: pch_read_around:ractl <- $x19
	.loc	1 0 35 is_stmt 0                // kernel/mm/pagecache_manage.c:0:35
	mov	x21, x3
.Ltmp118:
	//DEBUG_VALUE: pch_read_around:offset <- $x21
	str	x2, [sp, #8]                    // 8-byte Folded Spill
.Ltmp119:
	//DEBUG_VALUE: pch_read_around:file <- [DW_OP_plus_uconst 8] [$sp+0]
	.loc	1 648 9                         // kernel/mm/pagecache_manage.c:648:9
	mov	x0, x8
	mov	x20, x1
.Ltmp120:
	//DEBUG_VALUE: pch_read_around:ra <- $x20
	//DEBUG_VALUE: pch_read_around:offset <- $x21
	//DEBUG_VALUE: pch_read_around:file <- [DW_OP_plus_uconst 8] [$sp+0]
	//DEBUG_VALUE: pch_read_around:ra <- $x20
	bl	pch_shrink_mmap_pages
.Ltmp121:
	mov	x25, x0
.Ltmp122:
	//DEBUG_VALUE: __UNIQUE_ID___x418 <- 0
	//DEBUG_VALUE: pch_read_around:size <- $x25
	.loc	1 651 19 is_stmt 1              // kernel/mm/pagecache_manage.c:651:19
	sub	x8, x21, x0, lsr #1
.Ltmp123:
	//DEBUG_VALUE: __UNIQUE_ID___y419 <- $x8
	//DEBUG_VALUE: pch_do_page_cache_readaround:nr_to_read <- $x25
	.loc	1 518 41                        // kernel/mm/pagecache_manage.c:518:41
	ldr	x0, [x19, #8]
.Ltmp124:
	//DEBUG_VALUE: pch_do_page_cache_readaround:mapping <- $x0
	.loc	1 651 19                        // kernel/mm/pagecache_manage.c:651:19
	bic	x22, x8, x8, asr #63
.Ltmp125:
	//DEBUG_VALUE: pch_read_around:start <- $x22
	//DEBUG_VALUE: __UNIQUE_ID___y419 <- $x8
	//DEBUG_VALUE: __UNIQUE_ID___x418 <- 0
	.loc	1 653 16                        // kernel/mm/pagecache_manage.c:653:16
	str	x22, [x19, #16]
	sub	x9, x29, #16                    // =16
.Ltmp126:
	.loc	1 519 33                        // kernel/mm/pagecache_manage.c:519:33
	ldr	x8, [x0]
.Ltmp127:
	//DEBUG_VALUE: pch_do_page_cache_readaround:page <- 0
	//DEBUG_VALUE: pch_do_page_cache_readaround:inode <- $x8
	//DEBUG_VALUE: pch_do_page_cache_readaround:mapping <- $x0
	//DEBUG_VALUE: pch_do_page_cache_readaround:nr_to_read <- $x25
	.loc	1 522 2                         // kernel/mm/pagecache_manage.c:522:2
	stp	x9, x9, [x29, #-16]
	sub	x9, x29, #32                    // =32
	.loc	1 523 2                         // kernel/mm/pagecache_manage.c:523:2
	stp	x9, x9, [x29, #-32]
.Ltmp128:
	//DEBUG_VALUE: i_size_read:inode <- $x8
	//DEBUG_VALUE: pch_do_page_cache_readaround:ret <- 0
	.loc	17 876 16                       // kernel/include/linux/fs.h:876:16
	ldr	x24, [x8, #80]
.Ltmp129:
	//DEBUG_VALUE: pch_do_page_cache_readaround:isize <- $x24
	.loc	17 0 16 is_stmt 0               // kernel/include/linux/fs.h:0:16
	str	x19, [sp]                       // 8-byte Folded Spill
.Ltmp130:
	//DEBUG_VALUE: pch_read_around:ractl <- [$sp+0]
	//DEBUG_VALUE: pch_read_around:ractl <- [$sp+0]
	.loc	1 656 14 is_stmt 1              // kernel/mm/pagecache_manage.c:656:14
	sub	x19, x21, x22
.Ltmp131:
	//DEBUG_VALUE: pch_do_page_cache_readaround:offset <- $x22
	//DEBUG_VALUE: pch_do_page_cache_readaround:lookahead_size <- 0
	//DEBUG_VALUE: pch_do_page_cache_readaround:filp <- undef
	//DEBUG_VALUE: pch_do_page_cache_readaround:ractl <- [$sp+0]
	//DEBUG_VALUE: pch_do_page_cache_readaround:vip_n <- $x19
	//DEBUG_VALUE: pch_do_page_cache_readaround:isize <- $x24
	//DEBUG_VALUE: pch_do_page_cache_readaround:ret <- 0
	//DEBUG_VALUE: pch_do_page_cache_readaround:page <- 0
	//DEBUG_VALUE: pch_do_page_cache_readaround:mapping <- $x0
	//DEBUG_VALUE: pch_do_page_cache_readaround:nr_to_read <- $x25
	.loc	1 0 14 is_stmt 0                // kernel/mm/pagecache_manage.c:0:14
	str	x0, [sp, #48]                   // 8-byte Folded Spill
.Ltmp132:
	//DEBUG_VALUE: pch_do_page_cache_readaround:mapping <- [DW_OP_plus_uconst 48] [$sp+0]
	.loc	1 530 19 is_stmt 1              // kernel/mm/pagecache_manage.c:530:19
	bl	readahead_gfp_mask
.Ltmp133:
	.loc	1 540 6                         // kernel/mm/pagecache_manage.c:540:6
	cmp	x25, #127                       // =127
	csel	x8, xzr, x19, hi
.Ltmp134:
	//DEBUG_VALUE: pch_do_page_cache_readaround:vip_n <- $x8
	.loc	1 0 6 is_stmt 0                 // kernel/mm/pagecache_manage.c:0:6
	str	w0, [sp, #60]                   // 4-byte Folded Spill
.Ltmp135:
	//DEBUG_VALUE: pch_do_page_cache_readaround:gfp_mask <- [DW_OP_plus_uconst 60] [$sp+0]
	.loc	1 531 21 is_stmt 1              // kernel/mm/pagecache_manage.c:531:21
	stp	xzr, xzr, [x29, #-48]
	stur	x8, [x29, #-56]                 // 8-byte Folded Spill
.Ltmp136:
	//DEBUG_VALUE: pch_do_page_cache_readaround:vip_n <- [DW_OP_constu 56, DW_OP_minus] [$fp+0]
	//DEBUG_VALUE: pch_do_page_cache_readaround:vip_n <- [DW_OP_constu 56, DW_OP_minus] [$fp+0]
	.loc	1 543 6                         // kernel/mm/pagecache_manage.c:543:6
	cbz	x24, .LBB6_29
.Ltmp137:
// %bb.1:
	//DEBUG_VALUE: pch_do_page_cache_readaround:nr_to_read <- $x25
	//DEBUG_VALUE: pch_read_around:size <- $x25
	//DEBUG_VALUE: pch_do_page_cache_readaround:isize <- $x24
	//DEBUG_VALUE: pch_do_page_cache_readaround:offset <- $x22
	//DEBUG_VALUE: pch_read_around:start <- $x22
	//DEBUG_VALUE: pch_read_around:offset <- $x21
	//DEBUG_VALUE: pch_read_around:ra <- $x20
	//DEBUG_VALUE: pch_do_page_cache_readaround:gfp_mask <- [DW_OP_plus_uconst 60] [$sp+0]
	//DEBUG_VALUE: pch_do_page_cache_readaround:mapping <- [DW_OP_plus_uconst 48] [$sp+0]
	//DEBUG_VALUE: pch_do_page_cache_readaround:ractl <- [$sp+0]
	//DEBUG_VALUE: pch_read_around:ractl <- [$sp+0]
	//DEBUG_VALUE: pch_read_around:file <- [DW_OP_plus_uconst 8] [$sp+0]
	//DEBUG_VALUE: pch_do_page_cache_readaround:vip_n <- [DW_OP_constu 56, DW_OP_minus] [$fp+0]
	//DEBUG_VALUE: pch_do_page_cache_readaround:lookahead_size <- 0
	//DEBUG_VALUE: pch_do_page_cache_readaround:ret <- 0
	//DEBUG_VALUE: pch_do_page_cache_readaround:page <- 0
	//DEBUG_VALUE: pch_do_page_cache_readaround:end_index <- [DW_OP_plus_uconst 17592186044415, DW_OP_constu 12, DW_OP_shra, DW_OP_stack_value] $x24
	.file	173 "/mnt/disk/jenkins/ci/workspace/chipset_pipeline_release/opensource/component_code/vendor/huawei/extra/build/build_script/kirin_kernel_release" "kernel/arch/arm64/include/asm/current.h"
	.loc	173 19 2                        // kernel/arch/arm64/include/asm/current.h:19:2
	//APP
	mrs	x9, SP_EL0
	//NO_APP
.Ltmp138:
	//DEBUG_VALUE: get_current:sp_el0 <- $x9
	//DEBUG_VALUE: get_current:sp_el0 <- $x9
	.file	174 "/mnt/disk/jenkins/ci/workspace/chipset_pipeline_release/opensource/component_code/vendor/huawei/extra/build/build_script/kirin_kernel_release" "kernel/include/linux/sched/mm.h"
	.loc	174 228 32                      // kernel/include/linux/sched/mm.h:228:32
	ldr	w8, [x9, #44]
.Ltmp139:
	.loc	1 575 30                        // kernel/mm/pagecache_manage.c:575:30
	lsl	x19, x25, #1
	stp	x9, x20, [sp, #32]              // 16-byte Folded Spill
.Ltmp140:
	//DEBUG_VALUE: get_current:sp_el0 <- [DW_OP_plus_uconst 32] [$sp+0]
	.loc	174 228 38                      // kernel/include/linux/sched/mm.h:228:38
	and	w10, w8, #0x40000
.Ltmp141:
	//DEBUG_VALUE: memalloc_nofs_save:flags <- $w10
	.loc	174 229 17                      // kernel/include/linux/sched/mm.h:229:17
	orr	w8, w8, #0x40000
	str	w10, [sp, #28]                  // 4-byte Folded Spill
.Ltmp142:
	//DEBUG_VALUE: memalloc_nofs_save:flags <- [DW_OP_plus_uconst 28] [$sp+0]
	//DEBUG_VALUE: memalloc_nofs_save:flags <- [DW_OP_plus_uconst 28] [$sp+0]
	str	w8, [x9, #44]
.Ltmp143:
	//DEBUG_VALUE: pch_do_page_cache_readaround:i <- 0
	//DEBUG_VALUE: pch_do_page_cache_readaround:nofs <- [DW_OP_plus_uconst 28] [$sp+0]
	//DEBUG_VALUE: memalloc_nofs_save:flags <- [DW_OP_plus_uconst 28] [$sp+0]
	//DEBUG_VALUE: pch_do_page_cache_readaround:ret <- 0
	.loc	1 575 2                         // kernel/mm/pagecache_manage.c:575:2
	cbz	x19, .LBB6_28
.Ltmp144:
// %bb.2:
	//DEBUG_VALUE: pch_do_page_cache_readaround:nr_to_read <- $x25
	//DEBUG_VALUE: pch_read_around:size <- $x25
	//DEBUG_VALUE: pch_do_page_cache_readaround:end_index <- [DW_OP_plus_uconst 17592186044415, DW_OP_constu 12, DW_OP_shra, DW_OP_stack_value] $x24
	//DEBUG_VALUE: pch_do_page_cache_readaround:isize <- $x24
	//DEBUG_VALUE: pch_do_page_cache_readaround:offset <- $x22
	//DEBUG_VALUE: pch_read_around:start <- $x22
	//DEBUG_VALUE: pch_read_around:offset <- $x21
	//DEBUG_VALUE: pch_read_around:ra <- $x20
	//DEBUG_VALUE: pch_do_page_cache_readaround:nofs <- [DW_OP_plus_uconst 28] [$sp+0]
	//DEBUG_VALUE: pch_do_page_cache_readaround:gfp_mask <- [DW_OP_plus_uconst 60] [$sp+0]
	//DEBUG_VALUE: pch_do_page_cache_readaround:mapping <- [DW_OP_plus_uconst 48] [$sp+0]
	//DEBUG_VALUE: pch_do_page_cache_readaround:ractl <- [$sp+0]
	//DEBUG_VALUE: pch_read_around:ractl <- [$sp+0]
	//DEBUG_VALUE: pch_read_around:file <- [DW_OP_plus_uconst 8] [$sp+0]
	//DEBUG_VALUE: pch_do_page_cache_readaround:vip_n <- [DW_OP_constu 56, DW_OP_minus] [$fp+0]
	//DEBUG_VALUE: pch_do_page_cache_readaround:i <- 0
	//DEBUG_VALUE: pch_do_page_cache_readaround:lookahead_size <- 0
	//DEBUG_VALUE: pch_do_page_cache_readaround:ret <- 0
	//DEBUG_VALUE: pch_do_page_cache_readaround:page <- 0
	.loc	1 550 22                        // kernel/mm/pagecache_manage.c:550:22
	sub	x8, x24, #1                     // =1
.Ltmp145:
	//DEBUG_VALUE: pch_do_page_cache_readaround:end_index <- [DW_OP_constu 12, DW_OP_shra, DW_OP_stack_value] $x8
	.loc	1 0 22 is_stmt 0                // kernel/mm/pagecache_manage.c:0:22
	ldr	x10, [sp, #48]                  // 8-byte Folded Reload
	.loc	1 550 27                        // kernel/mm/pagecache_manage.c:550:27
	lsr	x8, x8, #12
.Ltmp146:
	.loc	1 0 27                          // kernel/mm/pagecache_manage.c:0:27
	sub	w9, w25, #1                     // =1
	sub	w8, w8, w22
	cmp	w9, w8
	mov	x20, xzr
.Ltmp147:
	mov	w27, wzr
	add	x10, x10, #8                    // =8
	mov	w24, #-1
.Ltmp148:
	csel	w23, w9, w8, lt
	str	x25, [sp, #16]                  // 8-byte Folded Spill
.Ltmp149:
	//DEBUG_VALUE: pch_read_around:size <- [DW_OP_plus_uconst 16] [$sp+0]
	str	x10, [sp, #64]                  // 8-byte Folded Spill
	b	.LBB6_5
.Ltmp150:
.LBB6_3:                                //   in Loop: Header=BB6_5 Depth=1
	//DEBUG_VALUE: pch_read_around:size <- [DW_OP_plus_uconst 16] [$sp+0]
	//DEBUG_VALUE: pch_do_page_cache_readaround:page <- $x27
	//DEBUG_VALUE: pch_read_around:start <- $x25
	//DEBUG_VALUE: pch_do_page_cache_readaround:i <- $x20
	//DEBUG_VALUE: pch_do_page_cache_readaround:ret <- $w22
	//DEBUG_VALUE: pch_do_page_cache_readaround:nofs <- [DW_OP_plus_uconst 28] [$sp+0]
	//DEBUG_VALUE: pch_do_page_cache_readaround:gfp_mask <- [DW_OP_plus_uconst 60] [$sp+0]
	//DEBUG_VALUE: pch_do_page_cache_readaround:mapping <- [DW_OP_plus_uconst 48] [$sp+0]
	//DEBUG_VALUE: pch_do_page_cache_readaround:ractl <- [$sp+0]
	//DEBUG_VALUE: pch_read_around:ractl <- [$sp+0]
	//DEBUG_VALUE: pch_read_around:file <- [DW_OP_plus_uconst 8] [$sp+0]
	//DEBUG_VALUE: pch_do_page_cache_readaround:vip_n <- [DW_OP_constu 56, DW_OP_minus] [$fp+0]
	//DEBUG_VALUE: pch_do_page_cache_readaround:lookahead_size <- 0
	mov	w27, w22
.Ltmp151:
	.loc	1 608 6 is_stmt 1               // kernel/mm/pagecache_manage.c:608:6
	add	w27, w22, #1                    // =1
.Ltmp152:
	//DEBUG_VALUE: pch_do_page_cache_readaround:ret <- $w27
	.loc	1 0 6 is_stmt 0                 // kernel/mm/pagecache_manage.c:0:6
	mov	x22, x25
.Ltmp153:
	//DEBUG_VALUE: pch_read_around:start <- $x22
.LBB6_4:                                //   in Loop: Header=BB6_5 Depth=1
	//DEBUG_VALUE: pch_read_around:size <- [DW_OP_plus_uconst 16] [$sp+0]
	//DEBUG_VALUE: pch_read_around:start <- $x22
	//DEBUG_VALUE: pch_do_page_cache_readaround:i <- $x20
	//DEBUG_VALUE: pch_do_page_cache_readaround:ret <- $w27
	//DEBUG_VALUE: pch_do_page_cache_readaround:nofs <- [DW_OP_plus_uconst 28] [$sp+0]
	//DEBUG_VALUE: pch_do_page_cache_readaround:gfp_mask <- [DW_OP_plus_uconst 60] [$sp+0]
	//DEBUG_VALUE: pch_do_page_cache_readaround:mapping <- [DW_OP_plus_uconst 48] [$sp+0]
	//DEBUG_VALUE: pch_do_page_cache_readaround:ractl <- [$sp+0]
	//DEBUG_VALUE: pch_read_around:ractl <- [$sp+0]
	//DEBUG_VALUE: pch_read_around:file <- [DW_OP_plus_uconst 8] [$sp+0]
	//DEBUG_VALUE: pch_do_page_cache_readaround:vip_n <- [DW_OP_constu 56, DW_OP_minus] [$fp+0]
	//DEBUG_VALUE: pch_do_page_cache_readaround:lookahead_size <- 0
	//DEBUG_VALUE: pch_do_page_cache_readaround:ret <- $w27
	.loc	1 575 38 is_stmt 1              // kernel/mm/pagecache_manage.c:575:38
	add	x20, x20, #1                    // =1
.Ltmp154:
	//DEBUG_VALUE: pch_do_page_cache_readaround:i <- $x20
	.loc	1 575 2 is_stmt 0               // kernel/mm/pagecache_manage.c:575:2
	cmp	x19, x20
.Ltmp155:
	.loc	1 575 16                        // kernel/mm/pagecache_manage.c:575:16
	sub	w24, w24, #1                    // =1
.Ltmp156:
	.loc	1 575 2                         // kernel/mm/pagecache_manage.c:575:2
	b.eq	.LBB6_17
.Ltmp157:
.LBB6_5:                                // =>This Inner Loop Header: Depth=1
	//DEBUG_VALUE: pch_read_around:size <- [DW_OP_plus_uconst 16] [$sp+0]
	//DEBUG_VALUE: pch_read_around:start <- $x22
	//DEBUG_VALUE: pch_do_page_cache_readaround:nofs <- [DW_OP_plus_uconst 28] [$sp+0]
	//DEBUG_VALUE: pch_do_page_cache_readaround:gfp_mask <- [DW_OP_plus_uconst 60] [$sp+0]
	//DEBUG_VALUE: pch_do_page_cache_readaround:mapping <- [DW_OP_plus_uconst 48] [$sp+0]
	//DEBUG_VALUE: pch_do_page_cache_readaround:ractl <- [$sp+0]
	//DEBUG_VALUE: pch_read_around:ractl <- [$sp+0]
	//DEBUG_VALUE: pch_read_around:file <- [DW_OP_plus_uconst 8] [$sp+0]
	//DEBUG_VALUE: pch_do_page_cache_readaround:vip_n <- [DW_OP_constu 56, DW_OP_minus] [$fp+0]
	//DEBUG_VALUE: pch_do_page_cache_readaround:lookahead_size <- 0
	//DEBUG_VALUE: pch_do_page_cache_readaround:ret <- $w27
	//DEBUG_VALUE: pch_do_page_cache_readaround:i <- $x20
	//DEBUG_VALUE: pch_get_index_vip_first:i <- [DW_OP_LLVM_convert 64 7, DW_OP_LLVM_convert 32 7, DW_OP_stack_value] $x20
	//DEBUG_VALUE: pch_get_index_vip_first:min <- 0
	//DEBUG_VALUE: pch_get_index_vip_first:max <- $w23
	//DEBUG_VALUE: pch_get_index_vip_first:vip <- [DW_OP_constu 56, DW_OP_minus] [$fp+0]
	.loc	1 469 15 is_stmt 1              // kernel/mm/pagecache_manage.c:469:15
	tst	w20, #0x1
	ldur	x9, [x29, #-56]                 // 8-byte Folded Reload
.Ltmp158:
	//DEBUG_VALUE: pch_get_index_vip_first:vip <- $w9
	csinc	w8, w24, w20, ne
	cmp	w8, #0                          // =0
	cinc	w8, w8, lt
	.loc	1 469 12 is_stmt 0              // kernel/mm/pagecache_manage.c:469:12
	add	w8, w9, w8, asr #1
.Ltmp159:
	//DEBUG_VALUE: pch_get_index_vip_first:ret <- $w8
	//DEBUG_VALUE: pch_get_index_vip_first:vip <- [DW_OP_constu 56, DW_OP_minus] [$fp+0]
	.loc	1 0 12                          // kernel/mm/pagecache_manage.c:0:12
	cmp	w8, w23
.Ltmp160:
	.loc	1 471 10 is_stmt 1              // kernel/mm/pagecache_manage.c:471:10
	ccmp	w8, #0, #8, le
.Ltmp161:
	.loc	1 471 6 is_stmt 0               // kernel/mm/pagecache_manage.c:471:6
	csinv	w26, w8, wzr, ge
.Ltmp162:
	//DEBUG_VALUE: pch_do_page_cache_readaround:page_idx <- $w26
	.loc	1 578 7 is_stmt 1               // kernel/mm/pagecache_manage.c:578:7
	tbnz	w26, #31, .LBB6_4
.Ltmp163:
// %bb.6:                               //   in Loop: Header=BB6_5 Depth=1
	//DEBUG_VALUE: pch_read_around:size <- [DW_OP_plus_uconst 16] [$sp+0]
	//DEBUG_VALUE: pch_read_around:start <- $x22
	//DEBUG_VALUE: pch_do_page_cache_readaround:i <- $x20
	//DEBUG_VALUE: pch_do_page_cache_readaround:ret <- $w27
	//DEBUG_VALUE: pch_do_page_cache_readaround:page_idx <- $w26
	//DEBUG_VALUE: pch_do_page_cache_readaround:nofs <- [DW_OP_plus_uconst 28] [$sp+0]
	//DEBUG_VALUE: pch_do_page_cache_readaround:gfp_mask <- [DW_OP_plus_uconst 60] [$sp+0]
	//DEBUG_VALUE: pch_do_page_cache_readaround:mapping <- [DW_OP_plus_uconst 48] [$sp+0]
	//DEBUG_VALUE: pch_do_page_cache_readaround:ractl <- [$sp+0]
	//DEBUG_VALUE: pch_read_around:ractl <- [$sp+0]
	//DEBUG_VALUE: pch_read_around:file <- [DW_OP_plus_uconst 8] [$sp+0]
	//DEBUG_VALUE: pch_do_page_cache_readaround:vip_n <- [DW_OP_constu 56, DW_OP_minus] [$fp+0]
	//DEBUG_VALUE: pch_do_page_cache_readaround:lookahead_size <- 0
	.loc	1 0 7 is_stmt 0                 // kernel/mm/pagecache_manage.c:0:7
	ldr	x0, [sp, #64]                   // 8-byte Folded Reload
	.loc	1 581 20 is_stmt 1              // kernel/mm/pagecache_manage.c:581:20
	mov	w21, w26
	.loc	1 581 18 is_stmt 0              // kernel/mm/pagecache_manage.c:581:18
	add	x28, x22, x21
.Ltmp164:
	//DEBUG_VALUE: pch_do_page_cache_readaround:pgofs <- $x28
	.loc	1 590 10 is_stmt 1              // kernel/mm/pagecache_manage.c:590:10
	mov	x1, x28
	bl	xa_load
.Ltmp165:
	//DEBUG_VALUE: pch_do_page_cache_readaround:page <- $x0
	.loc	1 591 12                        // kernel/mm/pagecache_manage.c:591:12
	cbz	x0, .LBB6_8
.Ltmp166:
// %bb.7:                               //   in Loop: Header=BB6_5 Depth=1
	//DEBUG_VALUE: pch_read_around:size <- [DW_OP_plus_uconst 16] [$sp+0]
	//DEBUG_VALUE: pch_do_page_cache_readaround:pgofs <- $x28
	//DEBUG_VALUE: pch_read_around:start <- $x22
	//DEBUG_VALUE: pch_do_page_cache_readaround:i <- $x20
	//DEBUG_VALUE: pch_do_page_cache_readaround:page <- $x0
	//DEBUG_VALUE: pch_do_page_cache_readaround:ret <- $w27
	//DEBUG_VALUE: pch_do_page_cache_readaround:page_idx <- $w26
	//DEBUG_VALUE: pch_do_page_cache_readaround:nofs <- [DW_OP_plus_uconst 28] [$sp+0]
	//DEBUG_VALUE: pch_do_page_cache_readaround:gfp_mask <- [DW_OP_plus_uconst 60] [$sp+0]
	//DEBUG_VALUE: pch_do_page_cache_readaround:mapping <- [DW_OP_plus_uconst 48] [$sp+0]
	//DEBUG_VALUE: pch_do_page_cache_readaround:ractl <- [$sp+0]
	//DEBUG_VALUE: pch_read_around:ractl <- [$sp+0]
	//DEBUG_VALUE: pch_read_around:file <- [DW_OP_plus_uconst 8] [$sp+0]
	//DEBUG_VALUE: pch_do_page_cache_readaround:vip_n <- [DW_OP_constu 56, DW_OP_minus] [$fp+0]
	//DEBUG_VALUE: pch_do_page_cache_readaround:lookahead_size <- 0
	//DEBUG_VALUE: xa_is_value:entry <- $x0
	.loc	1 591 7 is_stmt 0               // kernel/mm/pagecache_manage.c:591:7
	tbz	w0, #0, .LBB6_4
.Ltmp167:
.LBB6_8:                                //   in Loop: Header=BB6_5 Depth=1
	//DEBUG_VALUE: pch_read_around:size <- [DW_OP_plus_uconst 16] [$sp+0]
	//DEBUG_VALUE: pch_do_page_cache_readaround:pgofs <- $x28
	//DEBUG_VALUE: pch_read_around:start <- $x22
	//DEBUG_VALUE: pch_do_page_cache_readaround:i <- $x20
	//DEBUG_VALUE: pch_do_page_cache_readaround:page <- $x0
	//DEBUG_VALUE: pch_do_page_cache_readaround:ret <- $w27
	//DEBUG_VALUE: pch_do_page_cache_readaround:page_idx <- $w26
	//DEBUG_VALUE: pch_do_page_cache_readaround:nofs <- [DW_OP_plus_uconst 28] [$sp+0]
	//DEBUG_VALUE: pch_do_page_cache_readaround:gfp_mask <- [DW_OP_plus_uconst 60] [$sp+0]
	//DEBUG_VALUE: pch_do_page_cache_readaround:mapping <- [DW_OP_plus_uconst 48] [$sp+0]
	//DEBUG_VALUE: pch_do_page_cache_readaround:ractl <- [$sp+0]
	//DEBUG_VALUE: pch_read_around:ractl <- [$sp+0]
	//DEBUG_VALUE: pch_read_around:file <- [DW_OP_plus_uconst 8] [$sp+0]
	//DEBUG_VALUE: pch_do_page_cache_readaround:vip_n <- [DW_OP_constu 56, DW_OP_minus] [$fp+0]
	//DEBUG_VALUE: pch_do_page_cache_readaround:lookahead_size <- 0
	//DEBUG_VALUE: __page_cache_alloc:gfp <- [DW_OP_plus_uconst 60] [$sp+0]
	//DEBUG_VALUE: alloc_pages:gfp_mask <- [DW_OP_plus_uconst 60] [$sp+0]
	//DEBUG_VALUE: alloc_pages:order <- 0
	//DEBUG_VALUE: alloc_pages_node:gfp_mask <- [DW_OP_plus_uconst 60] [$sp+0]
	//DEBUG_VALUE: alloc_pages_node:order <- 0
	//DEBUG_VALUE: alloc_pages_node:nid <- 0
	//DEBUG_VALUE: __alloc_pages_node:nid <- 0
	//DEBUG_VALUE: __alloc_pages_node:gfp_mask <- [DW_OP_plus_uconst 60] [$sp+0]
	//DEBUG_VALUE: __alloc_pages_node:order <- 0
	//DEBUG_VALUE: __alloc_pages:gfp_mask <- [DW_OP_plus_uconst 60] [$sp+0]
	//DEBUG_VALUE: __alloc_pages:order <- 0
	//DEBUG_VALUE: __alloc_pages:preferred_nid <- 0
	.loc	1 0 7                           // kernel/mm/pagecache_manage.c:0:7
	ldr	w0, [sp, #60]                   // 4-byte Folded Reload
.Ltmp168:
	.file	175 "/mnt/disk/jenkins/ci/workspace/chipset_pipeline_release/opensource/component_code/vendor/huawei/extra/build/build_script/kirin_kernel_release" "kernel/include/linux/gfp.h"
	.loc	175 536 9 is_stmt 1             // kernel/include/linux/gfp.h:536:9
	mov	w1, wzr
	mov	w2, wzr
	mov	x3, xzr
	mov	x25, x22
.Ltmp169:
	//DEBUG_VALUE: pch_read_around:start <- $x25
	//DEBUG_VALUE: pch_read_around:start <- $x25
	.loc	175 0 9 is_stmt 0               // kernel/include/linux/gfp.h:0:9
	mov	w22, w27
.Ltmp170:
	//DEBUG_VALUE: pch_do_page_cache_readaround:ret <- $w22
	//DEBUG_VALUE: pch_do_page_cache_readaround:ret <- $w22
	.loc	175 536 9                       // kernel/include/linux/gfp.h:536:9
	bl	__alloc_pages_nodemask
.Ltmp171:
	//DEBUG_VALUE: pch_do_page_cache_readaround:page <- $x0
	.loc	1 595 7 is_stmt 1               // kernel/mm/pagecache_manage.c:595:7
	cbz	x0, .LBB6_16
.Ltmp172:
// %bb.9:                               //   in Loop: Header=BB6_5 Depth=1
	//DEBUG_VALUE: pch_read_around:size <- [DW_OP_plus_uconst 16] [$sp+0]
	//DEBUG_VALUE: pch_do_page_cache_readaround:pgofs <- $x28
	//DEBUG_VALUE: pch_read_around:start <- $x25
	//DEBUG_VALUE: pch_do_page_cache_readaround:i <- $x20
	//DEBUG_VALUE: pch_do_page_cache_readaround:page <- $x0
	//DEBUG_VALUE: pch_do_page_cache_readaround:page_idx <- $w26
	//DEBUG_VALUE: pch_do_page_cache_readaround:ret <- $w22
	//DEBUG_VALUE: pch_do_page_cache_readaround:nofs <- [DW_OP_plus_uconst 28] [$sp+0]
	//DEBUG_VALUE: pch_do_page_cache_readaround:gfp_mask <- [DW_OP_plus_uconst 60] [$sp+0]
	//DEBUG_VALUE: pch_do_page_cache_readaround:mapping <- [DW_OP_plus_uconst 48] [$sp+0]
	//DEBUG_VALUE: pch_do_page_cache_readaround:ractl <- [$sp+0]
	//DEBUG_VALUE: pch_read_around:ractl <- [$sp+0]
	//DEBUG_VALUE: pch_read_around:file <- [DW_OP_plus_uconst 8] [$sp+0]
	//DEBUG_VALUE: pch_do_page_cache_readaround:vip_n <- [DW_OP_constu 56, DW_OP_minus] [$fp+0]
	//DEBUG_VALUE: pch_do_page_cache_readaround:lookahead_size <- 0
	.loc	1 0 7 is_stmt 0                 // kernel/mm/pagecache_manage.c:0:7
	ldur	x8, [x29, #-56]                 // 8-byte Folded Reload
	mov	x27, x0
.Ltmp173:
	//DEBUG_VALUE: pch_do_page_cache_readaround:page <- $x27
	//DEBUG_VALUE: pch_do_page_cache_readaround:page <- $x27
	.loc	1 598 7 is_stmt 1               // kernel/mm/pagecache_manage.c:598:7
	cbz	x8, .LBB6_12
.Ltmp174:
// %bb.10:                              //   in Loop: Header=BB6_5 Depth=1
	//DEBUG_VALUE: pch_read_around:size <- [DW_OP_plus_uconst 16] [$sp+0]
	//DEBUG_VALUE: pch_do_page_cache_readaround:pgofs <- $x28
	//DEBUG_VALUE: pch_do_page_cache_readaround:page <- $x27
	//DEBUG_VALUE: pch_read_around:start <- $x25
	//DEBUG_VALUE: pch_do_page_cache_readaround:i <- $x20
	//DEBUG_VALUE: pch_do_page_cache_readaround:page_idx <- $w26
	//DEBUG_VALUE: pch_do_page_cache_readaround:ret <- $w22
	//DEBUG_VALUE: pch_do_page_cache_readaround:nofs <- [DW_OP_plus_uconst 28] [$sp+0]
	//DEBUG_VALUE: pch_do_page_cache_readaround:gfp_mask <- [DW_OP_plus_uconst 60] [$sp+0]
	//DEBUG_VALUE: pch_do_page_cache_readaround:mapping <- [DW_OP_plus_uconst 48] [$sp+0]
	//DEBUG_VALUE: pch_do_page_cache_readaround:ractl <- [$sp+0]
	//DEBUG_VALUE: pch_read_around:ractl <- [$sp+0]
	//DEBUG_VALUE: pch_read_around:file <- [DW_OP_plus_uconst 8] [$sp+0]
	//DEBUG_VALUE: pch_do_page_cache_readaround:vip_n <- [DW_OP_constu 56, DW_OP_minus] [$fp+0]
	//DEBUG_VALUE: pch_do_page_cache_readaround:lookahead_size <- 0
	.loc	1 599 23                        // kernel/mm/pagecache_manage.c:599:23
	lsr	w8, w26, #6
	.loc	1 599 4 is_stmt 0               // kernel/mm/pagecache_manage.c:599:4
	lsl	x8, x8, #3
	sub	x11, x29, #48                   // =48
	.loc	1 599 29                        // kernel/mm/pagecache_manage.c:599:29
	ldr	x9, [x11, x8]
.Ltmp175:
	.file	176 "/mnt/disk/jenkins/ci/workspace/chipset_pipeline_release/opensource/component_code/vendor/huawei/extra/build/build_script/kirin_kernel_release" "kernel/include/linux/list.h"
	.loc	176 86 30 is_stmt 1             // kernel/include/linux/list.h:86:30
	ldur	x21, [x29, #-16]
.Ltmp176:
	//DEBUG_VALUE: __list_add:new <- undef
	.loc	1 600 10                        // kernel/mm/pagecache_manage.c:600:10
	mov	w10, #1
	lsl	x10, x10, x26
	.loc	1 601 21                        // kernel/mm/pagecache_manage.c:601:21
	add	x28, x27, #8                    // =8
.Ltmp177:
	//DEBUG_VALUE: list_add:head <- [DW_OP_constu 16, DW_OP_minus, DW_OP_stack_value] $fp
	//DEBUG_VALUE: list_add:new <- $x28
	//DEBUG_VALUE: __list_add:prev <- [DW_OP_constu 16, DW_OP_minus, DW_OP_stack_value] $fp
	//DEBUG_VALUE: __list_add:next <- $x21
	.loc	1 599 29                        // kernel/mm/pagecache_manage.c:599:29
	orr	x9, x9, x10
.Ltmp178:
	.loc	176 67 7                        // kernel/include/linux/list.h:67:7
	sub	x1, x29, #16                    // =16
	mov	x0, x28
	mov	x2, x21
.Ltmp179:
	.loc	1 599 29                        // kernel/mm/pagecache_manage.c:599:29
	str	x9, [x11, x8]
.Ltmp180:
	.loc	176 67 7                        // kernel/include/linux/list.h:67:7
	bl	__list_add_valid
.Ltmp181:
	.loc	176 67 6 is_stmt 0              // kernel/include/linux/list.h:67:6
	tbz	w0, #0, .LBB6_3
.Ltmp182:
// %bb.11:                              //   in Loop: Header=BB6_5 Depth=1
	//DEBUG_VALUE: pch_read_around:size <- [DW_OP_plus_uconst 16] [$sp+0]
	//DEBUG_VALUE: list_add:new <- $x28
	//DEBUG_VALUE: pch_do_page_cache_readaround:page <- $x27
	//DEBUG_VALUE: pch_read_around:start <- $x25
	//DEBUG_VALUE: __list_add:next <- $x21
	//DEBUG_VALUE: pch_do_page_cache_readaround:i <- $x20
	//DEBUG_VALUE: pch_do_page_cache_readaround:page_idx <- $w26
	//DEBUG_VALUE: pch_do_page_cache_readaround:ret <- $w22
	//DEBUG_VALUE: pch_do_page_cache_readaround:nofs <- [DW_OP_plus_uconst 28] [$sp+0]
	//DEBUG_VALUE: pch_do_page_cache_readaround:gfp_mask <- [DW_OP_plus_uconst 60] [$sp+0]
	//DEBUG_VALUE: pch_do_page_cache_readaround:mapping <- [DW_OP_plus_uconst 48] [$sp+0]
	//DEBUG_VALUE: pch_do_page_cache_readaround:ractl <- [$sp+0]
	//DEBUG_VALUE: pch_read_around:ractl <- [$sp+0]
	//DEBUG_VALUE: pch_read_around:file <- [DW_OP_plus_uconst 8] [$sp+0]
	//DEBUG_VALUE: __list_add:prev <- [DW_OP_constu 16, DW_OP_minus, DW_OP_stack_value] $fp
	//DEBUG_VALUE: list_add:head <- [DW_OP_constu 16, DW_OP_minus, DW_OP_stack_value] $fp
	//DEBUG_VALUE: pch_do_page_cache_readaround:vip_n <- [DW_OP_constu 56, DW_OP_minus] [$fp+0]
	//DEBUG_VALUE: pch_do_page_cache_readaround:lookahead_size <- 0
	.loc	176 72 12 is_stmt 1             // kernel/include/linux/list.h:72:12
	sub	x8, x29, #16                    // =16
	.loc	176 70 13                       // kernel/include/linux/list.h:70:13
	str	x28, [x21, #8]
	.loc	176 71 12                       // kernel/include/linux/list.h:71:12
	stp	x21, x8, [x27, #8]
.Ltmp183:
	.loc	176 73 2                        // kernel/include/linux/list.h:73:2
	stur	x28, [x29, #-16]
	b	.LBB6_3
.Ltmp184:
.LBB6_12:                               //   in Loop: Header=BB6_5 Depth=1
	//DEBUG_VALUE: pch_read_around:size <- [DW_OP_plus_uconst 16] [$sp+0]
	//DEBUG_VALUE: pch_do_page_cache_readaround:pgofs <- $x28
	//DEBUG_VALUE: pch_do_page_cache_readaround:page <- $x27
	//DEBUG_VALUE: pch_read_around:start <- $x25
	//DEBUG_VALUE: pch_do_page_cache_readaround:i <- $x20
	//DEBUG_VALUE: pch_do_page_cache_readaround:page_idx <- $w26
	//DEBUG_VALUE: pch_do_page_cache_readaround:ret <- $w22
	//DEBUG_VALUE: pch_do_page_cache_readaround:nofs <- [DW_OP_plus_uconst 28] [$sp+0]
	//DEBUG_VALUE: pch_do_page_cache_readaround:gfp_mask <- [DW_OP_plus_uconst 60] [$sp+0]
	//DEBUG_VALUE: pch_do_page_cache_readaround:mapping <- [DW_OP_plus_uconst 48] [$sp+0]
	//DEBUG_VALUE: pch_do_page_cache_readaround:ractl <- [$sp+0]
	//DEBUG_VALUE: pch_read_around:ractl <- [$sp+0]
	//DEBUG_VALUE: pch_read_around:file <- [DW_OP_plus_uconst 8] [$sp+0]
	//DEBUG_VALUE: pch_do_page_cache_readaround:vip_n <- [DW_OP_constu 56, DW_OP_minus] [$fp+0]
	//DEBUG_VALUE: pch_do_page_cache_readaround:lookahead_size <- 0
	.loc	1 603 16                        // kernel/mm/pagecache_manage.c:603:16
	str	x28, [x27, #32]
.Ltmp185:
	//DEBUG_VALUE: list_add:head <- [DW_OP_constu 32, DW_OP_minus, DW_OP_stack_value] $fp
	//DEBUG_VALUE: list_add:new <- undef
	.loc	176 86 30                       // kernel/include/linux/list.h:86:30
	ldur	x28, [x29, #-32]
.Ltmp186:
	//DEBUG_VALUE: __list_add:new <- undef
	.loc	1 603 10                        // kernel/mm/pagecache_manage.c:603:10
	add	x26, x27, #8                    // =8
.Ltmp187:
	//DEBUG_VALUE: __list_add:prev <- [DW_OP_constu 32, DW_OP_minus, DW_OP_stack_value] $fp
	//DEBUG_VALUE: __list_add:next <- $x28
	//DEBUG_VALUE: list_add:head <- [DW_OP_constu 32, DW_OP_minus, DW_OP_stack_value] $fp
	.loc	176 67 7                        // kernel/include/linux/list.h:67:7
	sub	x1, x29, #32                    // =32
	mov	x0, x26
	mov	x2, x28
	bl	__list_add_valid
.Ltmp188:
	.loc	176 67 6 is_stmt 0              // kernel/include/linux/list.h:67:6
	tbz	w0, #0, .LBB6_14
.Ltmp189:
// %bb.13:                              //   in Loop: Header=BB6_5 Depth=1
	//DEBUG_VALUE: pch_read_around:size <- [DW_OP_plus_uconst 16] [$sp+0]
	//DEBUG_VALUE: __list_add:next <- $x28
	//DEBUG_VALUE: pch_do_page_cache_readaround:page <- $x27
	//DEBUG_VALUE: pch_read_around:start <- $x25
	//DEBUG_VALUE: pch_do_page_cache_readaround:i <- $x20
	//DEBUG_VALUE: pch_do_page_cache_readaround:ret <- $w22
	//DEBUG_VALUE: pch_do_page_cache_readaround:nofs <- [DW_OP_plus_uconst 28] [$sp+0]
	//DEBUG_VALUE: pch_do_page_cache_readaround:gfp_mask <- [DW_OP_plus_uconst 60] [$sp+0]
	//DEBUG_VALUE: pch_do_page_cache_readaround:mapping <- [DW_OP_plus_uconst 48] [$sp+0]
	//DEBUG_VALUE: pch_do_page_cache_readaround:ractl <- [$sp+0]
	//DEBUG_VALUE: pch_read_around:ractl <- [$sp+0]
	//DEBUG_VALUE: pch_read_around:file <- [DW_OP_plus_uconst 8] [$sp+0]
	//DEBUG_VALUE: __list_add:prev <- [DW_OP_constu 32, DW_OP_minus, DW_OP_stack_value] $fp
	//DEBUG_VALUE: list_add:head <- [DW_OP_constu 32, DW_OP_minus, DW_OP_stack_value] $fp
	//DEBUG_VALUE: pch_do_page_cache_readaround:vip_n <- [DW_OP_constu 56, DW_OP_minus] [$fp+0]
	//DEBUG_VALUE: pch_do_page_cache_readaround:lookahead_size <- 0
	.loc	176 72 12 is_stmt 1             // kernel/include/linux/list.h:72:12
	sub	x8, x29, #32                    // =32
	.loc	176 70 13                       // kernel/include/linux/list.h:70:13
	str	x26, [x28, #8]
	.loc	176 71 12                       // kernel/include/linux/list.h:71:12
	stp	x28, x8, [x27, #8]
.Ltmp190:
	.loc	176 73 2                        // kernel/include/linux/list.h:73:2
	stur	x26, [x29, #-32]
.Ltmp191:
.LBB6_14:                               //   in Loop: Header=BB6_5 Depth=1
	//DEBUG_VALUE: pch_read_around:size <- [DW_OP_plus_uconst 16] [$sp+0]
	//DEBUG_VALUE: pch_do_page_cache_readaround:page <- $x27
	//DEBUG_VALUE: pch_read_around:start <- $x25
	//DEBUG_VALUE: pch_do_page_cache_readaround:i <- $x20
	//DEBUG_VALUE: pch_do_page_cache_readaround:ret <- $w22
	//DEBUG_VALUE: pch_do_page_cache_readaround:nofs <- [DW_OP_plus_uconst 28] [$sp+0]
	//DEBUG_VALUE: pch_do_page_cache_readaround:gfp_mask <- [DW_OP_plus_uconst 60] [$sp+0]
	//DEBUG_VALUE: pch_do_page_cache_readaround:mapping <- [DW_OP_plus_uconst 48] [$sp+0]
	//DEBUG_VALUE: pch_do_page_cache_readaround:ractl <- [$sp+0]
	//DEBUG_VALUE: pch_read_around:ractl <- [$sp+0]
	//DEBUG_VALUE: pch_read_around:file <- [DW_OP_plus_uconst 8] [$sp+0]
	//DEBUG_VALUE: pch_do_page_cache_readaround:vip_n <- [DW_OP_constu 56, DW_OP_minus] [$fp+0]
	//DEBUG_VALUE: pch_do_page_cache_readaround:lookahead_size <- 0
	.loc	176 0 2 is_stmt 0               // kernel/include/linux/list.h:0:2
	ldr	x8, [sp, #16]                   // 8-byte Folded Reload
	.loc	1 605 8 is_stmt 1               // kernel/mm/pagecache_manage.c:605:8
	cmp	x8, x21
	b.ne	.LBB6_3
.Ltmp192:
// %bb.15:                              //   in Loop: Header=BB6_5 Depth=1
	//DEBUG_VALUE: pch_read_around:size <- [DW_OP_plus_uconst 16] [$sp+0]
	//DEBUG_VALUE: pch_do_page_cache_readaround:page <- $x27
	//DEBUG_VALUE: pch_read_around:start <- $x25
	//DEBUG_VALUE: pch_do_page_cache_readaround:i <- $x20
	//DEBUG_VALUE: pch_do_page_cache_readaround:ret <- $w22
	//DEBUG_VALUE: pch_do_page_cache_readaround:nofs <- [DW_OP_plus_uconst 28] [$sp+0]
	//DEBUG_VALUE: pch_do_page_cache_readaround:gfp_mask <- [DW_OP_plus_uconst 60] [$sp+0]
	//DEBUG_VALUE: pch_do_page_cache_readaround:mapping <- [DW_OP_plus_uconst 48] [$sp+0]
	//DEBUG_VALUE: pch_do_page_cache_readaround:ractl <- [$sp+0]
	//DEBUG_VALUE: pch_read_around:ractl <- [$sp+0]
	//DEBUG_VALUE: pch_read_around:file <- [DW_OP_plus_uconst 8] [$sp+0]
	//DEBUG_VALUE: pch_do_page_cache_readaround:vip_n <- [DW_OP_constu 56, DW_OP_minus] [$fp+0]
	//DEBUG_VALUE: pch_do_page_cache_readaround:lookahead_size <- 0
	//DEBUG_VALUE: SetPageReadahead:page <- $x27
	//DEBUG_VALUE: set_bit:p <- $x27
	//DEBUG_VALUE: atomic_long_or:v <- $x27
	//DEBUG_VALUE: atomic64_or:v <- $x27
	//DEBUG_VALUE: arch_atomic64_or:v <- $x27
	//DEBUG_VALUE: __ll_sc_atomic64_or:v <- $x27
	//DEBUG_VALUE: set_bit:nr <- 19
	//DEBUG_VALUE: atomic_long_or:i <- 524288
	//DEBUG_VALUE: atomic64_or:i <- 524288
	//DEBUG_VALUE: arch_atomic64_or:i <- 524288
	//DEBUG_VALUE: __ll_sc_atomic64_or:i <- 524288
	.file	177 "/mnt/disk/jenkins/ci/workspace/chipset_pipeline_release/opensource/component_code/vendor/huawei/extra/build/build_script/kirin_kernel_release" "kernel/arch/arm64/include/asm/atomic_ll_sc.h"
	.loc	177 222 1                       // kernel/arch/arm64/include/asm/atomic_ll_sc.h:222:1
	//APP
	// atomic64_or
	prfm	pstl1strm, [x27]
.Ltmp193:
	ldxr	x8, [x27]
	orr	x8, x8, #0x80000
	stxr	w9, x8, [x27]
	cbnz	w9, .Ltmp193
	//NO_APP
.Ltmp194:
	//DEBUG_VALUE: __ll_sc_atomic64_or:tmp <- undef
	//DEBUG_VALUE: __ll_sc_atomic64_or:result <- undef
	.loc	177 0 1 is_stmt 0               // kernel/arch/arm64/include/asm/atomic_ll_sc.h:0:1
	b	.LBB6_3
.Ltmp195:
.LBB6_16:
	//DEBUG_VALUE: pch_read_around:size <- [DW_OP_plus_uconst 16] [$sp+0]
	//DEBUG_VALUE: pch_do_page_cache_readaround:pgofs <- $x28
	//DEBUG_VALUE: pch_read_around:start <- $x25
	//DEBUG_VALUE: pch_do_page_cache_readaround:i <- $x20
	//DEBUG_VALUE: pch_do_page_cache_readaround:page <- $x0
	//DEBUG_VALUE: pch_do_page_cache_readaround:page_idx <- $w26
	//DEBUG_VALUE: pch_do_page_cache_readaround:ret <- $w22
	//DEBUG_VALUE: __alloc_pages:gfp_mask <- [DW_OP_plus_uconst 60] [$sp+0]
	//DEBUG_VALUE: __alloc_pages_node:gfp_mask <- [DW_OP_plus_uconst 60] [$sp+0]
	//DEBUG_VALUE: alloc_pages_node:gfp_mask <- [DW_OP_plus_uconst 60] [$sp+0]
	//DEBUG_VALUE: alloc_pages:gfp_mask <- [DW_OP_plus_uconst 60] [$sp+0]
	//DEBUG_VALUE: __page_cache_alloc:gfp <- [DW_OP_plus_uconst 60] [$sp+0]
	//DEBUG_VALUE: pch_do_page_cache_readaround:nofs <- [DW_OP_plus_uconst 28] [$sp+0]
	//DEBUG_VALUE: pch_do_page_cache_readaround:gfp_mask <- [DW_OP_plus_uconst 60] [$sp+0]
	//DEBUG_VALUE: pch_do_page_cache_readaround:mapping <- [DW_OP_plus_uconst 48] [$sp+0]
	//DEBUG_VALUE: pch_do_page_cache_readaround:ractl <- [$sp+0]
	//DEBUG_VALUE: pch_read_around:ractl <- [$sp+0]
	//DEBUG_VALUE: pch_read_around:file <- [DW_OP_plus_uconst 8] [$sp+0]
	//DEBUG_VALUE: pch_do_page_cache_readaround:vip_n <- [DW_OP_constu 56, DW_OP_minus] [$fp+0]
	//DEBUG_VALUE: __alloc_pages:preferred_nid <- 0
	//DEBUG_VALUE: __alloc_pages:order <- 0
	//DEBUG_VALUE: __alloc_pages_node:order <- 0
	//DEBUG_VALUE: __alloc_pages_node:nid <- 0
	//DEBUG_VALUE: alloc_pages_node:nid <- 0
	//DEBUG_VALUE: alloc_pages_node:order <- 0
	//DEBUG_VALUE: alloc_pages:order <- 0
	//DEBUG_VALUE: pch_do_page_cache_readaround:lookahead_size <- 0
	mov	w27, w22
.Ltmp196:
	//DEBUG_VALUE: pch_do_page_cache_readaround:ret <- $w27
	mov	x22, x25
.Ltmp197:
	//DEBUG_VALUE: pch_read_around:start <- $x22
.LBB6_17:
	//DEBUG_VALUE: pch_read_around:size <- [DW_OP_plus_uconst 16] [$sp+0]
	//DEBUG_VALUE: pch_read_around:start <- $x22
	//DEBUG_VALUE: pch_do_page_cache_readaround:i <- $x20
	//DEBUG_VALUE: pch_do_page_cache_readaround:ret <- $w27
	//DEBUG_VALUE: pch_do_page_cache_readaround:nofs <- [DW_OP_plus_uconst 28] [$sp+0]
	//DEBUG_VALUE: pch_do_page_cache_readaround:gfp_mask <- [DW_OP_plus_uconst 60] [$sp+0]
	//DEBUG_VALUE: pch_do_page_cache_readaround:mapping <- [DW_OP_plus_uconst 48] [$sp+0]
	//DEBUG_VALUE: pch_do_page_cache_readaround:ractl <- [$sp+0]
	//DEBUG_VALUE: pch_read_around:ractl <- [$sp+0]
	//DEBUG_VALUE: pch_read_around:file <- [DW_OP_plus_uconst 8] [$sp+0]
	//DEBUG_VALUE: pch_do_page_cache_readaround:vip_n <- [DW_OP_constu 56, DW_OP_minus] [$fp+0]
	//DEBUG_VALUE: pch_do_page_cache_readaround:lookahead_size <- 0
	ldr	x25, [sp, #16]                  // 8-byte Folded Reload
	.loc	1 621 6 is_stmt 1               // kernel/mm/pagecache_manage.c:621:6
	cbz	w27, .LBB6_28
.Ltmp198:
// %bb.18:
	//DEBUG_VALUE: pch_read_around:size <- [DW_OP_plus_uconst 16] [$sp+0]
	//DEBUG_VALUE: pch_read_around:start <- $x22
	//DEBUG_VALUE: pch_do_page_cache_readaround:i <- $x20
	//DEBUG_VALUE: pch_do_page_cache_readaround:ret <- $w27
	//DEBUG_VALUE: pch_do_page_cache_readaround:nofs <- [DW_OP_plus_uconst 28] [$sp+0]
	//DEBUG_VALUE: pch_do_page_cache_readaround:gfp_mask <- [DW_OP_plus_uconst 60] [$sp+0]
	//DEBUG_VALUE: pch_do_page_cache_readaround:mapping <- [DW_OP_plus_uconst 48] [$sp+0]
	//DEBUG_VALUE: pch_do_page_cache_readaround:ractl <- [$sp+0]
	//DEBUG_VALUE: pch_read_around:ractl <- [$sp+0]
	//DEBUG_VALUE: pch_read_around:file <- [DW_OP_plus_uconst 8] [$sp+0]
	//DEBUG_VALUE: pch_do_page_cache_readaround:vip_n <- [DW_OP_constu 56, DW_OP_minus] [$fp+0]
	//DEBUG_VALUE: pch_do_page_cache_readaround:lookahead_size <- 0
	.loc	1 0 6 is_stmt 0                 // kernel/mm/pagecache_manage.c:0:6
	ldur	x8, [x29, #-56]                 // 8-byte Folded Reload
.Ltmp199:
	.loc	1 626 7 is_stmt 1               // kernel/mm/pagecache_manage.c:626:7
	cbz	x8, .LBB6_27
.Ltmp200:
// %bb.19:
	//DEBUG_VALUE: pch_read_around:size <- [DW_OP_plus_uconst 16] [$sp+0]
	//DEBUG_VALUE: pch_read_around:start <- $x22
	//DEBUG_VALUE: pch_do_page_cache_readaround:i <- $x20
	//DEBUG_VALUE: pch_do_page_cache_readaround:ret <- $w27
	//DEBUG_VALUE: pch_do_page_cache_readaround:nofs <- [DW_OP_plus_uconst 28] [$sp+0]
	//DEBUG_VALUE: pch_do_page_cache_readaround:gfp_mask <- [DW_OP_plus_uconst 60] [$sp+0]
	//DEBUG_VALUE: pch_do_page_cache_readaround:mapping <- [DW_OP_plus_uconst 48] [$sp+0]
	//DEBUG_VALUE: pch_do_page_cache_readaround:ractl <- [$sp+0]
	//DEBUG_VALUE: pch_read_around:ractl <- [$sp+0]
	//DEBUG_VALUE: pch_read_around:file <- [DW_OP_plus_uconst 8] [$sp+0]
	//DEBUG_VALUE: pch_do_page_cache_readaround:vip_n <- [DW_OP_constu 56, DW_OP_minus] [$fp+0]
	//DEBUG_VALUE: pch_do_page_cache_readaround:lookahead_size <- 0
	.loc	1 0 7 is_stmt 0                 // kernel/mm/pagecache_manage.c:0:7
	mov	x20, #256
.Ltmp201:
	mov	x19, xzr
	movk	x20, #57005, lsl #48
	//DEBUG_VALUE: pch_reorder_io_list:i <- 0
	//DEBUG_VALUE: pch_reorder_io_list:page <- 0
	//DEBUG_VALUE: pch_reorder_io_list:offset <- $x22
	//DEBUG_VALUE: pch_reorder_io_list:page_pool <- [DW_OP_constu 32, DW_OP_minus, DW_OP_stack_value] $fp
	//DEBUG_VALUE: pch_reorder_io_list:page_tmp <- [DW_OP_constu 16, DW_OP_minus, DW_OP_stack_value] $fp
	//DEBUG_VALUE: pch_reorder_io_list:bm_count <- 2
	//DEBUG_VALUE: pch_reorder_io_list:pg_idx_bm <- [DW_OP_constu 48, DW_OP_minus, DW_OP_stack_value] $fp
	sub	x23, x29, #48                   // =48
	sub	x24, x29, #32                   // =32
	sub	x25, x29, #16                   // =16
	b	.LBB6_22
.Ltmp202:
.LBB6_20:                               //   in Loop: Header=BB6_22 Depth=1
	//DEBUG_VALUE: pch_read_around:size <- [DW_OP_plus_uconst 16] [$sp+0]
	//DEBUG_VALUE: pch_reorder_io_list:offset <- $x22
	//DEBUG_VALUE: pch_read_around:start <- $x22
	//DEBUG_VALUE: pch_reorder_io_list:i <- $x19
	//DEBUG_VALUE: pch_do_page_cache_readaround:ret <- $w27
	//DEBUG_VALUE: pch_do_page_cache_readaround:nofs <- [DW_OP_plus_uconst 28] [$sp+0]
	//DEBUG_VALUE: pch_do_page_cache_readaround:gfp_mask <- [DW_OP_plus_uconst 60] [$sp+0]
	//DEBUG_VALUE: pch_do_page_cache_readaround:mapping <- [DW_OP_plus_uconst 48] [$sp+0]
	//DEBUG_VALUE: pch_do_page_cache_readaround:ractl <- [$sp+0]
	//DEBUG_VALUE: pch_read_around:ractl <- [$sp+0]
	//DEBUG_VALUE: pch_read_around:file <- [DW_OP_plus_uconst 8] [$sp+0]
	//DEBUG_VALUE: pch_reorder_io_list:pg_idx_bm <- [DW_OP_constu 48, DW_OP_minus, DW_OP_stack_value] $fp
	//DEBUG_VALUE: pch_reorder_io_list:page_tmp <- [DW_OP_constu 16, DW_OP_minus, DW_OP_stack_value] $fp
	//DEBUG_VALUE: pch_reorder_io_list:page_pool <- [DW_OP_constu 32, DW_OP_minus, DW_OP_stack_value] $fp
	//DEBUG_VALUE: pch_do_page_cache_readaround:vip_n <- [DW_OP_constu 56, DW_OP_minus] [$fp+0]
	//DEBUG_VALUE: pch_reorder_io_list:bm_count <- 2
	//DEBUG_VALUE: pch_do_page_cache_readaround:lookahead_size <- 0
	//DEBUG_VALUE: list_empty:head <- [DW_OP_constu 16, DW_OP_minus, DW_OP_stack_value] $fp
	.loc	176 282 9 is_stmt 1             // kernel/include/linux/list.h:282:9
	ldur	x8, [x29, #-16]
.Ltmp203:
	.loc	1 497 8                         // kernel/mm/pagecache_manage.c:497:8
	cmp	x8, x25
	b.eq	.LBB6_27
.Ltmp204:
.LBB6_21:                               //   in Loop: Header=BB6_22 Depth=1
	//DEBUG_VALUE: pch_read_around:size <- [DW_OP_plus_uconst 16] [$sp+0]
	//DEBUG_VALUE: pch_reorder_io_list:offset <- $x22
	//DEBUG_VALUE: pch_read_around:start <- $x22
	//DEBUG_VALUE: pch_reorder_io_list:i <- $x19
	//DEBUG_VALUE: pch_do_page_cache_readaround:ret <- $w27
	//DEBUG_VALUE: pch_do_page_cache_readaround:nofs <- [DW_OP_plus_uconst 28] [$sp+0]
	//DEBUG_VALUE: pch_do_page_cache_readaround:gfp_mask <- [DW_OP_plus_uconst 60] [$sp+0]
	//DEBUG_VALUE: pch_do_page_cache_readaround:mapping <- [DW_OP_plus_uconst 48] [$sp+0]
	//DEBUG_VALUE: pch_do_page_cache_readaround:ractl <- [$sp+0]
	//DEBUG_VALUE: pch_read_around:ractl <- [$sp+0]
	//DEBUG_VALUE: pch_read_around:file <- [DW_OP_plus_uconst 8] [$sp+0]
	//DEBUG_VALUE: pch_reorder_io_list:pg_idx_bm <- [DW_OP_constu 48, DW_OP_minus, DW_OP_stack_value] $fp
	//DEBUG_VALUE: pch_reorder_io_list:page_tmp <- [DW_OP_constu 16, DW_OP_minus, DW_OP_stack_value] $fp
	//DEBUG_VALUE: pch_reorder_io_list:page_pool <- [DW_OP_constu 32, DW_OP_minus, DW_OP_stack_value] $fp
	//DEBUG_VALUE: pch_do_page_cache_readaround:vip_n <- [DW_OP_constu 56, DW_OP_minus] [$fp+0]
	//DEBUG_VALUE: pch_reorder_io_list:bm_count <- 2
	//DEBUG_VALUE: pch_do_page_cache_readaround:lookahead_size <- 0
	.loc	1 487 46                        // kernel/mm/pagecache_manage.c:487:46
	add	x19, x19, #1                    // =1
.Ltmp205:
	//DEBUG_VALUE: pch_reorder_io_list:i <- $x19
	.loc	1 487 2 is_stmt 0               // kernel/mm/pagecache_manage.c:487:2
	cmp	x19, #128                       // =128
	b.eq	.LBB6_27
.Ltmp206:
.LBB6_22:                               // =>This Inner Loop Header: Depth=1
	//DEBUG_VALUE: pch_read_around:size <- [DW_OP_plus_uconst 16] [$sp+0]
	//DEBUG_VALUE: pch_reorder_io_list:offset <- $x22
	//DEBUG_VALUE: pch_read_around:start <- $x22
	//DEBUG_VALUE: pch_do_page_cache_readaround:ret <- $w27
	//DEBUG_VALUE: pch_do_page_cache_readaround:nofs <- [DW_OP_plus_uconst 28] [$sp+0]
	//DEBUG_VALUE: pch_do_page_cache_readaround:gfp_mask <- [DW_OP_plus_uconst 60] [$sp+0]
	//DEBUG_VALUE: pch_do_page_cache_readaround:mapping <- [DW_OP_plus_uconst 48] [$sp+0]
	//DEBUG_VALUE: pch_do_page_cache_readaround:ractl <- [$sp+0]
	//DEBUG_VALUE: pch_read_around:ractl <- [$sp+0]
	//DEBUG_VALUE: pch_read_around:file <- [DW_OP_plus_uconst 8] [$sp+0]
	//DEBUG_VALUE: pch_reorder_io_list:pg_idx_bm <- [DW_OP_constu 48, DW_OP_minus, DW_OP_stack_value] $fp
	//DEBUG_VALUE: pch_reorder_io_list:page_tmp <- [DW_OP_constu 16, DW_OP_minus, DW_OP_stack_value] $fp
	//DEBUG_VALUE: pch_reorder_io_list:page_pool <- [DW_OP_constu 32, DW_OP_minus, DW_OP_stack_value] $fp
	//DEBUG_VALUE: pch_do_page_cache_readaround:vip_n <- [DW_OP_constu 56, DW_OP_minus] [$fp+0]
	//DEBUG_VALUE: pch_reorder_io_list:bm_count <- 2
	//DEBUG_VALUE: pch_do_page_cache_readaround:lookahead_size <- 0
	//DEBUG_VALUE: pch_reorder_io_list:i <- $x19
	.loc	1 491 7 is_stmt 1               // kernel/mm/pagecache_manage.c:491:7
	ubfx	x8, x19, #6, #26
	ldr	x8, [x23, x8, lsl #3]
.Ltmp207:
	.loc	1 491 7 is_stmt 0               // kernel/mm/pagecache_manage.c:491:7
	lsr	x8, x8, x19
	tbz	w8, #0, .LBB6_21
.Ltmp208:
// %bb.23:                              //   in Loop: Header=BB6_22 Depth=1
	//DEBUG_VALUE: pch_read_around:size <- [DW_OP_plus_uconst 16] [$sp+0]
	//DEBUG_VALUE: pch_reorder_io_list:offset <- $x22
	//DEBUG_VALUE: pch_read_around:start <- $x22
	//DEBUG_VALUE: pch_reorder_io_list:i <- $x19
	//DEBUG_VALUE: pch_do_page_cache_readaround:ret <- $w27
	//DEBUG_VALUE: pch_do_page_cache_readaround:nofs <- [DW_OP_plus_uconst 28] [$sp+0]
	//DEBUG_VALUE: pch_do_page_cache_readaround:gfp_mask <- [DW_OP_plus_uconst 60] [$sp+0]
	//DEBUG_VALUE: pch_do_page_cache_readaround:mapping <- [DW_OP_plus_uconst 48] [$sp+0]
	//DEBUG_VALUE: pch_do_page_cache_readaround:ractl <- [$sp+0]
	//DEBUG_VALUE: pch_read_around:ractl <- [$sp+0]
	//DEBUG_VALUE: pch_read_around:file <- [DW_OP_plus_uconst 8] [$sp+0]
	//DEBUG_VALUE: pch_reorder_io_list:pg_idx_bm <- [DW_OP_constu 48, DW_OP_minus, DW_OP_stack_value] $fp
	//DEBUG_VALUE: pch_reorder_io_list:page_tmp <- [DW_OP_constu 16, DW_OP_minus, DW_OP_stack_value] $fp
	//DEBUG_VALUE: pch_reorder_io_list:page_pool <- [DW_OP_constu 32, DW_OP_minus, DW_OP_stack_value] $fp
	//DEBUG_VALUE: pch_do_page_cache_readaround:vip_n <- [DW_OP_constu 56, DW_OP_minus] [$fp+0]
	//DEBUG_VALUE: pch_reorder_io_list:bm_count <- 2
	//DEBUG_VALUE: pch_do_page_cache_readaround:lookahead_size <- 0
	.loc	1 492 11 is_stmt 1              // kernel/mm/pagecache_manage.c:492:11
	ldur	x26, [x29, #-16]
.Ltmp209:
	//DEBUG_VALUE: __list_del_entry:entry <- $x26
	//DEBUG_VALUE: list_del:entry <- $x26
	//DEBUG_VALUE: __mptr <- undef
	//DEBUG_VALUE: pch_reorder_io_list:page <- [DW_OP_constu 8, DW_OP_minus, DW_OP_stack_value] undef
	.loc	176 132 7                       // kernel/include/linux/list.h:132:7
	mov	x0, x26
	bl	__list_del_entry_valid
.Ltmp210:
	.loc	176 132 6 is_stmt 0             // kernel/include/linux/list.h:132:6
	tbz	w0, #0, .LBB6_25
.Ltmp211:
// %bb.24:                              //   in Loop: Header=BB6_22 Depth=1
	//DEBUG_VALUE: pch_read_around:size <- [DW_OP_plus_uconst 16] [$sp+0]
	//DEBUG_VALUE: list_del:entry <- $x26
	//DEBUG_VALUE: __list_del_entry:entry <- $x26
	//DEBUG_VALUE: pch_reorder_io_list:offset <- $x22
	//DEBUG_VALUE: pch_read_around:start <- $x22
	//DEBUG_VALUE: pch_reorder_io_list:i <- $x19
	//DEBUG_VALUE: pch_do_page_cache_readaround:ret <- $w27
	//DEBUG_VALUE: pch_do_page_cache_readaround:nofs <- [DW_OP_plus_uconst 28] [$sp+0]
	//DEBUG_VALUE: pch_do_page_cache_readaround:gfp_mask <- [DW_OP_plus_uconst 60] [$sp+0]
	//DEBUG_VALUE: pch_do_page_cache_readaround:mapping <- [DW_OP_plus_uconst 48] [$sp+0]
	//DEBUG_VALUE: pch_do_page_cache_readaround:ractl <- [$sp+0]
	//DEBUG_VALUE: pch_read_around:ractl <- [$sp+0]
	//DEBUG_VALUE: pch_read_around:file <- [DW_OP_plus_uconst 8] [$sp+0]
	//DEBUG_VALUE: pch_reorder_io_list:pg_idx_bm <- [DW_OP_constu 48, DW_OP_minus, DW_OP_stack_value] $fp
	//DEBUG_VALUE: pch_reorder_io_list:page_tmp <- [DW_OP_constu 16, DW_OP_minus, DW_OP_stack_value] $fp
	//DEBUG_VALUE: pch_reorder_io_list:page_pool <- [DW_OP_constu 32, DW_OP_minus, DW_OP_stack_value] $fp
	//DEBUG_VALUE: pch_do_page_cache_readaround:vip_n <- [DW_OP_constu 56, DW_OP_minus] [$fp+0]
	//DEBUG_VALUE: pch_reorder_io_list:bm_count <- 2
	//DEBUG_VALUE: pch_do_page_cache_readaround:lookahead_size <- 0
	.loc	176 135 20 is_stmt 1            // kernel/include/linux/list.h:135:20
	ldp	x9, x8, [x26]
.Ltmp212:
	//DEBUG_VALUE: __list_del:prev <- $x8
	//DEBUG_VALUE: __list_del:next <- $x9
	.loc	176 112 13                      // kernel/include/linux/list.h:112:13
	str	x8, [x9, #8]
.Ltmp213:
	.loc	176 113 2                       // kernel/include/linux/list.h:113:2
	str	x9, [x8]
.Ltmp214:
.LBB6_25:                               //   in Loop: Header=BB6_22 Depth=1
	//DEBUG_VALUE: pch_read_around:size <- [DW_OP_plus_uconst 16] [$sp+0]
	//DEBUG_VALUE: list_del:entry <- $x26
	//DEBUG_VALUE: pch_reorder_io_list:offset <- $x22
	//DEBUG_VALUE: pch_read_around:start <- $x22
	//DEBUG_VALUE: pch_reorder_io_list:i <- $x19
	//DEBUG_VALUE: pch_do_page_cache_readaround:ret <- $w27
	//DEBUG_VALUE: pch_do_page_cache_readaround:nofs <- [DW_OP_plus_uconst 28] [$sp+0]
	//DEBUG_VALUE: pch_do_page_cache_readaround:gfp_mask <- [DW_OP_plus_uconst 60] [$sp+0]
	//DEBUG_VALUE: pch_do_page_cache_readaround:mapping <- [DW_OP_plus_uconst 48] [$sp+0]
	//DEBUG_VALUE: pch_do_page_cache_readaround:ractl <- [$sp+0]
	//DEBUG_VALUE: pch_read_around:ractl <- [$sp+0]
	//DEBUG_VALUE: pch_read_around:file <- [DW_OP_plus_uconst 8] [$sp+0]
	//DEBUG_VALUE: pch_reorder_io_list:pg_idx_bm <- [DW_OP_constu 48, DW_OP_minus, DW_OP_stack_value] $fp
	//DEBUG_VALUE: pch_reorder_io_list:page_tmp <- [DW_OP_constu 16, DW_OP_minus, DW_OP_stack_value] $fp
	//DEBUG_VALUE: pch_reorder_io_list:page_pool <- [DW_OP_constu 32, DW_OP_minus, DW_OP_stack_value] $fp
	//DEBUG_VALUE: pch_do_page_cache_readaround:vip_n <- [DW_OP_constu 56, DW_OP_minus] [$fp+0]
	//DEBUG_VALUE: pch_reorder_io_list:bm_count <- 2
	//DEBUG_VALUE: pch_do_page_cache_readaround:lookahead_size <- 0
	.loc	176 148 14                      // kernel/include/linux/list.h:148:14
	add	x8, x20, #34                    // =34
.Ltmp215:
	.loc	1 495 10                        // kernel/mm/pagecache_manage.c:495:10
	add	x9, x22, x19
.Ltmp216:
	.loc	176 147 14                      // kernel/include/linux/list.h:147:14
	stp	x20, x8, [x26]
.Ltmp217:
	.loc	1 495 16                        // kernel/mm/pagecache_manage.c:495:16
	str	x9, [x26, #24]
.Ltmp218:
	//DEBUG_VALUE: list_add:head <- [DW_OP_constu 32, DW_OP_minus, DW_OP_stack_value] $fp
	.loc	176 86 30                       // kernel/include/linux/list.h:86:30
	ldur	x21, [x29, #-32]
.Ltmp219:
	//DEBUG_VALUE: __list_add:prev <- [DW_OP_constu 32, DW_OP_minus, DW_OP_stack_value] $fp
	//DEBUG_VALUE: __list_add:next <- $x21
	.loc	176 67 7                        // kernel/include/linux/list.h:67:7
	sub	x1, x29, #32                    // =32
	mov	x0, x26
	mov	x2, x21
	bl	__list_add_valid
.Ltmp220:
	//DEBUG_VALUE: __list_add:new <- $x26
	//DEBUG_VALUE: list_add:new <- $x26
	.loc	176 67 6 is_stmt 0              // kernel/include/linux/list.h:67:6
	tbz	w0, #0, .LBB6_20
.Ltmp221:
// %bb.26:                              //   in Loop: Header=BB6_22 Depth=1
	//DEBUG_VALUE: pch_read_around:size <- [DW_OP_plus_uconst 16] [$sp+0]
	//DEBUG_VALUE: list_add:new <- $x26
	//DEBUG_VALUE: __list_add:new <- $x26
	//DEBUG_VALUE: pch_reorder_io_list:offset <- $x22
	//DEBUG_VALUE: pch_read_around:start <- $x22
	//DEBUG_VALUE: __list_add:next <- $x21
	//DEBUG_VALUE: pch_reorder_io_list:i <- $x19
	//DEBUG_VALUE: pch_do_page_cache_readaround:ret <- $w27
	//DEBUG_VALUE: pch_do_page_cache_readaround:nofs <- [DW_OP_plus_uconst 28] [$sp+0]
	//DEBUG_VALUE: pch_do_page_cache_readaround:gfp_mask <- [DW_OP_plus_uconst 60] [$sp+0]
	//DEBUG_VALUE: pch_do_page_cache_readaround:mapping <- [DW_OP_plus_uconst 48] [$sp+0]
	//DEBUG_VALUE: pch_do_page_cache_readaround:ractl <- [$sp+0]
	//DEBUG_VALUE: pch_read_around:ractl <- [$sp+0]
	//DEBUG_VALUE: pch_read_around:file <- [DW_OP_plus_uconst 8] [$sp+0]
	//DEBUG_VALUE: __list_add:prev <- [DW_OP_constu 32, DW_OP_minus, DW_OP_stack_value] $fp
	//DEBUG_VALUE: list_add:head <- [DW_OP_constu 32, DW_OP_minus, DW_OP_stack_value] $fp
	//DEBUG_VALUE: pch_reorder_io_list:pg_idx_bm <- [DW_OP_constu 48, DW_OP_minus, DW_OP_stack_value] $fp
	//DEBUG_VALUE: pch_reorder_io_list:page_tmp <- [DW_OP_constu 16, DW_OP_minus, DW_OP_stack_value] $fp
	//DEBUG_VALUE: pch_reorder_io_list:page_pool <- [DW_OP_constu 32, DW_OP_minus, DW_OP_stack_value] $fp
	//DEBUG_VALUE: pch_do_page_cache_readaround:vip_n <- [DW_OP_constu 56, DW_OP_minus] [$fp+0]
	//DEBUG_VALUE: pch_reorder_io_list:bm_count <- 2
	//DEBUG_VALUE: pch_do_page_cache_readaround:lookahead_size <- 0
	.loc	176 70 13 is_stmt 1             // kernel/include/linux/list.h:70:13
	str	x26, [x21, #8]
	.loc	176 71 12                       // kernel/include/linux/list.h:71:12
	stp	x21, x24, [x26]
.Ltmp222:
	.loc	176 73 2                        // kernel/include/linux/list.h:73:2
	stur	x26, [x29, #-32]
	b	.LBB6_20
.Ltmp223:
.LBB6_27:
	//DEBUG_VALUE: pch_read_around:size <- [DW_OP_plus_uconst 16] [$sp+0]
	//DEBUG_VALUE: pch_read_around:start <- $x22
	//DEBUG_VALUE: pch_do_page_cache_readaround:ret <- $w27
	//DEBUG_VALUE: pch_do_page_cache_readaround:nofs <- [DW_OP_plus_uconst 28] [$sp+0]
	//DEBUG_VALUE: pch_do_page_cache_readaround:gfp_mask <- [DW_OP_plus_uconst 60] [$sp+0]
	//DEBUG_VALUE: pch_do_page_cache_readaround:mapping <- [DW_OP_plus_uconst 48] [$sp+0]
	//DEBUG_VALUE: pch_do_page_cache_readaround:ractl <- [$sp+0]
	//DEBUG_VALUE: pch_read_around:ractl <- [$sp+0]
	//DEBUG_VALUE: pch_read_around:file <- [DW_OP_plus_uconst 8] [$sp+0]
	//DEBUG_VALUE: pch_do_page_cache_readaround:vip_n <- [DW_OP_constu 56, DW_OP_minus] [$fp+0]
	//DEBUG_VALUE: pch_do_page_cache_readaround:lookahead_size <- 0
	.loc	176 0 2 is_stmt 0               // kernel/include/linux/list.h:0:2
	ldp	x8, x1, [sp]                    // 16-byte Folded Reload
	ldr	x0, [sp, #48]                   // 8-byte Folded Reload
	ldr	w4, [sp, #60]                   // 4-byte Folded Reload
	.loc	1 630 3 is_stmt 1               // kernel/mm/pagecache_manage.c:630:3
	sub	x2, x29, #32                    // =32
	mov	w3, w27
	.loc	1 629 20                        // kernel/mm/pagecache_manage.c:629:20
	str	w27, [x8, #24]
	.loc	1 630 3                         // kernel/mm/pagecache_manage.c:630:3
	bl	pch_read_pages
.Ltmp224:
	.loc	1 0 3 is_stmt 0                 // kernel/mm/pagecache_manage.c:0:3
	ldr	x25, [sp, #16]                  // 8-byte Folded Reload
.Ltmp225:
.LBB6_28:
	//DEBUG_VALUE: pch_read_around:start <- $x22
	//DEBUG_VALUE: pch_do_page_cache_readaround:nofs <- [DW_OP_plus_uconst 28] [$sp+0]
	//DEBUG_VALUE: pch_do_page_cache_readaround:gfp_mask <- [DW_OP_plus_uconst 60] [$sp+0]
	//DEBUG_VALUE: pch_do_page_cache_readaround:mapping <- [DW_OP_plus_uconst 48] [$sp+0]
	//DEBUG_VALUE: pch_do_page_cache_readaround:ractl <- [$sp+0]
	//DEBUG_VALUE: pch_read_around:ractl <- [$sp+0]
	//DEBUG_VALUE: pch_read_around:file <- [DW_OP_plus_uconst 8] [$sp+0]
	//DEBUG_VALUE: pch_do_page_cache_readaround:vip_n <- [DW_OP_constu 56, DW_OP_minus] [$fp+0]
	//DEBUG_VALUE: pch_do_page_cache_readaround:lookahead_size <- 0
	//DEBUG_VALUE: memalloc_nofs_restore:flags <- [DW_OP_plus_uconst 28] [$sp+0]
	//DEBUG_VALUE: get_current:sp_el0 <- [DW_OP_plus_uconst 32] [$sp+0]
	ldp	x9, x20, [sp, #32]              // 16-byte Folded Reload
.Ltmp226:
	//DEBUG_VALUE: get_current:sp_el0 <- $x9
	ldr	w10, [sp, #28]                  // 4-byte Folded Reload
.Ltmp227:
	//DEBUG_VALUE: memalloc_nofs_restore:flags <- $w10
	.loc	174 243 29 is_stmt 1            // kernel/include/linux/sched/mm.h:243:29
	ldr	w8, [x9, #44]
	.loc	174 243 35 is_stmt 0            // kernel/include/linux/sched/mm.h:243:35
	and	w8, w8, #0xfffbffff
	.loc	174 243 56                      // kernel/include/linux/sched/mm.h:243:56
	orr	w8, w8, w10
.Ltmp228:
	//DEBUG_VALUE: get_current:sp_el0 <- $x9
	.loc	174 243 17                      // kernel/include/linux/sched/mm.h:243:17
	str	w8, [x9, #44]
.Ltmp229:
.LBB6_29:
	//DEBUG_VALUE: pch_read_around:start <- $x22
	//DEBUG_VALUE: pch_read_around:ractl <- [$sp+0]
	//DEBUG_VALUE: pch_read_around:file <- [DW_OP_plus_uconst 8] [$sp+0]
	.loc	1 658 12 is_stmt 1              // kernel/mm/pagecache_manage.c:658:12
	str	x22, [x20]
	.loc	1 659 11                        // kernel/mm/pagecache_manage.c:659:11
	str	w25, [x20, #8]
	.loc	1 663 1                         // kernel/mm/pagecache_manage.c:663:1
	ldp	x20, x19, [sp, #208]            // 16-byte Folded Reload
	ldp	x22, x21, [sp, #192]            // 16-byte Folded Reload
.Ltmp230:
	ldp	x24, x23, [sp, #176]            // 16-byte Folded Reload
	ldp	x26, x25, [sp, #160]            // 16-byte Folded Reload
	ldp	x28, x27, [sp, #144]            // 16-byte Folded Reload
	ldp	x29, x30, [sp, #128]            // 16-byte Folded Reload
	add	sp, sp, #224                    // =224
.Ltmp231:
	ret
.Ltmp232:
.Lfunc_end6:
	.size	pch_read_around, .Lfunc_end6-pch_read_around
	.cfi_endproc
	.file	178 "/mnt/disk/jenkins/ci/workspace/chipset_pipeline_release/opensource/component_code/vendor/huawei/extra/build/build_script/kirin_kernel_release" "kernel/arch/arm64/include/asm/atomic.h"
	.file	179 "/mnt/disk/jenkins/ci/workspace/chipset_pipeline_release/opensource/component_code/vendor/huawei/extra/build/build_script/kirin_kernel_release" "kernel/include/asm-generic/bitops/atomic.h"
                                        // -- End function
	.globl	pch_mmap_readextend             // -- Begin function pch_mmap_readextend
	.p2align	2
	.type	pch_mmap_readextend,@function
pch_mmap_readextend:                    // @pch_mmap_readextend
.Lfunc_begin7:
	.loc	1 800 0                         // kernel/mm/pagecache_manage.c:800:0
	.cfi_startproc
// %bb.0:
	//DEBUG_VALUE: pch_mmap_readextend:vm_flags <- $x0
	//DEBUG_VALUE: pch_mmap_readextend:ra <- $x1
	//DEBUG_VALUE: pch_mmap_readextend:file <- $x2
	//DEBUG_VALUE: pch_mmap_readextend:offset <- $x3
	//DEBUG_VALUE: pch_mmap_readextend:offset <- $x3
	//DEBUG_VALUE: pch_mmap_readextend:file <- $x2
	//DEBUG_VALUE: pch_mmap_readextend:ra <- $x1
	sub	sp, sp, #112                    // =112
	stp	x29, x30, [sp, #32]             // 16-byte Folded Spill
	str	x25, [sp, #48]                  // 8-byte Folded Spill
	stp	x24, x23, [sp, #64]             // 16-byte Folded Spill
	stp	x22, x21, [sp, #80]             // 16-byte Folded Spill
	stp	x20, x19, [sp, #96]             // 16-byte Folded Spill
	add	x29, sp, #32                    // =32
	.cfi_def_cfa w29, 80
	.cfi_offset w19, -8
	.cfi_offset w20, -16
	.cfi_offset w21, -24
	.cfi_offset w22, -32
	.cfi_offset w23, -40
	.cfi_offset w24, -48
	.cfi_offset w25, -64
	.cfi_offset w30, -72
	.cfi_offset w29, -80
.Ltmp233:
	.loc	1 801 7 prologue_end            // kernel/mm/pagecache_manage.c:801:7
	adrp	x25, pch_info
	ldr	x8, [x25, :lo12:pch_info]
	//DEBUG_VALUE: pch_mmap_readextend:vm_flags <- $x0
	.loc	1 801 16 is_stmt 0              // kernel/mm/pagecache_manage.c:801:16
	cbz	x8, .LBB7_13
.Ltmp234:
// %bb.1:
	//DEBUG_VALUE: pch_mmap_readextend:offset <- $x3
	//DEBUG_VALUE: pch_mmap_readextend:file <- $x2
	//DEBUG_VALUE: pch_mmap_readextend:ra <- $x1
	//DEBUG_VALUE: pch_mmap_readextend:vm_flags <- $x0
	//DEBUG_VALUE: pch_mmap_readextend:offset <- $x3
	//DEBUG_VALUE: pch_mmap_readextend:file <- $x2
	//DEBUG_VALUE: pch_mmap_readextend:ra <- $x1
	//DEBUG_VALUE: pch_mmap_readextend:vm_flags <- $x0
	.loc	1 801 30                        // kernel/mm/pagecache_manage.c:801:30
	ldr	w8, [x8, #200]
.Ltmp235:
	.loc	1 801 6                         // kernel/mm/pagecache_manage.c:801:6
	cbz	w8, .LBB7_13
.Ltmp236:
// %bb.2:
	//DEBUG_VALUE: pch_mmap_readextend:offset <- $x3
	//DEBUG_VALUE: pch_mmap_readextend:file <- $x2
	//DEBUG_VALUE: pch_mmap_readextend:ra <- $x1
	//DEBUG_VALUE: pch_mmap_readextend:vm_flags <- $x0
	.loc	1 0 6                           // kernel/mm/pagecache_manage.c:0:6
	mov	x19, x3
.Ltmp237:
	//DEBUG_VALUE: pch_mmap_readextend:offset <- $x19
	//DEBUG_VALUE: pch_mmap_readextend:offset <- $x19
	mov	x22, x2
.Ltmp238:
	//DEBUG_VALUE: pch_mmap_readextend:file <- $x22
	//DEBUG_VALUE: pch_mmap_readextend:file <- $x22
	mov	x20, x1
.Ltmp239:
	//DEBUG_VALUE: pch_mmap_readextend:ra <- $x20
	//DEBUG_VALUE: pch_mmap_readextend:ra <- $x20
	mov	x21, x0
.Ltmp240:
	//DEBUG_VALUE: pch_mmap_readextend:vm_flags <- $x21
	//DEBUG_VALUE: pch_mmap_readextend:vm_flags <- $x21
	//DEBUG_VALUE: pch_lowmem_check:zone <- 0
	//DEBUG_VALUE: pch_lowmem_check:ret <- 0
	.loc	1 266 10 is_stmt 1              // kernel/mm/pagecache_manage.c:266:10
	bl	first_online_pgdat
.Ltmp241:
	//DEBUG_VALUE: pch_lowmem_check:zone <- $x0
	.loc	1 267 6                         // kernel/mm/pagecache_manage.c:267:6
	cbz	x0, .LBB7_5
.Ltmp242:
// %bb.3:
	//DEBUG_VALUE: pch_mmap_readextend:file <- $x22
	//DEBUG_VALUE: pch_mmap_readextend:vm_flags <- $x21
	//DEBUG_VALUE: pch_mmap_readextend:ra <- $x20
	//DEBUG_VALUE: pch_mmap_readextend:offset <- $x19
	//DEBUG_VALUE: pch_lowmem_check:zone <- $x0
	//DEBUG_VALUE: pch_lowmem_check:ret <- 0
	.loc	1 270 14                        // kernel/mm/pagecache_manage.c:270:14
	ldp	x8, x9, [x0, #16]
.Ltmp243:
	.loc	1 271 7                         // kernel/mm/pagecache_manage.c:271:7
	mov	w1, wzr
	mov	w3, wzr
	mov	w4, wzr
.Ltmp244:
	.loc	1 270 14                        // kernel/mm/pagecache_manage.c:270:14
	add	x8, x8, x9
	.loc	1 270 37 is_stmt 0              // kernel/mm/pagecache_manage.c:270:37
	add	x2, x8, #2                      // =2
.Ltmp245:
	//DEBUG_VALUE: pch_lowmem_check:watermark <- $x2
	.loc	1 0 0                           // kernel/mm/pagecache_manage.c:0:0
	mov	x23, x0
.Ltmp246:
	//DEBUG_VALUE: pch_lowmem_check:zone <- $x23
	.loc	1 271 7 is_stmt 1               // kernel/mm/pagecache_manage.c:271:7
	bl	zone_watermark_ok
.Ltmp247:
	.loc	1 274 14                        // kernel/mm/pagecache_manage.c:274:14
	ldr	x8, [x23, #8]
	ldr	x9, [x23, #24]
.Ltmp248:
	.loc	1 271 7                         // kernel/mm/pagecache_manage.c:271:7
	mov	w24, w0
.Ltmp249:
	//DEBUG_VALUE: pch_lowmem_check:ret <- [DW_OP_constu 18446744073709551615, DW_OP_xor, DW_OP_LLVM_convert 1 7, DW_OP_LLVM_convert 32 7, DW_OP_stack_value] $w24
	.loc	1 275 7                         // kernel/mm/pagecache_manage.c:275:7
	mov	x0, x23
	mov	w1, wzr
.Ltmp250:
	.loc	1 274 14                        // kernel/mm/pagecache_manage.c:274:14
	add	x2, x9, x8
.Ltmp251:
	//DEBUG_VALUE: pch_lowmem_check:watermark <- $x2
	.loc	1 275 7                         // kernel/mm/pagecache_manage.c:275:7
	mov	w3, wzr
	mov	w4, wzr
	bl	zone_watermark_ok
.Ltmp252:
	.loc	1 0 7 is_stmt 0                 // kernel/mm/pagecache_manage.c:0:7
	tbz	w24, #0, .LBB7_13
.Ltmp253:
// %bb.4:
	//DEBUG_VALUE: pch_lowmem_check:zone <- $x23
	//DEBUG_VALUE: pch_mmap_readextend:file <- $x22
	//DEBUG_VALUE: pch_mmap_readextend:vm_flags <- $x21
	//DEBUG_VALUE: pch_mmap_readextend:ra <- $x20
	//DEBUG_VALUE: pch_mmap_readextend:offset <- $x19
	//DEBUG_VALUE: pch_lowmem_check:ret <- [DW_OP_constu 18446744073709551615, DW_OP_xor, DW_OP_LLVM_convert 1 7, DW_OP_LLVM_convert 32 7, DW_OP_stack_value] $w24
	tbz	w0, #0, .LBB7_13
.Ltmp254:
.LBB7_5:
	//DEBUG_VALUE: pch_mmap_readextend:file <- $x22
	//DEBUG_VALUE: pch_mmap_readextend:vm_flags <- $x21
	//DEBUG_VALUE: pch_mmap_readextend:ra <- $x20
	//DEBUG_VALUE: pch_mmap_readextend:offset <- $x19
	//DEBUG_VALUE: __pch_mmap_readextend:vm_flags <- $x21
	//DEBUG_VALUE: __pch_mmap_readextend:ra <- $x20
	//DEBUG_VALUE: __pch_mmap_readextend:file <- $x22
	//DEBUG_VALUE: __pch_mmap_readextend:offset <- $x19
	//DEBUG_VALUE: __pch_mmap_readextend:forward <- 1
	.loc	1 678 40 is_stmt 1              // kernel/mm/pagecache_manage.c:678:40
	ldr	x8, [x22, #320]
.Ltmp255:
	//DEBUG_VALUE: __pch_mmap_readextend:mapping <- $x8
	.loc	1 679 33                        // kernel/mm/pagecache_manage.c:679:33
	ldr	x9, [x8]
.Ltmp256:
	//DEBUG_VALUE: i_size_read:inode <- $x9
	//DEBUG_VALUE: __pch_mmap_readextend:inode <- $x9
	.loc	17 876 16                       // kernel/include/linux/fs.h:876:16
	ldr	x23, [x9, #80]
.Ltmp257:
	//DEBUG_VALUE: __pch_mmap_readextend:isize <- $x23
	.loc	1 683 2                         // kernel/mm/pagecache_manage.c:683:2
	stp	x22, x8, [sp]
	stp	x19, xzr, [sp, #16]
	.loc	1 685 6                         // kernel/mm/pagecache_manage.c:685:6
	cmp	x23, #1                         // =1
	b.lt	.LBB7_13
.Ltmp258:
// %bb.6:
	//DEBUG_VALUE: __pch_mmap_readextend:isize <- $x23
	//DEBUG_VALUE: __pch_mmap_readextend:file <- $x22
	//DEBUG_VALUE: pch_mmap_readextend:file <- $x22
	//DEBUG_VALUE: __pch_mmap_readextend:vm_flags <- $x21
	//DEBUG_VALUE: pch_mmap_readextend:vm_flags <- $x21
	//DEBUG_VALUE: __pch_mmap_readextend:ra <- $x20
	//DEBUG_VALUE: pch_mmap_readextend:ra <- $x20
	//DEBUG_VALUE: __pch_mmap_readextend:offset <- $x19
	//DEBUG_VALUE: pch_mmap_readextend:offset <- $x19
	//DEBUG_VALUE: __pch_mmap_readextend:inode <- $x9
	//DEBUG_VALUE: __pch_mmap_readextend:mapping <- $x8
	//DEBUG_VALUE: __pch_mmap_readextend:forward <- 1
	//DEBUG_VALUE: __pch_mmap_readextend:end_index <- undef
	.loc	1 690 6                         // kernel/mm/pagecache_manage.c:690:6
	tbnz	w21, #16, .LBB7_13
.Ltmp259:
// %bb.7:
	//DEBUG_VALUE: __pch_mmap_readextend:isize <- $x23
	//DEBUG_VALUE: __pch_mmap_readextend:file <- $x22
	//DEBUG_VALUE: pch_mmap_readextend:file <- $x22
	//DEBUG_VALUE: __pch_mmap_readextend:vm_flags <- $x21
	//DEBUG_VALUE: pch_mmap_readextend:vm_flags <- $x21
	//DEBUG_VALUE: __pch_mmap_readextend:ra <- $x20
	//DEBUG_VALUE: pch_mmap_readextend:ra <- $x20
	//DEBUG_VALUE: __pch_mmap_readextend:offset <- $x19
	//DEBUG_VALUE: pch_mmap_readextend:offset <- $x19
	//DEBUG_VALUE: __pch_mmap_readextend:inode <- $x9
	//DEBUG_VALUE: __pch_mmap_readextend:mapping <- $x8
	//DEBUG_VALUE: __pch_mmap_readextend:forward <- 1
	//DEBUG_VALUE: __pch_mmap_readextend:end_index <- undef
	.loc	1 695 6                         // kernel/mm/pagecache_manage.c:695:6
	tbnz	w21, #15, .LBB7_13
.Ltmp260:
// %bb.8:
	//DEBUG_VALUE: __pch_mmap_readextend:isize <- $x23
	//DEBUG_VALUE: __pch_mmap_readextend:file <- $x22
	//DEBUG_VALUE: pch_mmap_readextend:file <- $x22
	//DEBUG_VALUE: __pch_mmap_readextend:vm_flags <- $x21
	//DEBUG_VALUE: pch_mmap_readextend:vm_flags <- $x21
	//DEBUG_VALUE: __pch_mmap_readextend:ra <- $x20
	//DEBUG_VALUE: pch_mmap_readextend:ra <- $x20
	//DEBUG_VALUE: __pch_mmap_readextend:offset <- $x19
	//DEBUG_VALUE: pch_mmap_readextend:offset <- $x19
	//DEBUG_VALUE: __pch_mmap_readextend:inode <- $x9
	//DEBUG_VALUE: __pch_mmap_readextend:mapping <- $x8
	//DEBUG_VALUE: __pch_mmap_readextend:forward <- 1
	//DEBUG_VALUE: __pch_mmap_readextend:end_index <- undef
	.loc	1 0 0 is_stmt 0                 // kernel/mm/pagecache_manage.c:0:0
	ldr	w9, [x20, #16]
.Ltmp261:
	.loc	1 695 6                         // kernel/mm/pagecache_manage.c:695:6
	cbz	w9, .LBB7_13
.Ltmp262:
// %bb.9:
	//DEBUG_VALUE: __pch_mmap_readextend:isize <- $x23
	//DEBUG_VALUE: __pch_mmap_readextend:file <- $x22
	//DEBUG_VALUE: pch_mmap_readextend:file <- $x22
	//DEBUG_VALUE: __pch_mmap_readextend:vm_flags <- $x21
	//DEBUG_VALUE: pch_mmap_readextend:vm_flags <- $x21
	//DEBUG_VALUE: __pch_mmap_readextend:ra <- $x20
	//DEBUG_VALUE: pch_mmap_readextend:ra <- $x20
	//DEBUG_VALUE: __pch_mmap_readextend:offset <- $x19
	//DEBUG_VALUE: pch_mmap_readextend:offset <- $x19
	//DEBUG_VALUE: __pch_mmap_readextend:mapping <- $x8
	//DEBUG_VALUE: __pch_mmap_readextend:forward <- 1
	//DEBUG_VALUE: __pch_mmap_readextend:end_index <- undef
	.loc	1 708 10 is_stmt 1              // kernel/mm/pagecache_manage.c:708:10
	ldr	w9, [x20, #24]
.Ltmp263:
	.loc	1 708 6 is_stmt 0               // kernel/mm/pagecache_manage.c:708:6
	cmp	w9, #100                        // =100
	b.hi	.LBB7_13
.Ltmp264:
// %bb.10:
	//DEBUG_VALUE: __pch_mmap_readextend:isize <- $x23
	//DEBUG_VALUE: __pch_mmap_readextend:file <- $x22
	//DEBUG_VALUE: pch_mmap_readextend:file <- $x22
	//DEBUG_VALUE: __pch_mmap_readextend:vm_flags <- $x21
	//DEBUG_VALUE: pch_mmap_readextend:vm_flags <- $x21
	//DEBUG_VALUE: __pch_mmap_readextend:ra <- $x20
	//DEBUG_VALUE: pch_mmap_readextend:ra <- $x20
	//DEBUG_VALUE: __pch_mmap_readextend:offset <- $x19
	//DEBUG_VALUE: pch_mmap_readextend:offset <- $x19
	//DEBUG_VALUE: __pch_mmap_readextend:mapping <- $x8
	//DEBUG_VALUE: __pch_mmap_readextend:forward <- 1
	//DEBUG_VALUE: __pch_mmap_readextend:end_index <- undef
	.loc	1 714 36 is_stmt 1              // kernel/mm/pagecache_manage.c:714:36
	ldr	x0, [x8]
.Ltmp265:
	//DEBUG_VALUE: inode_read_congested:inode <- $x0
	.file	180 "/mnt/disk/jenkins/ci/workspace/chipset_pipeline_release/opensource/component_code/vendor/huawei/extra/build/build_script/kirin_kernel_release" "kernel/include/linux/backing-dev.h"
	.loc	180 397 9                       // kernel/include/linux/backing-dev.h:397:9
	mov	w1, #2
	bl	inode_congested
.Ltmp266:
	.loc	1 714 6                         // kernel/mm/pagecache_manage.c:714:6
	cbnz	w0, .LBB7_13
.Ltmp267:
// %bb.11:
	//DEBUG_VALUE: __pch_mmap_readextend:isize <- $x23
	//DEBUG_VALUE: __pch_mmap_readextend:file <- $x22
	//DEBUG_VALUE: pch_mmap_readextend:file <- $x22
	//DEBUG_VALUE: __pch_mmap_readextend:vm_flags <- $x21
	//DEBUG_VALUE: pch_mmap_readextend:vm_flags <- $x21
	//DEBUG_VALUE: __pch_mmap_readextend:ra <- $x20
	//DEBUG_VALUE: pch_mmap_readextend:ra <- $x20
	//DEBUG_VALUE: __pch_mmap_readextend:offset <- $x19
	//DEBUG_VALUE: pch_mmap_readextend:offset <- $x19
	//DEBUG_VALUE: __pch_mmap_readextend:forward <- 1
	.loc	1 764 13                        // kernel/mm/pagecache_manage.c:764:13
	ldr	w8, [x20, #8]
.Ltmp268:
	.loc	1 0 0 is_stmt 0                 // kernel/mm/pagecache_manage.c:0:0
	sub	w9, w23, #1                     // =1
	lsr	w9, w9, #12
.Ltmp269:
	//DEBUG_VALUE: __UNIQUE_ID___x424 <- $x9
	//DEBUG_VALUE: __pch_mmap_readextend:end_index <- $x9
	.loc	1 764 13                        // kernel/mm/pagecache_manage.c:764:13
	add	x8, x19, x8, lsr #1
.Ltmp270:
	//DEBUG_VALUE: __pch_mmap_readextend:pch_index <- undef
	//DEBUG_VALUE: __UNIQUE_ID___y425 <- $x8
	.loc	1 765 7 is_stmt 1               // kernel/mm/pagecache_manage.c:765:7
	cmp	x9, x8
	b.le	.LBB7_13
.Ltmp271:
// %bb.12:
	//DEBUG_VALUE: __pch_mmap_readextend:isize <- $x23
	//DEBUG_VALUE: __pch_mmap_readextend:file <- $x22
	//DEBUG_VALUE: pch_mmap_readextend:file <- $x22
	//DEBUG_VALUE: __pch_mmap_readextend:vm_flags <- $x21
	//DEBUG_VALUE: pch_mmap_readextend:vm_flags <- $x21
	//DEBUG_VALUE: __pch_mmap_readextend:ra <- $x20
	//DEBUG_VALUE: pch_mmap_readextend:ra <- $x20
	//DEBUG_VALUE: __pch_mmap_readextend:offset <- $x19
	//DEBUG_VALUE: pch_mmap_readextend:offset <- $x19
	//DEBUG_VALUE: __pch_mmap_readextend:end_index <- $x9
	//DEBUG_VALUE: __pch_mmap_readextend:forward <- 1
	//DEBUG_VALUE: __pch_mmap_readextend:pch_index <- $x8
	.loc	1 774 28                        // kernel/mm/pagecache_manage.c:774:28
	ldr	x9, [x25, :lo12:pch_info]
.Ltmp272:
	.loc	1 773 16                        // kernel/mm/pagecache_manage.c:773:16
	str	x8, [sp, #16]
	.loc	1 774 3                         // kernel/mm/pagecache_manage.c:774:3
	mov	x0, sp
	mov	x2, xzr
	.loc	1 774 38 is_stmt 0              // kernel/mm/pagecache_manage.c:774:38
	ldr	w1, [x9, #208]
	.loc	1 774 3                         // kernel/mm/pagecache_manage.c:774:3
	bl	do_page_cache_ra
.Ltmp273:
.LBB7_13:
	.loc	1 814 1 is_stmt 1               // kernel/mm/pagecache_manage.c:814:1
	ldp	x20, x19, [sp, #96]             // 16-byte Folded Reload
	ldp	x22, x21, [sp, #80]             // 16-byte Folded Reload
	ldp	x24, x23, [sp, #64]             // 16-byte Folded Reload
	ldr	x25, [sp, #48]                  // 8-byte Folded Reload
	ldp	x29, x30, [sp, #32]             // 16-byte Folded Reload
	add	sp, sp, #112                    // =112
	ret
.Ltmp274:
.Lfunc_end7:
	.size	pch_mmap_readextend, .Lfunc_end7-pch_mmap_readextend
	.cfi_endproc
                                        // -- End function
	.globl	pch_timeout_work                // -- Begin function pch_timeout_work
	.p2align	2
	.type	pch_timeout_work,@function
pch_timeout_work:                       // @pch_timeout_work
.Lfunc_begin8:
	.loc	1 867 0                         // kernel/mm/pagecache_manage.c:867:0
	.cfi_startproc
// %bb.0:
	//DEBUG_VALUE: pch_timeout_work:work <- $x0
	sub	sp, sp, #192                    // =192
	stp	x29, x30, [sp, #144]            // 16-byte Folded Spill
	str	x21, [sp, #160]                 // 8-byte Folded Spill
	stp	x20, x19, [sp, #176]            // 16-byte Folded Spill
	add	x29, sp, #144                   // =144
	.cfi_def_cfa w29, 48
	.cfi_offset w19, -8
	.cfi_offset w20, -16
	.cfi_offset w21, -32
	.cfi_offset w30, -40
	.cfi_offset w29, -48
.Ltmp275:
	//DEBUG_VALUE: pch_timeout_work:sb <- 0
	//DEBUG_VALUE: pch_timeout_work:bdi <- 0
	//DEBUG_VALUE: pch_timeout_work:wb <- 0
	.loc	1 876 8 prologue_end            // kernel/mm/pagecache_manage.c:876:8
	adrp	x20, pch_info
	ldr	x8, [x20, :lo12:pch_info]
	.loc	1 876 18 is_stmt 0              // kernel/mm/pagecache_manage.c:876:18
	add	x0, x8, #144                    // =144
.Ltmp276:
	//DEBUG_VALUE: pch_timeout_work:work <- [DW_OP_LLVM_entry_value 1] $x0
	.loc	1 876 2                         // kernel/mm/pagecache_manage.c:876:2
	bl	down
.Ltmp277:
	.loc	1 877 33 is_stmt 1              // kernel/mm/pagecache_manage.c:877:33
	ldr	x8, [x20, :lo12:pch_info]
	.loc	1 877 43 is_stmt 0              // kernel/mm/pagecache_manage.c:877:43
	add	x8, x8, #192                    // =192
.Ltmp278:
	//DEBUG_VALUE: __ll_sc_atomic64_or:i <- 2
	//DEBUG_VALUE: arch_atomic64_or:i <- 2
	//DEBUG_VALUE: atomic64_or:i <- 2
	//DEBUG_VALUE: atomic_long_or:i <- 2
	//DEBUG_VALUE: set_bit:nr <- 1
	//DEBUG_VALUE: __ll_sc_atomic64_or:v <- $x8
	//DEBUG_VALUE: arch_atomic64_or:v <- $x8
	//DEBUG_VALUE: atomic64_or:v <- $x8
	//DEBUG_VALUE: atomic_long_or:v <- $x8
	//DEBUG_VALUE: set_bit:p <- $x8
	.loc	177 222 1 is_stmt 1             // kernel/arch/arm64/include/asm/atomic_ll_sc.h:222:1
	//APP
	// atomic64_or
	prfm	pstl1strm, [x8]
.Ltmp279:
	ldxr	x9, [x8]
	orr	x9, x9, #0x2
	stxr	w10, x9, [x8]
	cbnz	w10, .Ltmp279
	//NO_APP
.Ltmp280:
	//DEBUG_VALUE: __ll_sc_atomic64_or:tmp <- undef
	//DEBUG_VALUE: __ll_sc_atomic64_or:result <- undef
	.loc	1 119 10                        // kernel/mm/pagecache_manage.c:119:10
	ldr	x8, [x20, :lo12:pch_info]
.Ltmp281:
	.loc	1 879 6                         // kernel/mm/pagecache_manage.c:879:6
	ldrb	w9, [x8, #228]
	tbnz	w9, #0, .LBB8_2
.Ltmp282:
// %bb.1:
	//DEBUG_VALUE: pch_timeout_work:work <- [DW_OP_LLVM_entry_value 1] $x0
	//DEBUG_VALUE: pch_timeout_work:wb <- 0
	//DEBUG_VALUE: pch_timeout_work:bdi <- 0
	//DEBUG_VALUE: pch_timeout_work:sb <- 0
	.loc	1 880 46                        // kernel/mm/pagecache_manage.c:880:46
	add	x8, x8, #192                    // =192
	mov	w9, #2
.Ltmp283:
	//DEBUG_VALUE: __ll_sc_atomic64_andnot:i <- 2
	//DEBUG_VALUE: arch_atomic64_andnot:i <- 2
	//DEBUG_VALUE: atomic64_andnot:i <- 2
	//DEBUG_VALUE: atomic_long_andnot:i <- 2
	//DEBUG_VALUE: clear_bit:nr <- 1
	//DEBUG_VALUE: __ll_sc_atomic64_andnot:v <- $x8
	//DEBUG_VALUE: arch_atomic64_andnot:v <- $x8
	//DEBUG_VALUE: atomic64_andnot:v <- $x8
	//DEBUG_VALUE: atomic_long_andnot:v <- $x8
	//DEBUG_VALUE: clear_bit:p <- $x8
	.loc	177 229 1                       // kernel/arch/arm64/include/asm/atomic_ll_sc.h:229:1
	//APP
	// atomic64_andnot
	prfm	pstl1strm, [x8]
.Ltmp284:
	ldxr	x10, [x8]
	bic	x10, x10, x9
	stxr	w11, x10, [x8]
	cbnz	w11, .Ltmp284
	//NO_APP
.Ltmp285:
	//DEBUG_VALUE: __ll_sc_atomic64_andnot:tmp <- undef
	//DEBUG_VALUE: __ll_sc_atomic64_andnot:result <- undef
	.loc	177 0 1 is_stmt 0               // kernel/arch/arm64/include/asm/atomic_ll_sc.h:0:1
	b	.LBB8_17
.Ltmp286:
.LBB8_2:
	//DEBUG_VALUE: pch_timeout_work:work <- [DW_OP_LLVM_entry_value 1] $x0
	//DEBUG_VALUE: pch_timeout_work:wb <- 0
	//DEBUG_VALUE: pch_timeout_work:bdi <- 0
	//DEBUG_VALUE: pch_timeout_work:sb <- 0
	.loc	1 885 17 is_stmt 1              // kernel/mm/pagecache_manage.c:885:17
	ldr	x8, [x8, #56]
.Ltmp287:
	.loc	1 847 10                        // kernel/mm/pagecache_manage.c:847:10
	adrp	x0, .L.str.20
	add	x0, x0, :lo12:.L.str.20
.Ltmp288:
	//DEBUG_VALUE: pch_user_statfs:data <- $x0
	add	x2, sp, #8                      // =8
.Ltmp289:
	.loc	1 885 23                        // kernel/mm/pagecache_manage.c:885:23
	ldr	x8, [x8, #16]
.Ltmp290:
	//DEBUG_VALUE: pch_timeout_work:sb <- $x8
	.loc	1 847 10                        // kernel/mm/pagecache_manage.c:847:10
	mov	w1, #5
.Ltmp291:
	.loc	1 886 12                        // kernel/mm/pagecache_manage.c:886:12
	ldr	x21, [x8, #256]
.Ltmp292:
	//DEBUG_VALUE: pch_user_statfs:lookup_flags <- 5
	//DEBUG_VALUE: pch_timeout_work:wb <- undef
	//DEBUG_VALUE: pch_timeout_work:bdi <- $x21
	.loc	1 845 2                         // kernel/mm/pagecache_manage.c:845:2
	stp	xzr, xzr, [sp, #24]
	stp	xzr, xzr, [sp, #40]
	stp	xzr, xzr, [sp, #56]
	stp	xzr, xzr, [sp, #72]
	stp	xzr, xzr, [sp, #88]
	stp	xzr, xzr, [sp, #104]
	stp	xzr, xzr, [sp, #120]
	str	xzr, [sp, #136]
	.loc	1 847 10                        // kernel/mm/pagecache_manage.c:847:10
	bl	kern_path
.Ltmp293:
	mov	w19, w0
.Ltmp294:
	//DEBUG_VALUE: pch_user_statfs:error <- $w19
	.loc	1 848 6                         // kernel/mm/pagecache_manage.c:848:6
	cbnz	w0, .LBB8_4
.Ltmp295:
// %bb.3:
	//DEBUG_VALUE: pch_timeout_work:bdi <- $x21
	//DEBUG_VALUE: pch_user_statfs:error <- $w19
	//DEBUG_VALUE: pch_user_statfs:lookup_flags <- 5
	//DEBUG_VALUE: pch_timeout_work:work <- [DW_OP_LLVM_entry_value 1] $x0
	.loc	1 849 11                        // kernel/mm/pagecache_manage.c:849:11
	add	x0, sp, #8                      // =8
	add	x1, sp, #24                     // =24
	bl	vfs_statfs
.Ltmp296:
	mov	w19, w0
.Ltmp297:
	//DEBUG_VALUE: pch_user_statfs:error <- $w19
	.loc	1 850 3                         // kernel/mm/pagecache_manage.c:850:3
	add	x0, sp, #8                      // =8
	bl	path_put
.Ltmp298:
	.loc	1 853 7                         // kernel/mm/pagecache_manage.c:853:7
	cbz	w19, .LBB8_7
.Ltmp299:
.LBB8_4:
	//DEBUG_VALUE: pch_timeout_work:bdi <- $x21
	//DEBUG_VALUE: pch_timeout_work:work <- [DW_OP_LLVM_entry_value 1] $x0
	//DEBUG_VALUE: pch_timeout_work:wb <- undef
	//DEBUG_VALUE: pch_timeout_work:userdata_state <- $w19
	.loc	1 890 6                         // kernel/mm/pagecache_manage.c:890:6
	cbz	w19, .LBB8_8
.Ltmp300:
.LBB8_5:
	//DEBUG_VALUE: pch_timeout_work:bdi <- $x21
	//DEBUG_VALUE: pch_timeout_work:userdata_state <- $w19
	//DEBUG_VALUE: pch_timeout_work:work <- [DW_OP_LLVM_entry_value 1] $x0
	cmp	w19, #1                         // =1
	b.ne	.LBB8_18
.Ltmp301:
// %bb.6:
	//DEBUG_VALUE: pch_timeout_work:bdi <- $x21
	//DEBUG_VALUE: pch_timeout_work:userdata_state <- $w19
	//DEBUG_VALUE: pch_timeout_work:work <- [DW_OP_LLVM_entry_value 1] $x0
	.loc	1 891 3                         // kernel/mm/pagecache_manage.c:891:3
	ldr	x8, [x20, :lo12:pch_info]
	mov	x9, #17179869188
	mov	w10, #16
	.loc	1 891 32 is_stmt 0              // kernel/mm/pagecache_manage.c:891:32
	str	x9, [x8, #208]
	.loc	1 893 32 is_stmt 1              // kernel/mm/pagecache_manage.c:893:32
	str	w10, [x8, #216]
	b	.LBB8_13
.Ltmp302:
.LBB8_7:
	//DEBUG_VALUE: pch_timeout_work:bdi <- $x21
	//DEBUG_VALUE: pch_user_statfs:error <- $w19
	//DEBUG_VALUE: pch_user_statfs:lookup_flags <- 5
	//DEBUG_VALUE: pch_timeout_work:work <- [DW_OP_LLVM_entry_value 1] $x0
	.loc	1 857 17                        // kernel/mm/pagecache_manage.c:857:17
	ldr	x8, [x20, :lo12:pch_info]
.Ltmp303:
	.loc	1 856 21                        // kernel/mm/pagecache_manage.c:856:21
	ldr	x9, [sp, #56]
	.loc	1 856 57 is_stmt 0              // kernel/mm/pagecache_manage.c:856:57
	ldr	x10, [sp, #40]
	mov	w11, #100
.Ltmp304:
	.loc	1 857 27 is_stmt 1              // kernel/mm/pagecache_manage.c:857:27
	ldr	w8, [x8, #224]
.Ltmp305:
	.loc	1 856 30                        // kernel/mm/pagecache_manage.c:856:30
	mul	x11, x9, x11
	.loc	1 856 52 is_stmt 0              // kernel/mm/pagecache_manage.c:856:52
	udiv	x10, x11, x10
.Ltmp306:
	//DEBUG_VALUE: pch_user_statfs:ratio <- $w10
	.loc	1 857 14 is_stmt 1              // kernel/mm/pagecache_manage.c:857:14
	cmp	w8, w10
	cset	w8, hs
	cmp	x9, #64, lsl #12                // =262144
	cset	w9, ls
	.loc	1 857 45 is_stmt 0              // kernel/mm/pagecache_manage.c:857:45
	and	w19, w9, w8
.Ltmp307:
	//DEBUG_VALUE: pch_timeout_work:wb <- undef
	//DEBUG_VALUE: pch_timeout_work:userdata_state <- $w19
	.loc	1 890 6 is_stmt 1               // kernel/mm/pagecache_manage.c:890:6
	cbnz	w19, .LBB8_5
.Ltmp308:
.LBB8_8:
	//DEBUG_VALUE: pch_timeout_work:bdi <- $x21
	//DEBUG_VALUE: pch_timeout_work:userdata_state <- $w19
	//DEBUG_VALUE: pch_timeout_work:work <- [DW_OP_LLVM_entry_value 1] $x0
	.loc	1 895 3                         // kernel/mm/pagecache_manage.c:895:3
	ldr	x8, [x20, :lo12:pch_info]
	mov	w10, #16
.Ltmp309:
	.loc	1 896 17                        // kernel/mm/pagecache_manage.c:896:17
	ldr	w9, [x8, #204]
.Ltmp310:
	.loc	1 895 32                        // kernel/mm/pagecache_manage.c:895:32
	str	w10, [x8, #216]
	.loc	1 896 7                         // kernel/mm/pagecache_manage.c:896:7
	cmp	w9, #1                          // =1
	b.eq	.LBB8_11
.Ltmp311:
// %bb.9:
	//DEBUG_VALUE: pch_timeout_work:bdi <- $x21
	//DEBUG_VALUE: pch_timeout_work:userdata_state <- $w19
	//DEBUG_VALUE: pch_timeout_work:work <- [DW_OP_LLVM_entry_value 1] $x0
	cbnz	w9, .LBB8_13
.Ltmp312:
// %bb.10:
	//DEBUG_VALUE: pch_timeout_work:bdi <- $x21
	//DEBUG_VALUE: pch_timeout_work:userdata_state <- $w19
	//DEBUG_VALUE: pch_timeout_work:work <- [DW_OP_LLVM_entry_value 1] $x0
	.loc	1 0 7 is_stmt 0                 // kernel/mm/pagecache_manage.c:0:7
	mov	x9, #34359738376
	b	.LBB8_12
.Ltmp313:
.LBB8_11:
	//DEBUG_VALUE: pch_timeout_work:bdi <- $x21
	//DEBUG_VALUE: pch_timeout_work:userdata_state <- $w19
	//DEBUG_VALUE: pch_timeout_work:work <- [DW_OP_LLVM_entry_value 1] $x0
	mov	x9, #68719476752
.Ltmp314:
.LBB8_12:
	//DEBUG_VALUE: pch_timeout_work:bdi <- $x21
	//DEBUG_VALUE: pch_timeout_work:userdata_state <- $w19
	//DEBUG_VALUE: pch_timeout_work:work <- [DW_OP_LLVM_entry_value 1] $x0
	str	x9, [x8, #208]
.Ltmp315:
.LBB8_13:
	//DEBUG_VALUE: pch_timeout_work:bdi <- $x21
	//DEBUG_VALUE: pch_timeout_work:userdata_state <- $w19
	//DEBUG_VALUE: pch_timeout_work:work <- [DW_OP_LLVM_entry_value 1] $x0
	//DEBUG_VALUE: pch_timeout_work:wb <- undef
	//DEBUG_VALUE: pch_timeout_work:background_thresh <- [DW_OP_plus_uconst 24, DW_OP_deref] $sp
	//DEBUG_VALUE: pch_timeout_work:dirty_thresh <- [DW_OP_plus_uconst 8, DW_OP_deref] $sp
	.loc	1 907 2 is_stmt 1               // kernel/mm/pagecache_manage.c:907:2
	add	x0, sp, #24                     // =24
	add	x1, sp, #8                      // =8
	bl	global_dirty_limits
.Ltmp316:
	//DEBUG_VALUE: atomic64_read:v <- undef
	//DEBUG_VALUE: atomic_long_read:v <- undef
	//DEBUG_VALUE: global_node_page_state_pages:item <- 22
	//DEBUG_VALUE: global_node_page_state:item <- 22
	.loc	171 838 9                       // kernel/include/asm-generic/atomic-instrumented.h:838:9
	adrp	x8, vm_node_stat+176
	add	x8, x8, :lo12:vm_node_stat+176
	ldr	x9, [x8]
.Ltmp317:
	//DEBUG_VALUE: global_node_page_state_pages:x <- $x9
	.loc	171 838 9 is_stmt 0             // kernel/include/asm-generic/atomic-instrumented.h:838:9
	ldr	x8, [x8, #8]
.Ltmp318:
	//DEBUG_VALUE: global_node_page_state_pages:x <- $x8
	.loc	1 911 17 is_stmt 1              // kernel/mm/pagecache_manage.c:911:17
	ldr	x10, [sp, #8]
.Ltmp319:
	//DEBUG_VALUE: pch_timeout_work:dirty_thresh <- $x10
	.loc	172 201 6                       // kernel/include/linux/vmstat.h:201:6
	bic	x9, x9, x9, asr #63
.Ltmp320:
	//DEBUG_VALUE: atomic64_read:v <- undef
	//DEBUG_VALUE: atomic_long_read:v <- undef
	//DEBUG_VALUE: global_node_page_state_pages:item <- 23
	//DEBUG_VALUE: global_node_page_state:item <- 23
	//DEBUG_VALUE: global_node_page_state_pages:x <- $x9
	//DEBUG_VALUE: global_node_page_state_pages:x <- $x9
	//DEBUG_VALUE: global_node_page_state_pages:item <- 22
	//DEBUG_VALUE: global_node_page_state:item <- 22
	.loc	172 201 6 is_stmt 0             // kernel/include/linux/vmstat.h:201:6
	bic	x8, x8, x8, asr #63
.Ltmp321:
	//DEBUG_VALUE: global_node_page_state_pages:x <- $x8
	//DEBUG_VALUE: global_node_page_state_pages:x <- $x8
	.loc	1 909 51 is_stmt 1              // kernel/mm/pagecache_manage.c:909:51
	add	x8, x8, x9
.Ltmp322:
	//DEBUG_VALUE: pch_timeout_work:nr_dirty <- $x8
	.loc	1 911 6                         // kernel/mm/pagecache_manage.c:911:6
	cmp	x8, x10
	b.hs	.LBB8_15
.Ltmp323:
// %bb.14:
	//DEBUG_VALUE: pch_timeout_work:bdi <- $x21
	//DEBUG_VALUE: pch_timeout_work:dirty_thresh <- $x10
	//DEBUG_VALUE: pch_timeout_work:nr_dirty <- $x8
	//DEBUG_VALUE: pch_timeout_work:userdata_state <- $w19
	//DEBUG_VALUE: pch_timeout_work:background_thresh <- [DW_OP_plus_uconst 24, DW_OP_deref] $sp
	//DEBUG_VALUE: pch_timeout_work:work <- [DW_OP_LLVM_entry_value 1] $x0
	.loc	1 912 36                        // kernel/mm/pagecache_manage.c:912:36
	ldr	x8, [x20, :lo12:pch_info]
.Ltmp324:
	.loc	1 0 36 is_stmt 0                // kernel/mm/pagecache_manage.c:0:36
	mov	w9, #2
.Ltmp325:
	//DEBUG_VALUE: __ll_sc_atomic64_andnot:i <- 2
	//DEBUG_VALUE: arch_atomic64_andnot:i <- 2
	//DEBUG_VALUE: atomic64_andnot:i <- 2
	//DEBUG_VALUE: atomic_long_andnot:i <- 2
	//DEBUG_VALUE: clear_bit:nr <- 1
	//DEBUG_VALUE: __ll_sc_atomic64_andnot:v <- $x8
	//DEBUG_VALUE: arch_atomic64_andnot:v <- $x8
	//DEBUG_VALUE: atomic64_andnot:v <- $x8
	//DEBUG_VALUE: atomic_long_andnot:v <- $x8
	//DEBUG_VALUE: clear_bit:p <- $x8
	.loc	1 912 46                        // kernel/mm/pagecache_manage.c:912:46
	add	x8, x8, #192                    // =192
.Ltmp326:
	.loc	177 229 1 is_stmt 1             // kernel/arch/arm64/include/asm/atomic_ll_sc.h:229:1
	//APP
	// atomic64_andnot
	prfm	pstl1strm, [x8]
.Ltmp327:
	ldxr	x10, [x8]
	bic	x10, x10, x9
	stxr	w11, x10, [x8]
	cbnz	w11, .Ltmp327
	//NO_APP
.Ltmp328:
	//DEBUG_VALUE: __ll_sc_atomic64_andnot:tmp <- undef
	//DEBUG_VALUE: __ll_sc_atomic64_andnot:result <- undef
	.loc	177 0 1 is_stmt 0               // kernel/arch/arm64/include/asm/atomic_ll_sc.h:0:1
	b	.LBB8_17
.Ltmp329:
.LBB8_15:
	//DEBUG_VALUE: pch_timeout_work:bdi <- $x21
	//DEBUG_VALUE: pch_timeout_work:dirty_thresh <- $x10
	//DEBUG_VALUE: pch_timeout_work:nr_dirty <- $x8
	//DEBUG_VALUE: pch_timeout_work:userdata_state <- $w19
	//DEBUG_VALUE: pch_timeout_work:background_thresh <- [DW_OP_plus_uconst 24, DW_OP_deref] $sp
	//DEBUG_VALUE: pch_timeout_work:work <- [DW_OP_LLVM_entry_value 1] $x0
	//DEBUG_VALUE: pch_timeout_work:wb <- undef
	//DEBUG_VALUE: writeback_in_progress:wb <- undef
	//DEBUG_VALUE: test_bit:addr <- [DW_OP_plus_uconst 112, DW_OP_stack_value] $x21
	//DEBUG_VALUE: test_bit:nr <- 1
	.file	181 "/mnt/disk/jenkins/ci/workspace/chipset_pipeline_release/opensource/component_code/vendor/huawei/extra/build/build_script/kirin_kernel_release" "kernel/include/asm-generic/bitops/non-atomic.h"
	.loc	181 106 16 is_stmt 1            // kernel/include/asm-generic/bitops/non-atomic.h:106:16
	ldr	x8, [x21, #112]
.Ltmp330:
	.loc	1 923 6                         // kernel/mm/pagecache_manage.c:923:6
	tbz	w8, #1, .LBB8_19
.Ltmp331:
.LBB8_16:
	//DEBUG_VALUE: pch_timeout_work:bdi <- $x21
	//DEBUG_VALUE: pch_timeout_work:userdata_state <- $w19
	//DEBUG_VALUE: pch_timeout_work:background_thresh <- [DW_OP_plus_uconst 24, DW_OP_deref] $sp
	//DEBUG_VALUE: pch_timeout_work:work <- [DW_OP_LLVM_entry_value 1] $x0
	.loc	1 926 35                        // kernel/mm/pagecache_manage.c:926:35
	ldr	x8, [x20, :lo12:pch_info]
	mov	w9, #2
.Ltmp332:
	//DEBUG_VALUE: __ll_sc_atomic64_andnot:i <- 2
	//DEBUG_VALUE: arch_atomic64_andnot:i <- 2
	//DEBUG_VALUE: atomic64_andnot:i <- 2
	//DEBUG_VALUE: atomic_long_andnot:i <- 2
	//DEBUG_VALUE: clear_bit:nr <- 1
	//DEBUG_VALUE: __ll_sc_atomic64_andnot:v <- $x8
	//DEBUG_VALUE: arch_atomic64_andnot:v <- $x8
	//DEBUG_VALUE: atomic64_andnot:v <- $x8
	//DEBUG_VALUE: atomic_long_andnot:v <- $x8
	//DEBUG_VALUE: clear_bit:p <- $x8
	.loc	1 926 45 is_stmt 0              // kernel/mm/pagecache_manage.c:926:45
	add	x8, x8, #192                    // =192
.Ltmp333:
	.loc	177 229 1 is_stmt 1             // kernel/arch/arm64/include/asm/atomic_ll_sc.h:229:1
	//APP
	// atomic64_andnot
	prfm	pstl1strm, [x8]
.Ltmp334:
	ldxr	x10, [x8]
	bic	x10, x10, x9
	stxr	w11, x10, [x8]
	cbnz	w11, .Ltmp334
	//NO_APP
.Ltmp335:
	//DEBUG_VALUE: __ll_sc_atomic64_andnot:tmp <- undef
	//DEBUG_VALUE: __ll_sc_atomic64_andnot:result <- undef
.LBB8_17:
	//DEBUG_VALUE: pch_timeout_work:work <- [DW_OP_LLVM_entry_value 1] $x0
	.loc	1 0 0 is_stmt 0                 // kernel/mm/pagecache_manage.c:0:0
	ldr	x8, [x20, :lo12:pch_info]
	add	x0, x8, #144                    // =144
	bl	up
.Ltmp336:
	.loc	1 928 1 is_stmt 1               // kernel/mm/pagecache_manage.c:928:1
	ldp	x20, x19, [sp, #176]            // 16-byte Folded Reload
	ldr	x21, [sp, #160]                 // 8-byte Folded Reload
	ldp	x29, x30, [sp, #144]            // 16-byte Folded Reload
	add	sp, sp, #192                    // =192
	ret
.Ltmp337:
.LBB8_18:
	//DEBUG_VALUE: pch_timeout_work:bdi <- $x21
	//DEBUG_VALUE: pch_timeout_work:userdata_state <- $w19
	//DEBUG_VALUE: pch_timeout_work:work <- [DW_OP_LLVM_entry_value 1] $x0
	.loc	1 904 3                         // kernel/mm/pagecache_manage.c:904:3
	adrp	x0, .L.str.1
	adrp	x1, .L__func__.pch_timeout_work
	add	x0, x0, :lo12:.L.str.1
	add	x1, x1, :lo12:.L__func__.pch_timeout_work
	mov	w2, w19
	bl	printk
.Ltmp338:
	.loc	1 0 3 is_stmt 0                 // kernel/mm/pagecache_manage.c:0:3
	b	.LBB8_13
.Ltmp339:
.LBB8_19:
	//DEBUG_VALUE: pch_timeout_work:bdi <- $x21
	//DEBUG_VALUE: pch_timeout_work:dirty_thresh <- $x10
	//DEBUG_VALUE: pch_timeout_work:userdata_state <- $w19
	//DEBUG_VALUE: pch_timeout_work:background_thresh <- [DW_OP_plus_uconst 24, DW_OP_deref] $sp
	//DEBUG_VALUE: pch_timeout_work:work <- [DW_OP_LLVM_entry_value 1] $x0
	add	x0, x21, #104                   // =104
	//DEBUG_VALUE: writeback_in_progress:wb <- $x0
.Ltmp340:
	//DEBUG_VALUE: pch_timeout_work:wb <- $x0
	.loc	1 924 3 is_stmt 1               // kernel/mm/pagecache_manage.c:924:3
	bl	wb_start_background_writeback
.Ltmp341:
	.loc	1 0 3 is_stmt 0                 // kernel/mm/pagecache_manage.c:0:3
	b	.LBB8_16
.Ltmp342:
.Lfunc_end8:
	.size	pch_timeout_work, .Lfunc_end8-pch_timeout_work
	.cfi_endproc
	.file	182 "/mnt/disk/jenkins/ci/workspace/chipset_pipeline_release/opensource/component_code/vendor/huawei/extra/build/build_script/kirin_kernel_release" "kernel/include/linux/namei.h"
	.file	183 "/mnt/disk/jenkins/ci/workspace/chipset_pipeline_release/opensource/component_code/vendor/huawei/extra/build/build_script/kirin_kernel_release" "kernel/include/linux/printk.h"
                                        // -- End function
	.globl	pch_timeout_timer               // -- Begin function pch_timeout_timer
	.p2align	2
	.type	pch_timeout_timer,@function
pch_timeout_timer:                      // @pch_timeout_timer
.Lfunc_begin9:
	.loc	1 931 0 is_stmt 1               // kernel/mm/pagecache_manage.c:931:0
	.cfi_startproc
// %bb.0:
	//DEBUG_VALUE: pch_timeout_timer:timer <- $x0
	stp	x29, x30, [sp, #-16]!           // 16-byte Folded Spill
	mov	x29, sp
	.cfi_def_cfa w29, 16
	.cfi_offset w30, -8
	.cfi_offset w29, -16
.Ltmp343:
	.loc	1 823 41 prologue_end           // kernel/mm/pagecache_manage.c:823:41
	adrp	x8, pch_info
	ldr	x8, [x8, :lo12:pch_info]
.Ltmp344:
	//DEBUG_VALUE: test_bit:nr <- 1
	//DEBUG_VALUE: test_bit:addr <- [DW_OP_plus_uconst 192, DW_OP_stack_value] $x8
	.loc	181 106 16                      // kernel/include/asm-generic/bitops/non-atomic.h:106:16
	ldr	x9, [x8, #192]
.Ltmp345:
	.loc	1 932 6                         // kernel/mm/pagecache_manage.c:932:6
	tbnz	w9, #1, .LBB9_2
.Ltmp346:
// %bb.1:
	//DEBUG_VALUE: pch_timeout_timer:timer <- $x0
	.loc	57 574 20                       // kernel/include/linux/workqueue.h:574:20
	adrp	x9, system_wq
	ldr	x1, [x9, :lo12:system_wq]
.Ltmp347:
	//DEBUG_VALUE: queue_work:work <- undef
	.loc	1 933 28                        // kernel/mm/pagecache_manage.c:933:28
	add	x2, x8, #112                    // =112
.Ltmp348:
	//DEBUG_VALUE: schedule_work:work <- $x2
	//DEBUG_VALUE: queue_work:wq <- $x1
	.loc	57 513 9                        // kernel/include/linux/workqueue.h:513:9
	mov	w0, #8
.Ltmp349:
	//DEBUG_VALUE: pch_timeout_timer:timer <- [DW_OP_LLVM_entry_value 1] $x0
	bl	queue_work_on
.Ltmp350:
.LBB9_2:
	.loc	1 934 1                         // kernel/mm/pagecache_manage.c:934:1
	ldp	x29, x30, [sp], #16             // 16-byte Folded Reload
	ret
.Ltmp351:
.Lfunc_end9:
	.size	pch_timeout_timer, .Lfunc_end9-pch_timeout_timer
	.cfi_endproc
                                        // -- End function
	.globl	mount_fs_register_pch           // -- Begin function mount_fs_register_pch
	.p2align	2
	.type	mount_fs_register_pch,@function
mount_fs_register_pch:                  // @mount_fs_register_pch
.Lfunc_begin10:
	.loc	1 970 0                         // kernel/mm/pagecache_manage.c:970:0
	.cfi_startproc
// %bb.0:
	//DEBUG_VALUE: mount_fs_register_pch:mnt <- $x0
	stp	x29, x30, [sp, #-16]!           // 16-byte Folded Spill
	mov	x29, sp
	.cfi_def_cfa w29, 16
	.cfi_offset w30, -8
	.cfi_offset w29, -16
.Ltmp352:
	.loc	1 975 7 prologue_end            // kernel/mm/pagecache_manage.c:975:7
	adrp	x8, pch_info
	ldr	x1, [x8, :lo12:pch_info]
.Ltmp353:
	//DEBUG_VALUE: mount_fs_register_pch:ret <- 0
	//DEBUG_VALUE: mount_fs_register_pch:sb <- undef
	//DEBUG_VALUE: mount_fs_register_pch:mnt <- $x0
	.loc	1 975 6 is_stmt 0               // kernel/mm/pagecache_manage.c:975:6
	cbz	x1, .LBB10_5
.Ltmp354:
// %bb.1:
	//DEBUG_VALUE: mount_fs_register_pch:mnt <- $x0
	//DEBUG_VALUE: mount_fs_register_pch:ret <- 0
	.loc	1 0 0                           // kernel/mm/pagecache_manage.c:0:0
	ldr	x8, [x0, #8]
.Ltmp355:
	//DEBUG_VALUE: mount_fs_register_pch:sb <- $x8
	mov	w10, #8208
	movk	w10, #62197, lsl #16
.Ltmp356:
	.loc	1 981 10 is_stmt 1              // kernel/mm/pagecache_manage.c:981:10
	ldr	x9, [x8, #96]
.Ltmp357:
	.loc	1 981 6 is_stmt 0               // kernel/mm/pagecache_manage.c:981:6
	cmp	x9, x10
	b.ne	.LBB10_7
.Ltmp358:
// %bb.2:
	//DEBUG_VALUE: mount_fs_register_pch:sb <- $x8
	//DEBUG_VALUE: mount_fs_register_pch:mnt <- $x0
	//DEBUG_VALUE: mount_fs_register_pch:ret <- 0
	.loc	1 124 20 is_stmt 1              // kernel/mm/pagecache_manage.c:124:20
	ldr	w9, [x1, #228]
.Ltmp359:
	.loc	1 982 7                         // kernel/mm/pagecache_manage.c:982:7
	tbnz	w9, #2, .LBB10_9
.Ltmp360:
// %bb.3:
	//DEBUG_VALUE: mount_fs_register_pch:sb <- $x8
	//DEBUG_VALUE: mount_fs_register_pch:mnt <- $x0
	//DEBUG_VALUE: mount_fs_register_pch:ret <- 0
	.loc	1 986 4                         // kernel/mm/pagecache_manage.c:986:4
	adrp	x8, g_pch_print_level
.Ltmp361:
	ldr	w8, [x8, :lo12:g_pch_print_level]
.Ltmp362:
	.loc	1 986 4 is_stmt 0               // kernel/mm/pagecache_manage.c:986:4
	cmp	w8, #2                          // =2
	b.hs	.LBB10_13
.Ltmp363:
.LBB10_4:
	.loc	1 1019 1 is_stmt 1              // kernel/mm/pagecache_manage.c:1019:1
	ldp	x29, x30, [sp], #16             // 16-byte Folded Reload
	ret
.LBB10_5:
.Ltmp364:
	//DEBUG_VALUE: mount_fs_register_pch:mnt <- $x0
	//DEBUG_VALUE: mount_fs_register_pch:ret <- 0
	.loc	1 976 3                         // kernel/mm/pagecache_manage.c:976:3
	adrp	x8, g_pch_print_level
	ldr	w8, [x8, :lo12:g_pch_print_level]
.Ltmp365:
	.loc	1 976 3 is_stmt 0               // kernel/mm/pagecache_manage.c:976:3
	cbz	w8, .LBB10_4
.Ltmp366:
// %bb.6:
	//DEBUG_VALUE: mount_fs_register_pch:mnt <- $x0
	//DEBUG_VALUE: mount_fs_register_pch:ret <- 0
	.loc	1 976 3                         // kernel/mm/pagecache_manage.c:976:3
	adrp	x0, .L.str.2
.Ltmp367:
	//DEBUG_VALUE: mount_fs_register_pch:mnt <- [DW_OP_LLVM_entry_value 1] $x0
	add	x0, x0, :lo12:.L.str.2
	b	.LBB10_14
.Ltmp368:
.LBB10_7:
	//DEBUG_VALUE: mount_fs_register_pch:sb <- $x8
	//DEBUG_VALUE: mount_fs_register_pch:mnt <- $x0
	//DEBUG_VALUE: mount_fs_register_pch:ret <- 0
	.loc	1 991 3 is_stmt 1               // kernel/mm/pagecache_manage.c:991:3
	adrp	x8, g_pch_print_level
.Ltmp369:
	ldr	w8, [x8, :lo12:g_pch_print_level]
.Ltmp370:
	.loc	1 991 3 is_stmt 0               // kernel/mm/pagecache_manage.c:991:3
	cmp	w8, #2                          // =2
	b.lo	.LBB10_4
.Ltmp371:
// %bb.8:
	//DEBUG_VALUE: mount_fs_register_pch:mnt <- $x0
	//DEBUG_VALUE: mount_fs_register_pch:ret <- 0
	.loc	1 991 3                         // kernel/mm/pagecache_manage.c:991:3
	adrp	x0, .L.str.4
.Ltmp372:
	//DEBUG_VALUE: mount_fs_register_pch:mnt <- [DW_OP_LLVM_entry_value 1] $x0
	add	x0, x0, :lo12:.L.str.4
	b	.LBB10_14
.Ltmp373:
.LBB10_9:
	//DEBUG_VALUE: mount_fs_register_pch:sb <- $x8
	//DEBUG_VALUE: mount_fs_register_pch:mnt <- $x0
	//DEBUG_VALUE: mount_fs_register_pch:ret <- 0
	.loc	1 997 17 is_stmt 1              // kernel/mm/pagecache_manage.c:997:17
	ldr	x10, [x1, #56]
.Ltmp374:
	.loc	1 139 26                        // kernel/mm/pagecache_manage.c:139:26
	and	w9, w9, #0xfffffffb
.Ltmp375:
	.loc	1 149 26                        // kernel/mm/pagecache_manage.c:149:26
	orr	w9, w9, #0x1
	str	w9, [x1, #228]
.Ltmp376:
	.loc	1 997 7                         // kernel/mm/pagecache_manage.c:997:7
	cbnz	x10, .LBB10_4
.Ltmp377:
// %bb.10:
	//DEBUG_VALUE: mount_fs_register_pch:sb <- $x8
	//DEBUG_VALUE: mount_fs_register_pch:mnt <- $x0
	//DEBUG_VALUE: mount_fs_register_pch:ret <- 0
	.loc	1 1000 12                       // kernel/mm/pagecache_manage.c:1000:12
	ldr	x0, [x8, #248]
.Ltmp378:
	//DEBUG_VALUE: mount_fs_register_pch:mnt <- [DW_OP_LLVM_entry_value 1] $x0
	.loc	1 1000 7 is_stmt 0              // kernel/mm/pagecache_manage.c:1000:7
	cbz	x0, .LBB10_4
.Ltmp379:
// %bb.11:
	//DEBUG_VALUE: mount_fs_register_pch:sb <- $x8
	//DEBUG_VALUE: mount_fs_register_pch:mnt <- [DW_OP_LLVM_entry_value 1] $x0
	//DEBUG_VALUE: mount_fs_register_pch:ret <- 0
	.loc	1 1012 3 is_stmt 1              // kernel/mm/pagecache_manage.c:1012:3
	adrp	x8, .L.str.5
.Ltmp380:
	add	x8, x8, :lo12:.L.str.5
	ldp	x9, x8, [x8]
	.loc	1 1005 42                       // kernel/mm/pagecache_manage.c:1005:42
	adrp	x10, pch_io_idle_notify_handler
	add	x10, x10, :lo12:pch_io_idle_notify_handler
	.loc	1 1003 18                       // kernel/mm/pagecache_manage.c:1003:18
	str	x0, [x1, #56]
	.loc	1 1005 42                       // kernel/mm/pagecache_manage.c:1005:42
	str	x10, [x1, #32]
	.loc	1 1012 3                        // kernel/mm/pagecache_manage.c:1012:3
	stp	x9, x8, [x1]
	.loc	1 1013 9                        // kernel/mm/pagecache_manage.c:1013:9
	bl	blk_busyidle_event_subscribe
.Ltmp381:
	//DEBUG_VALUE: mount_fs_register_pch:ret <- $w0
	.loc	1 1015 7                        // kernel/mm/pagecache_manage.c:1015:7
	cbz	w0, .LBB10_4
.Ltmp382:
// %bb.12:
	//DEBUG_VALUE: mount_fs_register_pch:ret <- $w0
	//DEBUG_VALUE: mount_fs_register_pch:mnt <- [DW_OP_LLVM_entry_value 1] $x0
	.loc	1 1016 4                        // kernel/mm/pagecache_manage.c:1016:4
	adrp	x0, .L.str.6
.Ltmp383:
	add	x0, x0, :lo12:.L.str.6
	b	.LBB10_14
.Ltmp384:
.LBB10_13:
	//DEBUG_VALUE: mount_fs_register_pch:mnt <- $x0
	//DEBUG_VALUE: mount_fs_register_pch:ret <- 0
	.loc	1 986 4                         // kernel/mm/pagecache_manage.c:986:4
	adrp	x0, .L.str.3
.Ltmp385:
	//DEBUG_VALUE: mount_fs_register_pch:mnt <- [DW_OP_LLVM_entry_value 1] $x0
	add	x0, x0, :lo12:.L.str.3
.Ltmp386:
.LBB10_14:
	//DEBUG_VALUE: mount_fs_register_pch:mnt <- [DW_OP_LLVM_entry_value 1] $x0
	.loc	1 0 0 is_stmt 0                 // kernel/mm/pagecache_manage.c:0:0
	adrp	x1, .L__func__.mount_fs_register_pch
	add	x1, x1, :lo12:.L__func__.mount_fs_register_pch
	bl	printk
.Ltmp387:
	.loc	1 1019 1 is_stmt 1              // kernel/mm/pagecache_manage.c:1019:1
	ldp	x29, x30, [sp], #16             // 16-byte Folded Reload
	ret
.Ltmp388:
.Lfunc_end10:
	.size	mount_fs_register_pch, .Lfunc_end10-mount_fs_register_pch
	.cfi_endproc
                                        // -- End function
	.p2align	2                               // -- Begin function pch_io_idle_notify_handler
	.type	pch_io_idle_notify_handler,@function
pch_io_idle_notify_handler:             // @pch_io_idle_notify_handler
.Lfunc_begin11:
	.loc	1 950 0                         // kernel/mm/pagecache_manage.c:950:0
	.cfi_startproc
// %bb.0:
	//DEBUG_VALUE: pch_io_idle_notify_handler:nb <- $x0
	//DEBUG_VALUE: pch_io_idle_notify_handler:state <- $w1
	//DEBUG_VALUE: pch_io_idle_notify_handler:state <- $w1
	stp	x29, x30, [sp, #-16]!           // 16-byte Folded Spill
	mov	x29, sp
	.cfi_def_cfa w29, 16
	.cfi_offset w30, -8
	.cfi_offset w29, -16
.Ltmp389:
	.loc	1 951 6 prologue_end            // kernel/mm/pagecache_manage.c:951:6
	cbz	w1, .LBB11_3
.Ltmp390:
// %bb.1:
	//DEBUG_VALUE: pch_io_idle_notify_handler:nb <- $x0
	//DEBUG_VALUE: pch_io_idle_notify_handler:state <- $w1
	cmp	w1, #1                          // =1
	b.ne	.LBB11_4
.Ltmp391:
// %bb.2:
	//DEBUG_VALUE: pch_io_idle_notify_handler:nb <- $x0
	//DEBUG_VALUE: pch_io_idle_notify_handler:state <- $w1
	.loc	1 952 14                        // kernel/mm/pagecache_manage.c:952:14
	adrp	x8, pch_info
	.loc	1 952 31 is_stmt 0              // kernel/mm/pagecache_manage.c:952:31
	adrp	x9, jiffies
	.loc	1 952 14                        // kernel/mm/pagecache_manage.c:952:14
	ldr	x8, [x8, :lo12:pch_info]
	.loc	1 952 31                        // kernel/mm/pagecache_manage.c:952:31
	ldr	x9, [x9, :lo12:jiffies]
	.loc	1 952 24                        // kernel/mm/pagecache_manage.c:952:24
	add	x0, x8, #64                     // =64
.Ltmp392:
	//DEBUG_VALUE: pch_io_idle_notify_handler:nb <- [DW_OP_LLVM_entry_value 1] $x0
	.loc	1 952 39                        // kernel/mm/pagecache_manage.c:952:39
	add	x1, x9, #1250                   // =1250
.Ltmp393:
	//DEBUG_VALUE: pch_io_idle_notify_handler:state <- [DW_OP_LLVM_entry_value 1] $w1
	.loc	1 952 3                         // kernel/mm/pagecache_manage.c:952:3
	bl	mod_timer
.Ltmp394:
	.loc	1 0 3                           // kernel/mm/pagecache_manage.c:0:3
	b	.LBB11_4
.Ltmp395:
.LBB11_3:
	//DEBUG_VALUE: pch_io_idle_notify_handler:nb <- $x0
	//DEBUG_VALUE: pch_io_idle_notify_handler:state <- $w1
	.loc	1 954 14 is_stmt 1              // kernel/mm/pagecache_manage.c:954:14
	adrp	x8, pch_info
	ldr	x8, [x8, :lo12:pch_info]
	.loc	1 954 24 is_stmt 0              // kernel/mm/pagecache_manage.c:954:24
	add	x0, x8, #64                     // =64
.Ltmp396:
	//DEBUG_VALUE: pch_io_idle_notify_handler:nb <- [DW_OP_LLVM_entry_value 1] $x0
	.loc	1 954 3                         // kernel/mm/pagecache_manage.c:954:3
	bl	del_timer
.Ltmp397:
	//DEBUG_VALUE: pch_io_idle_notify_handler:state <- [DW_OP_LLVM_entry_value 1] $w1
.LBB11_4:
	.loc	1 956 2 is_stmt 1               // kernel/mm/pagecache_manage.c:956:2
	mov	w0, wzr
	ldp	x29, x30, [sp], #16             // 16-byte Folded Reload
	ret
.Ltmp398:
.Lfunc_end11:
	.size	pch_io_idle_notify_handler, .Lfunc_end11-pch_io_idle_notify_handler
	.cfi_endproc
                                        // -- End function
	.globl	umounting_fs_register_pch       // -- Begin function umounting_fs_register_pch
	.p2align	2
	.type	umounting_fs_register_pch,@function
umounting_fs_register_pch:              // @umounting_fs_register_pch
.Lfunc_begin12:
	.loc	1 1031 0                        // kernel/mm/pagecache_manage.c:1031:0
	.cfi_startproc
// %bb.0:
	//DEBUG_VALUE: umounting_fs_register_pch:sb <- $x0
	stp	x29, x30, [sp, #-32]!           // 16-byte Folded Spill
	str	x19, [sp, #16]                  // 8-byte Folded Spill
	mov	x29, sp
	.cfi_def_cfa w29, 32
	.cfi_offset w19, -16
	.cfi_offset w30, -24
	.cfi_offset w29, -32
.Ltmp399:
	.loc	1 1035 7 prologue_end           // kernel/mm/pagecache_manage.c:1035:7
	adrp	x19, pch_info
	ldr	x8, [x19, :lo12:pch_info]
.Ltmp400:
	//DEBUG_VALUE: umounting_fs_register_pch:ret <- 0
	//DEBUG_VALUE: umounting_fs_register_pch:sb <- $x0
	.loc	1 1035 6 is_stmt 0              // kernel/mm/pagecache_manage.c:1035:6
	cbz	x8, .LBB12_5
.Ltmp401:
// %bb.1:
	//DEBUG_VALUE: umounting_fs_register_pch:sb <- $x0
	//DEBUG_VALUE: umounting_fs_register_pch:ret <- 0
	.loc	1 1042 10 is_stmt 1             // kernel/mm/pagecache_manage.c:1042:10
	ldr	x9, [x0, #96]
	mov	w10, #8208
	movk	w10, #62197, lsl #16
.Ltmp402:
	.loc	1 1042 6 is_stmt 0              // kernel/mm/pagecache_manage.c:1042:6
	cmp	x9, x10
	b.ne	.LBB12_7
.Ltmp403:
// %bb.2:
	//DEBUG_VALUE: umounting_fs_register_pch:sb <- $x0
	//DEBUG_VALUE: umounting_fs_register_pch:ret <- 0
	.loc	1 119 20 is_stmt 1              // kernel/mm/pagecache_manage.c:119:20
	ldr	w9, [x8, #228]
.Ltmp404:
	.loc	1 1043 7                        // kernel/mm/pagecache_manage.c:1043:7
	tbnz	w9, #0, .LBB12_10
.Ltmp405:
// %bb.3:
	//DEBUG_VALUE: umounting_fs_register_pch:sb <- $x0
	//DEBUG_VALUE: umounting_fs_register_pch:ret <- 0
	.loc	1 1062 4                        // kernel/mm/pagecache_manage.c:1062:4
	adrp	x8, g_pch_print_level
	ldr	w8, [x8, :lo12:g_pch_print_level]
.Ltmp406:
	.loc	1 1062 4 is_stmt 0              // kernel/mm/pagecache_manage.c:1062:4
	cmp	w8, #2                          // =2
	b.lo	.LBB12_13
.Ltmp407:
// %bb.4:
	//DEBUG_VALUE: umounting_fs_register_pch:sb <- $x0
	//DEBUG_VALUE: umounting_fs_register_pch:ret <- 0
	.loc	1 1062 4                        // kernel/mm/pagecache_manage.c:1062:4
	adrp	x0, .L.str.8
.Ltmp408:
	//DEBUG_VALUE: umounting_fs_register_pch:sb <- [DW_OP_LLVM_entry_value 1] $x0
	add	x0, x0, :lo12:.L.str.8
	b	.LBB12_9
.Ltmp409:
.LBB12_5:
	//DEBUG_VALUE: umounting_fs_register_pch:sb <- $x0
	//DEBUG_VALUE: umounting_fs_register_pch:ret <- 0
	.loc	1 1036 3 is_stmt 1              // kernel/mm/pagecache_manage.c:1036:3
	adrp	x8, g_pch_print_level
	ldr	w8, [x8, :lo12:g_pch_print_level]
.Ltmp410:
	.loc	1 1036 3 is_stmt 0              // kernel/mm/pagecache_manage.c:1036:3
	cbz	w8, .LBB12_13
.Ltmp411:
// %bb.6:
	//DEBUG_VALUE: umounting_fs_register_pch:sb <- $x0
	//DEBUG_VALUE: umounting_fs_register_pch:ret <- 0
	.loc	1 1036 3                        // kernel/mm/pagecache_manage.c:1036:3
	adrp	x0, .L.str.2
.Ltmp412:
	//DEBUG_VALUE: umounting_fs_register_pch:sb <- [DW_OP_LLVM_entry_value 1] $x0
	add	x0, x0, :lo12:.L.str.2
	b	.LBB12_9
.Ltmp413:
.LBB12_7:
	//DEBUG_VALUE: umounting_fs_register_pch:sb <- $x0
	//DEBUG_VALUE: umounting_fs_register_pch:ret <- 0
	.loc	1 1067 3 is_stmt 1              // kernel/mm/pagecache_manage.c:1067:3
	adrp	x8, g_pch_print_level
	ldr	w8, [x8, :lo12:g_pch_print_level]
.Ltmp414:
	.loc	1 1067 3 is_stmt 0              // kernel/mm/pagecache_manage.c:1067:3
	cmp	w8, #2                          // =2
	b.lo	.LBB12_13
.Ltmp415:
// %bb.8:
	//DEBUG_VALUE: umounting_fs_register_pch:sb <- $x0
	//DEBUG_VALUE: umounting_fs_register_pch:ret <- 0
	.loc	1 1067 3                        // kernel/mm/pagecache_manage.c:1067:3
	adrp	x0, .L.str.4
.Ltmp416:
	//DEBUG_VALUE: umounting_fs_register_pch:sb <- [DW_OP_LLVM_entry_value 1] $x0
	add	x0, x0, :lo12:.L.str.4
.Ltmp417:
.LBB12_9:
	//DEBUG_VALUE: umounting_fs_register_pch:sb <- [DW_OP_LLVM_entry_value 1] $x0
	//DEBUG_VALUE: umounting_fs_register_pch:ret <- 0
	.loc	1 0 0                           // kernel/mm/pagecache_manage.c:0:0
	adrp	x1, .L__func__.umounting_fs_register_pch
	add	x1, x1, :lo12:.L__func__.umounting_fs_register_pch
	bl	printk
.Ltmp418:
	b	.LBB12_13
.Ltmp419:
.LBB12_10:
	//DEBUG_VALUE: umounting_fs_register_pch:sb <- $x0
	//DEBUG_VALUE: umounting_fs_register_pch:ret <- 0
	.loc	1 1047 18 is_stmt 1             // kernel/mm/pagecache_manage.c:1047:18
	ldr	x10, [x8, #56]
.Ltmp420:
	.loc	1 134 26                        // kernel/mm/pagecache_manage.c:134:26
	and	w9, w9, #0xfffffffc
.Ltmp421:
	.loc	1 159 26                        // kernel/mm/pagecache_manage.c:159:26
	orr	w9, w9, #0x2
	str	w9, [x8, #228]
.Ltmp422:
	.loc	1 1047 8                        // kernel/mm/pagecache_manage.c:1047:8
	cbz	x10, .LBB12_13
.Ltmp423:
// %bb.11:
	//DEBUG_VALUE: umounting_fs_register_pch:sb <- $x0
	//DEBUG_VALUE: umounting_fs_register_pch:ret <- 0
	.loc	1 1048 31                       // kernel/mm/pagecache_manage.c:1048:31
	add	x0, x8, #64                     // =64
.Ltmp424:
	//DEBUG_VALUE: umounting_fs_register_pch:sb <- [DW_OP_LLVM_entry_value 1] $x0
	.loc	1 1048 5 is_stmt 0              // kernel/mm/pagecache_manage.c:1048:5
	bl	del_timer_sync
.Ltmp425:
	.loc	1 1049 17 is_stmt 1             // kernel/mm/pagecache_manage.c:1049:17
	ldr	x8, [x19, :lo12:pch_info]
	.loc	1 1049 27 is_stmt 0             // kernel/mm/pagecache_manage.c:1049:27
	add	x0, x8, #112                    // =112
	.loc	1 1049 5                        // kernel/mm/pagecache_manage.c:1049:5
	bl	flush_work
.Ltmp426:
	.loc	1 1051 11 is_stmt 1             // kernel/mm/pagecache_manage.c:1051:11
	ldr	x8, [x19, :lo12:pch_info]
	.loc	1 1051 21 is_stmt 0             // kernel/mm/pagecache_manage.c:1051:21
	add	x0, x8, #144                    // =144
	.loc	1 1051 5                        // kernel/mm/pagecache_manage.c:1051:5
	bl	down
.Ltmp427:
	.loc	1 1052 43 is_stmt 1             // kernel/mm/pagecache_manage.c:1052:43
	ldr	x0, [x19, :lo12:pch_info]
	.loc	1 1052 11 is_stmt 0             // kernel/mm/pagecache_manage.c:1052:11
	bl	blk_busyidle_event_unsubscribe
.Ltmp428:
	//DEBUG_VALUE: umounting_fs_register_pch:ret <- $w0
	.loc	1 1053 9 is_stmt 1              // kernel/mm/pagecache_manage.c:1053:9
	cbnz	w0, .LBB12_14
.Ltmp429:
.LBB12_12:
	//DEBUG_VALUE: umounting_fs_register_pch:sb <- [DW_OP_LLVM_entry_value 1] $x0
	.loc	1 0 0 is_stmt 0                 // kernel/mm/pagecache_manage.c:0:0
	ldr	x8, [x19, :lo12:pch_info]
	add	x0, x8, #144                    // =144
	bl	up
.Ltmp430:
.LBB12_13:
	.loc	1 1071 1 is_stmt 1              // kernel/mm/pagecache_manage.c:1071:1
	ldr	x19, [sp, #16]                  // 8-byte Folded Reload
	ldp	x29, x30, [sp], #32             // 16-byte Folded Reload
	ret
.LBB12_14:
.Ltmp431:
	//DEBUG_VALUE: umounting_fs_register_pch:ret <- $w0
	//DEBUG_VALUE: umounting_fs_register_pch:sb <- [DW_OP_LLVM_entry_value 1] $x0
	.loc	1 1054 6                        // kernel/mm/pagecache_manage.c:1054:6
	adrp	x0, .L.str.7
.Ltmp432:
	adrp	x1, .L__func__.umounting_fs_register_pch
	add	x0, x0, :lo12:.L.str.7
	add	x1, x1, :lo12:.L__func__.umounting_fs_register_pch
	bl	printk
.Ltmp433:
	.loc	1 0 6 is_stmt 0                 // kernel/mm/pagecache_manage.c:0:6
	b	.LBB12_12
.Ltmp434:
.Lfunc_end12:
	.size	umounting_fs_register_pch, .Lfunc_end12-umounting_fs_register_pch
	.cfi_endproc
                                        // -- End function
	.globl	umounted_fs_register_pch        // -- Begin function umounted_fs_register_pch
	.p2align	2
	.type	umounted_fs_register_pch,@function
umounted_fs_register_pch:               // @umounted_fs_register_pch
.Lfunc_begin13:
	.loc	1 1082 0 is_stmt 1              // kernel/mm/pagecache_manage.c:1082:0
	.cfi_startproc
// %bb.0:
	//DEBUG_VALUE: umounted_fs_register_pch:sb <- $x0
	//DEBUG_VALUE: umounted_fs_register_pch:sb <- $x0
	stp	x29, x30, [sp, #-16]!           // 16-byte Folded Spill
	mov	x29, sp
	.cfi_def_cfa w29, 16
	.cfi_offset w30, -8
	.cfi_offset w29, -16
.Ltmp435:
	.loc	1 1083 10 prologue_end          // kernel/mm/pagecache_manage.c:1083:10
	ldr	x8, [x0, #96]
	mov	w9, #8208
	movk	w9, #62197, lsl #16
.Ltmp436:
	.loc	1 1083 6 is_stmt 0              // kernel/mm/pagecache_manage.c:1083:6
	cmp	x8, x9
	b.ne	.LBB13_4
.Ltmp437:
// %bb.1:
	//DEBUG_VALUE: umounted_fs_register_pch:sb <- $x0
	.loc	1 129 10 is_stmt 1              // kernel/mm/pagecache_manage.c:129:10
	adrp	x8, pch_info
	ldr	x8, [x8, :lo12:pch_info]
	.loc	1 129 20 is_stmt 0              // kernel/mm/pagecache_manage.c:129:20
	ldr	w9, [x8, #228]
.Ltmp438:
	.loc	1 1084 7 is_stmt 1              // kernel/mm/pagecache_manage.c:1084:7
	tbnz	w9, #1, .LBB13_6
.Ltmp439:
// %bb.2:
	//DEBUG_VALUE: umounted_fs_register_pch:sb <- $x0
	.loc	1 1088 4                        // kernel/mm/pagecache_manage.c:1088:4
	adrp	x8, g_pch_print_level
	ldr	w8, [x8, :lo12:g_pch_print_level]
.Ltmp440:
	.loc	1 1088 4 is_stmt 0              // kernel/mm/pagecache_manage.c:1088:4
	cmp	w8, #2                          // =2
	b.hs	.LBB13_7
.Ltmp441:
.LBB13_3:
	//DEBUG_VALUE: umounted_fs_register_pch:sb <- $x0
	.loc	1 1097 1 is_stmt 1              // kernel/mm/pagecache_manage.c:1097:1
	ldp	x29, x30, [sp], #16             // 16-byte Folded Reload
	ret
.Ltmp442:
.LBB13_4:
	//DEBUG_VALUE: umounted_fs_register_pch:sb <- $x0
	.loc	1 1093 3                        // kernel/mm/pagecache_manage.c:1093:3
	adrp	x8, g_pch_print_level
	ldr	w8, [x8, :lo12:g_pch_print_level]
.Ltmp443:
	.loc	1 1093 3 is_stmt 0              // kernel/mm/pagecache_manage.c:1093:3
	cmp	w8, #2                          // =2
	b.lo	.LBB13_3
.Ltmp444:
// %bb.5:
	//DEBUG_VALUE: umounted_fs_register_pch:sb <- $x0
	.loc	1 1093 3                        // kernel/mm/pagecache_manage.c:1093:3
	adrp	x0, .L.str.4
.Ltmp445:
	//DEBUG_VALUE: umounted_fs_register_pch:sb <- [DW_OP_LLVM_entry_value 1] $x0
	add	x0, x0, :lo12:.L.str.4
	b	.LBB13_8
.Ltmp446:
.LBB13_6:
	//DEBUG_VALUE: umounted_fs_register_pch:sb <- $x0
	.loc	1 144 26 is_stmt 1              // kernel/mm/pagecache_manage.c:144:26
	and	w9, w9, #0xfffffff9
.Ltmp447:
	.loc	1 154 26                        // kernel/mm/pagecache_manage.c:154:26
	orr	w9, w9, #0x4
	str	w9, [x8, #228]
.Ltmp448:
	.loc	1 1097 1                        // kernel/mm/pagecache_manage.c:1097:1
	ldp	x29, x30, [sp], #16             // 16-byte Folded Reload
	ret
.Ltmp449:
.LBB13_7:
	//DEBUG_VALUE: umounted_fs_register_pch:sb <- $x0
	.loc	1 1088 4                        // kernel/mm/pagecache_manage.c:1088:4
	adrp	x0, .L.str.3
.Ltmp450:
	//DEBUG_VALUE: umounted_fs_register_pch:sb <- [DW_OP_LLVM_entry_value 1] $x0
	add	x0, x0, :lo12:.L.str.3
.Ltmp451:
.LBB13_8:
	//DEBUG_VALUE: umounted_fs_register_pch:sb <- [DW_OP_LLVM_entry_value 1] $x0
	.loc	1 0 0 is_stmt 0                 // kernel/mm/pagecache_manage.c:0:0
	adrp	x1, .L__func__.umounted_fs_register_pch
	add	x1, x1, :lo12:.L__func__.umounted_fs_register_pch
	bl	printk
.Ltmp452:
	.loc	1 1097 1 is_stmt 1              // kernel/mm/pagecache_manage.c:1097:1
	ldp	x29, x30, [sp], #16             // 16-byte Folded Reload
	ret
.Ltmp453:
.Lfunc_end13:
	.size	umounted_fs_register_pch, .Lfunc_end13-umounted_fs_register_pch
	.cfi_endproc
                                        // -- End function
	.globl	pch_emui_bootstat_proc_show     // -- Begin function pch_emui_bootstat_proc_show
	.p2align	2
	.type	pch_emui_bootstat_proc_show,@function
pch_emui_bootstat_proc_show:            // @pch_emui_bootstat_proc_show
.Lfunc_begin14:
	.loc	1 1136 0                        // kernel/mm/pagecache_manage.c:1136:0
	.cfi_startproc
// %bb.0:
	//DEBUG_VALUE: pch_emui_bootstat_proc_show:m <- $x0
	//DEBUG_VALUE: pch_emui_bootstat_proc_show:v <- $x1
	stp	x29, x30, [sp, #-16]!           // 16-byte Folded Spill
	mov	x29, sp
	.cfi_def_cfa w29, 16
	.cfi_offset w30, -8
	.cfi_offset w29, -16
.Ltmp454:
	.loc	1 1137 24 prologue_end          // kernel/mm/pagecache_manage.c:1137:24
	adrp	x8, pch_info
	ldr	x8, [x8, :lo12:pch_info]
	.loc	1 1137 2 is_stmt 0              // kernel/mm/pagecache_manage.c:1137:2
	adrp	x1, .L.str.9
.Ltmp455:
	//DEBUG_VALUE: pch_emui_bootstat_proc_show:v <- [DW_OP_LLVM_entry_value 1] $x1
	add	x1, x1, :lo12:.L.str.9
	//DEBUG_VALUE: pch_emui_bootstat_proc_show:m <- $x0
	.loc	1 1137 34                       // kernel/mm/pagecache_manage.c:1137:34
	ldr	w2, [x8, #200]
	//DEBUG_VALUE: pch_emui_bootstat_proc_show:m <- $x0
	.loc	1 1137 2                        // kernel/mm/pagecache_manage.c:1137:2
	bl	seq_printf
.Ltmp456:
	//DEBUG_VALUE: pch_emui_bootstat_proc_show:m <- [DW_OP_LLVM_entry_value 1] $x0
	.loc	1 1138 2 is_stmt 1              // kernel/mm/pagecache_manage.c:1138:2
	mov	w0, wzr
	ldp	x29, x30, [sp], #16             // 16-byte Folded Reload
	ret
.Ltmp457:
.Lfunc_end14:
	.size	pch_emui_bootstat_proc_show, .Lfunc_end14-pch_emui_bootstat_proc_show
	.cfi_endproc
                                        // -- End function
	.globl	pch_emui_bootstat_proc_open     // -- Begin function pch_emui_bootstat_proc_open
	.p2align	2
	.type	pch_emui_bootstat_proc_open,@function
pch_emui_bootstat_proc_open:            // @pch_emui_bootstat_proc_open
.Lfunc_begin15:
	.loc	1 1143 0                        // kernel/mm/pagecache_manage.c:1143:0
	.cfi_startproc
// %bb.0:
	//DEBUG_VALUE: pch_emui_bootstat_proc_open:p_inode <- $x0
	//DEBUG_VALUE: pch_emui_bootstat_proc_open:p_file <- $x1
	stp	x29, x30, [sp, #-16]!           // 16-byte Folded Spill
	mov	x29, sp
	.cfi_def_cfa w29, 16
	.cfi_offset w30, -8
	.cfi_offset w29, -16
	mov	x0, x1
.Ltmp458:
	//DEBUG_VALUE: pch_emui_bootstat_proc_open:p_inode <- [DW_OP_LLVM_entry_value 1] $x0
	//DEBUG_VALUE: pch_emui_bootstat_proc_open:p_file <- $x0
	.loc	1 1144 9 prologue_end           // kernel/mm/pagecache_manage.c:1144:9
	adrp	x1, __cfi_pch_emui_bootstat_proc_show
	add	x1, x1, :lo12:__cfi_pch_emui_bootstat_proc_show
	//DEBUG_VALUE: pch_emui_bootstat_proc_open:p_file <- $x0
	mov	x2, xzr
	bl	single_open
.Ltmp459:
	.loc	1 1144 2 is_stmt 0              // kernel/mm/pagecache_manage.c:1144:2
	ldp	x29, x30, [sp], #16             // 16-byte Folded Reload
	ret
.Ltmp460:
.Lfunc_end15:
	.size	pch_emui_bootstat_proc_open, .Lfunc_end15-pch_emui_bootstat_proc_open
	.cfi_endproc
                                        // -- End function
	.globl	pch_emui_bootstat_proc_write    // -- Begin function pch_emui_bootstat_proc_write
	.p2align	2
	.type	pch_emui_bootstat_proc_write,@function
pch_emui_bootstat_proc_write:           // @pch_emui_bootstat_proc_write
.Lfunc_begin16:
	.loc	1 1149 0 is_stmt 1              // kernel/mm/pagecache_manage.c:1149:0
	.cfi_startproc
// %bb.0:
	//DEBUG_VALUE: pch_emui_bootstat_proc_write:p_file <- $x0
	//DEBUG_VALUE: pch_emui_bootstat_proc_write:userbuf <- $x1
	//DEBUG_VALUE: pch_emui_bootstat_proc_write:count <- $x2
	//DEBUG_VALUE: pch_emui_bootstat_proc_write:ppos <- $x3
	sub	sp, sp, #48                     // =48
	stp	x29, x30, [sp, #16]             // 16-byte Folded Spill
	stp	x20, x19, [sp, #32]             // 16-byte Folded Spill
	add	x29, sp, #16                    // =16
	.cfi_def_cfa w29, 32
	.cfi_offset w19, -8
	.cfi_offset w20, -16
	.cfi_offset w30, -24
	.cfi_offset w29, -32
	mov	x0, #-1
.Ltmp461:
	//DEBUG_VALUE: pch_emui_bootstat_proc_write:p_file <- [DW_OP_LLVM_entry_value 1] $x0
	//DEBUG_VALUE: pch_emui_bootstat_proc_write:count <- $x2
	//DEBUG_VALUE: pch_emui_bootstat_proc_write:userbuf <- $x1
	.loc	1 1153 6 prologue_end           // kernel/mm/pagecache_manage.c:1153:6
	cbz	x1, .LBB16_10
.Ltmp462:
// %bb.1:
	//DEBUG_VALUE: pch_emui_bootstat_proc_write:ppos <- $x3
	//DEBUG_VALUE: pch_emui_bootstat_proc_write:count <- $x2
	//DEBUG_VALUE: pch_emui_bootstat_proc_write:userbuf <- $x1
	//DEBUG_VALUE: pch_emui_bootstat_proc_write:p_file <- [DW_OP_LLVM_entry_value 1] $x0
	.loc	1 0 6 is_stmt 0                 // kernel/mm/pagecache_manage.c:0:6
	mov	x19, x2
.Ltmp463:
	//DEBUG_VALUE: pch_emui_bootstat_proc_write:count <- $x19
	.loc	1 1153 6                        // kernel/mm/pagecache_manage.c:1153:6
	cbz	x2, .LBB16_10
.Ltmp464:
// %bb.2:
	//DEBUG_VALUE: pch_emui_bootstat_proc_write:count <- $x19
	//DEBUG_VALUE: pch_emui_bootstat_proc_write:ppos <- $x3
	//DEBUG_VALUE: pch_emui_bootstat_proc_write:userbuf <- $x1
	//DEBUG_VALUE: pch_emui_bootstat_proc_write:p_file <- [DW_OP_LLVM_entry_value 1] $x0
	.loc	1 0 0                           // kernel/mm/pagecache_manage.c:0:0
	adrp	x20, pch_info
	ldr	x8, [x20, :lo12:pch_info]
	ldr	w8, [x8, #200]
	.loc	1 1153 6                        // kernel/mm/pagecache_manage.c:1153:6
	cmp	w8, #1                          // =1
	b.eq	.LBB16_10
.Ltmp465:
// %bb.3:
	//DEBUG_VALUE: pch_emui_bootstat_proc_write:count <- $x19
	//DEBUG_VALUE: pch_emui_bootstat_proc_write:ppos <- $x3
	//DEBUG_VALUE: pch_emui_bootstat_proc_write:userbuf <- $x1
	//DEBUG_VALUE: pch_emui_bootstat_proc_write:p_file <- [DW_OP_LLVM_entry_value 1] $x0
	//DEBUG_VALUE: pch_emui_bootstat_proc_write:buf <- [DW_OP_constu 4, DW_OP_minus, DW_OP_deref] $fp
	//DEBUG_VALUE: copy_from_user:to <- [DW_OP_constu 4, DW_OP_minus, DW_OP_stack_value] $fp
	//DEBUG_VALUE: copy_from_user:from <- $x1
	//DEBUG_VALUE: copy_from_user:n <- 1
	//DEBUG_VALUE: _copy_from_user:to <- [DW_OP_constu 4, DW_OP_minus, DW_OP_stack_value] $fp
	//DEBUG_VALUE: _copy_from_user:from <- $x1
	//DEBUG_VALUE: _copy_from_user:n <- 1
	//DEBUG_VALUE: _copy_from_user:res <- 1
	//DEBUG_VALUE: __range_ok:addr <- $x1
	//DEBUG_VALUE: __range_ok:size <- 1
	.loc	173 19 2 is_stmt 1              // kernel/arch/arm64/include/asm/current.h:19:2
	//APP
	mrs	x8, SP_EL0
	//NO_APP
.Ltmp466:
	//DEBUG_VALUE: get_current:sp_el0 <- $x8
	//DEBUG_VALUE: get_current:sp_el0 <- $x8
	.file	184 "/mnt/disk/jenkins/ci/workspace/chipset_pipeline_release/opensource/component_code/vendor/huawei/extra/build/build_script/kirin_kernel_release" "kernel/arch/arm64/include/asm/uaccess.h"
	.loc	184 76 35                       // kernel/arch/arm64/include/asm/uaccess.h:76:35
	ldrb	w11, [x8, #46]
.Ltmp467:
	.loc	184 68 52                       // kernel/arch/arm64/include/asm/uaccess.h:68:52
	ldr	x10, [x8, #8]
.Ltmp468:
	//DEBUG_VALUE: __range_ok:limit <- $x10
	.loc	184 0 52 is_stmt 0              // kernel/arch/arm64/include/asm/uaccess.h:0:52
	lsl	x9, x1, #8
.Ltmp469:
	.loc	184 76 35 is_stmt 1             // kernel/arch/arm64/include/asm/uaccess.h:76:35
	tbnz	w11, #5, .LBB16_5
.Ltmp470:
// %bb.4:
	//DEBUG_VALUE: pch_emui_bootstat_proc_write:count <- $x19
	//DEBUG_VALUE: __range_ok:limit <- $x10
	//DEBUG_VALUE: pch_emui_bootstat_proc_write:ppos <- $x3
	//DEBUG_VALUE: __range_ok:addr <- $x1
	//DEBUG_VALUE: _copy_from_user:from <- $x1
	//DEBUG_VALUE: copy_from_user:from <- $x1
	//DEBUG_VALUE: pch_emui_bootstat_proc_write:userbuf <- $x1
	//DEBUG_VALUE: _copy_from_user:to <- [DW_OP_constu 4, DW_OP_minus, DW_OP_stack_value] $fp
	//DEBUG_VALUE: copy_from_user:to <- [DW_OP_constu 4, DW_OP_minus, DW_OP_stack_value] $fp
	//DEBUG_VALUE: pch_emui_bootstat_proc_write:buf <- [DW_OP_constu 4, DW_OP_minus, DW_OP_deref] $fp
	//DEBUG_VALUE: __range_ok:size <- 1
	//DEBUG_VALUE: _copy_from_user:res <- 1
	//DEBUG_VALUE: _copy_from_user:n <- 1
	//DEBUG_VALUE: copy_from_user:n <- 1
	//DEBUG_VALUE: pch_emui_bootstat_proc_write:p_file <- [DW_OP_LLVM_entry_value 1] $x0
	//DEBUG_VALUE: get_current:sp_el0 <- $x8
	//DEBUG_VALUE: test_ti_thread_flag:flag <- 26
	//DEBUG_VALUE: test_bit:nr <- 26
	//DEBUG_VALUE: test_bit:addr <- $x8
	.loc	181 106 16                      // kernel/include/asm-generic/bitops/non-atomic.h:106:16
	ldr	x12, [x8]
.Ltmp471:
	//DEBUG_VALUE: test_ti_thread_flag:ti <- $x8
	.loc	181 0 16 is_stmt 0              // kernel/include/asm-generic/bitops/non-atomic.h:0:16
	mov	x11, x1
.Ltmp472:
	.loc	184 75 6 is_stmt 1              // kernel/arch/arm64/include/asm/uaccess.h:75:6
	tbz	w12, #26, .LBB16_6
.Ltmp473:
.LBB16_5:
	//DEBUG_VALUE: pch_emui_bootstat_proc_write:count <- $x19
	//DEBUG_VALUE: __range_ok:limit <- $x10
	//DEBUG_VALUE: pch_emui_bootstat_proc_write:ppos <- $x3
	//DEBUG_VALUE: __range_ok:addr <- $x1
	//DEBUG_VALUE: _copy_from_user:from <- $x1
	//DEBUG_VALUE: copy_from_user:from <- $x1
	//DEBUG_VALUE: pch_emui_bootstat_proc_write:userbuf <- $x1
	//DEBUG_VALUE: _copy_from_user:to <- [DW_OP_constu 4, DW_OP_minus, DW_OP_stack_value] $fp
	//DEBUG_VALUE: copy_from_user:to <- [DW_OP_constu 4, DW_OP_minus, DW_OP_stack_value] $fp
	//DEBUG_VALUE: pch_emui_bootstat_proc_write:buf <- [DW_OP_constu 4, DW_OP_minus, DW_OP_deref] $fp
	//DEBUG_VALUE: __range_ok:size <- 1
	//DEBUG_VALUE: _copy_from_user:res <- 1
	//DEBUG_VALUE: _copy_from_user:n <- 1
	//DEBUG_VALUE: copy_from_user:n <- 1
	//DEBUG_VALUE: pch_emui_bootstat_proc_write:p_file <- [DW_OP_LLVM_entry_value 1] $x0
	//DEBUG_VALUE: __addr <- $x1
	//DEBUG_VALUE: sign_extend64:value <- $x1
	//DEBUG_VALUE: sign_extend64:index <- 55
	//DEBUG_VALUE: sign_extend64:shift <- 8
	.loc	184 77 10                       // kernel/arch/arm64/include/asm/uaccess.h:77:10
	and	x11, x1, x9, asr #8
.Ltmp474:
	//DEBUG_VALUE: __addr <- $x11
	//DEBUG_VALUE: __range_ok:addr <- undef
.LBB16_6:
	//DEBUG_VALUE: pch_emui_bootstat_proc_write:count <- $x19
	//DEBUG_VALUE: __range_ok:limit <- $x10
	//DEBUG_VALUE: pch_emui_bootstat_proc_write:ppos <- $x3
	//DEBUG_VALUE: _copy_from_user:from <- $x1
	//DEBUG_VALUE: copy_from_user:from <- $x1
	//DEBUG_VALUE: pch_emui_bootstat_proc_write:userbuf <- $x1
	//DEBUG_VALUE: _copy_from_user:to <- [DW_OP_constu 4, DW_OP_minus, DW_OP_stack_value] $fp
	//DEBUG_VALUE: copy_from_user:to <- [DW_OP_constu 4, DW_OP_minus, DW_OP_stack_value] $fp
	//DEBUG_VALUE: pch_emui_bootstat_proc_write:buf <- [DW_OP_constu 4, DW_OP_minus, DW_OP_deref] $fp
	//DEBUG_VALUE: __range_ok:size <- 1
	//DEBUG_VALUE: _copy_from_user:res <- 1
	//DEBUG_VALUE: _copy_from_user:n <- 1
	//DEBUG_VALUE: copy_from_user:n <- 1
	//DEBUG_VALUE: pch_emui_bootstat_proc_write:p_file <- [DW_OP_LLVM_entry_value 1] $x0
	//DEBUG_VALUE: __range_ok:addr <- $x11
	.loc	184 80 2                        // kernel/arch/arm64/include/asm/uaccess.h:80:2
	//APP
	adds	x11, x11, #1                    // =1
	csel	x10, xzr, x10, hi
	csinv	x11, x11, xzr, lo
	sbcs	xzr, x11, x10
	cset	x11, ls

	//NO_APP
.Ltmp475:
	//DEBUG_VALUE: __range_ok:ret <- $x11
	//DEBUG_VALUE: __range_ok:limit <- undef
	.file	185 "/mnt/disk/jenkins/ci/workspace/chipset_pipeline_release/opensource/component_code/vendor/huawei/extra/build/build_script/kirin_kernel_release" "kernel/include/linux/uaccess.h"
	.loc	185 157 6                       // kernel/include/linux/uaccess.h:157:6
	cbz	x11, .LBB16_12
.Ltmp476:
// %bb.7:
	//DEBUG_VALUE: pch_emui_bootstat_proc_write:count <- $x19
	//DEBUG_VALUE: pch_emui_bootstat_proc_write:ppos <- $x3
	//DEBUG_VALUE: _copy_from_user:from <- $x1
	//DEBUG_VALUE: copy_from_user:from <- $x1
	//DEBUG_VALUE: pch_emui_bootstat_proc_write:userbuf <- $x1
	//DEBUG_VALUE: _copy_from_user:to <- [DW_OP_constu 4, DW_OP_minus, DW_OP_stack_value] $fp
	//DEBUG_VALUE: copy_from_user:to <- [DW_OP_constu 4, DW_OP_minus, DW_OP_stack_value] $fp
	//DEBUG_VALUE: pch_emui_bootstat_proc_write:buf <- [DW_OP_constu 4, DW_OP_minus, DW_OP_deref] $fp
	//DEBUG_VALUE: _copy_from_user:res <- 1
	//DEBUG_VALUE: _copy_from_user:n <- 1
	//DEBUG_VALUE: copy_from_user:n <- 1
	//DEBUG_VALUE: pch_emui_bootstat_proc_write:p_file <- [DW_OP_LLVM_entry_value 1] $x0
	.loc	184 277 2                       // kernel/arch/arm64/include/asm/uaccess.h:277:2
	//APP
.Ltmp477:
	nop
.Ltmp478:
	.section	.altinstructions,"a",@progbits
.Ltmp479:
	.word	.Ltmp477-.Ltmp479
.Ltmp481:
	.word	.Ltmp480-.Ltmp481
	.hword	10
	.byte	.Ltmp478-.Ltmp477
	.byte	.Ltmp482-.Ltmp480
	.text

	.text	1
.Ltmp480:
	.inst	0xd500409f

.Ltmp482:
.Ltmp483:
.org (.Ltmp483-(.Ltmp482-.Ltmp480))+(.Ltmp478-.Ltmp477), 0
.Ltmp484:
.org (.Ltmp484-(.Ltmp478-.Ltmp477))+(.Ltmp482-.Ltmp480), 0
	.text


	//NO_APP
.Ltmp485:
	//DEBUG_VALUE: get_current:sp_el0 <- $x8
	//DEBUG_VALUE: __uaccess_mask_ptr:ptr <- $x1
	.loc	184 294 43                      // kernel/arch/arm64/include/asm/uaccess.h:294:43
	ldr	x10, [x8, #8]
.Ltmp486:
	//DEBUG_VALUE: sign_extend64:shift <- 8
	//DEBUG_VALUE: sign_extend64:index <- 55
	//DEBUG_VALUE: sign_extend64:value <- $x1
	//DEBUG_VALUE: __addr <- $x1
	.loc	184 295 9                       // kernel/arch/arm64/include/asm/uaccess.h:295:9
	and	x9, x1, x9, asr #8
.Ltmp487:
	//DEBUG_VALUE: __addr <- $x9
	.loc	184 290 2                       // kernel/arch/arm64/include/asm/uaccess.h:290:2
	//APP
	bics	xzr, x9, x10
	csel	x8, x1, xzr, eq

	//NO_APP
.Ltmp488:
	//DEBUG_VALUE: __uaccess_mask_ptr:safe_ptr <- $x8
	.loc	184 298 2                       // kernel/arch/arm64/include/asm/uaccess.h:298:2
	//APP
	csdb
	//NO_APP
.Ltmp489:
	.loc	185 159 9                       // kernel/include/linux/uaccess.h:159:9
	sub	x0, x29, #4                     // =4
	mov	w2, #1
	mov	x1, x8
.Ltmp490:
	//DEBUG_VALUE: pch_emui_bootstat_proc_write:userbuf <- [DW_OP_LLVM_entry_value 1] $x1
	bl	__arch_copy_from_user
.Ltmp491:
	//DEBUG_VALUE: pch_emui_bootstat_proc_write:ppos <- [DW_OP_LLVM_entry_value 1] $x3
	//DEBUG_VALUE: __acfu_ret <- $x0
	//DEBUG_VALUE: _copy_from_user:res <- $x0
	.loc	184 272 2                       // kernel/arch/arm64/include/asm/uaccess.h:272:2
	//APP
.Ltmp492:
	nop
.Ltmp493:
	.section	.altinstructions,"a",@progbits
.Ltmp494:
	.word	.Ltmp492-.Ltmp494
.Ltmp496:
	.word	.Ltmp495-.Ltmp496
	.hword	10
	.byte	.Ltmp493-.Ltmp492
	.byte	.Ltmp497-.Ltmp495
	.text

	.text	1
.Ltmp495:
	.inst	0xd500419f

.Ltmp497:
.Ltmp498:
.org (.Ltmp498-(.Ltmp497-.Ltmp495))+(.Ltmp493-.Ltmp492), 0
.Ltmp499:
.org (.Ltmp499-(.Ltmp493-.Ltmp492))+(.Ltmp497-.Ltmp495), 0
	.text


	//NO_APP
.Ltmp500:
	.loc	185 161 6                       // kernel/include/linux/uaccess.h:161:6
	cbnz	x0, .LBB16_13
.Ltmp501:
// %bb.8:
	//DEBUG_VALUE: pch_emui_bootstat_proc_write:count <- $x19
	//DEBUG_VALUE: pch_emui_bootstat_proc_write:buf <- [DW_OP_constu 4, DW_OP_minus, DW_OP_deref] $fp
	//DEBUG_VALUE: pch_emui_bootstat_proc_write:ppos <- [DW_OP_LLVM_entry_value 1] $x3
	//DEBUG_VALUE: pch_emui_bootstat_proc_write:userbuf <- [DW_OP_LLVM_entry_value 1] $x1
	//DEBUG_VALUE: pch_emui_bootstat_proc_write:p_file <- [DW_OP_LLVM_entry_value 1] $x0
	.loc	1 1165 13                       // kernel/mm/pagecache_manage.c:1165:13
	ldurb	w8, [x29, #-4]
.Ltmp502:
	//DEBUG_VALUE: pch_emui_bootstat_proc_write:getvalue <- [DW_OP_constu 48, DW_OP_minus, DW_OP_stack_value] $w8
	//DEBUG_VALUE: pch_emui_bootstat_proc_write:buf <- $w8
	.loc	1 1167 6                        // kernel/mm/pagecache_manage.c:1167:6
	cmp	w8, #49                         // =49
	b.ne	.LBB16_11
.Ltmp503:
// %bb.9:
	//DEBUG_VALUE: pch_emui_bootstat_proc_write:count <- $x19
	//DEBUG_VALUE: pch_emui_bootstat_proc_write:buf <- $w8
	//DEBUG_VALUE: pch_emui_bootstat_proc_write:getvalue <- [DW_OP_constu 48, DW_OP_minus, DW_OP_stack_value] $w8
	//DEBUG_VALUE: pch_emui_bootstat_proc_write:ppos <- [DW_OP_LLVM_entry_value 1] $x3
	//DEBUG_VALUE: pch_emui_bootstat_proc_write:userbuf <- [DW_OP_LLVM_entry_value 1] $x1
	//DEBUG_VALUE: pch_emui_bootstat_proc_write:p_file <- [DW_OP_LLVM_entry_value 1] $x0
	.loc	1 1172 2                        // kernel/mm/pagecache_manage.c:1172:2
	ldr	x8, [x20, :lo12:pch_info]
.Ltmp504:
	.loc	1 0 2 is_stmt 0                 // kernel/mm/pagecache_manage.c:0:2
	mov	w9, #1
	mov	x0, x19
	.loc	1 1172 24                       // kernel/mm/pagecache_manage.c:1172:24
	str	w9, [x8, #200]
.Ltmp505:
.LBB16_10:
	//DEBUG_VALUE: pch_emui_bootstat_proc_write:p_file <- [DW_OP_LLVM_entry_value 1] $x0
	.loc	1 1176 1 is_stmt 1              // kernel/mm/pagecache_manage.c:1176:1
	ldp	x20, x19, [sp, #32]             // 16-byte Folded Reload
	ldp	x29, x30, [sp, #16]             // 16-byte Folded Reload
	add	sp, sp, #48                     // =48
	ret
.Ltmp506:
.LBB16_11:
	//DEBUG_VALUE: pch_emui_bootstat_proc_write:count <- $x19
	//DEBUG_VALUE: pch_emui_bootstat_proc_write:buf <- $w8
	//DEBUG_VALUE: pch_emui_bootstat_proc_write:getvalue <- [DW_OP_constu 48, DW_OP_minus, DW_OP_stack_value] $w8
	//DEBUG_VALUE: pch_emui_bootstat_proc_write:ppos <- [DW_OP_LLVM_entry_value 1] $x3
	//DEBUG_VALUE: pch_emui_bootstat_proc_write:userbuf <- [DW_OP_LLVM_entry_value 1] $x1
	//DEBUG_VALUE: pch_emui_bootstat_proc_write:p_file <- [DW_OP_LLVM_entry_value 1] $x0
	.loc	1 1168 3                        // kernel/mm/pagecache_manage.c:1168:3
	adrp	x0, .L.str.10
	adrp	x1, .L__func__.pch_emui_bootstat_proc_write
	add	x0, x0, :lo12:.L.str.10
	add	x1, x1, :lo12:.L__func__.pch_emui_bootstat_proc_write
	bl	printk
.Ltmp507:
	.loc	1 0 3 is_stmt 0                 // kernel/mm/pagecache_manage.c:0:3
	mov	x0, #-1
	b	.LBB16_10
.Ltmp508:
.LBB16_12:
	//DEBUG_VALUE: pch_emui_bootstat_proc_write:count <- $x19
	//DEBUG_VALUE: __range_ok:ret <- $x11
	//DEBUG_VALUE: pch_emui_bootstat_proc_write:ppos <- $x3
	//DEBUG_VALUE: _copy_from_user:from <- $x1
	//DEBUG_VALUE: copy_from_user:from <- $x1
	//DEBUG_VALUE: pch_emui_bootstat_proc_write:userbuf <- $x1
	//DEBUG_VALUE: _copy_from_user:to <- [DW_OP_constu 4, DW_OP_minus, DW_OP_stack_value] $fp
	//DEBUG_VALUE: copy_from_user:to <- [DW_OP_constu 4, DW_OP_minus, DW_OP_stack_value] $fp
	//DEBUG_VALUE: pch_emui_bootstat_proc_write:buf <- [DW_OP_constu 4, DW_OP_minus, DW_OP_deref] $fp
	//DEBUG_VALUE: __range_ok:size <- 1
	//DEBUG_VALUE: _copy_from_user:res <- 1
	//DEBUG_VALUE: _copy_from_user:n <- 1
	//DEBUG_VALUE: copy_from_user:n <- 1
	//DEBUG_VALUE: pch_emui_bootstat_proc_write:p_file <- [DW_OP_LLVM_entry_value 1] $x0
	mov	w2, #1
	b	.LBB16_14
.Ltmp509:
.LBB16_13:
	//DEBUG_VALUE: pch_emui_bootstat_proc_write:count <- $x19
	//DEBUG_VALUE: _copy_from_user:res <- $x0
	//DEBUG_VALUE: __acfu_ret <- $x0
	//DEBUG_VALUE: _copy_from_user:to <- [DW_OP_constu 4, DW_OP_minus, DW_OP_stack_value] $fp
	//DEBUG_VALUE: copy_from_user:to <- [DW_OP_constu 4, DW_OP_minus, DW_OP_stack_value] $fp
	//DEBUG_VALUE: pch_emui_bootstat_proc_write:buf <- [DW_OP_constu 4, DW_OP_minus, DW_OP_deref] $fp
	//DEBUG_VALUE: pch_emui_bootstat_proc_write:ppos <- [DW_OP_LLVM_entry_value 1] $x3
	//DEBUG_VALUE: pch_emui_bootstat_proc_write:userbuf <- [DW_OP_LLVM_entry_value 1] $x1
	//DEBUG_VALUE: sign_extend64:index <- 55
	//DEBUG_VALUE: sign_extend64:shift <- 8
	//DEBUG_VALUE: _copy_from_user:n <- 1
	//DEBUG_VALUE: copy_from_user:n <- 1
	//DEBUG_VALUE: pch_emui_bootstat_proc_write:p_file <- [DW_OP_LLVM_entry_value 1] $x0
	mov	x2, x0
	//DEBUG_VALUE: _copy_from_user:res <- $x2
	//DEBUG_VALUE: __acfu_ret <- $x2
.Ltmp510:
.LBB16_14:
	//DEBUG_VALUE: pch_emui_bootstat_proc_write:count <- $x19
	//DEBUG_VALUE: _copy_from_user:to <- [DW_OP_constu 4, DW_OP_minus, DW_OP_stack_value] $fp
	//DEBUG_VALUE: copy_from_user:to <- [DW_OP_constu 4, DW_OP_minus, DW_OP_stack_value] $fp
	//DEBUG_VALUE: pch_emui_bootstat_proc_write:buf <- [DW_OP_constu 4, DW_OP_minus, DW_OP_deref] $fp
	//DEBUG_VALUE: _copy_from_user:n <- 1
	//DEBUG_VALUE: copy_from_user:n <- 1
	//DEBUG_VALUE: pch_emui_bootstat_proc_write:p_file <- [DW_OP_LLVM_entry_value 1] $x0
	//DEBUG_VALUE: copy_from_user:n <- $x2
	sub	x8, x29, #4                     // =4
.Ltmp511:
	.loc	185 162 13 is_stmt 1            // kernel/include/linux/uaccess.h:162:13
	sub	x8, x8, x2
	add	x0, x8, #1                      // =1
	.loc	185 162 3 is_stmt 0             // kernel/include/linux/uaccess.h:162:3
	mov	w1, wzr
	bl	memset
.Ltmp512:
	.loc	185 0 3                         // kernel/include/linux/uaccess.h:0:3
	mov	x0, #-1
.Ltmp513:
	//DEBUG_VALUE: copy_from_user:n <- undef
	b	.LBB16_10
.Ltmp514:
.Lfunc_end16:
	.size	pch_emui_bootstat_proc_write, .Lfunc_end16-pch_emui_bootstat_proc_write
	.cfi_endproc
	.file	186 "/mnt/disk/jenkins/ci/workspace/chipset_pipeline_release/opensource/component_code/vendor/huawei/extra/build/build_script/kirin_kernel_release" "kernel/include/linux/thread_info.h"
                                        // -- End function
	.section	.init.text,"ax",@progbits
	.globl	hisi_page_cache_manage_init     // -- Begin function hisi_page_cache_manage_init
	.p2align	2
	.type	hisi_page_cache_manage_init,@function
hisi_page_cache_manage_init:            // @hisi_page_cache_manage_init
.Lfunc_begin17:
	.loc	1 1207 0 is_stmt 1              // kernel/mm/pagecache_manage.c:1207:0
	.cfi_startproc
// %bb.0:
	stp	x29, x30, [sp, #-32]!           // 16-byte Folded Spill
	stp	x20, x19, [sp, #16]             // 16-byte Folded Spill
	mov	x29, sp
	.cfi_def_cfa w29, 32
	.cfi_offset w19, -8
	.cfi_offset w20, -16
	.cfi_offset w30, -24
	.cfi_offset w29, -32
.Ltmp515:
	//DEBUG_VALUE: hisi_page_cache_manage_init:ret <- 0
	.loc	1 1216 2 prologue_end           // kernel/mm/pagecache_manage.c:1216:2
	adrp	x19, g_pch_print_level
	ldr	w8, [x19, :lo12:g_pch_print_level]
.Ltmp516:
	.loc	1 1216 2 is_stmt 0              // kernel/mm/pagecache_manage.c:1216:2
	cmp	w8, #2                          // =2
	b.hs	.LBB17_11
.Ltmp517:
.LBB17_1:
	//DEBUG_VALUE: hisi_page_cache_manage_init:ret <- 0
	//DEBUG_VALUE: kzalloc:size <- 232
	//DEBUG_VALUE: kzalloc:flags <- 3264
	//DEBUG_VALUE: kmalloc:size <- 232
	//DEBUG_VALUE: kmalloc:flags <- 3520
	//DEBUG_VALUE: index <- 8
	.loc	170 566 5 is_stmt 1             // kernel/include/linux/slab.h:566:5
	adrp	x8, kmalloc_caches+64
	ldr	x0, [x8, :lo12:kmalloc_caches+64]
	.loc	170 565 10                      // kernel/include/linux/slab.h:565:10
	mov	w1, #3520
	mov	w2, #232
	bl	kmem_cache_alloc_trace
.Ltmp518:
	.loc	1 1218 11                       // kernel/mm/pagecache_manage.c:1218:11
	adrp	x20, pch_info
	str	x0, [x20, :lo12:pch_info]
	.loc	1 1219 6                        // kernel/mm/pagecache_manage.c:1219:6
	cbz	x0, .LBB17_5
.Ltmp519:
// %bb.2:
	//DEBUG_VALUE: hisi_page_cache_manage_init:ret <- 0
	.loc	1 0 6 is_stmt 0                 // kernel/mm/pagecache_manage.c:0:6
	mov	x9, #16
	mov	w8, #1
	movk	x9, #8, lsl #32
	.loc	1 1222 24 is_stmt 1             // kernel/mm/pagecache_manage.c:1222:24
	str	w8, [x0, #200]
	.loc	1 1224 31                       // kernel/mm/pagecache_manage.c:1224:31
	stp	x9, x8, [x0, #216]
	.loc	1 1227 21                       // kernel/mm/pagecache_manage.c:1227:21
	bl	get_bootdevice_type
.Ltmp520:
	//DEBUG_VALUE: hisi_page_cache_manage_init:boot_device_type <- $w0
	.loc	1 1228 6                        // kernel/mm/pagecache_manage.c:1228:6
	cbz	w0, .LBB17_6
.Ltmp521:
// %bb.3:
	//DEBUG_VALUE: hisi_page_cache_manage_init:boot_device_type <- $w0
	//DEBUG_VALUE: hisi_page_cache_manage_init:ret <- 0
	cmp	w0, #1                          // =1
	b.ne	.LBB17_14
.Ltmp522:
// %bb.4:
	//DEBUG_VALUE: hisi_page_cache_manage_init:boot_device_type <- $w0
	//DEBUG_VALUE: hisi_page_cache_manage_init:ret <- 0
	.loc	1 0 6 is_stmt 0                 // kernel/mm/pagecache_manage.c:0:6
	mov	w8, #16
	b	.LBB17_7
.Ltmp523:
.LBB17_5:
	//DEBUG_VALUE: index <- 8
	//DEBUG_VALUE: kmalloc:flags <- 3520
	//DEBUG_VALUE: kmalloc:size <- 232
	//DEBUG_VALUE: kzalloc:flags <- 3264
	//DEBUG_VALUE: kzalloc:size <- 232
	//DEBUG_VALUE: hisi_page_cache_manage_init:ret <- 0
	mov	w0, #-12
	b	.LBB17_10
.Ltmp524:
.LBB17_6:
	//DEBUG_VALUE: hisi_page_cache_manage_init:boot_device_type <- $w0
	//DEBUG_VALUE: hisi_page_cache_manage_init:ret <- 0
	mov	w8, #8
.Ltmp525:
.LBB17_7:
	//DEBUG_VALUE: hisi_page_cache_manage_init:boot_device_type <- $w0
	//DEBUG_VALUE: hisi_page_cache_manage_init:ret <- 0
	ldr	x9, [x20, :lo12:pch_info]
.Ltmp526:
	.loc	1 1188 7 is_stmt 1              // kernel/mm/pagecache_manage.c:1188:7
	mov	x1, xzr
.Ltmp527:
	.loc	1 0 0 is_stmt 0                 // kernel/mm/pagecache_manage.c:0:0
	str	w0, [x9, #204]
.Ltmp528:
	.loc	1 1188 7                        // kernel/mm/pagecache_manage.c:1188:7
	adrp	x0, .L.str.16
.Ltmp529:
	add	x0, x0, :lo12:.L.str.16
.Ltmp530:
	.loc	1 0 0                           // kernel/mm/pagecache_manage.c:0:0
	stp	w8, w8, [x9, #208]
.Ltmp531:
	.loc	1 1188 7                        // kernel/mm/pagecache_manage.c:1188:7
	bl	proc_mkdir
.Ltmp532:
	.loc	1 1188 6                        // kernel/mm/pagecache_manage.c:1188:6
	cbz	x0, .LBB17_12
.Ltmp533:
// %bb.8:
	//DEBUG_VALUE: hisi_page_cache_manage_init:ret <- 0
	.loc	1 1193 2 is_stmt 1              // kernel/mm/pagecache_manage.c:1193:2
	adrp	x0, .L.str.15
	adrp	x3, pch_emui_boot_done_fops
	add	x0, x0, :lo12:.L.str.15
	add	x3, x3, :lo12:pch_emui_boot_done_fops
	mov	w1, #432
	mov	x2, xzr
	bl	proc_create
.Ltmp534:
.LBB17_9:
	//DEBUG_VALUE: hisi_page_cache_manage_init:ret <- 0
	.loc	1 1285 2                        // kernel/mm/pagecache_manage.c:1285:2
	ldr	x8, [x20, :lo12:pch_info]
	adrp	x1, __cfi_pch_timeout_timer
	add	x1, x1, :lo12:__cfi_pch_timeout_timer
	mov	w2, wzr
	add	x0, x8, #64                     // =64
	mov	x3, xzr
	mov	x4, xzr
	bl	init_timer_key
.Ltmp535:
	.loc	1 1287 2                        // kernel/mm/pagecache_manage.c:1287:2
	ldr	x8, [x20, :lo12:pch_info]
	mov	x9, #68719476704
	adrp	x10, __cfi_pch_timeout_work
	add	x10, x10, :lo12:__cfi_pch_timeout_work
	str	x9, [x8, #112]
	add	x9, x8, #120                    // =120
.Ltmp536:
	//DEBUG_VALUE: INIT_LIST_HEAD:list <- $x9
	.loc	176 35 2                        // kernel/include/linux/list.h:35:2
	str	x9, [x8, #120]
.Ltmp537:
	.loc	176 36 13                       // kernel/include/linux/list.h:36:13
	stp	x9, x10, [x8, #128]
	mov	w9, #-1
.Ltmp538:
	//DEBUG_VALUE: sema_init:val <- 1
	//DEBUG_VALUE: sema_init:sem <- [DW_OP_plus_uconst 144, DW_OP_stack_value] $x8
	.loc	165 34 9                        // kernel/include/linux/semaphore.h:34:9
	str	w9, [x8, #152]
	mov	w9, #1
	str	w9, [x8, #168]
.Ltmp539:
	.loc	1 154 26                        // kernel/mm/pagecache_manage.c:154:26
	ldr	w9, [x8, #228]
	mov	x11, #86504936308736
	mov	x10, #-1
	movk	x11, #57005, lsl #48
.Ltmp540:
	.loc	165 34 9                        // kernel/include/linux/semaphore.h:34:9
	str	x10, [x8, #160]
	.loc	165 34 28 is_stmt 0             // kernel/include/linux/semaphore.h:34:28
	add	x10, x8, #176                   // =176
.Ltmp541:
	//DEBUG_VALUE: sema_init:val <- 1
	//DEBUG_VALUE: sema_init:sem <- [DW_OP_plus_uconst 144, DW_OP_stack_value] $x8
	.loc	1 154 26 is_stmt 1              // kernel/mm/pagecache_manage.c:154:26
	orr	w9, w9, #0x4
.Ltmp542:
	.loc	165 34 9                        // kernel/include/linux/semaphore.h:34:9
	str	x11, [x8, #144]
	stp	x10, x10, [x8, #176]
.Ltmp543:
	.loc	1 154 26                        // kernel/mm/pagecache_manage.c:154:26
	str	w9, [x8, #228]
.Ltmp544:
	.loc	1 1292 2                        // kernel/mm/pagecache_manage.c:1292:2
	ldr	w8, [x19, :lo12:g_pch_print_level]
.Ltmp545:
	.loc	1 0 0 is_stmt 0                 // kernel/mm/pagecache_manage.c:0:0
	mov	w0, wzr
.Ltmp546:
	.loc	1 1292 2                        // kernel/mm/pagecache_manage.c:1292:2
	cmp	w8, #2                          // =2
	b.hs	.LBB17_13
.Ltmp547:
.LBB17_10:
	.loc	1 1309 1 is_stmt 1              // kernel/mm/pagecache_manage.c:1309:1
	ldp	x20, x19, [sp, #16]             // 16-byte Folded Reload
	ldp	x29, x30, [sp], #32             // 16-byte Folded Reload
	ret
.LBB17_11:
.Ltmp548:
	//DEBUG_VALUE: hisi_page_cache_manage_init:ret <- 0
	.loc	1 1216 2                        // kernel/mm/pagecache_manage.c:1216:2
	adrp	x0, .L.str.11
	adrp	x1, .L__func__.hisi_page_cache_manage_init
	add	x0, x0, :lo12:.L.str.11
	add	x1, x1, :lo12:.L__func__.hisi_page_cache_manage_init
	bl	printk
.Ltmp549:
	.loc	1 0 2 is_stmt 0                 // kernel/mm/pagecache_manage.c:0:2
	b	.LBB17_1
.Ltmp550:
.LBB17_12:
	//DEBUG_VALUE: hisi_page_cache_manage_init:ret <- 0
	.loc	1 1189 3 is_stmt 1              // kernel/mm/pagecache_manage.c:1189:3
	adrp	x0, .L.str.22
	adrp	x1, .L__func__.pch_emui_boot_check_init
	add	x0, x0, :lo12:.L.str.22
	add	x1, x1, :lo12:.L__func__.pch_emui_boot_check_init
	bl	printk
.Ltmp551:
	.loc	1 0 3 is_stmt 0                 // kernel/mm/pagecache_manage.c:0:3
	b	.LBB17_9
.Ltmp552:
.LBB17_13:
	//DEBUG_VALUE: hisi_page_cache_manage_init:ret <- 0
	.loc	1 1292 2 is_stmt 1              // kernel/mm/pagecache_manage.c:1292:2
	adrp	x0, .L.str.13
	adrp	x1, .L__func__.hisi_page_cache_manage_init
	add	x0, x0, :lo12:.L.str.13
	add	x1, x1, :lo12:.L__func__.hisi_page_cache_manage_init
	bl	printk
.Ltmp553:
	.loc	1 0 0 is_stmt 0                 // kernel/mm/pagecache_manage.c:0:0
	mov	w0, wzr
	b	.LBB17_10
.Ltmp554:
.LBB17_14:
	//DEBUG_VALUE: hisi_page_cache_manage_init:boot_device_type <- $w0
	//DEBUG_VALUE: hisi_page_cache_manage_init:ret <- 0
	.loc	1 1237 3 is_stmt 1              // kernel/mm/pagecache_manage.c:1237:3
	adrp	x0, .L.str.12
.Ltmp555:
	adrp	x1, .L__func__.hisi_page_cache_manage_init
	add	x0, x0, :lo12:.L.str.12
	add	x1, x1, :lo12:.L__func__.hisi_page_cache_manage_init
	bl	printk
.Ltmp556:
	//DEBUG_LABEL: hisi_page_cache_manage_init:pch_kfree
	//DEBUG_VALUE: hisi_page_cache_manage_init:ret <- -1
	.loc	1 1305 8                        // kernel/mm/pagecache_manage.c:1305:8
	ldr	x0, [x20, :lo12:pch_info]
	.loc	1 1305 2 is_stmt 0              // kernel/mm/pagecache_manage.c:1305:2
	bl	kfree
.Ltmp557:
	.loc	1 1306 11 is_stmt 1             // kernel/mm/pagecache_manage.c:1306:11
	str	xzr, [x20, :lo12:pch_info]
	mov	w0, #-1
	b	.LBB17_10
.Ltmp558:
.Lfunc_end17:
	.size	hisi_page_cache_manage_init, .Lfunc_end17-hisi_page_cache_manage_init
	.cfi_endproc
                                        // -- End function
	.section	.exit.text,"ax",@progbits
	.globl	hisi_page_cache_manage_exit     // -- Begin function hisi_page_cache_manage_exit
	.p2align	2
	.type	hisi_page_cache_manage_exit,@function
hisi_page_cache_manage_exit:            // @hisi_page_cache_manage_exit
.Lfunc_begin18:
	.loc	1 1320 0                        // kernel/mm/pagecache_manage.c:1320:0
	.cfi_startproc
// %bb.0:
	stp	x29, x30, [sp, #-32]!           // 16-byte Folded Spill
	stp	x20, x19, [sp, #16]             // 16-byte Folded Spill
	mov	x29, sp
	.cfi_def_cfa w29, 32
	.cfi_offset w19, -8
	.cfi_offset w20, -16
	.cfi_offset w30, -24
	.cfi_offset w29, -32
.Ltmp559:
	.loc	1 1321 2 prologue_end           // kernel/mm/pagecache_manage.c:1321:2
	adrp	x19, g_pch_print_level
	ldr	w8, [x19, :lo12:g_pch_print_level]
.Ltmp560:
	.loc	1 1321 2 is_stmt 0              // kernel/mm/pagecache_manage.c:1321:2
	cmp	w8, #2                          // =2
	b.hs	.LBB18_3
.Ltmp561:
.LBB18_1:
	.loc	1 1323 2 is_stmt 1              // kernel/mm/pagecache_manage.c:1323:2
	adrp	x0, .L.str.15
	add	x0, x0, :lo12:.L.str.15
	mov	x1, xzr
	bl	remove_proc_entry
.Ltmp562:
	.loc	1 1324 2                        // kernel/mm/pagecache_manage.c:1324:2
	adrp	x0, .L.str.16
	add	x0, x0, :lo12:.L.str.16
	mov	x1, xzr
	bl	remove_proc_entry
.Ltmp563:
	.loc	1 1329 8                        // kernel/mm/pagecache_manage.c:1329:8
	adrp	x20, pch_info
	ldr	x0, [x20, :lo12:pch_info]
	.loc	1 1329 2 is_stmt 0              // kernel/mm/pagecache_manage.c:1329:2
	bl	kfree
.Ltmp564:
	.loc	1 1331 2 is_stmt 1              // kernel/mm/pagecache_manage.c:1331:2
	ldr	w8, [x19, :lo12:g_pch_print_level]
.Ltmp565:
	.loc	1 1330 11                       // kernel/mm/pagecache_manage.c:1330:11
	str	xzr, [x20, :lo12:pch_info]
.Ltmp566:
	.loc	1 1331 2                        // kernel/mm/pagecache_manage.c:1331:2
	cmp	w8, #2                          // =2
	b.hs	.LBB18_4
.Ltmp567:
.LBB18_2:
	.loc	1 1332 1                        // kernel/mm/pagecache_manage.c:1332:1
	ldp	x20, x19, [sp, #16]             // 16-byte Folded Reload
	ldp	x29, x30, [sp], #32             // 16-byte Folded Reload
	ret
.LBB18_3:
.Ltmp568:
	.loc	1 1321 2                        // kernel/mm/pagecache_manage.c:1321:2
	adrp	x0, .L.str.14
	adrp	x1, .L__func__.hisi_page_cache_manage_exit
	add	x0, x0, :lo12:.L.str.14
	add	x1, x1, :lo12:.L__func__.hisi_page_cache_manage_exit
	bl	printk
.Ltmp569:
	.loc	1 0 2 is_stmt 0                 // kernel/mm/pagecache_manage.c:0:2
	b	.LBB18_1
.Ltmp570:
.LBB18_4:
	.loc	1 1331 2 is_stmt 1              // kernel/mm/pagecache_manage.c:1331:2
	adrp	x0, .L.str.17
	adrp	x1, .L__func__.hisi_page_cache_manage_exit
	add	x0, x0, :lo12:.L.str.17
	add	x1, x1, :lo12:.L__func__.hisi_page_cache_manage_exit
	bl	printk
.Ltmp571:
	.loc	1 0 2 is_stmt 0                 // kernel/mm/pagecache_manage.c:0:2
	b	.LBB18_2
.Ltmp572:
.Lfunc_end18:
	.size	hisi_page_cache_manage_exit, .Lfunc_end18-hisi_page_cache_manage_exit
	.cfi_endproc
                                        // -- End function
	.type	g_pch_print_level,@object       // @g_pch_print_level
	.bss
	.globl	g_pch_print_level
	.p2align	2
g_pch_print_level:
	.word	0                               // 0x0
	.size	g_pch_print_level, 4

	.type	pch_info,@object                // @pch_info
	.local	pch_info
	.comm	pch_info,8,8
	.type	.L.str.1,@object                // @.str.1
	.section	.rodata.str1.1,"aMS",@progbits,1
.L.str.1:
	.asciz	"\0013%s: err userdata_state = %d.\n"
	.size	.L.str.1, 32

	.type	.L__func__.pch_timeout_work,@object // @__func__.pch_timeout_work
.L__func__.pch_timeout_work:
	.asciz	"pch_timeout_work"
	.size	.L__func__.pch_timeout_work, 17

	.type	.L.str.2,@object                // @.str.2
.L.str.2:
	.asciz	"\0013%s: lack of pch_info, return.\n"
	.size	.L.str.2, 33

	.type	.L__func__.mount_fs_register_pch,@object // @__func__.mount_fs_register_pch
.L__func__.mount_fs_register_pch:
	.asciz	"mount_fs_register_pch"
	.size	.L__func__.mount_fs_register_pch, 22

	.type	.L.str.3,@object                // @.str.3
.L.str.3:
	.asciz	"\0013%s: data remount, return.\n"
	.size	.L.str.3, 29

	.type	.L.str.4,@object                // @.str.4
.L.str.4:
	.asciz	"\0013%s: other partitions, return.\n"
	.size	.L.str.4, 33

	.type	.L.str.5,@object                // @.str.5
.L.str.5:
	.asciz	"pagecache_helper"
	.size	.L.str.5, 17

	.type	.L.str.6,@object                // @.str.6
.L.str.6:
	.asciz	"\0013%s: blk busy/idle init failed.\n"
	.size	.L.str.6, 34

	.type	.L__func__.umounting_fs_register_pch,@object // @__func__.umounting_fs_register_pch
.L__func__.umounting_fs_register_pch:
	.asciz	"umounting_fs_register_pch"
	.size	.L__func__.umounting_fs_register_pch, 26

	.type	.L.str.7,@object                // @.str.7
.L.str.7:
	.asciz	"\0013%s: blk busy/idle clear failed.\n"
	.size	.L.str.7, 35

	.type	.L.str.8,@object                // @.str.8
.L.str.8:
	.asciz	"\0013%s: data re-umount, return.\n"
	.size	.L.str.8, 31

	.type	.L__func__.umounted_fs_register_pch,@object // @__func__.umounted_fs_register_pch
.L__func__.umounted_fs_register_pch:
	.asciz	"umounted_fs_register_pch"
	.size	.L__func__.umounted_fs_register_pch, 25

	.type	.L.str.9,@object                // @.str.9
.L.str.9:
	.asciz	"%d\n"
	.size	.L.str.9, 4

	.type	.L.str.10,@object               // @.str.10
.L.str.10:
	.asciz	"\0013%s: input error.\n"
	.size	.L.str.10, 20

	.type	.L__func__.pch_emui_bootstat_proc_write,@object // @__func__.pch_emui_bootstat_proc_write
.L__func__.pch_emui_bootstat_proc_write:
	.asciz	"pch_emui_bootstat_proc_write"
	.size	.L__func__.pch_emui_bootstat_proc_write, 29

	.type	.L.str.11,@object               // @.str.11
.L.str.11:
	.asciz	"\0013%s: module init ++.\n"
	.size	.L.str.11, 23

	.type	.L__func__.hisi_page_cache_manage_init,@object // @__func__.hisi_page_cache_manage_init
.L__func__.hisi_page_cache_manage_init:
	.asciz	"hisi_page_cache_manage_init"
	.size	.L__func__.hisi_page_cache_manage_init, 28

	.type	.L.str.12,@object               // @.str.12
.L.str.12:
	.asciz	"\0013%s: device not supported.\n"
	.size	.L.str.12, 29

	.type	.L.str.13,@object               // @.str.13
.L.str.13:
	.asciz	"\0013%s: module init --.\n"
	.size	.L.str.13, 23

	.type	.L.str.14,@object               // @.str.14
.L.str.14:
	.asciz	"\0013%s: module exit ++.\n"
	.size	.L.str.14, 23

	.type	.L__func__.hisi_page_cache_manage_exit,@object // @__func__.hisi_page_cache_manage_exit
.L__func__.hisi_page_cache_manage_exit:
	.asciz	"hisi_page_cache_manage_exit"
	.size	.L__func__.hisi_page_cache_manage_exit, 28

	.type	.L.str.15,@object               // @.str.15
.L.str.15:
	.asciz	"pch_status/pch_enabled"
	.size	.L.str.15, 23

	.type	.L.str.16,@object               // @.str.16
.L.str.16:
	.asciz	"pch_status"
	.size	.L.str.16, 11

	.type	.L.str.17,@object               // @.str.17
.L.str.17:
	.asciz	"\0013%s: module exit --.\n"
	.size	.L.str.17, 23

	.type	__UNIQUE_ID___addressable___cfi_hisi_page_cache_manage_init427,@object // @__UNIQUE_ID___addressable___cfi_hisi_page_cache_manage_init427
	.section	.discard.addressable,"aw",@progbits
	.p2align	3
__UNIQUE_ID___addressable___cfi_hisi_page_cache_manage_init427:
	.xword	__cfi_hisi_page_cache_manage_init
	.size	__UNIQUE_ID___addressable___cfi_hisi_page_cache_manage_init427, 8

	.type	__exitcall___cfi_hisi_page_cache_manage_exit,@object // @__exitcall___cfi_hisi_page_cache_manage_exit
	.section	.exitcall.exit,"aw",@progbits
	.p2align	3
__exitcall___cfi_hisi_page_cache_manage_exit:
	.xword	__cfi_hisi_page_cache_manage_exit
	.size	__exitcall___cfi_hisi_page_cache_manage_exit, 8

	.type	__UNIQUE_ID_description428,@object // @__UNIQUE_ID_description428
	.section	.modinfo,"a",@progbits
__UNIQUE_ID_description428:
	.asciz	"pagecache_manage.description=Flash Friendly Page Cache Evo-System"
	.size	__UNIQUE_ID_description428, 66

	.type	__UNIQUE_ID_file429,@object     // @__UNIQUE_ID_file429
__UNIQUE_ID_file429:
	.asciz	"pagecache_manage.file=mm/pagecache_manage"
	.size	__UNIQUE_ID_file429, 42

	.type	__UNIQUE_ID_license430,@object  // @__UNIQUE_ID_license430
__UNIQUE_ID_license430:
	.asciz	"pagecache_manage.license=GPL"
	.size	__UNIQUE_ID_license430, 29

	.type	.L.str.20,@object               // @.str.20
	.section	.rodata.str1.1,"aMS",@progbits,1
.L.str.20:
	.asciz	"/data"
	.size	.L.str.20, 6

	.type	.L.str.22,@object               // @.str.22
.L.str.22:
	.asciz	"\0013%s: proc mk error.\n"
	.size	.L.str.22, 22

	.type	.L__func__.pch_emui_boot_check_init,@object // @__func__.pch_emui_boot_check_init
.L__func__.pch_emui_boot_check_init:
	.asciz	"pch_emui_boot_check_init"
	.size	.L__func__.pch_emui_boot_check_init, 25

	.type	pch_emui_boot_done_fops,@object // @pch_emui_boot_done_fops
	.section	.rodata,"a",@progbits
	.p2align	3
pch_emui_boot_done_fops:
	.word	0                               // 0x0
	.zero	4
	.xword	__cfi_pch_emui_bootstat_proc_open
	.xword	seq_read
	.xword	0
	.xword	__cfi_pch_emui_bootstat_proc_write
	.xword	seq_lseek
	.xword	single_release
	.xword	0
	.xword	0
	.xword	0
	.xword	0
	.xword	0
	.size	pch_emui_boot_done_fops, 96
