	.text
	.section	.note.gnu.property,"a",@note
	.p2align	3
	.word	4
	.word	16
	.word	5
	.asciz	"GNU"
	.word	3221225472
	.word	4
	.word	3
	.word	0
.Lsec_end0:
	.text
	.file	"mas_blk_flush.c"
                                        // Start of file scope inline assembly
	.section	.initcall6.init,"a",@progbits
__initcall__kmod_mas_blk_flush__429_282___cfi_mas_blk_flush_init6:
.Ltmp0:
	.word	__cfi_mas_blk_flush_init-.Ltmp0
	.text


                                        // End of file scope inline assembly
	.file	1 "/mnt/disk/jenkins/ci/workspace/chipset_pipeline_release/opensource/component_code/out/kernel-out/gki_kernel/common" "block/mas_blk_flush.c"
	.file	2 "/mnt/disk/jenkins/ci/workspace/chipset_pipeline_release/opensource/component_code/out/kernel-out/gki_kernel/common" "include/uapi/asm-generic/int-ll64.h"
	.file	3 "/mnt/disk/jenkins/ci/workspace/chipset_pipeline_release/opensource/component_code/out/kernel-out/gki_kernel/common" "include/asm-generic/int-ll64.h"
	.file	4 "/mnt/disk/jenkins/ci/workspace/chipset_pipeline_release/opensource/component_code/out/kernel-out/gki_kernel/common" "include/linux/types.h"
	.file	5 "/mnt/disk/jenkins/ci/workspace/chipset_pipeline_release/opensource/component_code/out/kernel-out/gki_kernel/common" "include/asm-generic/atomic-long.h"
	.file	6 "/mnt/disk/jenkins/ci/workspace/chipset_pipeline_release/opensource/component_code/out/kernel-out/gki_kernel/common" "include/linux/workqueue.h"
	.file	7 "/mnt/disk/jenkins/ci/workspace/chipset_pipeline_release/opensource/component_code/out/kernel-out/gki_kernel/common" "include/linux/timer.h"
	.file	8 "/mnt/disk/jenkins/ci/workspace/chipset_pipeline_release/opensource/component_code/out/kernel-out/gki_kernel/common" "include/linux/mutex.h"
	.file	9 "/mnt/disk/jenkins/ci/workspace/chipset_pipeline_release/opensource/component_code/out/kernel-out/gki_kernel/common" "include/asm-generic/qspinlock_types.h"
	.file	10 "/mnt/disk/jenkins/ci/workspace/chipset_pipeline_release/opensource/component_code/out/kernel-out/gki_kernel/common" "include/linux/spinlock_types.h"
	.file	11 "/mnt/disk/jenkins/ci/workspace/chipset_pipeline_release/opensource/component_code/out/kernel-out/gki_kernel/common" "include/linux/osq_lock.h"
	.file	12 "/mnt/disk/jenkins/ci/workspace/chipset_pipeline_release/opensource/component_code/out/kernel-out/gki_kernel/common" "include/linux/notifier.h"
	.file	13 "/mnt/disk/jenkins/ci/workspace/chipset_pipeline_release/opensource/component_code/out/kernel-out/gki_kernel/common" "include/linux/module.h"
	.file	14 "/mnt/disk/jenkins/ci/workspace/chipset_pipeline_release/opensource/component_code/out/kernel-out/gki_kernel/common" "include/linux/quota.h"
	.file	15 "/mnt/disk/jenkins/ci/workspace/chipset_pipeline_release/opensource/component_code/out/kernel-out/gki_kernel/common" "include/linux/migrate_mode.h"
	.file	16 "/mnt/disk/jenkins/ci/workspace/chipset_pipeline_release/opensource/component_code/out/kernel-out/gki_kernel/common" "include/linux/mm.h"
	.file	17 "/mnt/disk/jenkins/ci/workspace/chipset_pipeline_release/opensource/component_code/out/kernel-out/gki_kernel/common" "include/linux/restart_block.h"
	.file	18 "/mnt/disk/jenkins/ci/workspace/chipset_pipeline_release/opensource/component_code/out/kernel-out/gki_kernel/common" "include/linux/hrtimer.h"
	.file	19 "/mnt/disk/jenkins/ci/workspace/chipset_pipeline_release/opensource/component_code/out/kernel-out/gki_kernel/common" "include/linux/blkdev.h"
	.file	20 "/mnt/disk/jenkins/ci/workspace/chipset_pipeline_release/opensource/component_code/out/kernel-out/gki_kernel/common" "block/mas_blk.h"
	.file	21 "/mnt/disk/jenkins/ci/workspace/chipset_pipeline_release/opensource/component_code/out/kernel-out/gki_kernel/common" "include/linux/blk-crypto.h"
	.file	22 "/mnt/disk/jenkins/ci/workspace/chipset_pipeline_release/opensource/component_code/out/kernel-out/gki_kernel/common" "include/linux/elevator.h"
	.file	23 "/mnt/disk/jenkins/ci/workspace/chipset_pipeline_release/opensource/component_code/out/kernel-out/gki_kernel/common" "include/linux/backing-dev-defs.h"
	.file	24 "/mnt/disk/jenkins/ci/workspace/chipset_pipeline_release/opensource/component_code/out/kernel-out/gki_kernel/common" "include/linux/pm.h"
	.file	25 "/mnt/disk/jenkins/ci/workspace/chipset_pipeline_release/opensource/component_code/out/kernel-out/gki_kernel/common" "include/linux/uprobes.h"
	.file	26 "/mnt/disk/jenkins/ci/workspace/chipset_pipeline_release/opensource/component_code/out/kernel-out/gki_kernel/common" "include/linux/memremap.h"
	.file	27 "/mnt/disk/jenkins/ci/workspace/chipset_pipeline_release/opensource/component_code/out/kernel-out/gki_kernel/common" "include/linux/fs.h"
	.file	28 "/mnt/disk/jenkins/ci/workspace/chipset_pipeline_release/opensource/component_code/out/kernel-out/gki_kernel/common" "include/linux/pid.h"
	.file	29 "/mnt/disk/jenkins/ci/workspace/chipset_pipeline_release/opensource/component_code/out/kernel-out/gki_kernel/common" "include/linux/kobject_ns.h"
	.file	30 "/mnt/disk/jenkins/ci/workspace/chipset_pipeline_release/opensource/component_code/out/kernel-out/gki_kernel/common" "include/linux/device/driver.h"
	.file	31 "/mnt/disk/jenkins/ci/workspace/chipset_pipeline_release/opensource/component_code/out/kernel-out/gki_kernel/common" "include/linux/device.h"
	.file	32 "/mnt/disk/jenkins/ci/workspace/chipset_pipeline_release/opensource/component_code/out/kernel-out/gki_kernel/common" "include/linux/stddef.h"
	.file	33 "/mnt/disk/jenkins/ci/workspace/chipset_pipeline_release/opensource/component_code/out/kernel-out/gki_kernel/common" "include/linux/blk_types.h"
	.file	34 "/mnt/disk/jenkins/ci/workspace/chipset_pipeline_release/opensource/component_code/out/kernel-out/gki_kernel/common" "include/huawei_platform/comb_key/power_key_event.h"
	.file	35 "/mnt/disk/jenkins/ci/workspace/chipset_pipeline_release/opensource/component_code/out/kernel-out/gki_kernel/common" "include/linux/genhd.h"
	.file	36 "/mnt/disk/jenkins/ci/workspace/chipset_pipeline_release/opensource/component_code/out/kernel-out/gki_kernel/common" "include/linux/part_stat.h"
	.file	37 "/mnt/disk/jenkins/ci/workspace/chipset_pipeline_release/opensource/component_code/out/kernel-out/gki_kernel/common" "include/asm-generic/local.h"
	.file	38 "/mnt/disk/jenkins/ci/workspace/chipset_pipeline_release/opensource/component_code/out/kernel-out/gki_kernel/common" "include/linux/percpu-refcount.h"
	.file	39 "/mnt/disk/jenkins/ci/workspace/chipset_pipeline_release/opensource/component_code/out/kernel-out/gki_kernel/common" "include/linux/kobject.h"
	.file	40 "/mnt/disk/jenkins/ci/workspace/chipset_pipeline_release/opensource/component_code/out/kernel-out/gki_kernel/common" "include/uapi/asm-generic/posix_types.h"
	.file	41 "/mnt/disk/jenkins/ci/workspace/chipset_pipeline_release/opensource/component_code/out/kernel-out/gki_kernel/common" "include/linux/sysfs.h"
	.file	42 "/mnt/disk/jenkins/ci/workspace/chipset_pipeline_release/opensource/component_code/out/kernel-out/gki_kernel/common" "include/linux/llist.h"
	.file	43 "/mnt/disk/jenkins/ci/workspace/chipset_pipeline_release/opensource/component_code/out/kernel-out/gki_kernel/common" "include/linux/path.h"
	.file	44 "/mnt/disk/jenkins/ci/workspace/chipset_pipeline_release/opensource/component_code/out/kernel-out/gki_kernel/common" "include/linux/dcache.h"
	.file	45 "/mnt/disk/jenkins/ci/workspace/chipset_pipeline_release/opensource/component_code/out/kernel-out/gki_kernel/common" "include/linux/seqlock.h"
	.file	46 "/mnt/disk/jenkins/ci/workspace/chipset_pipeline_release/opensource/component_code/out/kernel-out/gki_kernel/common" "include/linux/list_bl.h"
	.file	47 "/mnt/disk/jenkins/ci/workspace/chipset_pipeline_release/opensource/component_code/out/kernel-out/gki_kernel/common" "include/linux/uidgid.h"
	.file	48 "/mnt/disk/jenkins/ci/workspace/chipset_pipeline_release/opensource/component_code/out/kernel-out/gki_kernel/common" "include/linux/delayed_call.h"
	.file	49 "/mnt/disk/jenkins/ci/workspace/chipset_pipeline_release/opensource/component_code/out/kernel-out/gki_kernel/common" "include/linux/time64.h"
	.file	50 "/mnt/disk/jenkins/ci/workspace/chipset_pipeline_release/opensource/component_code/out/kernel-out/gki_kernel/common" "include/linux/stat.h"
	.file	51 "/mnt/disk/jenkins/ci/workspace/chipset_pipeline_release/opensource/component_code/out/kernel-out/gki_kernel/common" "include/linux/completion.h"
	.file	52 "/mnt/disk/jenkins/ci/workspace/chipset_pipeline_release/opensource/component_code/out/kernel-out/gki_kernel/common" "include/linux/swait.h"
	.file	53 "/mnt/disk/jenkins/ci/workspace/chipset_pipeline_release/opensource/component_code/out/kernel-out/gki_kernel/common" "include/linux/export.h"
	.file	54 "/mnt/disk/jenkins/ci/workspace/chipset_pipeline_release/opensource/component_code/out/kernel-out/gki_kernel/common" "include/linux/moduleparam.h"
	.file	55 "/mnt/disk/jenkins/ci/workspace/chipset_pipeline_release/opensource/component_code/out/kernel-out/gki_kernel/common" "arch/arm64/include/asm/extable.h"
	.file	56 "/mnt/disk/jenkins/ci/workspace/chipset_pipeline_release/opensource/component_code/out/kernel-out/gki_kernel/common" "include/linux/rbtree.h"
	.file	57 "/mnt/disk/jenkins/ci/workspace/chipset_pipeline_release/opensource/component_code/out/kernel-out/gki_kernel/common" "include/linux/rbtree_latch.h"
	.file	58 "/mnt/disk/jenkins/ci/workspace/chipset_pipeline_release/opensource/component_code/out/kernel-out/gki_kernel/common" "arch/arm64/include/asm/module.h"
	.file	59 "/mnt/disk/jenkins/ci/workspace/chipset_pipeline_release/opensource/component_code/out/kernel-out/gki_kernel/common" "include/uapi/linux/types.h"
	.file	60 "/mnt/disk/jenkins/ci/workspace/chipset_pipeline_release/opensource/component_code/out/kernel-out/gki_kernel/common" "include/uapi/linux/elf.h"
	.file	61 "/mnt/disk/jenkins/ci/workspace/chipset_pipeline_release/opensource/component_code/out/kernel-out/gki_kernel/common" "include/asm-generic/bug.h"
	.file	62 "/mnt/disk/jenkins/ci/workspace/chipset_pipeline_release/opensource/component_code/out/kernel-out/gki_kernel/common" "include/linux/tracepoint-defs.h"
	.file	63 "/mnt/disk/jenkins/ci/workspace/chipset_pipeline_release/opensource/component_code/out/kernel-out/gki_kernel/common" "include/linux/srcutree.h"
	.file	64 "/mnt/disk/jenkins/ci/workspace/chipset_pipeline_release/opensource/component_code/out/kernel-out/gki_kernel/common" "include/linux/rcu_segcblist.h"
	.file	65 "/mnt/disk/jenkins/ci/workspace/chipset_pipeline_release/opensource/component_code/out/kernel-out/gki_kernel/common" "include/linux/jump_label.h"
	.file	66 "/mnt/disk/jenkins/ci/workspace/chipset_pipeline_release/opensource/component_code/out/kernel-out/gki_kernel/common" "include/linux/static_call.h"
	.file	67 "/mnt/disk/jenkins/ci/workspace/chipset_pipeline_release/opensource/component_code/out/kernel-out/gki_kernel/common" "include/linux/tracepoint.h"
	.file	68 "/mnt/disk/jenkins/ci/workspace/chipset_pipeline_release/opensource/component_code/out/kernel-out/gki_kernel/common" "include/asm-generic/error-injection.h"
	.file	69 "/mnt/disk/jenkins/ci/workspace/chipset_pipeline_release/opensource/component_code/out/kernel-out/gki_kernel/common" "include/linux/lockdep_types.h"
	.file	70 "/mnt/disk/jenkins/ci/workspace/chipset_pipeline_release/opensource/component_code/out/kernel-out/gki_kernel/common" "include/linux/projid.h"
	.file	71 "/mnt/disk/jenkins/ci/workspace/chipset_pipeline_release/opensource/component_code/out/kernel-out/gki_kernel/common" "include/linux/mm_types.h"
	.file	72 "/mnt/disk/jenkins/ci/workspace/chipset_pipeline_release/opensource/component_code/out/kernel-out/gki_kernel/common" "include/linux/xarray.h"
	.file	73 "/mnt/disk/jenkins/ci/workspace/chipset_pipeline_release/opensource/component_code/out/kernel-out/gki_kernel/common" "include/linux/rwsem.h"
	.file	74 "/mnt/disk/jenkins/ci/workspace/chipset_pipeline_release/opensource/component_code/out/kernel-out/gki_kernel/common" "include/linux/pagemap.h"
	.file	75 "/mnt/disk/jenkins/ci/workspace/chipset_pipeline_release/opensource/component_code/out/kernel-out/gki_kernel/common" "include/linux/wait.h"
	.file	76 "/mnt/disk/jenkins/ci/workspace/chipset_pipeline_release/opensource/component_code/out/kernel-out/gki_kernel/common" "include/linux/uio.h"
	.file	77 "/mnt/disk/jenkins/ci/workspace/chipset_pipeline_release/opensource/component_code/out/kernel-out/gki_kernel/common" "include/uapi/linux/uio.h"
	.file	78 "/mnt/disk/jenkins/ci/workspace/chipset_pipeline_release/opensource/component_code/out/kernel-out/gki_kernel/common" "include/linux/bvec.h"
	.file	79 "/mnt/disk/jenkins/ci/workspace/chipset_pipeline_release/opensource/component_code/out/kernel-out/gki_kernel/common" "include/linux/mmzone.h"
	.file	80 "/mnt/disk/jenkins/ci/workspace/chipset_pipeline_release/opensource/component_code/out/kernel-out/gki_kernel/common" "include/linux/errseq.h"
	.file	81 "/mnt/disk/jenkins/ci/workspace/chipset_pipeline_release/opensource/component_code/out/kernel-out/gki_kernel/common" "arch/arm64/include/asm/page.h"
	.file	82 "/mnt/disk/jenkins/ci/workspace/chipset_pipeline_release/opensource/component_code/out/kernel-out/gki_kernel/common" "arch/arm64/include/asm/pgtable-types.h"
	.file	83 "/mnt/disk/jenkins/ci/workspace/chipset_pipeline_release/opensource/component_code/out/kernel-out/gki_kernel/common" "include/asm-generic/pgtable-nop4d.h"
	.file	84 "/mnt/disk/jenkins/ci/workspace/chipset_pipeline_release/opensource/component_code/out/kernel-out/gki_kernel/common" "include/asm-generic/pgtable-nopud.h"
	.file	85 "/mnt/disk/jenkins/ci/workspace/chipset_pipeline_release/opensource/component_code/out/kernel-out/gki_kernel/common" "include/asm-generic/qrwlock_types.h"
	.file	86 "/mnt/disk/jenkins/ci/workspace/chipset_pipeline_release/opensource/component_code/out/kernel-out/gki_kernel/common" "include/linux/rwlock_types.h"
	.file	87 "/mnt/disk/jenkins/ci/workspace/chipset_pipeline_release/opensource/component_code/out/kernel-out/gki_kernel/common" "include/linux/mm_types_task.h"
	.file	88 "/mnt/disk/jenkins/ci/workspace/chipset_pipeline_release/opensource/component_code/out/kernel-out/gki_kernel/common" "arch/arm64/include/asm/mmu.h"
	.file	89 "/mnt/disk/jenkins/ci/workspace/chipset_pipeline_release/opensource/component_code/out/kernel-out/gki_kernel/common" "include/linux/refcount.h"
	.file	90 "/mnt/disk/jenkins/ci/workspace/chipset_pipeline_release/opensource/component_code/out/kernel-out/gki_kernel/common" "arch/arm64/include/asm/thread_info.h"
	.file	91 "/mnt/disk/jenkins/ci/workspace/chipset_pipeline_release/opensource/component_code/out/kernel-out/gki_kernel/common" "include/linux/sched.h"
	.file	92 "/mnt/disk/jenkins/ci/workspace/chipset_pipeline_release/opensource/component_code/out/kernel-out/gki_kernel/common" "include/linux/smp_types.h"
	.file	93 "/mnt/disk/jenkins/ci/workspace/chipset_pipeline_release/opensource/component_code/out/kernel-out/gki_kernel/common" "include/linux/cpumask.h"
	.file	94 "/mnt/disk/jenkins/ci/workspace/chipset_pipeline_release/opensource/component_code/out/kernel-out/gki_kernel/common" "include/linux/plist.h"
	.file	95 "/mnt/disk/jenkins/ci/workspace/chipset_pipeline_release/opensource/component_code/out/kernel-out/gki_kernel/common" "include/uapi/linux/time_types.h"
	.file	96 "/mnt/disk/jenkins/ci/workspace/chipset_pipeline_release/opensource/component_code/out/kernel-out/gki_kernel/common" "include/vdso/time32.h"
	.file	97 "/mnt/disk/jenkins/ci/workspace/chipset_pipeline_release/opensource/component_code/out/kernel-out/gki_kernel/common" "include/uapi/asm-generic/poll.h"
	.file	98 "/mnt/disk/jenkins/ci/workspace/chipset_pipeline_release/opensource/component_code/out/kernel-out/gki_kernel/common" "include/linux/kref.h"
	.file	99 "/mnt/disk/jenkins/ci/workspace/chipset_pipeline_release/opensource/component_code/out/kernel-out/gki_kernel/common" "include/linux/pid_namespace.h"
	.file	100 "/mnt/disk/jenkins/ci/workspace/chipset_pipeline_release/opensource/component_code/out/kernel-out/gki_kernel/common" "include/linux/idr.h"
	.file	101 "/mnt/disk/jenkins/ci/workspace/chipset_pipeline_release/opensource/component_code/out/kernel-out/gki_kernel/common" "include/linux/ns_common.h"
	.file	102 "/mnt/disk/jenkins/ci/workspace/chipset_pipeline_release/opensource/component_code/out/kernel-out/gki_kernel/common" "include/linux/posix-timers.h"
	.file	103 "/mnt/disk/jenkins/ci/workspace/chipset_pipeline_release/opensource/component_code/out/kernel-out/gki_kernel/common" "include/linux/timerqueue.h"
	.file	104 "/mnt/disk/jenkins/ci/workspace/chipset_pipeline_release/opensource/component_code/out/kernel-out/gki_kernel/common" "include/linux/cred.h"
	.file	105 "/mnt/disk/jenkins/ci/workspace/chipset_pipeline_release/opensource/component_code/out/kernel-out/gki_kernel/common" "include/linux/capability.h"
	.file	106 "/mnt/disk/jenkins/ci/workspace/chipset_pipeline_release/opensource/component_code/out/kernel-out/gki_kernel/common" "include/linux/key.h"
	.file	107 "/mnt/disk/jenkins/ci/workspace/chipset_pipeline_release/opensource/component_code/out/kernel-out/gki_kernel/common" "include/linux/assoc_array.h"
	.file	108 "/mnt/disk/jenkins/ci/workspace/chipset_pipeline_release/opensource/component_code/out/kernel-out/gki_kernel/common" "include/linux/sched/user.h"
	.file	109 "/mnt/disk/jenkins/ci/workspace/chipset_pipeline_release/opensource/component_code/out/kernel-out/gki_kernel/common" "include/linux/ratelimit_types.h"
	.file	110 "/mnt/disk/jenkins/ci/workspace/chipset_pipeline_release/opensource/component_code/out/kernel-out/gki_kernel/common" "include/linux/nsproxy.h"
	.file	111 "/mnt/disk/jenkins/ci/workspace/chipset_pipeline_release/opensource/component_code/out/kernel-out/gki_kernel/common" "include/linux/sched/signal.h"
	.file	112 "/mnt/disk/jenkins/ci/workspace/chipset_pipeline_release/opensource/component_code/out/kernel-out/gki_kernel/common" "include/linux/signal_types.h"
	.file	113 "/mnt/disk/jenkins/ci/workspace/chipset_pipeline_release/opensource/component_code/out/kernel-out/gki_kernel/common" "include/uapi/asm-generic/signal.h"
	.file	114 "/mnt/disk/jenkins/ci/workspace/chipset_pipeline_release/opensource/component_code/out/kernel-out/gki_kernel/common" "include/linux/ktime.h"
	.file	115 "/mnt/disk/jenkins/ci/workspace/chipset_pipeline_release/opensource/component_code/out/kernel-out/gki_kernel/common" "include/linux/task_io_accounting.h"
	.file	116 "/mnt/disk/jenkins/ci/workspace/chipset_pipeline_release/opensource/component_code/out/kernel-out/gki_kernel/common" "include/uapi/linux/resource.h"
	.file	117 "/mnt/disk/jenkins/ci/workspace/chipset_pipeline_release/opensource/component_code/out/kernel-out/gki_kernel/common" "include/uapi/asm-generic/signal-defs.h"
	.file	118 "/mnt/disk/jenkins/ci/workspace/chipset_pipeline_release/opensource/component_code/out/kernel-out/gki_kernel/common" "include/linux/seccomp.h"
	.file	119 "/mnt/disk/jenkins/ci/workspace/chipset_pipeline_release/opensource/component_code/out/kernel-out/gki_kernel/common" "include/linux/irqflags.h"
	.file	120 "/mnt/disk/jenkins/ci/workspace/chipset_pipeline_release/opensource/component_code/out/kernel-out/gki_kernel/common" "block/blk-mq.h"
	.file	121 "/mnt/disk/jenkins/ci/workspace/chipset_pipeline_release/opensource/component_code/out/kernel-out/gki_kernel/common" "include/linux/blk-mq.h"
	.file	122 "/mnt/disk/jenkins/ci/workspace/chipset_pipeline_release/opensource/component_code/out/kernel-out/gki_kernel/common" "block/blk.h"
	.file	123 "/mnt/disk/jenkins/ci/workspace/chipset_pipeline_release/opensource/component_code/out/kernel-out/gki_kernel/common" "include/linux/sbitmap.h"
	.file	124 "/mnt/disk/jenkins/ci/workspace/chipset_pipeline_release/opensource/component_code/out/kernel-out/gki_kernel/common" "block/blk-mq-tag.h"
	.file	125 "/mnt/disk/jenkins/ci/workspace/chipset_pipeline_release/opensource/component_code/out/kernel-out/gki_kernel/common" "include/linux/iocontext.h"
	.file	126 "/mnt/disk/jenkins/ci/workspace/chipset_pipeline_release/opensource/component_code/out/kernel-out/gki_kernel/common" "include/linux/smp.h"
	.file	127 "/mnt/disk/jenkins/ci/workspace/chipset_pipeline_release/opensource/component_code/out/kernel-out/gki_kernel/common" "include/linux/percpu_counter.h"
	.file	128 "/mnt/disk/jenkins/ci/workspace/chipset_pipeline_release/opensource/component_code/out/kernel-out/gki_kernel/common" "include/linux/flex_proportions.h"
	.file	129 "/mnt/disk/jenkins/ci/workspace/chipset_pipeline_release/opensource/component_code/out/kernel-out/gki_kernel/common" "block/blk-stat.h"
	.file	130 "/mnt/disk/jenkins/ci/workspace/chipset_pipeline_release/opensource/component_code/out/kernel-out/gki_kernel/common" "include/linux/bsg.h"
	.file	131 "/mnt/disk/jenkins/ci/workspace/chipset_pipeline_release/opensource/component_code/out/kernel-out/gki_kernel/common" "include/uapi/linux/bsg.h"
	.file	132 "/mnt/disk/jenkins/ci/workspace/chipset_pipeline_release/opensource/component_code/out/kernel-out/gki_kernel/common" "include/linux/bio.h"
	.file	133 "/mnt/disk/jenkins/ci/workspace/chipset_pipeline_release/opensource/component_code/out/kernel-out/gki_kernel/common" "include/linux/mempool.h"
	.file	134 "/mnt/disk/jenkins/ci/workspace/chipset_pipeline_release/opensource/component_code/out/kernel-out/gki_kernel/common" "include/uapi/asm-generic/siginfo.h"
	.file	135 "/mnt/disk/jenkins/ci/workspace/chipset_pipeline_release/opensource/component_code/out/kernel-out/gki_kernel/common" "include/linux/nodemask.h"
	.file	136 "/mnt/disk/jenkins/ci/workspace/chipset_pipeline_release/opensource/component_code/out/kernel-out/gki_kernel/common" "include/asm-generic/compat.h"
	.file	137 "/mnt/disk/jenkins/ci/workspace/chipset_pipeline_release/opensource/component_code/out/kernel-out/gki_kernel/common" "include/linux/compat.h"
	.file	138 "/mnt/disk/jenkins/ci/workspace/chipset_pipeline_release/opensource/component_code/out/kernel-out/gki_kernel/common" "arch/arm64/include/asm/uprobes.h"
	.file	139 "/mnt/disk/jenkins/ci/workspace/chipset_pipeline_release/opensource/component_code/out/kernel-out/gki_kernel/common" "arch/arm64/include/asm/processor.h"
	.file	140 "/mnt/disk/jenkins/ci/workspace/chipset_pipeline_release/opensource/component_code/out/kernel-out/gki_kernel/common" "arch/arm64/include/uapi/asm/ptrace.h"
	.file	141 "/mnt/disk/jenkins/ci/workspace/chipset_pipeline_release/opensource/component_code/out/kernel-out/gki_kernel/common" "arch/arm64/include/asm/pointer_auth.h"
	.file	142 "/mnt/disk/jenkins/ci/workspace/chipset_pipeline_release/opensource/component_code/out/kernel-out/gki_kernel/common" "include/linux/xreclaimer_types.h"
	.file	143 "/mnt/disk/jenkins/ci/workspace/chipset_pipeline_release/opensource/component_code/out/kernel-out/gki_kernel/common" "include/linux/range.h"
	.file	144 "/mnt/disk/jenkins/ci/workspace/chipset_pipeline_release/opensource/component_code/out/kernel-out/gki_kernel/common" "include/linux/shrinker.h"
	.file	145 "/mnt/disk/jenkins/ci/workspace/chipset_pipeline_release/opensource/component_code/out/kernel-out/gki_kernel/common" "include/linux/rcu_sync.h"
	.file	146 "/mnt/disk/jenkins/ci/workspace/chipset_pipeline_release/opensource/component_code/out/kernel-out/gki_kernel/common" "include/linux/percpu-rwsem.h"
	.file	147 "/mnt/disk/jenkins/ci/workspace/chipset_pipeline_release/opensource/component_code/out/kernel-out/gki_kernel/common" "include/linux/rcuwait.h"
	.file	148 "/mnt/disk/jenkins/ci/workspace/chipset_pipeline_release/opensource/component_code/out/kernel-out/gki_kernel/common" "include/linux/uuid.h"
	.file	149 "/mnt/disk/jenkins/ci/workspace/chipset_pipeline_release/opensource/component_code/out/kernel-out/gki_kernel/common" "include/linux/list_lru.h"
	.file	150 "/mnt/disk/jenkins/ci/workspace/chipset_pipeline_release/opensource/component_code/out/kernel-out/gki_kernel/common" "include/linux/poll.h"
	.file	151 "/mnt/disk/jenkins/ci/workspace/chipset_pipeline_release/opensource/component_code/out/kernel-out/gki_kernel/common" "include/linux/nfs_fs_i.h"
	.file	152 "/mnt/disk/jenkins/ci/workspace/chipset_pipeline_release/opensource/component_code/out/kernel-out/gki_kernel/common" "include/linux/lockref.h"
	.file	153 "/mnt/disk/jenkins/ci/workspace/chipset_pipeline_release/opensource/component_code/out/kernel-out/gki_kernel/common" "include/linux/kernfs.h"
	.file	154 "/mnt/disk/jenkins/ci/workspace/chipset_pipeline_release/opensource/component_code/out/kernel-out/gki_kernel/common" "include/linux/device/bus.h"
	.file	155 "/mnt/disk/jenkins/ci/workspace/chipset_pipeline_release/opensource/component_code/out/kernel-out/gki_kernel/common" "include/linux/pm_wakeup.h"
	.file	156 "/mnt/disk/jenkins/ci/workspace/chipset_pipeline_release/opensource/component_code/out/kernel-out/gki_kernel/common" "include/linux/energy_model.h"
	.file	157 "/mnt/disk/jenkins/ci/workspace/chipset_pipeline_release/opensource/component_code/out/kernel-out/gki_kernel/common" "arch/arm64/include/asm/device.h"
	.file	158 "/mnt/disk/jenkins/ci/workspace/chipset_pipeline_release/opensource/component_code/out/kernel-out/gki_kernel/common" "include/linux/fwnode.h"
	.file	159 "/mnt/disk/jenkins/ci/workspace/chipset_pipeline_release/opensource/component_code/out/kernel-out/gki_kernel/common" "include/linux/device/class.h"
	.file	160 "/mnt/disk/jenkins/ci/workspace/chipset_pipeline_release/opensource/component_code/out/kernel-out/gki_kernel/common" "include/uapi/linux/blkzoned.h"
	.globl	mas_blk_flush_work_fn           // -- Begin function mas_blk_flush_work_fn
	.p2align	2
	.type	mas_blk_flush_work_fn,@function
mas_blk_flush_work_fn:                  // @mas_blk_flush_work_fn
.Lfunc_begin0:
	.loc	1 42 0                          // block/mas_blk_flush.c:42:0
	.cfi_sections .debug_frame
	.cfi_startproc
// %bb.0:
	//DEBUG_VALUE: mas_blk_flush_work_fn:work <- $x0
	//DEBUG_VALUE: mas_blk_flush_work_fn:work <- $x0
	hint	#25
	.cfi_negate_ra_state
	str	x30, [x18], #8
	stp	x29, x30, [sp, #-32]!           // 16-byte Folded Spill
	str	x19, [sp, #16]                  // 8-byte Folded Spill
	mov	x29, sp
	.cfi_def_cfa w29, 32
	.cfi_offset w19, -16
	.cfi_offset w30, -24
	.cfi_offset w29, -32
.Ltmp1:
	//DEBUG_VALUE: __mptr <- $x0
	//DEBUG_VALUE: __mptr <- 0
	//DEBUG_VALUE: mas_blk_flush_work_fn:member <- [DW_OP_constu 24, DW_OP_minus, DW_OP_stack_value] $x0
	//DEBUG_VALUE: mas_blk_flush_work_fn:q <- [DW_OP_constu 24, DW_OP_minus, DW_OP_constu 1240, DW_OP_minus, DW_OP_stack_value] $x0
	//DEBUG_VALUE: mas_blk_flush_work_fn:bdev <- 0
	.loc	1 47 54 prologue_end            // block/mas_blk_flush.c:47:54
	ldur	x0, [x0, #-24]
.Ltmp2:
	//DEBUG_VALUE: mas_blk_flush_work_fn:work <- [DW_OP_LLVM_entry_value 1] $x0
	.loc	1 47 30 is_stmt 0               // block/mas_blk_flush.c:47:30
	mov	w1, wzr
	bl	bdget_disk
.Ltmp3:
	//DEBUG_VALUE: mas_blk_flush_work_fn:bdev <- $x0
	.loc	1 49 6 is_stmt 1                // block/mas_blk_flush.c:49:6
	cbz	x0, .LBB0_4
.Ltmp4:
// %bb.1:
	//DEBUG_VALUE: mas_blk_flush_work_fn:bdev <- $x0
	//DEBUG_VALUE: mas_blk_flush_work_fn:work <- [DW_OP_LLVM_entry_value 1] $x0
	.loc	1 50 13                         // block/mas_blk_flush.c:50:13
	mov	w1, #2
	mov	x2, xzr
.Ltmp5:
	.loc	1 0 0 is_stmt 0                 // block/mas_blk_flush.c:0:0
	mov	x19, x0
.Ltmp6:
	//DEBUG_VALUE: mas_blk_flush_work_fn:bdev <- $x19
	//DEBUG_VALUE: ret <- 0
	.loc	1 50 13                         // block/mas_blk_flush.c:50:13
	bl	blkdev_get
.Ltmp7:
	//DEBUG_VALUE: ret <- $w0
	.loc	1 51 7 is_stmt 1                // block/mas_blk_flush.c:51:7
	cbnz	w0, .LBB0_5
.Ltmp8:
// %bb.2:
	//DEBUG_VALUE: mas_blk_flush_work_fn:bdev <- $x19
	//DEBUG_VALUE: ret <- $w0
	//DEBUG_VALUE: mas_blk_flush_work_fn:work <- [DW_OP_LLVM_entry_value 1] $x0
	.loc	1 56 9                          // block/mas_blk_flush.c:56:9
	mov	w1, #3264
	mov	x0, x19
.Ltmp9:
	bl	blkdev_issue_flush
.Ltmp10:
	//DEBUG_VALUE: ret <- $w0
	.loc	1 60 7                          // block/mas_blk_flush.c:60:7
	cbnz	w0, .LBB0_6
.Ltmp11:
.LBB0_3:
	//DEBUG_VALUE: mas_blk_flush_work_fn:bdev <- $x19
	//DEBUG_VALUE: mas_blk_flush_work_fn:work <- [DW_OP_LLVM_entry_value 1] $x0
	.loc	1 62 3                          // block/mas_blk_flush.c:62:3
	mov	w1, #2
	mov	x0, x19
	bl	blkdev_put
.Ltmp12:
.LBB0_4:
	//DEBUG_VALUE: mas_blk_flush_work_fn:work <- [DW_OP_LLVM_entry_value 1] $x0
	.loc	1 0 3 is_stmt 0                 // block/mas_blk_flush.c:0:3
	ldr	x19, [sp, #16]                  // 8-byte Folded Reload
	ldp	x29, x30, [sp], #32             // 16-byte Folded Reload
	ldr	x30, [x18, #-8]!
	hint	#29
	ret
.Ltmp13:
.LBB0_5:
	//DEBUG_VALUE: mas_blk_flush_work_fn:bdev <- $x19
	//DEBUG_VALUE: ret <- $w0
	//DEBUG_VALUE: mas_blk_flush_work_fn:work <- [DW_OP_LLVM_entry_value 1] $x0
	.loc	1 52 4 is_stmt 1                // block/mas_blk_flush.c:52:4
	adrp	x0, .L.str
.Ltmp14:
	adrp	x1, .L__func__.mas_blk_flush_work_fn
	add	x0, x0, :lo12:.L.str
	add	x1, x1, :lo12:.L__func__.mas_blk_flush_work_fn
	bl	printk
.Ltmp15:
	.loc	1 0 4 is_stmt 0                 // block/mas_blk_flush.c:0:4
	b	.LBB0_4
.Ltmp16:
.LBB0_6:
	//DEBUG_VALUE: mas_blk_flush_work_fn:bdev <- $x19
	//DEBUG_VALUE: ret <- $w0
	//DEBUG_VALUE: mas_blk_flush_work_fn:work <- [DW_OP_LLVM_entry_value 1] $x0
	.loc	1 61 4 is_stmt 1                // block/mas_blk_flush.c:61:4
	adrp	x0, .L.str.1
.Ltmp17:
	adrp	x1, .L__func__.mas_blk_flush_work_fn
	add	x0, x0, :lo12:.L.str.1
	add	x1, x1, :lo12:.L__func__.mas_blk_flush_work_fn
	bl	printk
.Ltmp18:
	.loc	1 0 4 is_stmt 0                 // block/mas_blk_flush.c:0:4
	b	.LBB0_3
.Ltmp19:
.Lfunc_end0:
	.size	mas_blk_flush_work_fn, .Lfunc_end0-mas_blk_flush_work_fn
	.cfi_endproc
	.file	161 "/mnt/disk/jenkins/ci/workspace/chipset_pipeline_release/opensource/component_code/out/kernel-out/gki_kernel/common" "include/linux/printk.h"
                                        // -- End function
	.globl	mas_blk_flush_async_dispatch    // -- Begin function mas_blk_flush_async_dispatch
	.p2align	2
	.type	mas_blk_flush_async_dispatch,@function
mas_blk_flush_async_dispatch:           // @mas_blk_flush_async_dispatch
.Lfunc_begin1:
	.loc	1 71 0 is_stmt 1                // block/mas_blk_flush.c:71:0
	.cfi_startproc
// %bb.0:
	//DEBUG_VALUE: mas_blk_flush_async_dispatch:q <- $x0
	//DEBUG_VALUE: mas_blk_flush_async_dispatch:q <- $x0
	//DEBUG_VALUE: mas_blk_flush_async_dispatch:bio <- $x1
	hint	#25
	.cfi_negate_ra_state
	str	x30, [x18], #8
	stp	x29, x30, [sp, #-32]!           // 16-byte Folded Spill
	str	x19, [sp, #16]                  // 8-byte Folded Spill
	mov	x29, sp
	.cfi_def_cfa w29, 32
	.cfi_offset w19, -16
	.cfi_offset w30, -24
	.cfi_offset w29, -32
.Ltmp20:
	//DEBUG_VALUE: mas_blk_flush_async_dispatch:mas_queue <- [DW_OP_plus_uconst 1240, DW_OP_stack_value] $x0
	//DEBUG_VALUE: mas_blk_flush_async_dispatch:mas_queue <- 0
	.loc	1 77 38 prologue_end            // block/mas_blk_flush.c:77:38
	ldr	w8, [x0, #1432]
.Ltmp21:
	//DEBUG_VALUE: mas_blk_flush_async_dispatch:bio <- $x1
	.loc	1 77 6 is_stmt 0                // block/mas_blk_flush.c:77:6
	cbz	w8, .LBB1_5
.Ltmp22:
// %bb.1:
	//DEBUG_VALUE: mas_blk_flush_async_dispatch:bio <- $x1
	//DEBUG_VALUE: mas_blk_flush_async_dispatch:q <- $x0
	//DEBUG_VALUE: mas_blk_flush_async_dispatch:mas_queue <- 0
	.loc	1 80 33 is_stmt 1               // block/mas_blk_flush.c:80:33
	ldr	w8, [x1, #16]
	.loc	1 80 68 is_stmt 0               // block/mas_blk_flush.c:80:68
	tbz	w8, #18, .LBB1_3
.Ltmp23:
// %bb.2:
	//DEBUG_VALUE: mas_blk_flush_async_dispatch:bio <- $x1
	//DEBUG_VALUE: mas_blk_flush_async_dispatch:q <- $x0
	//DEBUG_VALUE: mas_blk_flush_async_dispatch:mas_queue <- 0
	.loc	1 80 84                         // block/mas_blk_flush.c:80:84
	ldr	w9, [x1, #40]
.Ltmp24:
	.loc	1 80 6                          // block/mas_blk_flush.c:80:6
	cbz	w9, .LBB1_7
.Ltmp25:
.LBB1_3:                                // %.critedge
	//DEBUG_VALUE: mas_blk_flush_async_dispatch:bio <- $x1
	//DEBUG_VALUE: mas_blk_flush_async_dispatch:q <- $x0
	//DEBUG_VALUE: mas_blk_flush_async_dispatch:mas_queue <- 0
	//DEBUG_LABEL: mas_blk_flush_async_dispatch:out
	.loc	1 112 21 is_stmt 1              // block/mas_blk_flush.c:112:21
	and	w8, w8, #0xff
.Ltmp26:
	.loc	1 112 6 is_stmt 0               // block/mas_blk_flush.c:112:6
	cmp	w8, #1                          // =1
	b.ne	.LBB1_5
.Ltmp27:
// %bb.4:
	//DEBUG_VALUE: mas_blk_flush_async_dispatch:bio <- $x1
	//DEBUG_VALUE: mas_blk_flush_async_dispatch:q <- $x0
	//DEBUG_VALUE: mas_blk_flush_async_dispatch:mas_queue <- 0
	//DEBUG_VALUE: atomic_inc:v <- [DW_OP_plus_uconst 1404, DW_OP_stack_value] $x0
	//DEBUG_VALUE: arch_atomic_inc:v <- [DW_OP_plus_uconst 1404, DW_OP_stack_value] $x0
	//DEBUG_VALUE: arch_atomic_add:i <- 1
	//DEBUG_VALUE: arch_atomic_add:v <- [DW_OP_plus_uconst 1404, DW_OP_stack_value] $x0
	//DEBUG_VALUE: __ll_sc_atomic_add:i <- 1
	//DEBUG_VALUE: __ll_sc_atomic_add:v <- [DW_OP_plus_uconst 1404, DW_OP_stack_value] $x0
	//DEBUG_VALUE: __ll_sc_atomic_add:tmp <- 0
	//DEBUG_VALUE: __ll_sc_atomic_add:result <- 0
	.file	162 "/mnt/disk/jenkins/ci/workspace/chipset_pipeline_release/opensource/component_code/out/kernel-out/gki_kernel/common" "arch/arm64/include/asm/atomic_ll_sc.h"
	.loc	162 111 387 is_stmt 1           // arch/arm64/include/asm/atomic_ll_sc.h:111:387
	add	x8, x0, #1404                   // =1404
	.loc	162 111 196 is_stmt 0           // arch/arm64/include/asm/atomic_ll_sc.h:111:196
	//APP
	// atomic_add
	prfm	pstl1strm, [x8]
.Ltmp28:
	ldxr	w9, [x8]
	add	w9, w9, #1                      // =1
	stxr	w10, w9, [x8]
	cbnz	w10, .Ltmp28

	//NO_APP
.Ltmp29:
	//DEBUG_VALUE: __ll_sc_atomic_add:result <- undef
	//DEBUG_VALUE: __ll_sc_atomic_add:tmp <- undef
.LBB1_5:
	//DEBUG_VALUE: mas_blk_flush_async_dispatch:bio <- $x1
	//DEBUG_VALUE: mas_blk_flush_async_dispatch:q <- $x0
	//DEBUG_VALUE: mas_blk_flush_async_dispatch:mas_queue <- 0
	.loc	1 0 0                           // block/mas_blk_flush.c:0:0
	mov	w0, wzr
.Ltmp30:
	//DEBUG_VALUE: mas_blk_flush_async_dispatch:q <- [DW_OP_LLVM_entry_value 1] $x0
.LBB1_6:
	//DEBUG_VALUE: mas_blk_flush_async_dispatch:q <- [DW_OP_LLVM_entry_value 1] $x0
	//DEBUG_VALUE: mas_blk_flush_async_dispatch:mas_queue <- 0
	.loc	1 116 1 is_stmt 1               // block/mas_blk_flush.c:116:1
	ldr	x19, [sp, #16]                  // 8-byte Folded Reload
	ldp	x29, x30, [sp], #32             // 16-byte Folded Reload
	ldr	x30, [x18, #-8]!
	hint	#29
	ret
.Ltmp31:
.LBB1_7:
	//DEBUG_VALUE: mas_blk_flush_async_dispatch:bio <- $x1
	//DEBUG_VALUE: mas_blk_flush_async_dispatch:q <- $x0
	//DEBUG_VALUE: mas_blk_flush_async_dispatch:mas_queue <- 0
	.loc	1 89 19                         // block/mas_blk_flush.c:89:19
	ldrb	w9, [x1, #130]
.Ltmp32:
	.loc	1 89 6 is_stmt 0                // block/mas_blk_flush.c:89:6
	cbz	w9, .LBB1_9
.Ltmp33:
// %bb.8:
	//DEBUG_VALUE: mas_blk_flush_async_dispatch:bio <- $x1
	//DEBUG_VALUE: mas_blk_flush_async_dispatch:q <- $x0
	//DEBUG_VALUE: mas_blk_flush_async_dispatch:mas_queue <- 0
	.loc	1 90 35 is_stmt 1               // block/mas_blk_flush.c:90:35
	add	x19, x0, #1264                  // =1264
	.loc	1 90 3 is_stmt 0                // block/mas_blk_flush.c:90:3
	mov	x0, x19
.Ltmp34:
	//DEBUG_VALUE: mas_blk_flush_async_dispatch:q <- [DW_OP_LLVM_entry_value 1] $x0
	bl	cancel_delayed_work
.Ltmp35:
	//DEBUG_VALUE: mas_blk_flush_async_dispatch:bio <- [DW_OP_LLVM_entry_value 1] $x1
	.loc	1 91 22 is_stmt 1               // block/mas_blk_flush.c:91:22
	adrp	x8, blk_async_flush_workqueue
	ldr	x1, [x8, :lo12:blk_async_flush_workqueue]
.Ltmp36:
	//DEBUG_VALUE: queue_delayed_work:dwork <- $x19
	//DEBUG_VALUE: queue_delayed_work:delay <- 5
	//DEBUG_VALUE: queue_delayed_work:wq <- $x1
	.loc	6 528 9                         // include/linux/workqueue.h:528:9
	mov	w0, #8
	mov	w3, #5
	mov	x2, x19
	bl	queue_delayed_work_on
.Ltmp37:
	.loc	6 0 9 is_stmt 0                 // include/linux/workqueue.h:0:9
	mov	w0, #1
	b	.LBB1_6
.Ltmp38:
.LBB1_9:
	//DEBUG_VALUE: mas_blk_flush_async_dispatch:bio <- $x1
	//DEBUG_VALUE: mas_blk_flush_async_dispatch:q <- $x0
	//DEBUG_VALUE: mas_blk_flush_async_dispatch:mas_queue <- 0
	//DEBUG_VALUE: atomic_read:v <- [DW_OP_plus_uconst 1404, DW_OP_stack_value] $x0
	.file	163 "/mnt/disk/jenkins/ci/workspace/chipset_pipeline_release/opensource/component_code/out/kernel-out/gki_kernel/common" "include/asm-generic/atomic-instrumented.h"
	.loc	163 28 10 is_stmt 1             // include/asm-generic/atomic-instrumented.h:28:10
	ldr	w9, [x0, #1404]
.Ltmp39:
	.loc	1 100 6                         // block/mas_blk_flush.c:100:6
	cbnz	w9, .LBB1_3
.Ltmp40:
// %bb.10:
	//DEBUG_VALUE: mas_blk_flush_async_dispatch:bio <- $x1
	//DEBUG_VALUE: atomic_read:v <- [DW_OP_plus_uconst 1404, DW_OP_stack_value] $x0
	//DEBUG_VALUE: mas_blk_flush_async_dispatch:q <- $x0
	//DEBUG_VALUE: mas_blk_flush_async_dispatch:mas_queue <- 0
	.loc	1 0 6 is_stmt 0                 // block/mas_blk_flush.c:0:6
	mov	w0, #1
.Ltmp41:
	//DEBUG_VALUE: mas_blk_flush_async_dispatch:q <- [DW_OP_LLVM_entry_value 1] $x0
	b	.LBB1_6
.Lfunc_end1:
	.size	mas_blk_flush_async_dispatch, .Lfunc_end1-mas_blk_flush_async_dispatch
	.cfi_endproc
	.file	164 "/mnt/disk/jenkins/ci/workspace/chipset_pipeline_release/opensource/component_code/out/kernel-out/gki_kernel/common" "arch/arm64/include/asm/atomic.h"
	.file	165 "/mnt/disk/jenkins/ci/workspace/chipset_pipeline_release/opensource/component_code/out/kernel-out/gki_kernel/common" "include/linux/atomic-arch-fallback.h"
                                        // -- End function
	.globl	mas_blk_flush_update            // -- Begin function mas_blk_flush_update
	.p2align	2
	.type	mas_blk_flush_update,@function
mas_blk_flush_update:                   // @mas_blk_flush_update
.Lfunc_begin2:
	.loc	1 119 0 is_stmt 1               // block/mas_blk_flush.c:119:0
	.cfi_startproc
// %bb.0:
	.loc	1 120 6 prologue_end            // block/mas_blk_flush.c:120:6
	hint	#34
.Ltmp42:
	//DEBUG_VALUE: mas_blk_flush_update:req <- $x0
	//DEBUG_VALUE: mas_blk_flush_update:req <- $x0
	//DEBUG_VALUE: mas_blk_flush_update:error <- $w1
	//DEBUG_VALUE: mas_blk_flush_update:error <- $w1
	cbnz	w1, .LBB2_2
.Ltmp43:
// %bb.1:
	//DEBUG_VALUE: mas_blk_flush_update:req <- $x0
	//DEBUG_VALUE: mas_blk_flush_update:error <- $w1
	hint	#25
	.cfi_negate_ra_state
.Ltmp44:
	.loc	1 121 20                        // block/mas_blk_flush.c:121:20
	ldr	x8, [x0]
.Ltmp45:
	//DEBUG_VALUE: atomic_set:i <- 0
	//DEBUG_VALUE: atomic_set:v <- [DW_OP_plus_uconst 1404, DW_OP_stack_value] $x8
	.loc	163 46 61                       // include/asm-generic/atomic-instrumented.h:46:61
	str	wzr, [x8, #1404]
	hint	#29
.Ltmp46:
.LBB2_2:
	//DEBUG_VALUE: mas_blk_flush_update:req <- $x0
	//DEBUG_VALUE: mas_blk_flush_update:error <- $w1
	.loc	1 122 1                         // block/mas_blk_flush.c:122:1
	ret
.Ltmp47:
.Lfunc_end2:
	.size	mas_blk_flush_update, .Lfunc_end2-mas_blk_flush_update
	.cfi_endproc
                                        // -- End function
	.globl	blk_power_off_flush             // -- Begin function blk_power_off_flush
	.p2align	2
	.type	blk_power_off_flush,@function
blk_power_off_flush:                    // @blk_power_off_flush
.Lfunc_begin3:
	.loc	1 128 0                         // block/mas_blk_flush.c:128:0
	.cfi_startproc
// %bb.0:
	//DEBUG_VALUE: blk_power_off_flush:emergency <- $w0
	hint	#25
	.cfi_negate_ra_state
	str	x30, [x18], #8
	stp	x29, x30, [sp, #-96]!           // 16-byte Folded Spill
	stp	x28, x27, [sp, #16]             // 16-byte Folded Spill
	stp	x26, x25, [sp, #32]             // 16-byte Folded Spill
	stp	x24, x23, [sp, #48]             // 16-byte Folded Spill
	stp	x22, x21, [sp, #64]             // 16-byte Folded Spill
	stp	x20, x19, [sp, #80]             // 16-byte Folded Spill
	mov	x29, sp
	.cfi_def_cfa w29, 96
	.cfi_offset w19, -8
	.cfi_offset w20, -16
	.cfi_offset w21, -24
	.cfi_offset w22, -32
	.cfi_offset w23, -40
	.cfi_offset w24, -48
	.cfi_offset w25, -56
	.cfi_offset w26, -64
	.cfi_offset w27, -72
	.cfi_offset w28, -80
	.cfi_offset w30, -88
	.cfi_offset w29, -96
	mov	w2, w0
.Ltmp48:
	//DEBUG_VALUE: blk_power_off_flush:ret <- 0
	//DEBUG_VALUE: blk_power_off_flush:bdev <- 0
	//DEBUG_VALUE: blk_power_off_flush:blk_lld <- 0
	//DEBUG_VALUE: blk_power_off_flush:q <- 0
	//DEBUG_VALUE: blk_power_off_flush:mas_queue <- 0
	//DEBUG_VALUE: blk_power_off_flush:emergency <- $w2
	.loc	1 135 2 prologue_end            // block/mas_blk_flush.c:135:2
	adrp	x0, .L.str.2
	adrp	x1, .L__func__.blk_power_off_flush
	add	x0, x0, :lo12:.L.str.2
	add	x1, x1, :lo12:.L__func__.blk_power_off_flush
	//DEBUG_VALUE: blk_power_off_flush:emergency <- $w2
	bl	printk
.Ltmp49:
	.loc	1 136 2                         // block/mas_blk_flush.c:136:2
	adrp	x0, all_flush_q_lock
	add	x0, x0, :lo12:all_flush_q_lock
	bl	mutex_lock
.Ltmp50:
	//DEBUG_VALUE: blk_power_off_flush:mas_queue <- [DW_OP_constu 176, DW_OP_minus, DW_OP_stack_value] undef
	.loc	1 0 0 is_stmt 0                 // block/mas_blk_flush.c:0:0
	adrp	x26, all_flush_q_list
	add	x26, x26, :lo12:all_flush_q_list
	ldr	x27, [x26]
.Ltmp51:
	//DEBUG_VALUE: blk_power_off_flush:mas_queue <- [DW_OP_constu 176, DW_OP_minus, DW_OP_stack_value] $x27
	.loc	1 137 2 is_stmt 1               // block/mas_blk_flush.c:137:2
	cmp	x27, x26
	b.ne	.LBB3_2
.Ltmp52:
.LBB3_1:                                // %._crit_edge
	//DEBUG_VALUE: blk_power_off_flush:mas_queue <- [DW_OP_constu 176, DW_OP_minus, DW_OP_stack_value] $x27
	.loc	1 170 2                         // block/mas_blk_flush.c:170:2
	adrp	x0, all_flush_q_lock
	add	x0, x0, :lo12:all_flush_q_lock
	bl	mutex_unlock
.Ltmp53:
	.loc	1 171 2                         // block/mas_blk_flush.c:171:2
	adrp	x0, .L.str.6
	adrp	x1, .L__func__.blk_power_off_flush
	add	x0, x0, :lo12:.L.str.6
	add	x1, x1, :lo12:.L__func__.blk_power_off_flush
	bl	printk
.Ltmp54:
	.loc	1 172 1                         // block/mas_blk_flush.c:172:1
	ldp	x20, x19, [sp, #80]             // 16-byte Folded Reload
	ldp	x22, x21, [sp, #64]             // 16-byte Folded Reload
	ldp	x24, x23, [sp, #48]             // 16-byte Folded Reload
	ldp	x26, x25, [sp, #32]             // 16-byte Folded Reload
	ldp	x28, x27, [sp, #16]             // 16-byte Folded Reload
.Ltmp55:
	ldp	x29, x30, [sp], #96             // 16-byte Folded Reload
	ldr	x30, [x18, #-8]!
	hint	#29
	ret
.LBB3_2:                                // %.lr.ph.preheader
.Ltmp56:
	//DEBUG_VALUE: blk_power_off_flush:mas_queue <- [DW_OP_constu 176, DW_OP_minus, DW_OP_stack_value] $x27
	//DEBUG_VALUE: blk_power_off_flush:q <- 0
	//DEBUG_VALUE: blk_power_off_flush:blk_lld <- 0
	//DEBUG_VALUE: blk_power_off_flush:bdev <- 0
	//DEBUG_VALUE: blk_power_off_flush:ret <- 0
	.loc	1 0 1 is_stmt 0                 // block/mas_blk_flush.c:0:1
	adrp	x19, .L.str.4
	adrp	x20, .L__func__.blk_power_off_flush
	adrp	x21, .L.str.1
	adrp	x22, .L.str.5
	adrp	x23, .L.str
	adrp	x24, .L.str.3
	add	x19, x19, :lo12:.L.str.4
	add	x20, x20, :lo12:.L__func__.blk_power_off_flush
	add	x21, x21, :lo12:.L.str.1
	add	x22, x22, :lo12:.L.str.5
	add	x23, x23, :lo12:.L.str
	add	x24, x24, :lo12:.L.str.3
	b	.LBB3_5
.Ltmp57:
.LBB3_3:                                //   in Loop: Header=BB3_5 Depth=1
	//DEBUG_VALUE: queue_disk <- $x28
	//DEBUG_VALUE: blk_power_off_flush:mas_queue <- [DW_OP_constu 176, DW_OP_minus, DW_OP_stack_value] $x27
	//DEBUG_VALUE: blk_power_off_flush:bdev <- $x0
	.loc	1 153 5 is_stmt 1               // block/mas_blk_flush.c:153:5
	mov	x0, x19
.Ltmp58:
	mov	x1, x20
	bl	printk
.Ltmp59:
.LBB3_4:                                //   in Loop: Header=BB3_5 Depth=1
	//DEBUG_VALUE: blk_power_off_flush:mas_queue <- [DW_OP_constu 176, DW_OP_minus, DW_OP_stack_value] $x27
	//DEBUG_VALUE: blk_power_off_flush:mas_queue <- [DW_OP_constu 176, DW_OP_minus, DW_OP_stack_value] undef
	//DEBUG_VALUE: __mptr <- undef
	.loc	1 0 0 is_stmt 0                 // block/mas_blk_flush.c:0:0
	ldr	x27, [x27]
.Ltmp60:
	//DEBUG_VALUE: blk_power_off_flush:mas_queue <- [DW_OP_constu 176, DW_OP_minus, DW_OP_stack_value] $x27
	.loc	1 137 2 is_stmt 1               // block/mas_blk_flush.c:137:2
	cmp	x27, x26
	b.eq	.LBB3_1
.Ltmp61:
.LBB3_5:                                // %.lr.ph
                                        // =>This Inner Loop Header: Depth=1
	//DEBUG_VALUE: blk_power_off_flush:mas_queue <- [DW_OP_constu 176, DW_OP_minus, DW_OP_stack_value] $x27
	//DEBUG_VALUE: queue_disk <- 0
	.loc	1 140 19                        // block/mas_blk_flush.c:140:19
	ldurb	w8, [x27, #-168]
.Ltmp62:
	.loc	1 140 7 is_stmt 0               // block/mas_blk_flush.c:140:7
	cbz	w8, .LBB3_4
.Ltmp63:
// %bb.6:                               //   in Loop: Header=BB3_5 Depth=1
	//DEBUG_VALUE: blk_power_off_flush:mas_queue <- [DW_OP_constu 176, DW_OP_minus, DW_OP_stack_value] $x27
	//DEBUG_VALUE: queue_disk <- 0
	//DEBUG_VALUE: __mptr <- [DW_OP_constu 176, DW_OP_minus, DW_OP_stack_value] $x27
	.loc	1 142 374 is_stmt 1             // block/mas_blk_flush.c:142:374
	sub	x0, x27, #1416                  // =1416
.Ltmp64:
	//DEBUG_VALUE: blk_power_off_flush:q <- $x0
	.loc	1 144 13                        // block/mas_blk_flush.c:144:13
	bl	mas_blk_get_lld
.Ltmp65:
	//DEBUG_VALUE: queue_disk <- undef
	//DEBUG_VALUE: blk_power_off_flush:blk_lld <- $x0
	.loc	1 146 15                        // block/mas_blk_flush.c:146:15
	cbz	x0, .LBB3_4
.Ltmp66:
// %bb.7:                               //   in Loop: Header=BB3_5 Depth=1
	//DEBUG_VALUE: blk_power_off_flush:mas_queue <- [DW_OP_constu 176, DW_OP_minus, DW_OP_stack_value] $x27
	//DEBUG_VALUE: blk_power_off_flush:blk_lld <- $x0
	//DEBUG_VALUE: queue_disk <- undef
	.loc	1 146 27 is_stmt 0              // block/mas_blk_flush.c:146:27
	ldr	x8, [x0, #56]
.Ltmp67:
	.loc	1 146 7                         // block/mas_blk_flush.c:146:7
	cbz	x8, .LBB3_4
.Ltmp68:
// %bb.8:                               //   in Loop: Header=BB3_5 Depth=1
	//DEBUG_VALUE: blk_power_off_flush:mas_queue <- [DW_OP_constu 176, DW_OP_minus, DW_OP_stack_value] $x27
	//DEBUG_VALUE: blk_power_off_flush:blk_lld <- $x0
	.loc	1 0 7                           // block/mas_blk_flush.c:0:7
	ldur	x28, [x27, #-176]
.Ltmp69:
	//DEBUG_VALUE: queue_disk <- $x28
	.loc	1 147 8 is_stmt 1               // block/mas_blk_flush.c:147:8
	cbnz	x28, .LBB3_15
.Ltmp70:
// %bb.9:                               //   in Loop: Header=BB3_5 Depth=1
	//DEBUG_VALUE: queue_disk <- $x28
	//DEBUG_VALUE: blk_power_off_flush:mas_queue <- [DW_OP_constu 176, DW_OP_minus, DW_OP_stack_value] $x27
	//DEBUG_VALUE: blk_power_off_flush:blk_lld <- $x0
	.loc	1 151 35                        // block/mas_blk_flush.c:151:35
	mov	x0, xzr
.Ltmp71:
.LBB3_10:                               //   in Loop: Header=BB3_5 Depth=1
	//DEBUG_VALUE: queue_disk <- $x28
	//DEBUG_VALUE: blk_power_off_flush:mas_queue <- [DW_OP_constu 176, DW_OP_minus, DW_OP_stack_value] $x27
	.loc	1 151 11 is_stmt 0              // block/mas_blk_flush.c:151:11
	mov	w1, wzr
	bl	bdget_disk
.Ltmp72:
	//DEBUG_VALUE: blk_power_off_flush:bdev <- $x0
	.loc	1 152 8 is_stmt 1               // block/mas_blk_flush.c:152:8
	cbz	x0, .LBB3_3
.Ltmp73:
// %bb.11:                              //   in Loop: Header=BB3_5 Depth=1
	//DEBUG_VALUE: queue_disk <- $x28
	//DEBUG_VALUE: blk_power_off_flush:mas_queue <- [DW_OP_constu 176, DW_OP_minus, DW_OP_stack_value] $x27
	//DEBUG_VALUE: blk_power_off_flush:bdev <- $x0
	.loc	1 156 10                        // block/mas_blk_flush.c:156:10
	mov	w1, #2
	mov	x2, xzr
	.loc	1 0 0 is_stmt 0                 // block/mas_blk_flush.c:0:0
	mov	x25, x0
.Ltmp74:
	//DEBUG_VALUE: blk_power_off_flush:bdev <- $x25
	.loc	1 156 10                        // block/mas_blk_flush.c:156:10
	bl	blkdev_get
.Ltmp75:
	//DEBUG_VALUE: blk_power_off_flush:ret <- $w0
	.loc	1 157 8 is_stmt 1               // block/mas_blk_flush.c:157:8
	cbnz	w0, .LBB3_16
.Ltmp76:
// %bb.12:                              //   in Loop: Header=BB3_5 Depth=1
	//DEBUG_VALUE: queue_disk <- $x28
	//DEBUG_VALUE: blk_power_off_flush:mas_queue <- [DW_OP_constu 176, DW_OP_minus, DW_OP_stack_value] $x27
	//DEBUG_VALUE: blk_power_off_flush:bdev <- $x25
	//DEBUG_VALUE: blk_power_off_flush:ret <- $w0
	.loc	1 160 11                        // block/mas_blk_flush.c:160:11
	mov	w1, #3264
	mov	x0, x25
.Ltmp77:
	bl	blkdev_issue_flush
.Ltmp78:
	//DEBUG_VALUE: blk_power_off_flush:ret <- $w0
	.loc	1 161 9                         // block/mas_blk_flush.c:161:9
	cbnz	w0, .LBB3_17
.Ltmp79:
.LBB3_13:                               //   in Loop: Header=BB3_5 Depth=1
	//DEBUG_VALUE: queue_disk <- $x28
	//DEBUG_VALUE: blk_power_off_flush:mas_queue <- [DW_OP_constu 176, DW_OP_minus, DW_OP_stack_value] $x27
	//DEBUG_VALUE: blk_power_off_flush:bdev <- $x25
	.loc	1 163 5                         // block/mas_blk_flush.c:163:5
	mov	w1, #2
	mov	x0, x25
	bl	blkdev_put
.Ltmp80:
	.loc	1 165 8                         // block/mas_blk_flush.c:165:8
	cbz	x28, .LBB3_4
.Ltmp81:
.LBB3_14:                               //   in Loop: Header=BB3_5 Depth=1
	//DEBUG_VALUE: queue_disk <- $x28
	//DEBUG_VALUE: blk_power_off_flush:mas_queue <- [DW_OP_constu 176, DW_OP_minus, DW_OP_stack_value] $x27
	//DEBUG_VALUE: blk_power_off_flush:bdev <- $x25
	.loc	1 166 81                        // block/mas_blk_flush.c:166:81
	add	x2, x28, #12                    // =12
	.loc	1 166 5 is_stmt 0               // block/mas_blk_flush.c:166:5
	mov	x0, x22
	mov	x1, x20
	bl	printk
.Ltmp82:
	.loc	1 0 5                           // block/mas_blk_flush.c:0:5
	b	.LBB3_4
.Ltmp83:
.LBB3_15:                               //   in Loop: Header=BB3_5 Depth=1
	//DEBUG_VALUE: queue_disk <- $x28
	//DEBUG_VALUE: blk_power_off_flush:mas_queue <- [DW_OP_constu 176, DW_OP_minus, DW_OP_stack_value] $x27
	//DEBUG_VALUE: blk_power_off_flush:blk_lld <- $x0
	.loc	1 148 75 is_stmt 1              // block/mas_blk_flush.c:148:75
	add	x2, x28, #12                    // =12
	.loc	1 148 5 is_stmt 0               // block/mas_blk_flush.c:148:5
	mov	x0, x24
.Ltmp84:
	mov	x1, x20
	bl	printk
.Ltmp85:
	.loc	1 151 35 is_stmt 1              // block/mas_blk_flush.c:151:35
	ldur	x0, [x27, #-176]
	b	.LBB3_10
.Ltmp86:
.LBB3_16:                               //   in Loop: Header=BB3_5 Depth=1
	//DEBUG_VALUE: queue_disk <- $x28
	//DEBUG_VALUE: blk_power_off_flush:mas_queue <- [DW_OP_constu 176, DW_OP_minus, DW_OP_stack_value] $x27
	//DEBUG_VALUE: blk_power_off_flush:bdev <- $x25
	//DEBUG_VALUE: blk_power_off_flush:ret <- $w0
	.loc	1 158 5                         // block/mas_blk_flush.c:158:5
	mov	x0, x23
.Ltmp87:
	mov	x1, x20
	bl	printk
.Ltmp88:
	.loc	1 165 8                         // block/mas_blk_flush.c:165:8
	cbz	x28, .LBB3_4
	b	.LBB3_14
.Ltmp89:
.LBB3_17:                               //   in Loop: Header=BB3_5 Depth=1
	//DEBUG_VALUE: queue_disk <- $x28
	//DEBUG_VALUE: blk_power_off_flush:mas_queue <- [DW_OP_constu 176, DW_OP_minus, DW_OP_stack_value] $x27
	//DEBUG_VALUE: blk_power_off_flush:bdev <- $x25
	//DEBUG_VALUE: blk_power_off_flush:ret <- $w0
	.loc	1 162 6                         // block/mas_blk_flush.c:162:6
	mov	x0, x21
.Ltmp90:
	mov	x1, x20
	bl	printk
.Ltmp91:
	.loc	1 0 6 is_stmt 0                 // block/mas_blk_flush.c:0:6
	b	.LBB3_13
.Ltmp92:
.Lfunc_end3:
	.size	blk_power_off_flush, .Lfunc_end3-blk_power_off_flush
	.cfi_endproc
                                        // -- End function
	.globl	mas_blk_send_sync_cache         // -- Begin function mas_blk_send_sync_cache
	.p2align	2
	.type	mas_blk_send_sync_cache,@function
mas_blk_send_sync_cache:                // @mas_blk_send_sync_cache
.Lfunc_begin4:
	.loc	1 175 0 is_stmt 1               // block/mas_blk_flush.c:175:0
	.cfi_startproc
// %bb.0:
	hint	#25
	.cfi_negate_ra_state
	str	x30, [x18], #8
	stp	x29, x30, [sp, #-96]!           // 16-byte Folded Spill
	str	x27, [sp, #16]                  // 8-byte Folded Spill
	stp	x26, x25, [sp, #32]             // 16-byte Folded Spill
	stp	x24, x23, [sp, #48]             // 16-byte Folded Spill
	stp	x22, x21, [sp, #64]             // 16-byte Folded Spill
	stp	x20, x19, [sp, #80]             // 16-byte Folded Spill
	mov	x29, sp
	.cfi_def_cfa w29, 96
	.cfi_offset w19, -8
	.cfi_offset w20, -16
	.cfi_offset w21, -24
	.cfi_offset w22, -32
	.cfi_offset w23, -40
	.cfi_offset w24, -48
	.cfi_offset w25, -56
	.cfi_offset w26, -64
	.cfi_offset w27, -80
	.cfi_offset w30, -88
	.cfi_offset w29, -96
.Ltmp93:
	//DEBUG_VALUE: mas_blk_send_sync_cache:mas_queue <- 0
	//DEBUG_VALUE: mas_blk_send_sync_cache:q <- 0
	//DEBUG_VALUE: mas_blk_send_sync_cache:blk_lld <- 0
	//DEBUG_VALUE: mas_blk_send_sync_cache:flag <- 0
	.loc	1 181 106 prologue_end          // block/mas_blk_flush.c:181:106
	adrp	x0, all_flush_spin_lock
	add	x0, x0, :lo12:all_flush_spin_lock
	bl	_raw_spin_lock_irqsave
.Ltmp94:
	.loc	1 0 0 is_stmt 0                 // block/mas_blk_flush.c:0:0
	adrp	x26, all_flush_q_list
	add	x26, x26, :lo12:all_flush_q_list
	ldr	x27, [x26]
.Ltmp95:
	//DEBUG_VALUE: mas_blk_send_sync_cache:mas_queue <- [DW_OP_constu 176, DW_OP_minus, DW_OP_stack_value] $x27
	.loc	1 181 106                       // block/mas_blk_flush.c:181:106
	mov	x19, x0
.Ltmp96:
	//DEBUG_VALUE: mas_blk_send_sync_cache:flag <- $x19
	//DEBUG_VALUE: mas_blk_send_sync_cache:mas_queue <- [DW_OP_constu 176, DW_OP_minus, DW_OP_stack_value] undef
	.loc	1 182 2 is_stmt 1               // block/mas_blk_flush.c:182:2
	cmp	x27, x26
	b.ne	.LBB4_2
.Ltmp97:
.LBB4_1:                                // %._crit_edge
	//DEBUG_VALUE: mas_blk_send_sync_cache:flag <- $x19
	//DEBUG_VALUE: spin_unlock_irqrestore:flags <- $x19
	.file	166 "/mnt/disk/jenkins/ci/workspace/chipset_pipeline_release/opensource/component_code/out/kernel-out/gki_kernel/common" "include/linux/spinlock.h"
	.loc	166 409 95                      // include/linux/spinlock.h:409:95
	adrp	x0, all_flush_spin_lock
	add	x0, x0, :lo12:all_flush_spin_lock
.Ltmp98:
	//DEBUG_VALUE: spin_unlock_irqrestore:lock <- $x0
	mov	x1, x19
	bl	_raw_spin_unlock_irqrestore
.Ltmp99:
	.loc	1 202 2                         // block/mas_blk_flush.c:202:2
	adrp	x0, .L.str.6
	adrp	x1, .L__func__.mas_blk_send_sync_cache
	add	x0, x0, :lo12:.L.str.6
	add	x1, x1, :lo12:.L__func__.mas_blk_send_sync_cache
	bl	printk
.Ltmp100:
	.loc	1 203 1                         // block/mas_blk_flush.c:203:1
	ldp	x20, x19, [sp, #80]             // 16-byte Folded Reload
.Ltmp101:
	ldp	x22, x21, [sp, #64]             // 16-byte Folded Reload
	ldp	x24, x23, [sp, #48]             // 16-byte Folded Reload
	ldp	x26, x25, [sp, #32]             // 16-byte Folded Reload
	ldr	x27, [sp, #16]                  // 8-byte Folded Reload
	ldp	x29, x30, [sp], #96             // 16-byte Folded Reload
	ldr	x30, [x18, #-8]!
	hint	#29
	ret
.LBB4_2:                                // %.lr.ph.preheader
.Ltmp102:
	//DEBUG_VALUE: mas_blk_send_sync_cache:flag <- $x19
	//DEBUG_VALUE: mas_blk_send_sync_cache:blk_lld <- 0
	//DEBUG_VALUE: mas_blk_send_sync_cache:q <- 0
	.loc	1 0 1 is_stmt 0                 // block/mas_blk_flush.c:0:1
	adrp	x20, .L.str.3
	adrp	x21, .L__func__.mas_blk_send_sync_cache
	adrp	x22, .L.str.5
	add	x20, x20, :lo12:.L.str.3
	add	x21, x21, :lo12:.L__func__.mas_blk_send_sync_cache
	add	x22, x22, :lo12:.L.str.5
	b	.LBB4_5
.Ltmp103:
.LBB4_3:                                // %.critedge
                                        //   in Loop: Header=BB4_5 Depth=1
	//DEBUG_VALUE: mas_blk_send_sync_cache:blk_lld <- $x24
	//DEBUG_VALUE: mas_blk_send_sync_cache:q <- $x23
	//DEBUG_VALUE: mas_blk_send_sync_cache:flag <- $x19
	//DEBUG_VALUE: queue_disk <- $x9
	.loc	1 195 4 is_stmt 1               // block/mas_blk_flush.c:195:4
	mov	x0, x23
	blr	x8
.Ltmp104:
.LBB4_4:                                //   in Loop: Header=BB4_5 Depth=1
	//DEBUG_VALUE: mas_blk_send_sync_cache:flag <- $x19
	//DEBUG_VALUE: mas_blk_send_sync_cache:mas_queue <- [DW_OP_constu 176, DW_OP_minus, DW_OP_stack_value] undef
	//DEBUG_VALUE: __mptr <- undef
	.loc	1 0 0 is_stmt 0                 // block/mas_blk_flush.c:0:0
	ldr	x27, [x27]
.Ltmp105:
	//DEBUG_VALUE: mas_blk_send_sync_cache:mas_queue <- [DW_OP_constu 176, DW_OP_minus, DW_OP_stack_value] $x27
	.loc	1 182 2 is_stmt 1               // block/mas_blk_flush.c:182:2
	cmp	x27, x26
	b.eq	.LBB4_1
.Ltmp106:
.LBB4_5:                                // %.lr.ph
                                        // =>This Inner Loop Header: Depth=1
	//DEBUG_VALUE: mas_blk_send_sync_cache:flag <- $x19
	//DEBUG_VALUE: queue_disk <- 0
	.loc	1 185 19                        // block/mas_blk_flush.c:185:19
	ldurb	w8, [x27, #-168]
.Ltmp107:
	.loc	1 185 7 is_stmt 0               // block/mas_blk_flush.c:185:7
	cbz	w8, .LBB4_4
.Ltmp108:
// %bb.6:                               //   in Loop: Header=BB4_5 Depth=1
	//DEBUG_VALUE: mas_blk_send_sync_cache:flag <- $x19
	//DEBUG_VALUE: queue_disk <- 0
	//DEBUG_VALUE: __mptr <- [DW_OP_constu 176, DW_OP_minus, DW_OP_stack_value] $x27
	.loc	1 187 374 is_stmt 1             // block/mas_blk_flush.c:187:374
	sub	x23, x27, #1416                 // =1416
.Ltmp109:
	//DEBUG_VALUE: mas_blk_send_sync_cache:q <- $x23
	.loc	1 189 13                        // block/mas_blk_flush.c:189:13
	mov	x0, x23
	bl	mas_blk_get_lld
.Ltmp110:
	//DEBUG_VALUE: queue_disk <- undef
	//DEBUG_VALUE: mas_blk_send_sync_cache:blk_lld <- $x0
	.loc	1 191 15                        // block/mas_blk_flush.c:191:15
	cbz	x0, .LBB4_4
.Ltmp111:
// %bb.7:                               //   in Loop: Header=BB4_5 Depth=1
	//DEBUG_VALUE: mas_blk_send_sync_cache:q <- $x23
	//DEBUG_VALUE: mas_blk_send_sync_cache:flag <- $x19
	//DEBUG_VALUE: mas_blk_send_sync_cache:blk_lld <- $x0
	.loc	1 191 27 is_stmt 0              // block/mas_blk_flush.c:191:27
	ldr	x8, [x0, #56]
.Ltmp112:
	.loc	1 0 0                           // block/mas_blk_flush.c:0:0
	mov	x24, x0
.Ltmp113:
	//DEBUG_VALUE: mas_blk_send_sync_cache:blk_lld <- $x24
	//DEBUG_VALUE: mas_blk_send_sync_cache:blk_lld <- $x24
	//DEBUG_VALUE: queue_disk <- undef
	.loc	1 191 7                         // block/mas_blk_flush.c:191:7
	cbz	x8, .LBB4_4
.Ltmp114:
// %bb.8:                               //   in Loop: Header=BB4_5 Depth=1
	//DEBUG_VALUE: mas_blk_send_sync_cache:blk_lld <- $x24
	//DEBUG_VALUE: mas_blk_send_sync_cache:q <- $x23
	//DEBUG_VALUE: mas_blk_send_sync_cache:flag <- $x19
	.loc	1 0 0                           // block/mas_blk_flush.c:0:0
	ldur	x9, [x27, #-176]
.Ltmp115:
	//DEBUG_VALUE: queue_disk <- $x9
	.loc	1 192 8 is_stmt 1               // block/mas_blk_flush.c:192:8
	cbz	x9, .LBB4_3
.Ltmp116:
// %bb.9:                               //   in Loop: Header=BB4_5 Depth=1
	//DEBUG_VALUE: mas_blk_send_sync_cache:blk_lld <- $x24
	//DEBUG_VALUE: mas_blk_send_sync_cache:q <- $x23
	//DEBUG_VALUE: mas_blk_send_sync_cache:flag <- $x19
	//DEBUG_VALUE: queue_disk <- $x9
	.loc	1 193 75                        // block/mas_blk_flush.c:193:75
	add	x25, x9, #12                    // =12
	.loc	1 193 5 is_stmt 0               // block/mas_blk_flush.c:193:5
	mov	x0, x20
	mov	x1, x21
	mov	x2, x25
	bl	printk
.Ltmp117:
	.loc	1 195 13 is_stmt 1              // block/mas_blk_flush.c:195:13
	ldr	x8, [x24, #56]
	.loc	1 195 4 is_stmt 0               // block/mas_blk_flush.c:195:4
	mov	x0, x23
	blr	x8
.Ltmp118:
	.loc	1 197 5 is_stmt 1               // block/mas_blk_flush.c:197:5
	mov	x0, x22
	mov	x1, x21
	mov	x2, x25
	bl	printk
.Ltmp119:
	.loc	1 0 5 is_stmt 0                 // block/mas_blk_flush.c:0:5
	b	.LBB4_4
.Ltmp120:
.Lfunc_end4:
	.size	mas_blk_send_sync_cache, .Lfunc_end4-mas_blk_send_sync_cache
	.cfi_endproc
	.file	167 "/mnt/disk/jenkins/ci/workspace/chipset_pipeline_release/opensource/component_code/out/kernel-out/gki_kernel/common" "include/linux/spinlock_api_smp.h"
                                        // -- End function
	.globl	mas_blk_flush_list_register     // -- Begin function mas_blk_flush_list_register
	.p2align	2
	.type	mas_blk_flush_list_register,@function
mas_blk_flush_list_register:            // @mas_blk_flush_list_register
.Lfunc_begin5:
	.loc	1 206 0 is_stmt 1               // block/mas_blk_flush.c:206:0
	.cfi_startproc
// %bb.0:
	//DEBUG_VALUE: mas_blk_flush_list_register:lld_list <- $x0
	hint	#25
	.cfi_negate_ra_state
	str	x30, [x18], #8
	stp	x29, x30, [sp, #-48]!           // 16-byte Folded Spill
	stp	x22, x21, [sp, #16]             // 16-byte Folded Spill
	stp	x20, x19, [sp, #32]             // 16-byte Folded Spill
	mov	x29, sp
	.cfi_def_cfa w29, 48
	.cfi_offset w19, -8
	.cfi_offset w20, -16
	.cfi_offset w21, -24
	.cfi_offset w22, -32
	.cfi_offset w30, -40
	.cfi_offset w29, -48
	mov	x19, x0
.Ltmp121:
	//DEBUG_VALUE: mas_blk_flush_list_register:lld_list <- $x19
	//DEBUG_VALUE: mas_blk_flush_list_register:flag <- 0
	//DEBUG_VALUE: mas_blk_flush_list_register:lld_list <- $x19
	.loc	1 209 106 prologue_end          // block/mas_blk_flush.c:209:106
	adrp	x0, all_object_lock
	add	x0, x0, :lo12:all_object_lock
	bl	_raw_spin_lock_irqsave
.Ltmp122:
	.file	168 "/mnt/disk/jenkins/ci/workspace/chipset_pipeline_release/opensource/component_code/out/kernel-out/gki_kernel/common" "include/linux/list.h"
	.loc	168 86 30                       // include/linux/list.h:86:30
	adrp	x21, all_object_list
	add	x21, x21, :lo12:all_object_list
.Ltmp123:
	//DEBUG_VALUE: list_add:head <- $x21
	ldr	x22, [x21]
.Ltmp124:
	.loc	1 209 106                       // block/mas_blk_flush.c:209:106
	mov	x20, x0
.Ltmp125:
	//DEBUG_VALUE: list_add:new <- $x19
	//DEBUG_VALUE: __list_add:new <- $x19
	//DEBUG_VALUE: __list_add:next <- $x22
	//DEBUG_VALUE: __list_add:prev <- $x21
	//DEBUG_VALUE: mas_blk_flush_list_register:flag <- $x20
	//DEBUG_VALUE: list_add:head <- $x21
	.loc	168 67 7                        // include/linux/list.h:67:7
	mov	x0, x19
	mov	x1, x21
	mov	x2, x22
	bl	__list_add_valid
.Ltmp126:
	.loc	168 67 6 is_stmt 0              // include/linux/list.h:67:6
	tbz	w0, #0, .LBB5_2
.Ltmp127:
// %bb.1:
	//DEBUG_VALUE: __list_add:next <- $x22
	//DEBUG_VALUE: __list_add:prev <- $x21
	//DEBUG_VALUE: list_add:head <- $x21
	//DEBUG_VALUE: mas_blk_flush_list_register:flag <- $x20
	//DEBUG_VALUE: __list_add:new <- $x19
	//DEBUG_VALUE: list_add:new <- $x19
	//DEBUG_VALUE: mas_blk_flush_list_register:lld_list <- $x19
	.loc	168 72 12 is_stmt 1             // include/linux/list.h:72:12
	adrp	x8, all_object_list
	.loc	168 70 13                       // include/linux/list.h:70:13
	str	x19, [x22, #8]
	.loc	168 71 12                       // include/linux/list.h:71:12
	stp	x22, x21, [x19]
.Ltmp128:
	.loc	168 73 349                      // include/linux/list.h:73:349
	str	x19, [x8, :lo12:all_object_list]
.Ltmp129:
.LBB5_2:                                // %list_add.exit
	//DEBUG_VALUE: mas_blk_flush_list_register:flag <- $x20
	//DEBUG_VALUE: mas_blk_flush_list_register:lld_list <- $x19
	//DEBUG_VALUE: spin_unlock_irqrestore:flags <- $x20
	.loc	166 409 95                      // include/linux/spinlock.h:409:95
	adrp	x0, all_object_lock
	add	x0, x0, :lo12:all_object_lock
.Ltmp130:
	//DEBUG_VALUE: spin_unlock_irqrestore:lock <- $x0
	mov	x1, x20
	bl	_raw_spin_unlock_irqrestore
.Ltmp131:
	.loc	1 212 1                         // block/mas_blk_flush.c:212:1
	ldp	x20, x19, [sp, #32]             // 16-byte Folded Reload
.Ltmp132:
	ldp	x22, x21, [sp, #16]             // 16-byte Folded Reload
	ldp	x29, x30, [sp], #48             // 16-byte Folded Reload
	ldr	x30, [x18, #-8]!
	hint	#29
	ret
.Ltmp133:
.Lfunc_end5:
	.size	mas_blk_flush_list_register, .Lfunc_end5-mas_blk_flush_list_register
	.cfi_endproc
                                        // -- End function
	.globl	mas_blk_flush_list_unregister   // -- Begin function mas_blk_flush_list_unregister
	.p2align	2
	.type	mas_blk_flush_list_unregister,@function
mas_blk_flush_list_unregister:          // @mas_blk_flush_list_unregister
.Lfunc_begin6:
	.loc	1 215 0                         // block/mas_blk_flush.c:215:0
	.cfi_startproc
// %bb.0:
	//DEBUG_VALUE: mas_blk_flush_list_unregister:lld_list <- $x0
	hint	#25
	.cfi_negate_ra_state
	str	x30, [x18], #8
	stp	x29, x30, [sp, #-32]!           // 16-byte Folded Spill
	stp	x20, x19, [sp, #16]             // 16-byte Folded Spill
	mov	x29, sp
	.cfi_def_cfa w29, 32
	.cfi_offset w19, -8
	.cfi_offset w20, -16
	.cfi_offset w30, -24
	.cfi_offset w29, -32
	mov	x19, x0
.Ltmp134:
	//DEBUG_VALUE: mas_blk_flush_list_unregister:lld_list <- $x19
	//DEBUG_VALUE: mas_blk_flush_list_unregister:flag <- 0
	//DEBUG_VALUE: mas_blk_flush_list_unregister:lld_list <- $x19
	.loc	1 218 106 prologue_end          // block/mas_blk_flush.c:218:106
	adrp	x0, all_object_lock
	add	x0, x0, :lo12:all_object_lock
	bl	_raw_spin_lock_irqsave
.Ltmp135:
	mov	x20, x0
.Ltmp136:
	//DEBUG_VALUE: __list_del_entry:entry <- $x19
	//DEBUG_VALUE: list_del_init:entry <- $x19
	//DEBUG_VALUE: mas_blk_flush_list_unregister:flag <- $x20
	.loc	168 132 7                       // include/linux/list.h:132:7
	mov	x0, x19
	bl	__list_del_entry_valid
.Ltmp137:
	.loc	168 132 6 is_stmt 0             // include/linux/list.h:132:6
	tbz	w0, #0, .LBB6_2
.Ltmp138:
// %bb.1:
	//DEBUG_VALUE: mas_blk_flush_list_unregister:flag <- $x20
	//DEBUG_VALUE: list_del_init:entry <- $x19
	//DEBUG_VALUE: __list_del_entry:entry <- $x19
	//DEBUG_VALUE: mas_blk_flush_list_unregister:lld_list <- $x19
	.loc	168 135 20 is_stmt 1            // include/linux/list.h:135:20
	ldp	x9, x8, [x19]
.Ltmp139:
	//DEBUG_VALUE: __list_del:prev <- $x8
	//DEBUG_VALUE: __list_del:next <- $x9
	.loc	168 112 13                      // include/linux/list.h:112:13
	str	x8, [x9, #8]
.Ltmp140:
	.loc	168 113 349                     // include/linux/list.h:113:349
	str	x9, [x8]
.Ltmp141:
.LBB6_2:                                // %list_del_init.exit
	//DEBUG_VALUE: mas_blk_flush_list_unregister:flag <- $x20
	//DEBUG_VALUE: list_del_init:entry <- $x19
	//DEBUG_VALUE: mas_blk_flush_list_unregister:lld_list <- $x19
	//DEBUG_VALUE: INIT_LIST_HEAD:list <- $x19
	.loc	166 409 95                      // include/linux/spinlock.h:409:95
	adrp	x0, all_object_lock
	add	x0, x0, :lo12:all_object_lock
.Ltmp142:
	//DEBUG_VALUE: spin_unlock_irqrestore:lock <- $x0
	mov	x1, x20
.Ltmp143:
	.loc	168 35 349                      // include/linux/list.h:35:349
	str	x19, [x19]
.Ltmp144:
	.loc	168 36 13                       // include/linux/list.h:36:13
	str	x19, [x19, #8]
.Ltmp145:
	//DEBUG_VALUE: spin_unlock_irqrestore:flags <- $x20
	.loc	166 409 95                      // include/linux/spinlock.h:409:95
	bl	_raw_spin_unlock_irqrestore
.Ltmp146:
	.loc	1 221 1                         // block/mas_blk_flush.c:221:1
	ldp	x20, x19, [sp, #16]             // 16-byte Folded Reload
.Ltmp147:
	ldp	x29, x30, [sp], #32             // 16-byte Folded Reload
	ldr	x30, [x18, #-8]!
	hint	#29
	ret
.Ltmp148:
.Lfunc_end6:
	.size	mas_blk_flush_list_unregister, .Lfunc_end6-mas_blk_flush_list_unregister
	.cfi_endproc
                                        // -- End function
	.globl	mas_blk_panic_flush             // -- Begin function mas_blk_panic_flush
	.p2align	2
	.type	mas_blk_panic_flush,@function
mas_blk_panic_flush:                    // @mas_blk_panic_flush
.Lfunc_begin7:
	.loc	1 224 0                         // block/mas_blk_flush.c:224:0
	.cfi_startproc
// %bb.0:
	hint	#25
	.cfi_negate_ra_state
	str	x30, [x18], #8
	stp	x29, x30, [sp, #-64]!           // 16-byte Folded Spill
	str	x23, [sp, #16]                  // 8-byte Folded Spill
	stp	x22, x21, [sp, #32]             // 16-byte Folded Spill
	stp	x20, x19, [sp, #48]             // 16-byte Folded Spill
	mov	x29, sp
	.cfi_def_cfa w29, 64
	.cfi_offset w19, -8
	.cfi_offset w20, -16
	.cfi_offset w21, -24
	.cfi_offset w22, -32
	.cfi_offset w23, -48
	.cfi_offset w30, -56
	.cfi_offset w29, -64
.Ltmp149:
	//DEBUG_VALUE: mas_blk_panic_flush:flags <- 0
	//DEBUG_VALUE: mas_blk_panic_flush:blk_lld <- 0
	.loc	1 228 2 prologue_end            // block/mas_blk_flush.c:228:2
	mov	w0, wzr
	bl	blk_power_off_flush
.Ltmp150:
	.loc	1 230 108                       // block/mas_blk_flush.c:230:108
	adrp	x0, all_object_lock
	add	x0, x0, :lo12:all_object_lock
	bl	_raw_spin_lock_irqsave
.Ltmp151:
	.loc	1 0 0 is_stmt 0                 // block/mas_blk_flush.c:0:0
	adrp	x22, all_object_list
	add	x22, x22, :lo12:all_object_list
	ldr	x23, [x22]
.Ltmp152:
	//DEBUG_VALUE: mas_blk_panic_flush:blk_lld <- [DW_OP_constu 576, DW_OP_minus, DW_OP_stack_value] $x23
	.loc	1 230 108                       // block/mas_blk_flush.c:230:108
	mov	x19, x0
.Ltmp153:
	//DEBUG_VALUE: mas_blk_panic_flush:blk_lld <- [DW_OP_constu 576, DW_OP_minus, DW_OP_stack_value] undef
	//DEBUG_VALUE: mas_blk_panic_flush:flags <- $x19
	.loc	1 231 2 is_stmt 1               // block/mas_blk_flush.c:231:2
	cmp	x23, x22
	b.eq	.LBB7_5
.Ltmp154:
// %bb.1:                               // %.lr.ph.preheader
	//DEBUG_VALUE: mas_blk_panic_flush:flags <- $x19
	.loc	1 0 2 is_stmt 0                 // block/mas_blk_flush.c:0:2
	adrp	x20, .L.str.7
	adrp	x21, .L__func__.mas_blk_panic_flush
	add	x20, x20, :lo12:.L.str.7
	add	x21, x21, :lo12:.L__func__.mas_blk_panic_flush
	b	.LBB7_3
.Ltmp155:
.LBB7_2:                                //   in Loop: Header=BB7_3 Depth=1
	//DEBUG_VALUE: mas_blk_panic_flush:blk_lld <- [DW_OP_constu 576, DW_OP_minus, DW_OP_stack_value] $x23
	//DEBUG_VALUE: mas_blk_panic_flush:flags <- $x19
	//DEBUG_VALUE: mas_blk_panic_flush:blk_lld <- [DW_OP_constu 576, DW_OP_minus, DW_OP_stack_value] undef
	//DEBUG_VALUE: __mptr <- undef
	ldr	x23, [x23]
.Ltmp156:
	//DEBUG_VALUE: mas_blk_panic_flush:blk_lld <- [DW_OP_constu 576, DW_OP_minus, DW_OP_stack_value] $x23
	.loc	1 231 2                         // block/mas_blk_flush.c:231:2
	cmp	x23, x22
	b.eq	.LBB7_5
.Ltmp157:
.LBB7_3:                                // %.lr.ph
                                        // =>This Inner Loop Header: Depth=1
	//DEBUG_VALUE: mas_blk_panic_flush:flags <- $x19
	//DEBUG_VALUE: mas_blk_panic_flush:blk_lld <- [DW_OP_constu 576, DW_OP_minus, DW_OP_stack_value] $x23
	.loc	1 232 16 is_stmt 1              // block/mas_blk_flush.c:232:16
	sub	x8, x23, #572                   // =572
	ldr	w2, [x8]
.Ltmp158:
	.loc	1 232 7 is_stmt 0               // block/mas_blk_flush.c:232:7
	cmp	w2, #2                          // =2
	b.eq	.LBB7_2
.Ltmp159:
// %bb.4:                               //   in Loop: Header=BB7_3 Depth=1
	//DEBUG_VALUE: mas_blk_panic_flush:blk_lld <- [DW_OP_constu 576, DW_OP_minus, DW_OP_stack_value] $x23
	//DEBUG_VALUE: mas_blk_panic_flush:flags <- $x19
	.loc	1 233 4 is_stmt 1               // block/mas_blk_flush.c:233:4
	mov	x0, x20
	mov	x1, x21
	bl	printk
.Ltmp160:
	.loc	1 0 4 is_stmt 0                 // block/mas_blk_flush.c:0:4
	b	.LBB7_2
.Ltmp161:
.LBB7_5:                                // %._crit_edge
	//DEBUG_VALUE: mas_blk_panic_flush:flags <- $x19
	//DEBUG_VALUE: spin_unlock_irqrestore:flags <- $x19
	.loc	166 409 95 is_stmt 1            // include/linux/spinlock.h:409:95
	adrp	x0, all_object_lock
	add	x0, x0, :lo12:all_object_lock
.Ltmp162:
	//DEBUG_VALUE: spin_unlock_irqrestore:lock <- $x0
	mov	x1, x19
	bl	_raw_spin_unlock_irqrestore
.Ltmp163:
	.loc	1 239 1                         // block/mas_blk_flush.c:239:1
	ldp	x20, x19, [sp, #48]             // 16-byte Folded Reload
.Ltmp164:
	ldp	x22, x21, [sp, #32]             // 16-byte Folded Reload
	ldr	x23, [sp, #16]                  // 8-byte Folded Reload
	ldp	x29, x30, [sp], #64             // 16-byte Folded Reload
	ldr	x30, [x18, #-8]!
	hint	#29
	ret
.Ltmp165:
.Lfunc_end7:
	.size	mas_blk_panic_flush, .Lfunc_end7-mas_blk_panic_flush
	.cfi_endproc
                                        // -- End function
	.globl	mas_blk_poweroff_flush_notifier_call // -- Begin function mas_blk_poweroff_flush_notifier_call
	.p2align	2
	.type	mas_blk_poweroff_flush_notifier_call,@function
mas_blk_poweroff_flush_notifier_call:   // @mas_blk_poweroff_flush_notifier_call
.Lfunc_begin8:
	.loc	1 251 0                         // block/mas_blk_flush.c:251:0
	.cfi_startproc
// %bb.0:
	//DEBUG_VALUE: mas_blk_poweroff_flush_notifier_call:powerkey_nb <- $x0
	//DEBUG_VALUE: mas_blk_poweroff_flush_notifier_call:event <- $x1
	//DEBUG_VALUE: mas_blk_poweroff_flush_notifier_call:event <- $x1
	//DEBUG_VALUE: mas_blk_poweroff_flush_notifier_call:data <- $x2
	hint	#25
	.cfi_negate_ra_state
	str	x30, [x18], #8
	stp	x29, x30, [sp, #-16]!           // 16-byte Folded Spill
	mov	x29, sp
	.cfi_def_cfa w29, 16
	.cfi_offset w30, -8
	.cfi_offset w29, -16
.Ltmp166:
	.loc	1 252 6 prologue_end            // block/mas_blk_flush.c:252:6
	cbz	x1, .LBB8_3
.Ltmp167:
// %bb.1:
	//DEBUG_VALUE: mas_blk_poweroff_flush_notifier_call:data <- $x2
	//DEBUG_VALUE: mas_blk_poweroff_flush_notifier_call:event <- $x1
	//DEBUG_VALUE: mas_blk_poweroff_flush_notifier_call:powerkey_nb <- $x0
	cmp	x1, #1                          // =1
	b.ne	.LBB8_4
.Ltmp168:
// %bb.2:
	//DEBUG_VALUE: mas_blk_poweroff_flush_notifier_call:data <- $x2
	//DEBUG_VALUE: mas_blk_poweroff_flush_notifier_call:event <- $x1
	//DEBUG_VALUE: mas_blk_poweroff_flush_notifier_call:powerkey_nb <- $x0
	//DEBUG_VALUE: schedule_delayed_work:delay <- 1500
	.loc	6 632 28                        // include/linux/workqueue.h:632:28
	adrp	x8, system_wq
	ldr	x1, [x8, :lo12:system_wq]
.Ltmp169:
	//DEBUG_VALUE: mas_blk_poweroff_flush_notifier_call:event <- [DW_OP_LLVM_entry_value 1] $x1
	//DEBUG_VALUE: queue_delayed_work:delay <- 1500
	//DEBUG_VALUE: queue_delayed_work:wq <- $x1
	.loc	6 528 9                         // include/linux/workqueue.h:528:9
	adrp	x2, mas_blk_power_off_work
.Ltmp170:
	//DEBUG_VALUE: mas_blk_poweroff_flush_notifier_call:data <- [DW_OP_LLVM_entry_value 1] $x2
	add	x2, x2, :lo12:mas_blk_power_off_work
.Ltmp171:
	//DEBUG_VALUE: queue_delayed_work:dwork <- $x2
	//DEBUG_VALUE: schedule_delayed_work:dwork <- $x2
	mov	w0, #8
.Ltmp172:
	//DEBUG_VALUE: mas_blk_poweroff_flush_notifier_call:powerkey_nb <- [DW_OP_LLVM_entry_value 1] $x0
	mov	w3, #1500
	bl	queue_delayed_work_on
.Ltmp173:
	.loc	6 0 9 is_stmt 0                 // include/linux/workqueue.h:0:9
	b	.LBB8_4
.Ltmp174:
.LBB8_3:
	//DEBUG_VALUE: mas_blk_poweroff_flush_notifier_call:data <- $x2
	//DEBUG_VALUE: mas_blk_poweroff_flush_notifier_call:event <- $x1
	//DEBUG_VALUE: mas_blk_poweroff_flush_notifier_call:powerkey_nb <- $x0
	.loc	1 255 3 is_stmt 1               // block/mas_blk_flush.c:255:3
	adrp	x0, mas_blk_power_off_work
.Ltmp175:
	//DEBUG_VALUE: mas_blk_poweroff_flush_notifier_call:powerkey_nb <- [DW_OP_LLVM_entry_value 1] $x0
	add	x0, x0, :lo12:mas_blk_power_off_work
	bl	cancel_delayed_work
.Ltmp176:
	//DEBUG_VALUE: mas_blk_poweroff_flush_notifier_call:data <- [DW_OP_LLVM_entry_value 1] $x2
	//DEBUG_VALUE: mas_blk_poweroff_flush_notifier_call:event <- [DW_OP_LLVM_entry_value 1] $x1
.LBB8_4:
	.loc	1 262 2                         // block/mas_blk_flush.c:262:2
	mov	w0, wzr
	ldp	x29, x30, [sp], #16             // 16-byte Folded Reload
	ldr	x30, [x18, #-8]!
	hint	#29
	ret
.Ltmp177:
.Lfunc_end8:
	.size	mas_blk_poweroff_flush_notifier_call, .Lfunc_end8-mas_blk_poweroff_flush_notifier_call
	.cfi_endproc
                                        // -- End function
	.section	.init.text,"ax",@progbits
	.globl	mas_blk_flush_init              // -- Begin function mas_blk_flush_init
	.p2align	2
	.type	mas_blk_flush_init,@function
mas_blk_flush_init:                     // @mas_blk_flush_init
.Lfunc_begin9:
	.loc	1 272 0                         // block/mas_blk_flush.c:272:0
	.cfi_startproc
// %bb.0:
	hint	#25
	.cfi_negate_ra_state
	str	x30, [x18], #8
	stp	x29, x30, [sp, #-32]!           // 16-byte Folded Spill
	str	x19, [sp, #16]                  // 8-byte Folded Spill
	mov	x29, sp
	.cfi_def_cfa w29, 32
	.cfi_offset w19, -16
	.cfi_offset w30, -24
	.cfi_offset w29, -32
.Ltmp178:
	.loc	1 274 12 prologue_end           // block/mas_blk_flush.c:274:12
	adrp	x19, mas_blk_power_off_work
	add	x19, x19, :lo12:mas_blk_power_off_work
	mov	x0, x19
	mov	w1, wzr
	bl	__init_work
.Ltmp179:
	.loc	1 274 274 is_stmt 0             // block/mas_blk_flush.c:274:274
	adrp	x10, mas_blk_power_off_work_fn
.Ltmp180:
	.loc	1 274 322                       // block/mas_blk_flush.c:274:322
	adrp	x1, delayed_work_timer_fn
	mov	x8, #137438953408
.Ltmp181:
	.loc	168 35 349 is_stmt 1            // include/linux/list.h:35:349
	add	x9, x19, #8                     // =8
.Ltmp182:
	//DEBUG_VALUE: INIT_LIST_HEAD:list <- $x9
	.loc	1 274 274                       // block/mas_blk_flush.c:274:274
	add	x10, x10, :lo12:mas_blk_power_off_work_fn
.Ltmp183:
	.loc	1 274 322 is_stmt 0             // block/mas_blk_flush.c:274:322
	add	x0, x19, #48                    // =48
	add	x1, x1, :lo12:delayed_work_timer_fn
	mov	w2, #2097152
	mov	x3, xzr
	mov	x4, xzr
.Ltmp184:
	.loc	1 274 111                       // block/mas_blk_flush.c:274:111
	str	x8, [x19]
.Ltmp185:
	.loc	168 35 349 is_stmt 1            // include/linux/list.h:35:349
	str	x9, [x19, #8]
.Ltmp186:
	//DEBUG_VALUE: INIT_LIST_HEAD:list <- $x9
	.loc	168 36 13                       // include/linux/list.h:36:13
	stp	x9, x10, [x19, #16]
.Ltmp187:
	.loc	1 274 322                       // block/mas_blk_flush.c:274:322
	bl	init_timer_key
.Ltmp188:
	.loc	1 276 9                         // block/mas_blk_flush.c:276:9
	adrp	x0, mas_blk_poweroff_flush_nb
	add	x0, x0, :lo12:mas_blk_poweroff_flush_nb
	bl	power_key_register_notifier
.Ltmp189:
	.loc	1 276 2 is_stmt 0               // block/mas_blk_flush.c:276:2
	ldr	x19, [sp, #16]                  // 8-byte Folded Reload
	ldp	x29, x30, [sp], #32             // 16-byte Folded Reload
	ldr	x30, [x18, #-8]!
	hint	#29
	ret
.Ltmp190:
.Lfunc_end9:
	.size	mas_blk_flush_init, .Lfunc_end9-mas_blk_flush_init
	.cfi_endproc
                                        // -- End function
	.text
	.p2align	2                               // -- Begin function mas_blk_power_off_work_fn
	.type	mas_blk_power_off_work_fn,@function
mas_blk_power_off_work_fn:              // @mas_blk_power_off_work_fn
.Lfunc_begin10:
	.loc	1 244 0 is_stmt 1               // block/mas_blk_flush.c:244:0
	.cfi_startproc
// %bb.0:
	//DEBUG_VALUE: mas_blk_power_off_work_fn:work <- $x0
	hint	#25
	.cfi_negate_ra_state
	str	x30, [x18], #8
	stp	x29, x30, [sp, #-16]!           // 16-byte Folded Spill
	mov	x29, sp
	.cfi_def_cfa w29, 16
	.cfi_offset w30, -8
	.cfi_offset w29, -16
.Ltmp191:
	.loc	1 245 2 prologue_end            // block/mas_blk_flush.c:245:2
	mov	w0, #1
.Ltmp192:
	//DEBUG_VALUE: mas_blk_power_off_work_fn:work <- [DW_OP_LLVM_entry_value 1] $x0
	bl	blk_power_off_flush
.Ltmp193:
	.loc	1 246 1                         // block/mas_blk_flush.c:246:1
	ldp	x29, x30, [sp], #16             // 16-byte Folded Reload
	ldr	x30, [x18, #-8]!
	hint	#29
	ret
.Ltmp194:
.Lfunc_end10:
	.size	mas_blk_power_off_work_fn, .Lfunc_end10-mas_blk_power_off_work_fn
	.cfi_endproc
                                        // -- End function
	.globl	mas_blk_flush_reduced_queue_unregister // -- Begin function mas_blk_flush_reduced_queue_unregister
	.p2align	2
	.type	mas_blk_flush_reduced_queue_unregister,@function
mas_blk_flush_reduced_queue_unregister: // @mas_blk_flush_reduced_queue_unregister
.Lfunc_begin11:
	.loc	1 292 0                         // block/mas_blk_flush.c:292:0
	.cfi_startproc
// %bb.0:
	//DEBUG_VALUE: mas_blk_flush_reduced_queue_unregister:q <- $x0
	//DEBUG_VALUE: mas_blk_flush_reduced_queue_unregister:q <- $x0
	hint	#25
	.cfi_negate_ra_state
	str	x30, [x18], #8
	stp	x29, x30, [sp, #-32]!           // 16-byte Folded Spill
	stp	x20, x19, [sp, #16]             // 16-byte Folded Spill
	mov	x29, sp
	.cfi_def_cfa w29, 32
	.cfi_offset w19, -8
	.cfi_offset w20, -16
	.cfi_offset w30, -24
	.cfi_offset w29, -32
.Ltmp195:
	//DEBUG_VALUE: mas_blk_flush_reduced_queue_unregister:mas_queue <- [DW_OP_plus_uconst 1240, DW_OP_stack_value] $x0
	//DEBUG_VALUE: mas_blk_flush_reduced_queue_unregister:flush_queue_node <- undef
	//DEBUG_VALUE: mas_blk_flush_reduced_queue_unregister:mas_queue <- 0
	.loc	1 296 17 prologue_end           // block/mas_blk_flush.c:296:17
	ldr	w8, [x0, #1432]
.Ltmp196:
	.loc	1 296 6 is_stmt 0               // block/mas_blk_flush.c:296:6
	cbz	w8, .LBB11_6
.Ltmp197:
// %bb.1:
	//DEBUG_VALUE: mas_blk_flush_reduced_queue_unregister:q <- $x0
	//DEBUG_VALUE: mas_blk_flush_reduced_queue_unregister:mas_queue <- 0
	.loc	1 0 0                           // block/mas_blk_flush.c:0:0
	add	x20, x0, #1416                  // =1416
.Ltmp198:
	//DEBUG_VALUE: mas_blk_flush_reduced_queue_unregister:flush_queue_node <- $x20
	.loc	1 297 26 is_stmt 1              // block/mas_blk_flush.c:297:26
	ldr	x8, [x20]
	mov	x19, x0
.Ltmp199:
	//DEBUG_VALUE: mas_blk_flush_reduced_queue_unregister:q <- $x19
	//DEBUG_VALUE: mas_blk_flush_reduced_queue_unregister:q <- $x19
	.loc	1 297 31 is_stmt 0              // block/mas_blk_flush.c:297:31
	cbz	x8, .LBB11_6
.Ltmp200:
// %bb.2:
	//DEBUG_VALUE: mas_blk_flush_reduced_queue_unregister:flush_queue_node <- $x20
	//DEBUG_VALUE: mas_blk_flush_reduced_queue_unregister:q <- $x19
	//DEBUG_VALUE: mas_blk_flush_reduced_queue_unregister:mas_queue <- 0
	.loc	1 297 53                        // block/mas_blk_flush.c:297:53
	ldr	x8, [x19, #1424]
.Ltmp201:
	.loc	1 297 7                         // block/mas_blk_flush.c:297:7
	cbz	x8, .LBB11_6
.Ltmp202:
// %bb.3:
	//DEBUG_VALUE: mas_blk_flush_reduced_queue_unregister:flush_queue_node <- $x20
	//DEBUG_VALUE: mas_blk_flush_reduced_queue_unregister:q <- $x19
	//DEBUG_VALUE: mas_blk_flush_reduced_queue_unregister:mas_queue <- 0
	.loc	1 301 3 is_stmt 1               // block/mas_blk_flush.c:301:3
	adrp	x0, all_flush_q_lock
	add	x0, x0, :lo12:all_flush_q_lock
	bl	mutex_lock
.Ltmp203:
	//DEBUG_VALUE: __list_del_entry:entry <- $x20
	//DEBUG_VALUE: list_del:entry <- $x20
	.loc	168 132 7                       // include/linux/list.h:132:7
	mov	x0, x20
	bl	__list_del_entry_valid
.Ltmp204:
	.loc	168 132 6 is_stmt 0             // include/linux/list.h:132:6
	tbz	w0, #0, .LBB11_5
.Ltmp205:
// %bb.4:
	//DEBUG_VALUE: list_del:entry <- $x20
	//DEBUG_VALUE: __list_del_entry:entry <- $x20
	//DEBUG_VALUE: mas_blk_flush_reduced_queue_unregister:flush_queue_node <- $x20
	//DEBUG_VALUE: mas_blk_flush_reduced_queue_unregister:q <- $x19
	//DEBUG_VALUE: mas_blk_flush_reduced_queue_unregister:mas_queue <- 0
	.loc	168 135 20 is_stmt 1            // include/linux/list.h:135:20
	ldr	x8, [x19, #1424]
	.loc	168 135 33 is_stmt 0            // include/linux/list.h:135:33
	ldr	x9, [x19, #1416]
.Ltmp206:
	//DEBUG_VALUE: __list_del:prev <- $x8
	//DEBUG_VALUE: __list_del:next <- $x9
	.loc	168 112 13 is_stmt 1            // include/linux/list.h:112:13
	str	x8, [x9, #8]
.Ltmp207:
	.loc	168 113 349                     // include/linux/list.h:113:349
	str	x9, [x8]
.Ltmp208:
.LBB11_5:                               // %list_del.exit
	//DEBUG_VALUE: list_del:entry <- $x20
	//DEBUG_VALUE: mas_blk_flush_reduced_queue_unregister:flush_queue_node <- $x20
	//DEBUG_VALUE: mas_blk_flush_reduced_queue_unregister:q <- $x19
	//DEBUG_VALUE: mas_blk_flush_reduced_queue_unregister:mas_queue <- 0
	.loc	168 0 349 is_stmt 0             // include/linux/list.h:0:349
	mov	x8, #256
	movk	x8, #57005, lsl #48
	mov	w9, #34
	.loc	1 303 3 is_stmt 1               // block/mas_blk_flush.c:303:3
	adrp	x0, all_flush_q_lock
.Ltmp209:
	.loc	168 147 14                      // include/linux/list.h:147:14
	str	x8, [x19, #1416]
	.loc	168 148 14                      // include/linux/list.h:148:14
	orr	x8, x8, x9
.Ltmp210:
	.loc	1 303 3                         // block/mas_blk_flush.c:303:3
	add	x0, x0, :lo12:all_flush_q_lock
.Ltmp211:
	.loc	168 148 14                      // include/linux/list.h:148:14
	str	x8, [x19, #1424]
.Ltmp212:
	.loc	1 303 3                         // block/mas_blk_flush.c:303:3
	bl	mutex_unlock
.Ltmp213:
.LBB11_6:
	//DEBUG_VALUE: mas_blk_flush_reduced_queue_unregister:mas_queue <- 0
	.loc	1 305 1                         // block/mas_blk_flush.c:305:1
	ldp	x20, x19, [sp, #16]             // 16-byte Folded Reload
	ldp	x29, x30, [sp], #32             // 16-byte Folded Reload
	ldr	x30, [x18, #-8]!
	hint	#29
	ret
.Ltmp214:
.Lfunc_end11:
	.size	mas_blk_flush_reduced_queue_unregister, .Lfunc_end11-mas_blk_flush_reduced_queue_unregister
	.cfi_endproc
                                        // -- End function
	.globl	blk_mq_tagset_direct_flush_register // -- Begin function blk_mq_tagset_direct_flush_register
	.p2align	2
	.type	blk_mq_tagset_direct_flush_register,@function
blk_mq_tagset_direct_flush_register:    // @blk_mq_tagset_direct_flush_register
.Lfunc_begin12:
	.loc	1 313 0                         // block/mas_blk_flush.c:313:0
	.cfi_startproc
// %bb.0:
	//DEBUG_VALUE: blk_mq_tagset_direct_flush_register:tag_set <- $x0
	//DEBUG_VALUE: blk_mq_tagset_direct_flush_register:tag_set <- $x0
	//DEBUG_VALUE: blk_mq_tagset_direct_flush_register:func <- $x1
	//DEBUG_VALUE: blk_mq_tagset_direct_flush_register:func <- $x1
	hint	#25
	.cfi_negate_ra_state
	str	x30, [x18], #8
	stp	x29, x30, [sp, #-16]!           // 16-byte Folded Spill
	mov	x29, sp
	.cfi_def_cfa w29, 16
	.cfi_offset w30, -8
	.cfi_offset w29, -16
.Ltmp215:
	.loc	1 314 6 prologue_end            // block/mas_blk_flush.c:314:6
	cbz	x0, .LBB12_3
.Ltmp216:
// %bb.1:
	//DEBUG_VALUE: blk_mq_tagset_direct_flush_register:func <- $x1
	//DEBUG_VALUE: blk_mq_tagset_direct_flush_register:tag_set <- $x0
	.loc	1 319 29                        // block/mas_blk_flush.c:319:29
	str	x1, [x0, #120]
.Ltmp217:
.LBB12_2:
	.loc	1 320 1                         // block/mas_blk_flush.c:320:1
	ldp	x29, x30, [sp], #16             // 16-byte Folded Reload
	ldr	x30, [x18, #-8]!
	hint	#29
	ret
.LBB12_3:
.Ltmp218:
	//DEBUG_VALUE: blk_mq_tagset_direct_flush_register:func <- $x1
	//DEBUG_VALUE: blk_mq_tagset_direct_flush_register:tag_set <- $x0
	.loc	1 315 3                         // block/mas_blk_flush.c:315:3
	adrp	x0, .L.str.9
.Ltmp219:
	//DEBUG_VALUE: blk_mq_tagset_direct_flush_register:tag_set <- [DW_OP_LLVM_entry_value 1] $x0
	adrp	x1, .L__func__.blk_mq_tagset_direct_flush_register
.Ltmp220:
	//DEBUG_VALUE: blk_mq_tagset_direct_flush_register:func <- [DW_OP_LLVM_entry_value 1] $x1
	add	x0, x0, :lo12:.L.str.9
	add	x1, x1, :lo12:.L__func__.blk_mq_tagset_direct_flush_register
	bl	printk
.Ltmp221:
	.loc	1 0 3 is_stmt 0                 // block/mas_blk_flush.c:0:3
	b	.LBB12_2
.Ltmp222:
.Lfunc_end12:
	.size	blk_mq_tagset_direct_flush_register, .Lfunc_end12-blk_mq_tagset_direct_flush_register
	.cfi_endproc
                                        // -- End function
	.globl	mas_blk_queue_async_flush_init  // -- Begin function mas_blk_queue_async_flush_init
	.p2align	2
	.type	mas_blk_queue_async_flush_init,@function
mas_blk_queue_async_flush_init:         // @mas_blk_queue_async_flush_init
.Lfunc_begin13:
	.loc	1 323 0 is_stmt 1               // block/mas_blk_flush.c:323:0
	.cfi_startproc
// %bb.0:
	//DEBUG_VALUE: mas_blk_queue_async_flush_init:q <- $x0
	hint	#25
	.cfi_negate_ra_state
	str	x30, [x18], #8
	stp	x29, x30, [sp, #-48]!           // 16-byte Folded Spill
	stp	x22, x21, [sp, #16]             // 16-byte Folded Spill
	stp	x20, x19, [sp, #32]             // 16-byte Folded Spill
	mov	x29, sp
	.cfi_def_cfa w29, 48
	.cfi_offset w19, -8
	.cfi_offset w20, -16
	.cfi_offset w21, -24
	.cfi_offset w22, -32
	.cfi_offset w30, -40
	.cfi_offset w29, -48
	mov	x19, x0
.Ltmp223:
	//DEBUG_VALUE: mas_blk_queue_async_flush_init:blk_lld <- 0
	//DEBUG_VALUE: mas_blk_queue_async_flush_init:q <- $x19
	.loc	1 324 32 prologue_end           // block/mas_blk_flush.c:324:32
	bl	mas_blk_get_lld
.Ltmp224:
	//DEBUG_VALUE: mas_blk_queue_async_flush_init:flush_queue_node <- undef
	//DEBUG_VALUE: mas_blk_queue_async_flush_init:mas_queue <- [DW_OP_plus_uconst 1240, DW_OP_stack_value] $x19
	//DEBUG_VALUE: mas_blk_queue_async_flush_init:blk_lld <- $x0
	.loc	1 328 6                         // block/mas_blk_flush.c:328:6
	ldrb	w8, [x0, #24]
	tbz	w8, #2, .LBB13_12
.Ltmp225:
// %bb.1:
	//DEBUG_VALUE: mas_blk_queue_async_flush_init:mas_queue <- [DW_OP_plus_uconst 1240, DW_OP_stack_value] $x19
	//DEBUG_VALUE: mas_blk_queue_async_flush_init:q <- $x19
	//DEBUG_VALUE: mas_blk_queue_async_flush_init:blk_lld <- $x0
	.loc	1 331 7                         // block/mas_blk_flush.c:331:7
	adrp	x20, blk_async_flush_workqueue
	ldr	x8, [x20, :lo12:blk_async_flush_workqueue]
.Ltmp226:
	.loc	1 0 0 is_stmt 0                 // block/mas_blk_flush.c:0:0
	mov	x21, x0
.Ltmp227:
	//DEBUG_VALUE: mas_blk_queue_async_flush_init:blk_lld <- $x21
	//DEBUG_VALUE: mas_blk_queue_async_flush_init:blk_lld <- $x21
	//DEBUG_VALUE: mas_blk_queue_async_flush_init:flush_queue_node <- undef
	.loc	1 331 6                         // block/mas_blk_flush.c:331:6
	cbnz	x8, .LBB13_3
.Ltmp228:
// %bb.2:
	//DEBUG_VALUE: mas_blk_queue_async_flush_init:blk_lld <- $x21
	//DEBUG_VALUE: mas_blk_queue_async_flush_init:mas_queue <- [DW_OP_plus_uconst 1240, DW_OP_stack_value] $x19
	//DEBUG_VALUE: mas_blk_queue_async_flush_init:q <- $x19
	.loc	1 333 4 is_stmt 1               // block/mas_blk_flush.c:333:4
	adrp	x0, .L.str.10
	add	x0, x0, :lo12:.L.str.10
	mov	w1, #2
	mov	w2, wzr
	bl	alloc_workqueue
.Ltmp229:
	.loc	1 332 29                        // block/mas_blk_flush.c:332:29
	str	x0, [x20, :lo12:blk_async_flush_workqueue]
.Ltmp230:
	.loc	1 335 6                         // block/mas_blk_flush.c:335:6
	cbz	x0, .LBB13_13
.Ltmp231:
.LBB13_3:                               // %.thread
	//DEBUG_VALUE: mas_blk_queue_async_flush_init:blk_lld <- $x21
	//DEBUG_VALUE: mas_blk_queue_async_flush_init:mas_queue <- [DW_OP_plus_uconst 1240, DW_OP_stack_value] $x19
	//DEBUG_VALUE: mas_blk_queue_async_flush_init:q <- $x19
	.loc	163 46 61                       // include/asm-generic/atomic-instrumented.h:46:61
	str	wzr, [x19, #1404]
.Ltmp232:
	.loc	1 341 25                        // block/mas_blk_flush.c:341:25
	ldr	x8, [x19, #1416]
.Ltmp233:
	.loc	1 0 0 is_stmt 0                 // block/mas_blk_flush.c:0:0
	add	x20, x19, #1416                 // =1416
	//DEBUG_VALUE: atomic_set:i <- 0
	//DEBUG_VALUE: atomic_set:v <- [DW_OP_plus_uconst 1404, DW_OP_stack_value] $x19
.Ltmp234:
	//DEBUG_VALUE: mas_blk_queue_async_flush_init:flush_queue_node <- $x20
	.loc	1 341 30                        // block/mas_blk_flush.c:341:30
	cbnz	x8, .LBB13_6
.Ltmp235:
// %bb.4:
	//DEBUG_VALUE: mas_blk_queue_async_flush_init:blk_lld <- $x21
	//DEBUG_VALUE: mas_blk_queue_async_flush_init:flush_queue_node <- $x20
	//DEBUG_VALUE: mas_blk_queue_async_flush_init:mas_queue <- [DW_OP_plus_uconst 1240, DW_OP_stack_value] $x19
	//DEBUG_VALUE: mas_blk_queue_async_flush_init:q <- $x19
	.loc	1 341 52                        // block/mas_blk_flush.c:341:52
	ldr	x8, [x19, #1424]
.Ltmp236:
	.loc	1 341 6                         // block/mas_blk_flush.c:341:6
	cbnz	x8, .LBB13_6
.Ltmp237:
// %bb.5:
	//DEBUG_VALUE: mas_blk_queue_async_flush_init:blk_lld <- $x21
	//DEBUG_VALUE: mas_blk_queue_async_flush_init:flush_queue_node <- $x20
	//DEBUG_VALUE: mas_blk_queue_async_flush_init:mas_queue <- [DW_OP_plus_uconst 1240, DW_OP_stack_value] $x19
	//DEBUG_VALUE: mas_blk_queue_async_flush_init:q <- $x19
	//DEBUG_VALUE: INIT_LIST_HEAD:list <- $x20
	.loc	168 35 349 is_stmt 1            // include/linux/list.h:35:349
	str	x20, [x19, #1416]
.Ltmp238:
	.loc	168 36 13                       // include/linux/list.h:36:13
	str	x20, [x19, #1424]
.Ltmp239:
.LBB13_6:
	//DEBUG_VALUE: mas_blk_queue_async_flush_init:blk_lld <- $x21
	//DEBUG_VALUE: mas_blk_queue_async_flush_init:flush_queue_node <- $x20
	//DEBUG_VALUE: mas_blk_queue_async_flush_init:mas_queue <- [DW_OP_plus_uconst 1240, DW_OP_stack_value] $x19
	//DEBUG_VALUE: mas_blk_queue_async_flush_init:q <- $x19
	.loc	1 344 53                        // block/mas_blk_flush.c:344:53
	add	x0, x19, #1264                  // =1264
	.loc	1 344 12 is_stmt 0              // block/mas_blk_flush.c:344:12
	mov	w1, wzr
	bl	__init_work
.Ltmp240:
	.loc	1 344 270                       // block/mas_blk_flush.c:344:270
	adrp	x10, __cfi_mas_blk_flush_work_fn
.Ltmp241:
	.loc	1 344 320                       // block/mas_blk_flush.c:344:320
	adrp	x1, delayed_work_timer_fn
	mov	x8, #137438953408
.Ltmp242:
	.loc	1 344 220                       // block/mas_blk_flush.c:344:220
	add	x9, x19, #1272                  // =1272
	.loc	1 344 270                       // block/mas_blk_flush.c:344:270
	add	x10, x10, :lo12:__cfi_mas_blk_flush_work_fn
.Ltmp243:
	.loc	1 344 363                       // block/mas_blk_flush.c:344:363
	add	x0, x19, #1312                  // =1312
	.loc	1 344 320                       // block/mas_blk_flush.c:344:320
	add	x1, x1, :lo12:delayed_work_timer_fn
	mov	w2, #2097152
	mov	x3, xzr
	mov	x4, xzr
.Ltmp244:
	.loc	1 344 109                       // block/mas_blk_flush.c:344:109
	str	x8, [x19, #1264]
.Ltmp245:
	//DEBUG_VALUE: INIT_LIST_HEAD:list <- $x9
	.loc	168 35 349 is_stmt 1            // include/linux/list.h:35:349
	str	x9, [x19, #1272]
.Ltmp246:
	.loc	168 36 13                       // include/linux/list.h:36:13
	str	x9, [x19, #1280]
.Ltmp247:
	.loc	1 344 270                       // block/mas_blk_flush.c:344:270
	str	x10, [x19, #1288]
.Ltmp248:
	.loc	1 344 320 is_stmt 0             // block/mas_blk_flush.c:344:320
	bl	init_timer_key
.Ltmp249:
	.loc	1 346 15 is_stmt 1              // block/mas_blk_flush.c:346:15
	ldr	x8, [x21, #56]
	.loc	1 346 24 is_stmt 0              // block/mas_blk_flush.c:346:24
	cbz	x8, .LBB13_11
.Ltmp250:
// %bb.7:
	//DEBUG_VALUE: mas_blk_queue_async_flush_init:blk_lld <- $x21
	//DEBUG_VALUE: mas_blk_queue_async_flush_init:flush_queue_node <- $x20
	//DEBUG_VALUE: mas_blk_queue_async_flush_init:mas_queue <- [DW_OP_plus_uconst 1240, DW_OP_stack_value] $x19
	//DEBUG_VALUE: mas_blk_queue_async_flush_init:q <- $x19
	//DEBUG_VALUE: list_empty:head <- $x20
	.loc	168 282 304 is_stmt 1           // include/linux/list.h:282:304
	ldr	x8, [x20]
.Ltmp251:
	.loc	1 346 6                         // block/mas_blk_flush.c:346:6
	cmp	x8, x20
	b.ne	.LBB13_11
.Ltmp252:
// %bb.8:
	//DEBUG_VALUE: mas_blk_queue_async_flush_init:blk_lld <- $x21
	//DEBUG_VALUE: mas_blk_queue_async_flush_init:flush_queue_node <- $x20
	//DEBUG_VALUE: mas_blk_queue_async_flush_init:mas_queue <- [DW_OP_plus_uconst 1240, DW_OP_stack_value] $x19
	//DEBUG_VALUE: mas_blk_queue_async_flush_init:q <- $x19
	//DEBUG_VALUE: mas_blk_flush_reduced_queue_register:q <- $x19
	.loc	1 286 2                         // block/mas_blk_flush.c:286:2
	adrp	x0, all_flush_q_lock
	add	x0, x0, :lo12:all_flush_q_lock
	bl	mutex_lock
.Ltmp253:
	//DEBUG_VALUE: list_add:new <- $x20
	.loc	168 86 30                       // include/linux/list.h:86:30
	adrp	x21, all_flush_q_list
.Ltmp254:
	add	x21, x21, :lo12:all_flush_q_list
.Ltmp255:
	//DEBUG_VALUE: list_add:head <- $x21
	ldr	x22, [x21]
.Ltmp256:
	//DEBUG_VALUE: __list_add:new <- $x20
	//DEBUG_VALUE: __list_add:next <- $x22
	//DEBUG_VALUE: __list_add:prev <- $x21
	.loc	168 67 7                        // include/linux/list.h:67:7
	mov	x0, x20
	mov	x1, x21
	mov	x2, x22
	bl	__list_add_valid
.Ltmp257:
	.loc	168 67 6 is_stmt 0              // include/linux/list.h:67:6
	tbz	w0, #0, .LBB13_10
.Ltmp258:
// %bb.9:
	//DEBUG_VALUE: __list_add:next <- $x22
	//DEBUG_VALUE: __list_add:prev <- $x21
	//DEBUG_VALUE: list_add:head <- $x21
	//DEBUG_VALUE: __list_add:new <- $x20
	//DEBUG_VALUE: list_add:new <- $x20
	//DEBUG_VALUE: mas_blk_queue_async_flush_init:flush_queue_node <- $x20
	//DEBUG_VALUE: mas_blk_flush_reduced_queue_register:q <- $x19
	//DEBUG_VALUE: mas_blk_queue_async_flush_init:mas_queue <- [DW_OP_plus_uconst 1240, DW_OP_stack_value] $x19
	//DEBUG_VALUE: mas_blk_queue_async_flush_init:q <- $x19
	.loc	168 72 12 is_stmt 1             // include/linux/list.h:72:12
	adrp	x8, all_flush_q_list
	.loc	168 70 13                       // include/linux/list.h:70:13
	str	x20, [x22, #8]
	.loc	168 71 12                       // include/linux/list.h:71:12
	str	x22, [x19, #1416]
	.loc	168 72 12                       // include/linux/list.h:72:12
	str	x21, [x19, #1424]
.Ltmp259:
	.loc	168 73 349                      // include/linux/list.h:73:349
	str	x20, [x8, :lo12:all_flush_q_list]
.Ltmp260:
.LBB13_10:                              // %mas_blk_flush_reduced_queue_register.exit
	//DEBUG_VALUE: mas_blk_queue_async_flush_init:flush_queue_node <- $x20
	//DEBUG_VALUE: mas_blk_flush_reduced_queue_register:q <- $x19
	//DEBUG_VALUE: mas_blk_queue_async_flush_init:mas_queue <- [DW_OP_plus_uconst 1240, DW_OP_stack_value] $x19
	//DEBUG_VALUE: mas_blk_queue_async_flush_init:q <- $x19
	.loc	1 288 2                         // block/mas_blk_flush.c:288:2
	adrp	x0, all_flush_q_lock
	add	x0, x0, :lo12:all_flush_q_lock
	bl	mutex_unlock
.Ltmp261:
.LBB13_11:
	//DEBUG_VALUE: mas_blk_queue_async_flush_init:flush_queue_node <- $x20
	//DEBUG_VALUE: mas_blk_queue_async_flush_init:mas_queue <- [DW_OP_plus_uconst 1240, DW_OP_stack_value] $x19
	//DEBUG_VALUE: mas_blk_queue_async_flush_init:q <- $x19
	.loc	1 0 2 is_stmt 0                 // block/mas_blk_flush.c:0:2
	mov	w8, #1
	.loc	1 349 28 is_stmt 1              // block/mas_blk_flush.c:349:28
	str	w8, [x19, #1432]
.Ltmp262:
.LBB13_12:
	//DEBUG_VALUE: mas_blk_queue_async_flush_init:mas_queue <- [DW_OP_plus_uconst 1240, DW_OP_stack_value] $x19
	//DEBUG_VALUE: mas_blk_queue_async_flush_init:q <- $x19
	.loc	1 350 1                         // block/mas_blk_flush.c:350:1
	ldp	x20, x19, [sp, #32]             // 16-byte Folded Reload
.Ltmp263:
	ldp	x22, x21, [sp, #16]             // 16-byte Folded Reload
	ldp	x29, x30, [sp], #48             // 16-byte Folded Reload
	ldr	x30, [x18, #-8]!
	hint	#29
	ret
.LBB13_13:
.Ltmp264:
	//DEBUG_VALUE: mas_blk_queue_async_flush_init:blk_lld <- $x21
	//DEBUG_VALUE: mas_blk_queue_async_flush_init:mas_queue <- [DW_OP_plus_uconst 1240, DW_OP_stack_value] $x19
	//DEBUG_VALUE: mas_blk_queue_async_flush_init:q <- $x19
	.loc	1 336 3                         // block/mas_blk_flush.c:336:3
	adrp	x0, .L.str.11
	adrp	x1, .L__func__.mas_blk_queue_async_flush_init
	add	x0, x0, :lo12:.L.str.11
	add	x1, x1, :lo12:.L__func__.mas_blk_queue_async_flush_init
	bl	printk
.Ltmp265:
	.loc	1 0 3 is_stmt 0                 // block/mas_blk_flush.c:0:3
	b	.LBB13_12
.Ltmp266:
.Lfunc_end13:
	.size	mas_blk_queue_async_flush_init, .Lfunc_end13-mas_blk_queue_async_flush_init
	.cfi_endproc
                                        // -- End function
	.globl	blk_flush_set_async             // -- Begin function blk_flush_set_async
	.p2align	2
	.type	blk_flush_set_async,@function
blk_flush_set_async:                    // @blk_flush_set_async
.Lfunc_begin14:
	.loc	1 356 0 is_stmt 1               // block/mas_blk_flush.c:356:0
	.cfi_startproc
// %bb.0:
	.loc	1 357 6 prologue_end            // block/mas_blk_flush.c:357:6
	hint	#34
.Ltmp267:
	//DEBUG_VALUE: blk_flush_set_async:bio <- $x0
	//DEBUG_VALUE: blk_flush_set_async:bio <- $x0
	cbz	x0, .LBB14_2
.Ltmp268:
// %bb.1:
	//DEBUG_VALUE: blk_flush_set_async:bio <- $x0
	hint	#25
	.cfi_negate_ra_state
	mov	w8, #1
.Ltmp269:
	.loc	1 358 31                        // block/mas_blk_flush.c:358:31
	strb	w8, [x0, #130]
	hint	#29
.Ltmp270:
.LBB14_2:
	//DEBUG_VALUE: blk_flush_set_async:bio <- $x0
	.loc	1 359 1                         // block/mas_blk_flush.c:359:1
	ret
.Ltmp271:
.Lfunc_end14:
	.size	blk_flush_set_async, .Lfunc_end14-blk_flush_set_async
	.cfi_endproc
                                        // -- End function
	.globl	blk_mq_tagset_flush_reduce_config // -- Begin function blk_mq_tagset_flush_reduce_config
	.p2align	2
	.type	blk_mq_tagset_flush_reduce_config,@function
blk_mq_tagset_flush_reduce_config:      // @blk_mq_tagset_flush_reduce_config
.Lfunc_begin15:
	.loc	1 419 0                         // block/mas_blk_flush.c:419:0
	.cfi_startproc
// %bb.0:
	//DEBUG_VALUE: blk_mq_tagset_flush_reduce_config:tag_set <- $x0
	//DEBUG_VALUE: blk_mq_tagset_flush_reduce_config:tag_set <- $x0
	//DEBUG_VALUE: blk_mq_tagset_flush_reduce_config:flush_reduce_enable <- [DW_OP_LLVM_convert 1 7, DW_OP_LLVM_convert 8 7, DW_OP_stack_value] $w1
	//DEBUG_VALUE: blk_mq_tagset_flush_reduce_config:flush_reduce_enable <- [DW_OP_LLVM_convert 1 7, DW_OP_LLVM_convert 8 7, DW_OP_stack_value] $w1
	hint	#25
	.cfi_negate_ra_state
	str	x30, [x18], #8
	stp	x29, x30, [sp, #-16]!           // 16-byte Folded Spill
	mov	x29, sp
	.cfi_def_cfa w29, 16
	.cfi_offset w30, -8
	.cfi_offset w29, -16
.Ltmp272:
	.loc	1 420 6 prologue_end            // block/mas_blk_flush.c:420:6
	cbz	x0, .LBB15_6
.Ltmp273:
// %bb.1:
	//DEBUG_VALUE: blk_mq_tagset_flush_reduce_config:tag_set <- $x0
	//DEBUG_VALUE: blk_mq_tagset_flush_reduce_config:flush_reduce_enable <- [DW_OP_LLVM_convert 1 7, DW_OP_LLVM_convert 8 7, DW_OP_stack_value] $w1
	//DEBUG_VALUE: blk_mq_tagset_flush_reduce_config:flush_reduce_enable <- [DW_OP_LLVM_convert 1 7, DW_OP_LLVM_convert 8 7, DW_OP_stack_value] $w1
	.loc	1 0 0 is_stmt 0                 // block/mas_blk_flush.c:0:0
	ldr	x8, [x0, #88]
.Ltmp274:
	.loc	1 425 6 is_stmt 1               // block/mas_blk_flush.c:425:6
	tbz	w1, #0, .LBB15_3
.Ltmp275:
// %bb.2:
	//DEBUG_VALUE: blk_mq_tagset_flush_reduce_config:tag_set <- $x0
	//DEBUG_VALUE: blk_mq_tagset_flush_reduce_config:flush_reduce_enable <- [DW_OP_LLVM_convert 1 7, DW_OP_LLVM_convert 8 7, DW_OP_stack_value] $w1
	.loc	1 426 30                        // block/mas_blk_flush.c:426:30
	orr	x8, x8, #0x4
	b	.LBB15_4
.Ltmp276:
.LBB15_3:
	//DEBUG_VALUE: blk_mq_tagset_flush_reduce_config:tag_set <- $x0
	//DEBUG_VALUE: blk_mq_tagset_flush_reduce_config:flush_reduce_enable <- [DW_OP_LLVM_convert 1 7, DW_OP_LLVM_convert 8 7, DW_OP_stack_value] $w1
	.loc	1 428 30                        // block/mas_blk_flush.c:428:30
	and	x8, x8, #0xfffffffffffffffb
.Ltmp277:
.LBB15_4:
	//DEBUG_VALUE: blk_mq_tagset_flush_reduce_config:tag_set <- $x0
	//DEBUG_VALUE: blk_mq_tagset_flush_reduce_config:flush_reduce_enable <- [DW_OP_LLVM_convert 1 7, DW_OP_LLVM_convert 8 7, DW_OP_stack_value] $w1
	.loc	1 0 0 is_stmt 0                 // block/mas_blk_flush.c:0:0
	str	x8, [x0, #88]
.Ltmp278:
.LBB15_5:
	.loc	1 429 1 is_stmt 1               // block/mas_blk_flush.c:429:1
	ldp	x29, x30, [sp], #16             // 16-byte Folded Reload
	ldr	x30, [x18, #-8]!
	hint	#29
	ret
.LBB15_6:
.Ltmp279:
	//DEBUG_VALUE: blk_mq_tagset_flush_reduce_config:tag_set <- $x0
	//DEBUG_VALUE: blk_mq_tagset_flush_reduce_config:flush_reduce_enable <- [DW_OP_LLVM_convert 1 7, DW_OP_LLVM_convert 8 7, DW_OP_stack_value] $w1
	.loc	1 421 3                         // block/mas_blk_flush.c:421:3
	adrp	x0, .L.str.9
.Ltmp280:
	//DEBUG_VALUE: blk_mq_tagset_flush_reduce_config:tag_set <- [DW_OP_LLVM_entry_value 1] $x0
	adrp	x1, .L__func__.blk_mq_tagset_flush_reduce_config
.Ltmp281:
	add	x0, x0, :lo12:.L.str.9
	add	x1, x1, :lo12:.L__func__.blk_mq_tagset_flush_reduce_config
	bl	printk
.Ltmp282:
	.loc	1 0 3 is_stmt 0                 // block/mas_blk_flush.c:0:3
	b	.LBB15_5
.Ltmp283:
.Lfunc_end15:
	.size	blk_mq_tagset_flush_reduce_config, .Lfunc_end15-blk_mq_tagset_flush_reduce_config
	.cfi_endproc
                                        // -- End function
	.globl	blk_flush_async_support         // -- Begin function blk_flush_async_support
	.p2align	2
	.type	blk_flush_async_support,@function
blk_flush_async_support:                // @blk_flush_async_support
.Lfunc_begin16:
	.loc	1 435 0 is_stmt 1               // block/mas_blk_flush.c:435:0
	.cfi_startproc
// %bb.0:
	//DEBUG_VALUE: blk_flush_async_support:bi_bdev <- $x0
	//DEBUG_VALUE: blk_flush_async_support:bi_bdev <- $x0
	hint	#25
	.cfi_negate_ra_state
	str	x30, [x18], #8
	stp	x29, x30, [sp, #-16]!           // 16-byte Folded Spill
	mov	x29, sp
	.cfi_def_cfa w29, 16
	.cfi_offset w30, -8
	.cfi_offset w29, -16
.Ltmp284:
	//DEBUG_VALUE: blk_flush_async_support:q <- 0
	.loc	1 438 6 prologue_end            // block/mas_blk_flush.c:438:6
	cbz	x0, .LBB16_3
.Ltmp285:
// %bb.1:
	//DEBUG_VALUE: blk_flush_async_support:bi_bdev <- $x0
	//DEBUG_VALUE: blk_flush_async_support:q <- 0
	//DEBUG_VALUE: bdev_get_queue:bdev <- $x0
	.loc	19 1339 15                      // include/linux/blkdev.h:1339:15
	ldr	x8, [x0, #192]
	.loc	19 1339 24 is_stmt 0            // include/linux/blkdev.h:1339:24
	ldr	x8, [x8, #1248]
.Ltmp286:
	//DEBUG_VALUE: blk_flush_async_support:q <- $x8
	.loc	1 444 6 is_stmt 1               // block/mas_blk_flush.c:444:6
	cbz	x8, .LBB16_4
.Ltmp287:
// %bb.2:
	//DEBUG_VALUE: blk_flush_async_support:q <- $x8
	//DEBUG_VALUE: blk_flush_async_support:bi_bdev <- $x0
	.loc	1 445 23                        // block/mas_blk_flush.c:445:23
	ldr	w0, [x8, #1432]
.Ltmp288:
	//DEBUG_VALUE: blk_flush_async_support:bi_bdev <- [DW_OP_LLVM_entry_value 1] $x0
	.loc	1 0 23 is_stmt 0                // block/mas_blk_flush.c:0:23
	b	.LBB16_5
.Ltmp289:
.LBB16_3:
	//DEBUG_VALUE: blk_flush_async_support:bi_bdev <- $x0
	//DEBUG_VALUE: blk_flush_async_support:q <- 0
	.loc	1 439 3 is_stmt 1               // block/mas_blk_flush.c:439:3
	adrp	x0, .L.str.12
.Ltmp290:
	//DEBUG_VALUE: blk_flush_async_support:bi_bdev <- [DW_OP_LLVM_entry_value 1] $x0
	adrp	x1, .L__func__.blk_flush_async_support
	add	x0, x0, :lo12:.L.str.12
	add	x1, x1, :lo12:.L__func__.blk_flush_async_support
	bl	printk
.Ltmp291:
.LBB16_4:
	.loc	1 0 0 is_stmt 0                 // block/mas_blk_flush.c:0:0
	mov	w0, wzr
.LBB16_5:
	.loc	1 448 1 is_stmt 1               // block/mas_blk_flush.c:448:1
	ldp	x29, x30, [sp], #16             // 16-byte Folded Reload
	ldr	x30, [x18, #-8]!
	hint	#29
	ret
.Ltmp292:
.Lfunc_end16:
	.size	blk_flush_async_support, .Lfunc_end16-blk_flush_async_support
	.cfi_endproc
                                        // -- End function
	.type	.L.str,@object                  // @.str
	.section	.rodata.str1.1,"aMS",@progbits,1
.L.str:
	.asciz	"\0013[BLK-IO]%s: blkdev_get fail!\n"
	.size	.L.str, 32

	.type	.L__func__.mas_blk_flush_work_fn,@object // @__func__.mas_blk_flush_work_fn
.L__func__.mas_blk_flush_work_fn:
	.asciz	"mas_blk_flush_work_fn"
	.size	.L__func__.mas_blk_flush_work_fn, 22

	.type	.L.str.1,@object                // @.str.1
.L.str.1:
	.asciz	"\0013[BLK-IO]%s: blkdev_issue_flush fail!\n"
	.size	.L.str.1, 40

	.type	blk_async_flush_workqueue,@object // @blk_async_flush_workqueue
	.local	blk_async_flush_workqueue
	.comm	blk_async_flush_workqueue,8,8
	.type	.L.str.2,@object                // @.str.2
.L.str.2:
	.asciz	"\0013[BLK-IO]%s: emergency = %d\n"
	.size	.L.str.2, 30

	.type	.L__func__.blk_power_off_flush,@object // @__func__.blk_power_off_flush
.L__func__.blk_power_off_flush:
	.asciz	"blk_power_off_flush"
	.size	.L__func__.blk_power_off_flush, 20

	.type	all_flush_q_lock,@object        // @all_flush_q_lock
	.data
	.p2align	3
all_flush_q_lock:
	.zero	8
	.zero	4
	.word	3735899821                      // 0xdead4ead
	.word	4294967295                      // 0xffffffff
	.zero	4
	.xword	-1
	.zero	4
	.zero	4
	.xword	all_flush_q_lock+40
	.xword	all_flush_q_lock+40
	.zero	16
	.size	all_flush_q_lock, 72

	.type	all_flush_q_list,@object        // @all_flush_q_list
	.p2align	3
all_flush_q_list:
	.xword	all_flush_q_list
	.xword	all_flush_q_list
	.size	all_flush_q_list, 16

	.type	.L.str.3,@object                // @.str.3
	.section	.rodata.str1.1,"aMS",@progbits,1
.L.str.3:
	.asciz	"\0013[BLK-IO]%s: emergency flush on %s\n"
	.size	.L.str.3, 37

	.type	.L.str.4,@object                // @.str.4
.L.str.4:
	.asciz	"\0013[BLK-IO]%s, bdev is NULL!\n"
	.size	.L.str.4, 29

	.type	.L.str.5,@object                // @.str.5
.L.str.5:
	.asciz	"\0013[BLK-IO]%s: emergency flush on %s done!\n"
	.size	.L.str.5, 43

	.type	.L.str.6,@object                // @.str.6
.L.str.6:
	.asciz	"\0013[BLK-IO]%s: done!\n"
	.size	.L.str.6, 21

	.type	all_flush_spin_lock,@object     // @all_flush_spin_lock
	.data
	.p2align	3
all_flush_spin_lock:
	.zero	4
	.word	3735899821                      // 0xdead4ead
	.word	4294967295                      // 0xffffffff
	.zero	4
	.xword	-1
	.size	all_flush_spin_lock, 24

	.type	.L__func__.mas_blk_send_sync_cache,@object // @__func__.mas_blk_send_sync_cache
	.section	.rodata.str1.1,"aMS",@progbits,1
.L__func__.mas_blk_send_sync_cache:
	.asciz	"mas_blk_send_sync_cache"
	.size	.L__func__.mas_blk_send_sync_cache, 24

	.type	all_object_lock,@object         // @all_object_lock
	.data
	.p2align	3
all_object_lock:
	.zero	4
	.word	3735899821                      // 0xdead4ead
	.word	4294967295                      // 0xffffffff
	.zero	4
	.xword	-1
	.size	all_object_lock, 24

	.type	all_object_list,@object         // @all_object_list
	.p2align	3
all_object_list:
	.xword	all_object_list
	.xword	all_object_list
	.size	all_object_list, 16

	.type	.L.str.7,@object                // @.str.7
	.section	.rodata.str1.1,"aMS",@progbits,1
.L.str.7:
	.asciz	"\0013[BLK-IO]<%s> type = %d\n"
	.size	.L.str.7, 26

	.type	.L__func__.mas_blk_panic_flush,@object // @__func__.mas_blk_panic_flush
.L__func__.mas_blk_panic_flush:
	.asciz	"mas_blk_panic_flush"
	.size	.L__func__.mas_blk_panic_flush, 20

	.type	mas_blk_power_off_work,@object  // @mas_blk_power_off_work
	.local	mas_blk_power_off_work
	.comm	mas_blk_power_off_work,136,8
	.type	mas_blk_poweroff_flush_nb,@object // @mas_blk_poweroff_flush_nb
	.data
	.p2align	3
mas_blk_poweroff_flush_nb:
	.xword	__cfi_mas_blk_poweroff_flush_notifier_call
	.xword	0
	.word	0                               // 0x0
	.zero	4
	.size	mas_blk_poweroff_flush_nb, 24

	.type	__UNIQUE_ID___addressable___cfi_mas_blk_flush_init430,@object // @__UNIQUE_ID___addressable___cfi_mas_blk_flush_init430
	.section	.discard.addressable,"aw",@progbits
	.p2align	3
__UNIQUE_ID___addressable___cfi_mas_blk_flush_init430:
	.xword	__cfi_mas_blk_flush_init
	.size	__UNIQUE_ID___addressable___cfi_mas_blk_flush_init430, 8

	.type	.L.str.9,@object                // @.str.9
	.section	.rodata.str1.1,"aMS",@progbits,1
.L.str.9:
	.asciz	"\0013[BLK-IO]%s: tag_set is NULL!\n"
	.size	.L.str.9, 32

	.type	.L__func__.blk_mq_tagset_direct_flush_register,@object // @__func__.blk_mq_tagset_direct_flush_register
.L__func__.blk_mq_tagset_direct_flush_register:
	.asciz	"blk_mq_tagset_direct_flush_register"
	.size	.L__func__.blk_mq_tagset_direct_flush_register, 36

	.type	.L.str.10,@object               // @.str.10
.L.str.10:
	.asciz	"async_flush"
	.size	.L.str.10, 12

	.type	.L.str.11,@object               // @.str.11
.L.str.11:
	.asciz	"\0013[BLK-IO]%s: Failed to alloc workqueue!\n"
	.size	.L.str.11, 42

	.type	.L__func__.mas_blk_queue_async_flush_init,@object // @__func__.mas_blk_queue_async_flush_init
.L__func__.mas_blk_queue_async_flush_init:
	.asciz	"mas_blk_queue_async_flush_init"
	.size	.L__func__.mas_blk_queue_async_flush_init, 31

	.type	.L__func__.blk_mq_tagset_flush_reduce_config,@object // @__func__.blk_mq_tagset_flush_reduce_config
.L__func__.blk_mq_tagset_flush_reduce_config:
	.asciz	"blk_mq_tagset_flush_reduce_config"
	.size	.L__func__.blk_mq_tagset_flush_reduce_config, 34

	.type	.L.str.12,@object               // @.str.12
.L.str.12:
	.asciz	"\0013[BLK-IO]%s: bi_bdev is NULL!\n"
	.size	.L.str.12, 32

	.type	.L__func__.blk_flush_async_support,@object // @__func__.blk_flush_async_support
.L__func__.blk_flush_async_support:
	.asciz	"blk_flush_async_support"
	.size	.L__func__.blk_flush_async_support, 24
