	.text
	.section	.note.gnu.property,"a",@note
	.p2align	3
	.word	4
	.word	16
	.word	5
	.asciz	"GNU"
	.word	3221225472
	.word	4
	.word	3
	.word	0
.Lsec_end0:
	.text
	.file	"mas_bkops_core.c"
	.file	1 "/mnt/disk/jenkins/ci/workspace/chipset_pipeline_release/opensource/component_code/out/kernel-out/gki_kernel/common" "include/linux/types.h"
	.file	2 "/mnt/disk/jenkins/ci/workspace/chipset_pipeline_release/opensource/component_code/out/kernel-out/gki_kernel/common" "include/asm-generic/qspinlock_types.h"
	.file	3 "/mnt/disk/jenkins/ci/workspace/chipset_pipeline_release/opensource/component_code/out/kernel-out/gki_kernel/common" "include/uapi/asm-generic/int-ll64.h"
	.file	4 "/mnt/disk/jenkins/ci/workspace/chipset_pipeline_release/opensource/component_code/out/kernel-out/gki_kernel/common" "include/asm-generic/int-ll64.h"
	.file	5 "/mnt/disk/jenkins/ci/workspace/chipset_pipeline_release/opensource/component_code/out/kernel-out/gki_kernel/common" "include/linux/spinlock_types.h"
	.file	6 "/mnt/disk/jenkins/ci/workspace/chipset_pipeline_release/opensource/component_code/out/kernel-out/gki_kernel/common" "include/linux/ratelimit_types.h"
	.file	7 "/mnt/disk/jenkins/ci/workspace/chipset_pipeline_release/opensource/component_code/out/kernel-out/gki_kernel/common" "block/mas_bkops_core.c"
	.file	8 "/mnt/disk/jenkins/ci/workspace/chipset_pipeline_release/opensource/component_code/out/kernel-out/gki_kernel/common" "include/asm-generic/atomic-long.h"
	.file	9 "/mnt/disk/jenkins/ci/workspace/chipset_pipeline_release/opensource/component_code/out/kernel-out/gki_kernel/common" "include/linux/mutex.h"
	.file	10 "/mnt/disk/jenkins/ci/workspace/chipset_pipeline_release/opensource/component_code/out/kernel-out/gki_kernel/common" "include/linux/osq_lock.h"
	.file	11 "/mnt/disk/jenkins/ci/workspace/chipset_pipeline_release/opensource/component_code/out/kernel-out/gki_kernel/common" "include/linux/notifier.h"
	.file	12 "/mnt/disk/jenkins/ci/workspace/chipset_pipeline_release/opensource/component_code/out/kernel-out/gki_kernel/common" "include/linux/proc_fs.h"
	.file	13 "/mnt/disk/jenkins/ci/workspace/chipset_pipeline_release/opensource/component_code/out/kernel-out/gki_kernel/common" "include/linux/fs.h"
	.file	14 "/mnt/disk/jenkins/ci/workspace/chipset_pipeline_release/opensource/component_code/out/kernel-out/gki_kernel/common" "include/uapi/asm-generic/posix_types.h"
	.file	15 "/mnt/disk/jenkins/ci/workspace/chipset_pipeline_release/opensource/component_code/out/kernel-out/gki_kernel/common" "include/linux/uidgid.h"
	.file	16 "/mnt/disk/jenkins/ci/workspace/chipset_pipeline_release/opensource/component_code/out/kernel-out/gki_kernel/common" "include/linux/dcache.h"
	.file	17 "/mnt/disk/jenkins/ci/workspace/chipset_pipeline_release/opensource/component_code/out/kernel-out/gki_kernel/common" "include/linux/seqlock.h"
	.file	18 "/mnt/disk/jenkins/ci/workspace/chipset_pipeline_release/opensource/component_code/out/kernel-out/gki_kernel/common" "include/linux/list_bl.h"
	.file	19 "/mnt/disk/jenkins/ci/workspace/chipset_pipeline_release/opensource/component_code/out/kernel-out/gki_kernel/common" "include/linux/lockref.h"
	.file	20 "/mnt/disk/jenkins/ci/workspace/chipset_pipeline_release/opensource/component_code/out/kernel-out/gki_kernel/common" "include/linux/path.h"
	.file	21 "/mnt/disk/jenkins/ci/workspace/chipset_pipeline_release/opensource/component_code/out/kernel-out/gki_kernel/common" "include/linux/module.h"
	.file	22 "/mnt/disk/jenkins/ci/workspace/chipset_pipeline_release/opensource/component_code/out/kernel-out/gki_kernel/common" "include/linux/kobject.h"
	.file	23 "/mnt/disk/jenkins/ci/workspace/chipset_pipeline_release/opensource/component_code/out/kernel-out/gki_kernel/common" "include/linux/sysfs.h"
	.file	24 "/mnt/disk/jenkins/ci/workspace/chipset_pipeline_release/opensource/component_code/out/kernel-out/gki_kernel/common" "include/linux/llist.h"
	.file	25 "/mnt/disk/jenkins/ci/workspace/chipset_pipeline_release/opensource/component_code/out/kernel-out/gki_kernel/common" "include/linux/mm_types.h"
	.file	26 "/mnt/disk/jenkins/ci/workspace/chipset_pipeline_release/opensource/component_code/out/kernel-out/gki_kernel/common" "include/linux/xarray.h"
	.file	27 "/mnt/disk/jenkins/ci/workspace/chipset_pipeline_release/opensource/component_code/out/kernel-out/gki_kernel/common" "include/linux/rbtree.h"
	.file	28 "/mnt/disk/jenkins/ci/workspace/chipset_pipeline_release/opensource/component_code/out/kernel-out/gki_kernel/common" "include/linux/rwsem.h"
	.file	29 "/mnt/disk/jenkins/ci/workspace/chipset_pipeline_release/opensource/component_code/out/kernel-out/gki_kernel/common" "include/linux/writeback.h"
	.file	30 "/mnt/disk/jenkins/ci/workspace/chipset_pipeline_release/opensource/component_code/out/kernel-out/gki_kernel/common" "include/linux/backing-dev-defs.h"
	.file	31 "/mnt/disk/jenkins/ci/workspace/chipset_pipeline_release/opensource/component_code/out/kernel-out/gki_kernel/common" "include/linux/refcount.h"
	.file	32 "/mnt/disk/jenkins/ci/workspace/chipset_pipeline_release/opensource/component_code/out/kernel-out/gki_kernel/common" "include/linux/kref.h"
	.file	33 "/mnt/disk/jenkins/ci/workspace/chipset_pipeline_release/opensource/component_code/out/kernel-out/gki_kernel/common" "include/linux/wait.h"
	.file	34 "/mnt/disk/jenkins/ci/workspace/chipset_pipeline_release/opensource/component_code/out/kernel-out/gki_kernel/common" "include/linux/device.h"
	.file	35 "/mnt/disk/jenkins/ci/workspace/chipset_pipeline_release/opensource/component_code/out/kernel-out/gki_kernel/common" "include/linux/pm.h"
	.file	36 "/mnt/disk/jenkins/ci/workspace/chipset_pipeline_release/opensource/component_code/out/kernel-out/gki_kernel/common" "include/linux/device/bus.h"
	.file	37 "/mnt/disk/jenkins/ci/workspace/chipset_pipeline_release/opensource/component_code/out/kernel-out/gki_kernel/common" "include/linux/device/driver.h"
	.file	38 "/mnt/disk/jenkins/ci/workspace/chipset_pipeline_release/opensource/component_code/out/kernel-out/gki_kernel/common" "include/linux/lockdep_types.h"
	.file	39 "/mnt/disk/jenkins/ci/workspace/chipset_pipeline_release/opensource/component_code/out/kernel-out/gki_kernel/common" "include/linux/completion.h"
	.file	40 "/mnt/disk/jenkins/ci/workspace/chipset_pipeline_release/opensource/component_code/out/kernel-out/gki_kernel/common" "include/linux/swait.h"
	.file	41 "/mnt/disk/jenkins/ci/workspace/chipset_pipeline_release/opensource/component_code/out/kernel-out/gki_kernel/common" "include/linux/pm_wakeup.h"
	.file	42 "/mnt/disk/jenkins/ci/workspace/chipset_pipeline_release/opensource/component_code/out/kernel-out/gki_kernel/common" "include/linux/timer.h"
	.file	43 "/mnt/disk/jenkins/ci/workspace/chipset_pipeline_release/opensource/component_code/out/kernel-out/gki_kernel/common" "include/linux/ktime.h"
	.file	44 "/mnt/disk/jenkins/ci/workspace/chipset_pipeline_release/opensource/component_code/out/kernel-out/gki_kernel/common" "include/linux/timerqueue.h"
	.file	45 "/mnt/disk/jenkins/ci/workspace/chipset_pipeline_release/opensource/component_code/out/kernel-out/gki_kernel/common" "include/linux/hrtimer.h"
	.file	46 "/mnt/disk/jenkins/ci/workspace/chipset_pipeline_release/opensource/component_code/out/kernel-out/gki_kernel/common" "include/linux/workqueue.h"
	.file	47 "/mnt/disk/jenkins/ci/workspace/chipset_pipeline_release/opensource/component_code/out/kernel-out/gki_kernel/common" "include/linux/energy_model.h"
	.file	48 "/mnt/disk/jenkins/ci/workspace/chipset_pipeline_release/opensource/component_code/out/kernel-out/gki_kernel/common" "arch/arm64/include/asm/device.h"
	.file	49 "/mnt/disk/jenkins/ci/workspace/chipset_pipeline_release/opensource/component_code/out/kernel-out/gki_kernel/common" "include/linux/fwnode.h"
	.file	50 "/mnt/disk/jenkins/ci/workspace/chipset_pipeline_release/opensource/component_code/out/kernel-out/gki_kernel/common" "include/linux/device/class.h"
	.file	51 "/mnt/disk/jenkins/ci/workspace/chipset_pipeline_release/opensource/component_code/out/kernel-out/gki_kernel/common" "include/linux/kobject_ns.h"
	.file	52 "/mnt/disk/jenkins/ci/workspace/chipset_pipeline_release/opensource/component_code/out/kernel-out/gki_kernel/common" "include/linux/blkdev.h"
	.file	53 "/mnt/disk/jenkins/ci/workspace/chipset_pipeline_release/opensource/component_code/out/kernel-out/gki_kernel/common" "block/blk-mq.h"
	.file	54 "/mnt/disk/jenkins/ci/workspace/chipset_pipeline_release/opensource/component_code/out/kernel-out/gki_kernel/common" "include/linux/blk-mq.h"
	.file	55 "/mnt/disk/jenkins/ci/workspace/chipset_pipeline_release/opensource/component_code/out/kernel-out/gki_kernel/common" "include/linux/cpumask.h"
	.file	56 "/mnt/disk/jenkins/ci/workspace/chipset_pipeline_release/opensource/component_code/out/kernel-out/gki_kernel/common" "block/blk.h"
	.file	57 "/mnt/disk/jenkins/ci/workspace/chipset_pipeline_release/opensource/component_code/out/kernel-out/gki_kernel/common" "include/linux/blk_types.h"
	.file	58 "/mnt/disk/jenkins/ci/workspace/chipset_pipeline_release/opensource/component_code/out/kernel-out/gki_kernel/common" "include/linux/sbitmap.h"
	.file	59 "/mnt/disk/jenkins/ci/workspace/chipset_pipeline_release/opensource/component_code/out/kernel-out/gki_kernel/common" "block/blk-mq-tag.h"
	.file	60 "/mnt/disk/jenkins/ci/workspace/chipset_pipeline_release/opensource/component_code/out/kernel-out/gki_kernel/common" "include/linux/seq_file.h"
	.file	61 "/mnt/disk/jenkins/ci/workspace/chipset_pipeline_release/opensource/component_code/out/kernel-out/gki_kernel/common" "block/mas_blk.h"
	.file	62 "/mnt/disk/jenkins/ci/workspace/chipset_pipeline_release/opensource/component_code/out/kernel-out/gki_kernel/common" "include/linux/srcutree.h"
	.file	63 "/mnt/disk/jenkins/ci/workspace/chipset_pipeline_release/opensource/component_code/out/kernel-out/gki_kernel/common" "include/linux/rcu_segcblist.h"
	.file	64 "/mnt/disk/jenkins/ci/workspace/chipset_pipeline_release/opensource/component_code/out/kernel-out/gki_kernel/common" "include/linux/genhd.h"
	.file	65 "/mnt/disk/jenkins/ci/workspace/chipset_pipeline_release/opensource/component_code/out/kernel-out/gki_kernel/common" "include/linux/part_stat.h"
	.file	66 "/mnt/disk/jenkins/ci/workspace/chipset_pipeline_release/opensource/component_code/out/kernel-out/gki_kernel/common" "include/asm-generic/local.h"
	.file	67 "/mnt/disk/jenkins/ci/workspace/chipset_pipeline_release/opensource/component_code/out/kernel-out/gki_kernel/common" "include/linux/percpu-refcount.h"
	.file	68 "/mnt/disk/jenkins/ci/workspace/chipset_pipeline_release/opensource/component_code/out/kernel-out/gki_kernel/common" "include/uapi/linux/blkzoned.h"
	.file	69 "/mnt/disk/jenkins/ci/workspace/chipset_pipeline_release/opensource/component_code/out/kernel-out/gki_kernel/common" "include/linux/bvec.h"
	.file	70 "/mnt/disk/jenkins/ci/workspace/chipset_pipeline_release/opensource/component_code/out/kernel-out/gki_kernel/common" "arch/arm64/include/asm/thread_info.h"
	.file	71 "/mnt/disk/jenkins/ci/workspace/chipset_pipeline_release/opensource/component_code/out/kernel-out/gki_kernel/common" "include/linux/sched.h"
	.file	72 "/mnt/disk/jenkins/ci/workspace/chipset_pipeline_release/opensource/component_code/out/kernel-out/gki_kernel/common" "include/linux/smp_types.h"
	.file	73 "/mnt/disk/jenkins/ci/workspace/chipset_pipeline_release/opensource/component_code/out/kernel-out/gki_kernel/common" "include/linux/plist.h"
	.file	74 "/mnt/disk/jenkins/ci/workspace/chipset_pipeline_release/opensource/component_code/out/kernel-out/gki_kernel/common" "arch/arm64/include/asm/pgtable-types.h"
	.file	75 "/mnt/disk/jenkins/ci/workspace/chipset_pipeline_release/opensource/component_code/out/kernel-out/gki_kernel/common" "include/linux/mm.h"
	.file	76 "/mnt/disk/jenkins/ci/workspace/chipset_pipeline_release/opensource/component_code/out/kernel-out/gki_kernel/common" "include/asm-generic/pgtable-nop4d.h"
	.file	77 "/mnt/disk/jenkins/ci/workspace/chipset_pipeline_release/opensource/component_code/out/kernel-out/gki_kernel/common" "include/asm-generic/pgtable-nopud.h"
	.file	78 "/mnt/disk/jenkins/ci/workspace/chipset_pipeline_release/opensource/component_code/out/kernel-out/gki_kernel/common" "arch/arm64/include/asm/page.h"
	.file	79 "/mnt/disk/jenkins/ci/workspace/chipset_pipeline_release/opensource/component_code/out/kernel-out/gki_kernel/common" "include/asm-generic/qrwlock_types.h"
	.file	80 "/mnt/disk/jenkins/ci/workspace/chipset_pipeline_release/opensource/component_code/out/kernel-out/gki_kernel/common" "include/linux/rwlock_types.h"
	.file	81 "/mnt/disk/jenkins/ci/workspace/chipset_pipeline_release/opensource/component_code/out/kernel-out/gki_kernel/common" "include/linux/mm_types_task.h"
	.file	82 "/mnt/disk/jenkins/ci/workspace/chipset_pipeline_release/opensource/component_code/out/kernel-out/gki_kernel/common" "arch/arm64/include/asm/mmu.h"
	.file	83 "/mnt/disk/jenkins/ci/workspace/chipset_pipeline_release/opensource/component_code/out/kernel-out/gki_kernel/common" "include/linux/user_namespace.h"
	.file	84 "/mnt/disk/jenkins/ci/workspace/chipset_pipeline_release/opensource/component_code/out/kernel-out/gki_kernel/common" "include/linux/ns_common.h"
	.file	85 "/mnt/disk/jenkins/ci/workspace/chipset_pipeline_release/opensource/component_code/out/kernel-out/gki_kernel/common" "include/linux/key.h"
	.file	86 "/mnt/disk/jenkins/ci/workspace/chipset_pipeline_release/opensource/component_code/out/kernel-out/gki_kernel/common" "include/linux/time64.h"
	.file	87 "/mnt/disk/jenkins/ci/workspace/chipset_pipeline_release/opensource/component_code/out/kernel-out/gki_kernel/common" "include/linux/assoc_array.h"
	.file	88 "/mnt/disk/jenkins/ci/workspace/chipset_pipeline_release/opensource/component_code/out/kernel-out/gki_kernel/common" "include/linux/sysctl.h"
	.file	89 "/mnt/disk/jenkins/ci/workspace/chipset_pipeline_release/opensource/component_code/out/kernel-out/gki_kernel/common" "include/linux/uprobes.h"
	.file	90 "/mnt/disk/jenkins/ci/workspace/chipset_pipeline_release/opensource/component_code/out/kernel-out/gki_kernel/common" "include/linux/xreclaimer_types.h"
	.file	91 "/mnt/disk/jenkins/ci/workspace/chipset_pipeline_release/opensource/component_code/out/kernel-out/gki_kernel/common" "include/linux/restart_block.h"
	.file	92 "/mnt/disk/jenkins/ci/workspace/chipset_pipeline_release/opensource/component_code/out/kernel-out/gki_kernel/common" "include/uapi/linux/time_types.h"
	.file	93 "/mnt/disk/jenkins/ci/workspace/chipset_pipeline_release/opensource/component_code/out/kernel-out/gki_kernel/common" "include/vdso/time32.h"
	.file	94 "/mnt/disk/jenkins/ci/workspace/chipset_pipeline_release/opensource/component_code/out/kernel-out/gki_kernel/common" "include/linux/pid.h"
	.file	95 "/mnt/disk/jenkins/ci/workspace/chipset_pipeline_release/opensource/component_code/out/kernel-out/gki_kernel/common" "include/linux/pid_namespace.h"
	.file	96 "/mnt/disk/jenkins/ci/workspace/chipset_pipeline_release/opensource/component_code/out/kernel-out/gki_kernel/common" "include/linux/idr.h"
	.file	97 "/mnt/disk/jenkins/ci/workspace/chipset_pipeline_release/opensource/component_code/out/kernel-out/gki_kernel/common" "include/linux/posix-timers.h"
	.file	98 "/mnt/disk/jenkins/ci/workspace/chipset_pipeline_release/opensource/component_code/out/kernel-out/gki_kernel/common" "include/linux/cred.h"
	.file	99 "/mnt/disk/jenkins/ci/workspace/chipset_pipeline_release/opensource/component_code/out/kernel-out/gki_kernel/common" "include/linux/capability.h"
	.file	100 "/mnt/disk/jenkins/ci/workspace/chipset_pipeline_release/opensource/component_code/out/kernel-out/gki_kernel/common" "include/linux/sched/user.h"
	.file	101 "/mnt/disk/jenkins/ci/workspace/chipset_pipeline_release/opensource/component_code/out/kernel-out/gki_kernel/common" "include/linux/nsproxy.h"
	.file	102 "/mnt/disk/jenkins/ci/workspace/chipset_pipeline_release/opensource/component_code/out/kernel-out/gki_kernel/common" "include/linux/cgroup.h"
	.file	103 "/mnt/disk/jenkins/ci/workspace/chipset_pipeline_release/opensource/component_code/out/kernel-out/gki_kernel/common" "include/linux/cgroup-defs.h"
	.file	104 "/mnt/disk/jenkins/ci/workspace/chipset_pipeline_release/opensource/component_code/out/kernel-out/gki_kernel/common" "include/linux/kernfs.h"
	.file	105 "/mnt/disk/jenkins/ci/workspace/chipset_pipeline_release/opensource/component_code/out/kernel-out/gki_kernel/common" "include/uapi/linux/types.h"
	.file	106 "/mnt/disk/jenkins/ci/workspace/chipset_pipeline_release/opensource/component_code/out/kernel-out/gki_kernel/common" "include/linux/u64_stats_sync.h"
	.file	107 "/mnt/disk/jenkins/ci/workspace/chipset_pipeline_release/opensource/component_code/out/kernel-out/gki_kernel/common" "include/linux/sched/types.h"
	.file	108 "/mnt/disk/jenkins/ci/workspace/chipset_pipeline_release/opensource/component_code/out/kernel-out/gki_kernel/common" "include/linux/psi_types.h"
	.file	109 "/mnt/disk/jenkins/ci/workspace/chipset_pipeline_release/opensource/component_code/out/kernel-out/gki_kernel/common" "include/linux/bpf.h"
	.file	110 "/mnt/disk/jenkins/ci/workspace/chipset_pipeline_release/opensource/component_code/out/kernel-out/gki_kernel/common" "include/linux/bpf-cgroup.h"
	.file	111 "/mnt/disk/jenkins/ci/workspace/chipset_pipeline_release/opensource/component_code/out/kernel-out/gki_kernel/common" "include/uapi/linux/bpf.h"
	.file	112 "/mnt/disk/jenkins/ci/workspace/chipset_pipeline_release/opensource/component_code/out/kernel-out/gki_kernel/common" "include/linux/sched/signal.h"
	.file	113 "/mnt/disk/jenkins/ci/workspace/chipset_pipeline_release/opensource/component_code/out/kernel-out/gki_kernel/common" "include/linux/signal_types.h"
	.file	114 "/mnt/disk/jenkins/ci/workspace/chipset_pipeline_release/opensource/component_code/out/kernel-out/gki_kernel/common" "include/uapi/asm-generic/signal.h"
	.file	115 "/mnt/disk/jenkins/ci/workspace/chipset_pipeline_release/opensource/component_code/out/kernel-out/gki_kernel/common" "include/linux/task_io_accounting.h"
	.file	116 "/mnt/disk/jenkins/ci/workspace/chipset_pipeline_release/opensource/component_code/out/kernel-out/gki_kernel/common" "include/uapi/linux/resource.h"
	.file	117 "/mnt/disk/jenkins/ci/workspace/chipset_pipeline_release/opensource/component_code/out/kernel-out/gki_kernel/common" "include/uapi/linux/taskstats.h"
	.file	118 "/mnt/disk/jenkins/ci/workspace/chipset_pipeline_release/opensource/component_code/out/kernel-out/gki_kernel/common" "include/uapi/asm-generic/signal-defs.h"
	.file	119 "/mnt/disk/jenkins/ci/workspace/chipset_pipeline_release/opensource/component_code/out/kernel-out/gki_kernel/common" "include/linux/seccomp.h"
	.file	120 "/mnt/disk/jenkins/ci/workspace/chipset_pipeline_release/opensource/component_code/out/kernel-out/gki_kernel/common" "include/linux/irqflags.h"
	.file	121 "/mnt/disk/jenkins/ci/workspace/chipset_pipeline_release/opensource/component_code/out/kernel-out/gki_kernel/common" "include/linux/bio.h"
	.file	122 "/mnt/disk/jenkins/ci/workspace/chipset_pipeline_release/opensource/component_code/out/kernel-out/gki_kernel/common" "include/linux/swap.h"
	.file	123 "/mnt/disk/jenkins/ci/workspace/chipset_pipeline_release/opensource/component_code/out/kernel-out/gki_kernel/common" "include/linux/iocontext.h"
	.file	124 "/mnt/disk/jenkins/ci/workspace/chipset_pipeline_release/opensource/component_code/out/kernel-out/gki_kernel/common" "include/uapi/asm-generic/siginfo.h"
	.file	125 "/mnt/disk/jenkins/ci/workspace/chipset_pipeline_release/opensource/component_code/out/kernel-out/gki_kernel/common" "include/linux/nodemask.h"
	.file	126 "/mnt/disk/jenkins/ci/workspace/chipset_pipeline_release/opensource/component_code/out/kernel-out/gki_kernel/common" "include/asm-generic/compat.h"
	.file	127 "/mnt/disk/jenkins/ci/workspace/chipset_pipeline_release/opensource/component_code/out/kernel-out/gki_kernel/common" "include/linux/compat.h"
	.file	128 "/mnt/disk/jenkins/ci/workspace/chipset_pipeline_release/opensource/component_code/out/kernel-out/gki_kernel/common" "include/linux/memcontrol.h"
	.file	129 "/mnt/disk/jenkins/ci/workspace/chipset_pipeline_release/opensource/component_code/out/kernel-out/gki_kernel/common" "include/linux/page_counter.h"
	.file	130 "/mnt/disk/jenkins/ci/workspace/chipset_pipeline_release/opensource/component_code/out/kernel-out/gki_kernel/common" "include/linux/parallel_swapd.h"
	.file	131 "/mnt/disk/jenkins/ci/workspace/chipset_pipeline_release/opensource/component_code/out/kernel-out/gki_kernel/common" "include/linux/mmzone.h"
	.file	132 "/mnt/disk/jenkins/ci/workspace/chipset_pipeline_release/opensource/component_code/out/kernel-out/gki_kernel/common" "include/linux/vmpressure.h"
	.file	133 "/mnt/disk/jenkins/ci/workspace/chipset_pipeline_release/opensource/component_code/out/kernel-out/gki_kernel/common" "include/linux/memcg_policy.h"
	.file	134 "/mnt/disk/jenkins/ci/workspace/chipset_pipeline_release/opensource/component_code/out/kernel-out/gki_kernel/common" "include/linux/percpu_counter.h"
	.file	135 "/mnt/disk/jenkins/ci/workspace/chipset_pipeline_release/opensource/component_code/out/kernel-out/gki_kernel/common" "include/linux/flex_proportions.h"
	.file	136 "/mnt/disk/jenkins/ci/workspace/chipset_pipeline_release/opensource/component_code/out/kernel-out/gki_kernel/common" "arch/arm64/include/asm/uprobes.h"
	.file	137 "/mnt/disk/jenkins/ci/workspace/chipset_pipeline_release/opensource/component_code/out/kernel-out/gki_kernel/common" "arch/arm64/include/asm/processor.h"
	.file	138 "/mnt/disk/jenkins/ci/workspace/chipset_pipeline_release/opensource/component_code/out/kernel-out/gki_kernel/common" "arch/arm64/include/uapi/asm/ptrace.h"
	.file	139 "/mnt/disk/jenkins/ci/workspace/chipset_pipeline_release/opensource/component_code/out/kernel-out/gki_kernel/common" "arch/arm64/include/asm/pointer_auth.h"
	.file	140 "/mnt/disk/jenkins/ci/workspace/chipset_pipeline_release/opensource/component_code/out/kernel-out/gki_kernel/common" "include/linux/blk-cgroup.h"
	.file	141 "/mnt/disk/jenkins/ci/workspace/chipset_pipeline_release/opensource/component_code/out/kernel-out/gki_kernel/common" "include/linux/blk-crypto.h"
	.file	142 "/mnt/disk/jenkins/ci/workspace/chipset_pipeline_release/opensource/component_code/out/kernel-out/gki_kernel/common" "include/linux/mempool.h"
	.file	143 "/mnt/disk/jenkins/ci/workspace/chipset_pipeline_release/opensource/component_code/out/kernel-out/gki_kernel/common" "include/linux/smp.h"
	.file	144 "/mnt/disk/jenkins/ci/workspace/chipset_pipeline_release/opensource/component_code/out/kernel-out/gki_kernel/common" "include/linux/elevator.h"
	.file	145 "/mnt/disk/jenkins/ci/workspace/chipset_pipeline_release/opensource/component_code/out/kernel-out/gki_kernel/common" "block/blk-stat.h"
	.file	146 "/mnt/disk/jenkins/ci/workspace/chipset_pipeline_release/opensource/component_code/out/kernel-out/gki_kernel/common" "include/linux/bsg.h"
	.file	147 "/mnt/disk/jenkins/ci/workspace/chipset_pipeline_release/opensource/component_code/out/kernel-out/gki_kernel/common" "include/uapi/linux/bsg.h"
	.file	148 "/mnt/disk/jenkins/ci/workspace/chipset_pipeline_release/opensource/component_code/out/kernel-out/gki_kernel/common" "include/linux/pagemap.h"
	.file	149 "/mnt/disk/jenkins/ci/workspace/chipset_pipeline_release/opensource/component_code/out/kernel-out/gki_kernel/common" "include/linux/migrate_mode.h"
	.file	150 "/mnt/disk/jenkins/ci/workspace/chipset_pipeline_release/opensource/component_code/out/kernel-out/gki_kernel/common" "include/linux/errseq.h"
	.file	151 "/mnt/disk/jenkins/ci/workspace/chipset_pipeline_release/opensource/component_code/out/kernel-out/gki_kernel/common" "include/linux/memremap.h"
	.file	152 "/mnt/disk/jenkins/ci/workspace/chipset_pipeline_release/opensource/component_code/out/kernel-out/gki_kernel/common" "include/linux/range.h"
	.file	153 "/mnt/disk/jenkins/ci/workspace/chipset_pipeline_release/opensource/component_code/out/kernel-out/gki_kernel/common" "include/linux/uio.h"
	.file	154 "/mnt/disk/jenkins/ci/workspace/chipset_pipeline_release/opensource/component_code/out/kernel-out/gki_kernel/common" "include/uapi/linux/uio.h"
	.file	155 "/mnt/disk/jenkins/ci/workspace/chipset_pipeline_release/opensource/component_code/out/kernel-out/gki_kernel/common" "include/linux/nfs_fs_i.h"
	.file	156 "/mnt/disk/jenkins/ci/workspace/chipset_pipeline_release/opensource/component_code/out/kernel-out/gki_kernel/common" "include/linux/export.h"
	.file	157 "/mnt/disk/jenkins/ci/workspace/chipset_pipeline_release/opensource/component_code/out/kernel-out/gki_kernel/common" "include/linux/moduleparam.h"
	.file	158 "/mnt/disk/jenkins/ci/workspace/chipset_pipeline_release/opensource/component_code/out/kernel-out/gki_kernel/common" "arch/arm64/include/asm/extable.h"
	.file	159 "/mnt/disk/jenkins/ci/workspace/chipset_pipeline_release/opensource/component_code/out/kernel-out/gki_kernel/common" "include/linux/rbtree_latch.h"
	.file	160 "/mnt/disk/jenkins/ci/workspace/chipset_pipeline_release/opensource/component_code/out/kernel-out/gki_kernel/common" "arch/arm64/include/asm/module.h"
	.file	161 "/mnt/disk/jenkins/ci/workspace/chipset_pipeline_release/opensource/component_code/out/kernel-out/gki_kernel/common" "include/uapi/linux/elf.h"
	.file	162 "/mnt/disk/jenkins/ci/workspace/chipset_pipeline_release/opensource/component_code/out/kernel-out/gki_kernel/common" "include/asm-generic/bug.h"
	.file	163 "/mnt/disk/jenkins/ci/workspace/chipset_pipeline_release/opensource/component_code/out/kernel-out/gki_kernel/common" "include/linux/tracepoint-defs.h"
	.file	164 "/mnt/disk/jenkins/ci/workspace/chipset_pipeline_release/opensource/component_code/out/kernel-out/gki_kernel/common" "include/linux/jump_label.h"
	.file	165 "/mnt/disk/jenkins/ci/workspace/chipset_pipeline_release/opensource/component_code/out/kernel-out/gki_kernel/common" "include/asm-generic/error-injection.h"
	.file	166 "/mnt/disk/jenkins/ci/workspace/chipset_pipeline_release/opensource/component_code/out/kernel-out/gki_kernel/common" "include/linux/statfs.h"
	.file	167 "/mnt/disk/jenkins/ci/workspace/chipset_pipeline_release/opensource/component_code/out/kernel-out/gki_kernel/common" "include/linux/quota.h"
	.file	168 "/mnt/disk/jenkins/ci/workspace/chipset_pipeline_release/opensource/component_code/out/kernel-out/gki_kernel/common" "include/linux/projid.h"
	.file	169 "/mnt/disk/jenkins/ci/workspace/chipset_pipeline_release/opensource/component_code/out/kernel-out/gki_kernel/common" "include/linux/shrinker.h"
	.file	170 "/mnt/disk/jenkins/ci/workspace/chipset_pipeline_release/opensource/component_code/out/kernel-out/gki_kernel/common" "include/linux/rcu_sync.h"
	.file	171 "/mnt/disk/jenkins/ci/workspace/chipset_pipeline_release/opensource/component_code/out/kernel-out/gki_kernel/common" "include/linux/percpu-rwsem.h"
	.file	172 "/mnt/disk/jenkins/ci/workspace/chipset_pipeline_release/opensource/component_code/out/kernel-out/gki_kernel/common" "include/linux/rcuwait.h"
	.file	173 "/mnt/disk/jenkins/ci/workspace/chipset_pipeline_release/opensource/component_code/out/kernel-out/gki_kernel/common" "include/linux/uuid.h"
	.file	174 "/mnt/disk/jenkins/ci/workspace/chipset_pipeline_release/opensource/component_code/out/kernel-out/gki_kernel/common" "include/linux/list_lru.h"
	.file	175 "/mnt/disk/jenkins/ci/workspace/chipset_pipeline_release/opensource/component_code/out/kernel-out/gki_kernel/common" "include/linux/delayed_call.h"
	.file	176 "/mnt/disk/jenkins/ci/workspace/chipset_pipeline_release/opensource/component_code/out/kernel-out/gki_kernel/common" "include/linux/stat.h"
	.file	177 "/mnt/disk/jenkins/ci/workspace/chipset_pipeline_release/opensource/component_code/out/kernel-out/gki_kernel/common" "include/linux/mas_bkops_core.h"
	.file	178 "/mnt/disk/jenkins/ci/workspace/chipset_pipeline_release/opensource/component_code/out/kernel-out/gki_kernel/common" "include/linux/stddef.h"
	.file	179 "/mnt/disk/jenkins/ci/workspace/chipset_pipeline_release/opensource/component_code/out/kernel-out/gki_kernel/common" "include/linux/timekeeping.h"
	.file	180 "/mnt/disk/jenkins/ci/workspace/chipset_pipeline_release/opensource/component_code/out/kernel-out/gki_kernel/common" "include/linux/slab.h"
	.globl	bkops_idle_work_func            // -- Begin function bkops_idle_work_func
	.p2align	2
	.type	bkops_idle_work_func,@function
bkops_idle_work_func:                   // @bkops_idle_work_func
.Lfunc_begin0:
	.loc	7 206 0                         // block/mas_bkops_core.c:206:0
	.cfi_sections .debug_frame
	.cfi_startproc
// %bb.0:
	//DEBUG_VALUE: bkops_idle_work_func:work <- $x0
	hint	#25
	.cfi_negate_ra_state
	sub	sp, sp, #64                     // =64
	str	x30, [x18], #8
	stp	x29, x30, [sp, #16]             // 16-byte Folded Spill
	str	x21, [sp, #32]                  // 8-byte Folded Spill
	stp	x20, x19, [sp, #48]             // 16-byte Folded Spill
	add	x29, sp, #16                    // =16
	.cfi_def_cfa w29, 48
	.cfi_offset w19, -8
	.cfi_offset w20, -16
	.cfi_offset w21, -32
	.cfi_offset w30, -40
	.cfi_offset w29, -48
	adrp	x8, __stack_chk_guard
	ldr	x8, [x8, :lo12:__stack_chk_guard]
	mov	x19, x0
	str	x8, [sp, #8]
.Ltmp0:
	//DEBUG_VALUE: bkops_idle_work_func:bkops_status <- 0
	//DEBUG_VALUE: bkops_idle_work_func:work <- $x19
	.loc	7 207 6 prologue_end            // block/mas_bkops_core.c:207:6
	str	wzr, [sp, #4]
.Ltmp1:
	//DEBUG_VALUE: mas_bkops_query:bkops_ops_p <- 0
	//DEBUG_VALUE: mas_bkops_query:ret <- 0
	//DEBUG_VALUE: mas_bkops_query:bkops_status <- [DW_OP_plus_uconst 4, DW_OP_stack_value] $sp
	//DEBUG_VALUE: mas_bkops_query:bkops <- undef
	//DEBUG_VALUE: bkops_idle_work_func:ret <- 0
	//DEBUG_VALUE: __mptr <- $x19
	//DEBUG_VALUE: bkops_idle_work_func:bkops <- undef
	//DEBUG_VALUE: bkops_idle_work_func:bkops_status <- [DW_OP_plus_uconst 4, DW_OP_deref] $sp
	.loc	7 96 41                         // block/mas_bkops_core.c:96:41
	ldur	x20, [x0, #-24]
.Ltmp2:
	//DEBUG_VALUE: mas_bkops_query:bkops_ops_p <- $x20
	.loc	7 103 2                         // block/mas_bkops_core.c:103:2
	adrp	x0, bkops_lock
	add	x0, x0, :lo12:bkops_lock
	bl	mutex_lock
.Ltmp3:
	.loc	7 104 7                         // block/mas_bkops_core.c:104:7
	adrp	x21, bkops_enabled
	ldrb	w8, [x21, :lo12:bkops_enabled]
.Ltmp4:
	.loc	7 104 6 is_stmt 0               // block/mas_bkops_core.c:104:6
	cmp	w8, #1                          // =1
	b.ne	.LBB0_2
.Ltmp5:
// %bb.1:                               // %mas_bkops_query.exit.thread
	//DEBUG_VALUE: mas_bkops_query:bkops_ops_p <- $x20
	//DEBUG_VALUE: bkops_idle_work_func:work <- $x19
	//DEBUG_VALUE: bkops_idle_work_func:bkops_status <- [DW_OP_plus_uconst 4, DW_OP_deref] $sp
	//DEBUG_VALUE: mas_bkops_query:bkops_status <- [DW_OP_plus_uconst 4, DW_OP_stack_value] $sp
	//DEBUG_VALUE: bkops_idle_work_func:ret <- 0
	//DEBUG_VALUE: mas_bkops_query:ret <- 0
	//DEBUG_LABEL: mas_bkops_query:out
	.loc	7 137 2 is_stmt 1               // block/mas_bkops_core.c:137:2
	adrp	x0, bkops_lock
	add	x0, x0, :lo12:bkops_lock
	bl	mutex_unlock
.Ltmp6:
	.loc	7 0 2 is_stmt 0                 // block/mas_bkops_core.c:0:2
	b	.LBB0_6
.Ltmp7:
.LBB0_2:
	//DEBUG_VALUE: mas_bkops_query:bkops_ops_p <- $x20
	//DEBUG_VALUE: bkops_idle_work_func:work <- $x19
	//DEBUG_VALUE: bkops_idle_work_func:bkops_status <- [DW_OP_plus_uconst 4, DW_OP_deref] $sp
	//DEBUG_VALUE: mas_bkops_query:bkops_status <- [DW_OP_plus_uconst 4, DW_OP_stack_value] $sp
	//DEBUG_VALUE: bkops_idle_work_func:ret <- 0
	//DEBUG_VALUE: mas_bkops_query:ret <- 0
	.loc	7 116 21 is_stmt 1              // block/mas_bkops_core.c:116:21
	ldr	x8, [x20, #8]
	.loc	7 117 10                        // block/mas_bkops_core.c:117:10
	ldur	x0, [x19, #-16]
	.loc	7 116 8                         // block/mas_bkops_core.c:116:8
	add	x1, sp, #4                      // =4
	blr	x8
.Ltmp8:
	.loc	7 118 6                         // block/mas_bkops_core.c:118:6
	adrp	x8, user_manual_gc
	ldrb	w9, [x8, :lo12:user_manual_gc]
.Ltmp9:
	.loc	7 116 8                         // block/mas_bkops_core.c:116:8
	mov	w20, w0
.Ltmp10:
	//DEBUG_VALUE: mas_bkops_query:ret <- $w20
	//DEBUG_VALUE: bkops_idle_work_func:ret <- $w20
	.loc	7 118 21                        // block/mas_bkops_core.c:118:21
	cbz	w9, .LBB0_5
.Ltmp11:
// %bb.3:
	//DEBUG_VALUE: bkops_idle_work_func:work <- $x19
	//DEBUG_VALUE: bkops_idle_work_func:ret <- $w20
	//DEBUG_VALUE: mas_bkops_query:ret <- $w20
	//DEBUG_VALUE: bkops_idle_work_func:bkops_status <- [DW_OP_plus_uconst 4, DW_OP_deref] $sp
	//DEBUG_VALUE: mas_bkops_query:bkops_status <- [DW_OP_plus_uconst 4, DW_OP_stack_value] $sp
	.loc	7 0 21 is_stmt 0                // block/mas_bkops_core.c:0:21
	ldr	w9, [sp, #4]
	.loc	7 118 21                        // block/mas_bkops_core.c:118:21
	cbnz	w9, .LBB0_5
.Ltmp12:
// %bb.4:
	//DEBUG_VALUE: bkops_idle_work_func:work <- $x19
	//DEBUG_VALUE: bkops_idle_work_func:ret <- $w20
	//DEBUG_VALUE: mas_bkops_query:ret <- $w20
	//DEBUG_VALUE: bkops_idle_work_func:bkops_status <- [DW_OP_plus_uconst 4, DW_OP_deref] $sp
	//DEBUG_VALUE: mas_bkops_query:bkops_status <- [DW_OP_plus_uconst 4, DW_OP_stack_value] $sp
	.loc	7 119 18 is_stmt 1              // block/mas_bkops_core.c:119:18
	strb	wzr, [x8, :lo12:user_manual_gc]
.Ltmp13:
.LBB0_5:                                // %mas_bkops_query.exit
	//DEBUG_VALUE: bkops_idle_work_func:work <- $x19
	//DEBUG_VALUE: bkops_idle_work_func:ret <- $w20
	//DEBUG_VALUE: mas_bkops_query:ret <- $w20
	//DEBUG_VALUE: bkops_idle_work_func:bkops_status <- [DW_OP_plus_uconst 4, DW_OP_deref] $sp
	//DEBUG_VALUE: mas_bkops_query:bkops_status <- [DW_OP_plus_uconst 4, DW_OP_stack_value] $sp
	//DEBUG_VALUE: mas_bkops_query:ret <- $w20
	//DEBUG_LABEL: mas_bkops_query:out
	.loc	7 137 2                         // block/mas_bkops_core.c:137:2
	adrp	x0, bkops_lock
	add	x0, x0, :lo12:bkops_lock
	bl	mutex_unlock
.Ltmp14:
	//DEBUG_VALUE: bkops_idle_work_func:ret <- $w20
	.loc	7 213 6                         // block/mas_bkops_core.c:213:6
	cbnz	w20, .LBB0_14
.Ltmp15:
.LBB0_6:
	//DEBUG_VALUE: bkops_idle_work_func:work <- $x19
	//DEBUG_VALUE: bkops_idle_work_func:bkops_status <- [DW_OP_plus_uconst 4, DW_OP_deref] $sp
	.loc	7 217 20                        // block/mas_bkops_core.c:217:20
	ldr	x8, [x19, #136]
	and	x8, x8, #0xfffffffffffffffd
	str	x8, [x19, #136]
	.loc	7 220 24                        // block/mas_bkops_core.c:220:24
	ldr	w8, [sp, #4]
.Ltmp16:
	//DEBUG_VALUE: bkops_idle_work_func:bkops_status <- $w8
	.loc	7 220 22 is_stmt 0              // block/mas_bkops_core.c:220:22
	str	w8, [x19, #208]
.Ltmp17:
	.loc	7 222 19 is_stmt 1              // block/mas_bkops_core.c:222:19
	cbz	w8, .LBB0_12
.Ltmp18:
// %bb.7:
	//DEBUG_VALUE: bkops_idle_work_func:work <- $x19
	//DEBUG_VALUE: bkops_idle_work_func:bkops_status <- $w8
	//DEBUG_VALUE: test_bit:nr <- 0
	.file	181 "/mnt/disk/jenkins/ci/workspace/chipset_pipeline_release/opensource/component_code/out/kernel-out/gki_kernel/common" "include/asm-generic/bitops/non-atomic.h"
	.loc	181 106 16                      // include/asm-generic/bitops/non-atomic.h:106:16
	ldr	x8, [x19, #136]
.Ltmp19:
	//DEBUG_VALUE: test_bit:addr <- [DW_OP_constu 32, DW_OP_minus, DW_OP_plus_uconst 168, DW_OP_stack_value] $x19
	.loc	7 222 6                         // block/mas_bkops_core.c:222:6
	tbnz	w8, #0, .LBB0_12
.Ltmp20:
// %bb.8:
	//DEBUG_VALUE: bkops_idle_work_func:work <- $x19
	//DEBUG_VALUE: mas_bkops_start:ret <- 0
	//DEBUG_VALUE: mas_bkops_start:bkops_ops_p <- 0
	.loc	7 144 41                        // block/mas_bkops_core.c:144:41
	ldur	x20, [x19, #-24]
.Ltmp21:
	//DEBUG_VALUE: mas_bkops_start:bkops_ops_p <- $x20
	.loc	7 154 2                         // block/mas_bkops_core.c:154:2
	adrp	x0, bkops_lock
	add	x0, x0, :lo12:bkops_lock
	bl	mutex_lock
.Ltmp22:
	.loc	7 155 7                         // block/mas_bkops_core.c:155:7
	ldrb	w8, [x21, :lo12:bkops_enabled]
.Ltmp23:
	.loc	7 155 6 is_stmt 0               // block/mas_bkops_core.c:155:6
	cmp	w8, #1                          // =1
.Ltmp24:
	//DEBUG_VALUE: mas_bkops_start:bkops <- [DW_OP_constu 32, DW_OP_minus, DW_OP_stack_value] $x19
	b.ne	.LBB0_10
.Ltmp25:
// %bb.9:                               // %mas_bkops_start.exit.thread
	//DEBUG_VALUE: mas_bkops_start:bkops_ops_p <- $x20
	//DEBUG_VALUE: mas_bkops_start:bkops <- [DW_OP_constu 32, DW_OP_minus, DW_OP_stack_value] $x19
	//DEBUG_VALUE: bkops_idle_work_func:work <- $x19
	//DEBUG_VALUE: mas_bkops_start:ret <- 0
	//DEBUG_LABEL: mas_bkops_start:out
	.loc	7 177 2 is_stmt 1               // block/mas_bkops_core.c:177:2
	adrp	x0, bkops_lock
	add	x0, x0, :lo12:bkops_lock
	bl	mutex_unlock
.Ltmp26:
	.loc	7 0 2 is_stmt 0                 // block/mas_bkops_core.c:0:2
	b	.LBB0_11
.Ltmp27:
.LBB0_10:                               // %mas_bkops_start.exit
	//DEBUG_VALUE: mas_bkops_start:bkops_ops_p <- $x20
	//DEBUG_VALUE: mas_bkops_start:bkops <- [DW_OP_constu 32, DW_OP_minus, DW_OP_stack_value] $x19
	//DEBUG_VALUE: bkops_idle_work_func:work <- $x19
	//DEBUG_VALUE: mas_bkops_start:ret <- 0
	.loc	7 158 21 is_stmt 1              // block/mas_bkops_core.c:158:21
	ldr	x8, [x20]
	.loc	7 158 45 is_stmt 0              // block/mas_bkops_core.c:158:45
	ldur	x0, [x19, #-16]
	.loc	7 158 8                         // block/mas_bkops_core.c:158:8
	mov	w1, #1
	blr	x8
.Ltmp28:
	mov	w20, w0
.Ltmp29:
	//DEBUG_LABEL: mas_bkops_start:out
	//DEBUG_VALUE: mas_bkops_start:ret <- $w20
	//DEBUG_VALUE: bkops_idle_work_func:ret <- $w20
	.loc	7 177 2 is_stmt 1               // block/mas_bkops_core.c:177:2
	adrp	x0, bkops_lock
	add	x0, x0, :lo12:bkops_lock
	bl	mutex_unlock
.Ltmp30:
	.loc	7 224 7                         // block/mas_bkops_core.c:224:7
	cbnz	w20, .LBB0_15
.Ltmp31:
.LBB0_11:
	//DEBUG_VALUE: bkops_idle_work_func:work <- $x19
	//DEBUG_VALUE: set_bit:nr <- 0
	//DEBUG_VALUE: atomic_long_or:i <- 1
	//DEBUG_VALUE: atomic64_or:i <- 1
	//DEBUG_VALUE: arch_atomic64_or:i <- 1
	//DEBUG_VALUE: __ll_sc_atomic64_or:i <- 1
	//DEBUG_VALUE: __ll_sc_atomic64_or:result <- 0
	//DEBUG_VALUE: __ll_sc_atomic64_or:tmp <- 0
	.file	182 "/mnt/disk/jenkins/ci/workspace/chipset_pipeline_release/opensource/component_code/out/kernel-out/gki_kernel/common" "arch/arm64/include/asm/atomic_ll_sc.h"
	.loc	182 222 199                     // arch/arm64/include/asm/atomic_ll_sc.h:222:199
	add	x8, x19, #136                   // =136
	//APP
	// atomic64_or
	prfm	pstl1strm, [x8]
.Ltmp32:
	ldxr	x9, [x8]
	orr	x9, x9, #0x1
	stxr	w10, x9, [x8]
	cbnz	w10, .Ltmp32
	//NO_APP
.Ltmp33:
	//DEBUG_VALUE: __ll_sc_atomic64_or:v <- [DW_OP_constu 32, DW_OP_minus, DW_OP_plus_uconst 168, DW_OP_stack_value] undef
	//DEBUG_VALUE: arch_atomic64_or:v <- [DW_OP_constu 32, DW_OP_minus, DW_OP_plus_uconst 168, DW_OP_stack_value] undef
	//DEBUG_VALUE: atomic64_or:v <- [DW_OP_constu 32, DW_OP_minus, DW_OP_plus_uconst 168, DW_OP_stack_value] undef
	//DEBUG_VALUE: atomic_long_or:v <- [DW_OP_constu 32, DW_OP_minus, DW_OP_plus_uconst 168, DW_OP_stack_value] undef
	//DEBUG_VALUE: set_bit:p <- [DW_OP_constu 32, DW_OP_minus, DW_OP_plus_uconst 168, DW_OP_stack_value] undef
	//DEBUG_VALUE: __ll_sc_atomic64_or:tmp <- undef
	//DEBUG_VALUE: __ll_sc_atomic64_or:result <- undef
.LBB0_12:
	//DEBUG_VALUE: bkops_idle_work_func:work <- $x19
	.loc	182 0 199 is_stmt 0             // arch/arm64/include/asm/atomic_ll_sc.h:0:199
	adrp	x9, __stack_chk_guard
	ldr	x8, [sp, #8]
	ldr	x9, [x9, :lo12:__stack_chk_guard]
	cmp	x9, x8
	b.ne	.LBB0_17
.Ltmp34:
// %bb.13:
	//DEBUG_VALUE: bkops_idle_work_func:work <- $x19
	.loc	7 229 1 is_stmt 1               // block/mas_bkops_core.c:229:1
	ldp	x29, x30, [sp, #16]             // 16-byte Folded Reload
	ldp	x20, x19, [sp, #48]             // 16-byte Folded Reload
.Ltmp35:
	ldr	x21, [sp, #32]                  // 8-byte Folded Reload
	ldr	x30, [x18, #-8]!
	add	sp, sp, #64                     // =64
	hint	#29
	ret
.LBB0_14:
.Ltmp36:
	//DEBUG_VALUE: bkops_idle_work_func:work <- $x19
	//DEBUG_VALUE: bkops_idle_work_func:ret <- $w20
	//DEBUG_VALUE: bkops_idle_work_func:bkops_status <- [DW_OP_plus_uconst 4, DW_OP_deref] $sp
	.loc	7 214 3                         // block/mas_bkops_core.c:214:3
	adrp	x0, .L.str
	add	x0, x0, :lo12:.L.str
	b	.LBB0_16
.Ltmp37:
.LBB0_15:
	//DEBUG_VALUE: bkops_idle_work_func:work <- $x19
	//DEBUG_VALUE: bkops_idle_work_func:ret <- $w20
	.loc	7 225 4                         // block/mas_bkops_core.c:225:4
	adrp	x0, .L.str.1
	add	x0, x0, :lo12:.L.str.1
.Ltmp38:
.LBB0_16:
	//DEBUG_VALUE: bkops_idle_work_func:work <- $x19
	//DEBUG_VALUE: bkops_idle_work_func:ret <- $w20
	.loc	7 0 0 is_stmt 0                 // block/mas_bkops_core.c:0:0
	bl	printk
.Ltmp39:
	b	.LBB0_12
.Ltmp40:
.LBB0_17:
	//DEBUG_VALUE: bkops_idle_work_func:work <- $x19
	bl	__stack_chk_fail
.Ltmp41:
.Lfunc_end0:
	.size	bkops_idle_work_func, .Lfunc_end0-bkops_idle_work_func
	.cfi_endproc
	.file	183 "/mnt/disk/jenkins/ci/workspace/chipset_pipeline_release/opensource/component_code/out/kernel-out/gki_kernel/common" "arch/arm64/include/asm/atomic.h"
	.file	184 "/mnt/disk/jenkins/ci/workspace/chipset_pipeline_release/opensource/component_code/out/kernel-out/gki_kernel/common" "include/asm-generic/atomic-instrumented.h"
	.file	185 "/mnt/disk/jenkins/ci/workspace/chipset_pipeline_release/opensource/component_code/out/kernel-out/gki_kernel/common" "include/asm-generic/bitops/atomic.h"
	.file	186 "/mnt/disk/jenkins/ci/workspace/chipset_pipeline_release/opensource/component_code/out/kernel-out/gki_kernel/common" "include/linux/printk.h"
                                        // -- End function
	.globl	bkops_io_busyidle_notify_handler // -- Begin function bkops_io_busyidle_notify_handler
	.p2align	2
	.type	bkops_io_busyidle_notify_handler,@function
bkops_io_busyidle_notify_handler:       // @bkops_io_busyidle_notify_handler
.Lfunc_begin1:
	.loc	7 320 0 is_stmt 1               // block/mas_bkops_core.c:320:0
	.cfi_startproc
// %bb.0:
	//DEBUG_VALUE: bkops_io_busyidle_notify_handler:event_node <- $x0
	//DEBUG_VALUE: bkops_io_busyidle_notify_handler:event_node <- $x0
	//DEBUG_VALUE: bkops_io_busyidle_notify_handler:state <- $w1
	hint	#25
	.cfi_negate_ra_state
	str	x30, [x18], #8
	stp	x29, x30, [sp, #-32]!           // 16-byte Folded Spill
	stp	x20, x19, [sp, #16]             // 16-byte Folded Spill
	mov	x29, sp
	.cfi_def_cfa w29, 32
	.cfi_offset w19, -8
	.cfi_offset w20, -16
	.cfi_offset w30, -24
	.cfi_offset w29, -32
.Ltmp42:
	//DEBUG_VALUE: bkops_io_busyidle_notify_handler:ret <- 0
	//DEBUG_VALUE: bkops_io_busyidle_notify_handler:bkops <- 0
	.loc	7 326 36 prologue_end           // block/mas_bkops_core.c:326:36
	ldr	x20, [x0, #40]
.Ltmp43:
	//DEBUG_VALUE: bkops_io_busyidle_notify_handler:bkops <- $x20
	//DEBUG_VALUE: bkops_io_busyidle_notify_handler:state <- $w1
	.loc	7 328 2                         // block/mas_bkops_core.c:328:2
	cbz	w1, .LBB1_15
.Ltmp44:
// %bb.1:
	//DEBUG_VALUE: bkops_io_busyidle_notify_handler:bkops <- $x20
	//DEBUG_VALUE: bkops_io_busyidle_notify_handler:event_node <- $x0
	//DEBUG_VALUE: bkops_io_busyidle_notify_handler:state <- $w1
	//DEBUG_VALUE: bkops_io_busyidle_notify_handler:ret <- 0
	.loc	7 0 2 is_stmt 0                 // block/mas_bkops_core.c:0:2
	mov	w19, w1
.Ltmp45:
	//DEBUG_VALUE: bkops_io_busyidle_notify_handler:state <- $w19
	.loc	7 328 2                         // block/mas_bkops_core.c:328:2
	cmp	w1, #1                          // =1
	b.ne	.LBB1_21
.Ltmp46:
// %bb.2:
	//DEBUG_VALUE: bkops_io_busyidle_notify_handler:bkops <- $x20
	//DEBUG_VALUE: bkops_io_busyidle_notify_handler:event_node <- $x0
	//DEBUG_VALUE: bkops_io_busyidle_notify_handler:state <- $w19
	//DEBUG_VALUE: bkops_io_busyidle_notify_handler:ret <- 0
	//DEBUG_VALUE: bkops_should_query:bkops <- $x20
	.loc	7 290 13 is_stmt 1              // block/mas_bkops_core.c:290:13
	ldr	x8, [x20, #168]
.Ltmp47:
	.loc	7 290 6 is_stmt 0               // block/mas_bkops_core.c:290:6
	tbnz	w8, #1, .LBB1_26
.Ltmp48:
// %bb.3:
	//DEBUG_VALUE: bkops_should_query:bkops <- $x20
	//DEBUG_VALUE: bkops_io_busyidle_notify_handler:bkops <- $x20
	//DEBUG_VALUE: bkops_io_busyidle_notify_handler:event_node <- $x0
	//DEBUG_VALUE: bkops_io_busyidle_notify_handler:state <- $w19
	//DEBUG_VALUE: bkops_io_busyidle_notify_handler:ret <- 0
	.loc	7 293 13 is_stmt 1              // block/mas_bkops_core.c:293:13
	ldr	w9, [x20, #244]
	.loc	7 293 28 is_stmt 0              // block/mas_bkops_core.c:293:28
	cbz	w9, .LBB1_5
.Ltmp49:
// %bb.4:
	//DEBUG_VALUE: bkops_should_query:bkops <- $x20
	//DEBUG_VALUE: bkops_io_busyidle_notify_handler:bkops <- $x20
	//DEBUG_VALUE: bkops_io_busyidle_notify_handler:event_node <- $x0
	//DEBUG_VALUE: bkops_io_busyidle_notify_handler:state <- $w19
	//DEBUG_VALUE: bkops_io_busyidle_notify_handler:ret <- 0
	.loc	7 293 38                        // block/mas_bkops_core.c:293:38
	ldr	w9, [x20, #240]
.Ltmp50:
	.loc	7 293 6                         // block/mas_bkops_core.c:293:6
	cbnz	w9, .LBB1_26
.Ltmp51:
.LBB1_5:
	//DEBUG_VALUE: bkops_should_query:bkops <- $x20
	//DEBUG_VALUE: bkops_io_busyidle_notify_handler:bkops <- $x20
	//DEBUG_VALUE: bkops_io_busyidle_notify_handler:event_node <- $x0
	//DEBUG_VALUE: bkops_io_busyidle_notify_handler:state <- $w19
	//DEBUG_VALUE: bkops_io_busyidle_notify_handler:ret <- 0
	//DEBUG_VALUE: bkops_strategy:bkops <- $x20
	//DEBUG_VALUE: bkops_strategy:lld <- 0
	.loc	7 233 51 is_stmt 1              // block/mas_bkops_core.c:233:51
	ldr	x0, [x20, #24]
.Ltmp52:
	//DEBUG_VALUE: bkops_io_busyidle_notify_handler:event_node <- [DW_OP_LLVM_entry_value 1] $x0
	.loc	7 233 28 is_stmt 0              // block/mas_bkops_core.c:233:28
	bl	mas_blk_get_lld
.Ltmp53:
	.loc	7 240 13 is_stmt 1              // block/mas_bkops_core.c:240:13
	ldr	x8, [x20, #168]
.Ltmp54:
	.loc	7 233 28                        // block/mas_bkops_core.c:233:28
	mov	x19, x0
.Ltmp55:
	//DEBUG_VALUE: bkops_io_busyidle_notify_handler:state <- [DW_OP_LLVM_entry_value 1] $w1
	//DEBUG_VALUE: bkops_strategy:tp <- [DW_OP_LLVM_fragment 64 64] 0
	//DEBUG_VALUE: bkops_strategy:tp <- [DW_OP_LLVM_fragment 0 64] 0
	//DEBUG_VALUE: bkops_strategy:lld <- $x19
	.loc	7 240 6                         // block/mas_bkops_core.c:240:6
	tbz	w8, #4, .LBB1_9
.Ltmp56:
// %bb.6:
	//DEBUG_VALUE: bkops_strategy:bkops <- $x20
	//DEBUG_VALUE: bkops_should_query:bkops <- $x20
	//DEBUG_VALUE: bkops_io_busyidle_notify_handler:bkops <- $x20
	//DEBUG_VALUE: bkops_strategy:lld <- $x19
	//DEBUG_VALUE: bkops_strategy:tp <- [DW_OP_LLVM_fragment 0 64] 0
	//DEBUG_VALUE: bkops_strategy:tp <- [DW_OP_LLVM_fragment 64 64] 0
	//DEBUG_VALUE: bkops_io_busyidle_notify_handler:state <- [DW_OP_LLVM_entry_value 1] $w1
	//DEBUG_VALUE: bkops_io_busyidle_notify_handler:event_node <- [DW_OP_LLVM_entry_value 1] $x0
	//DEBUG_VALUE: bkops_io_busyidle_notify_handler:ret <- 0
	//DEBUG_VALUE: ktime_get_boottime_ts64:ts <- undef
	.loc	179 95 9                        // include/linux/timekeeping.h:95:9
	mov	w0, #1
	bl	ktime_get_with_offset
.Ltmp57:
	.loc	179 189 8                       // include/linux/timekeeping.h:189:8
	bl	ns_to_timespec64
.Ltmp58:
	.loc	7 246 35                        // block/mas_bkops_core.c:246:35
	ldr	x8, [x20, #256]
.Ltmp59:
	//DEBUG_VALUE: bkops_strategy:tp <- [DW_OP_LLVM_fragment 64 64] undef
	//DEBUG_VALUE: bkops_strategy:tp <- [DW_OP_LLVM_fragment 0 64] $x0
	.loc	7 246 62 is_stmt 0              // block/mas_bkops_core.c:246:62
	cbz	x8, .LBB1_28
.Ltmp60:
// %bb.7:
	//DEBUG_VALUE: bkops_strategy:bkops <- $x20
	//DEBUG_VALUE: bkops_should_query:bkops <- $x20
	//DEBUG_VALUE: bkops_io_busyidle_notify_handler:bkops <- $x20
	//DEBUG_VALUE: bkops_strategy:lld <- $x19
	//DEBUG_VALUE: bkops_strategy:tp <- [DW_OP_LLVM_fragment 0 64] $x0
	//DEBUG_VALUE: bkops_io_busyidle_notify_handler:state <- [DW_OP_LLVM_entry_value 1] $w1
	//DEBUG_VALUE: bkops_io_busyidle_notify_handler:event_node <- [DW_OP_LLVM_entry_value 1] $x0
	//DEBUG_VALUE: bkops_io_busyidle_notify_handler:ret <- 0
	.loc	7 247 75 is_stmt 1              // block/mas_bkops_core.c:247:75
	ldr	x9, [x20, #248]
	.loc	7 247 34 is_stmt 0              // block/mas_bkops_core.c:247:34
	sub	x8, x0, x8
.Ltmp61:
	.loc	7 246 7 is_stmt 1               // block/mas_bkops_core.c:246:7
	cmp	x8, x9
	b.ge	.LBB1_28
.Ltmp62:
// %bb.8:                               // %._crit_edge.i.i
	//DEBUG_VALUE: bkops_strategy:bkops <- $x20
	//DEBUG_VALUE: bkops_should_query:bkops <- $x20
	//DEBUG_VALUE: bkops_io_busyidle_notify_handler:bkops <- $x20
	//DEBUG_VALUE: bkops_strategy:lld <- $x19
	//DEBUG_VALUE: bkops_strategy:tp <- [DW_OP_LLVM_fragment 0 64] $x0
	//DEBUG_VALUE: bkops_io_busyidle_notify_handler:state <- [DW_OP_LLVM_entry_value 1] $w1
	//DEBUG_VALUE: bkops_io_busyidle_notify_handler:event_node <- [DW_OP_LLVM_entry_value 1] $x0
	//DEBUG_VALUE: bkops_io_busyidle_notify_handler:ret <- 0
	.loc	7 257 14                        // block/mas_bkops_core.c:257:14
	ldr	x8, [x20, #168]
.Ltmp63:
.LBB1_9:
	//DEBUG_VALUE: bkops_strategy:bkops <- $x20
	//DEBUG_VALUE: bkops_should_query:bkops <- $x20
	//DEBUG_VALUE: bkops_io_busyidle_notify_handler:bkops <- $x20
	//DEBUG_VALUE: bkops_strategy:lld <- $x19
	//DEBUG_VALUE: bkops_io_busyidle_notify_handler:state <- [DW_OP_LLVM_entry_value 1] $w1
	//DEBUG_VALUE: bkops_io_busyidle_notify_handler:event_node <- [DW_OP_LLVM_entry_value 1] $x0
	//DEBUG_VALUE: bkops_io_busyidle_notify_handler:ret <- 0
	.loc	7 257 47 is_stmt 0              // block/mas_bkops_core.c:257:47
	tbz	w8, #3, .LBB1_11
.Ltmp64:
// %bb.10:
	//DEBUG_VALUE: bkops_strategy:bkops <- $x20
	//DEBUG_VALUE: bkops_should_query:bkops <- $x20
	//DEBUG_VALUE: bkops_io_busyidle_notify_handler:bkops <- $x20
	//DEBUG_VALUE: bkops_strategy:lld <- $x19
	//DEBUG_VALUE: bkops_io_busyidle_notify_handler:state <- [DW_OP_LLVM_entry_value 1] $w1
	//DEBUG_VALUE: bkops_io_busyidle_notify_handler:event_node <- [DW_OP_LLVM_entry_value 1] $x0
	//DEBUG_VALUE: bkops_io_busyidle_notify_handler:ret <- 0
	.loc	7 258 10 is_stmt 1              // block/mas_bkops_core.c:258:10
	ldr	x9, [x19, #504]
	.loc	7 258 31 is_stmt 0              // block/mas_bkops_core.c:258:31
	ldp	x11, x10, [x20, #264]
	.loc	7 258 22                        // block/mas_bkops_core.c:258:22
	sub	x10, x9, x10
.Ltmp65:
	.loc	7 257 6 is_stmt 1               // block/mas_bkops_core.c:257:6
	cmp	x10, x11
	b.hs	.LBB1_24
.Ltmp66:
.LBB1_11:
	//DEBUG_VALUE: bkops_strategy:bkops <- $x20
	//DEBUG_VALUE: bkops_should_query:bkops <- $x20
	//DEBUG_VALUE: bkops_io_busyidle_notify_handler:bkops <- $x20
	//DEBUG_VALUE: bkops_strategy:lld <- $x19
	//DEBUG_VALUE: bkops_io_busyidle_notify_handler:state <- [DW_OP_LLVM_entry_value 1] $w1
	//DEBUG_VALUE: bkops_io_busyidle_notify_handler:event_node <- [DW_OP_LLVM_entry_value 1] $x0
	//DEBUG_VALUE: bkops_io_busyidle_notify_handler:ret <- 0
	.loc	7 267 47                        // block/mas_bkops_core.c:267:47
	tbz	w8, #2, .LBB1_13
.Ltmp67:
// %bb.12:
	//DEBUG_VALUE: bkops_strategy:bkops <- $x20
	//DEBUG_VALUE: bkops_should_query:bkops <- $x20
	//DEBUG_VALUE: bkops_io_busyidle_notify_handler:bkops <- $x20
	//DEBUG_VALUE: bkops_strategy:lld <- $x19
	//DEBUG_VALUE: bkops_io_busyidle_notify_handler:state <- [DW_OP_LLVM_entry_value 1] $w1
	//DEBUG_VALUE: bkops_io_busyidle_notify_handler:event_node <- [DW_OP_LLVM_entry_value 1] $x0
	//DEBUG_VALUE: bkops_io_busyidle_notify_handler:ret <- 0
	.loc	7 268 10                        // block/mas_bkops_core.c:268:10
	ldr	x9, [x19, #496]
	.loc	7 268 29 is_stmt 0              // block/mas_bkops_core.c:268:29
	ldp	x11, x10, [x20, #280]
	.loc	7 268 20                        // block/mas_bkops_core.c:268:20
	sub	x10, x9, x10
.Ltmp68:
	.loc	7 267 6 is_stmt 1               // block/mas_bkops_core.c:267:6
	cmp	x10, x11
	b.hs	.LBB1_25
.Ltmp69:
.LBB1_13:                               // %bkops_strategy.exit.i
	//DEBUG_VALUE: bkops_should_query:bkops <- $x20
	//DEBUG_VALUE: bkops_io_busyidle_notify_handler:bkops <- $x20
	//DEBUG_VALUE: bkops_io_busyidle_notify_handler:state <- [DW_OP_LLVM_entry_value 1] $w1
	//DEBUG_VALUE: bkops_io_busyidle_notify_handler:event_node <- [DW_OP_LLVM_entry_value 1] $x0
	//DEBUG_VALUE: bkops_io_busyidle_notify_handler:ret <- 0
	.loc	7 0 6 is_stmt 0                 // block/mas_bkops_core.c:0:6
	adrp	x9, user_manual_gc
	ldrb	w9, [x9, :lo12:user_manual_gc]
	.loc	7 300 6 is_stmt 1               // block/mas_bkops_core.c:300:6
	cbnz	w9, .LBB1_26
.Ltmp70:
// %bb.14:                              // %bkops_should_query.exit.thread
	//DEBUG_VALUE: bkops_should_query:bkops <- $x20
	//DEBUG_VALUE: bkops_io_busyidle_notify_handler:bkops <- $x20
	//DEBUG_VALUE: bkops_io_busyidle_notify_handler:state <- [DW_OP_LLVM_entry_value 1] $w1
	//DEBUG_VALUE: bkops_io_busyidle_notify_handler:event_node <- [DW_OP_LLVM_entry_value 1] $x0
	//DEBUG_VALUE: bkops_io_busyidle_notify_handler:ret <- 0
	.loc	7 309 20                        // block/mas_bkops_core.c:309:20
	and	x8, x8, #0xfffffffffffffffd
.Ltmp71:
	.loc	7 0 0 is_stmt 0                 // block/mas_bkops_core.c:0:0
	mov	w0, wzr
.Ltmp72:
	str	x8, [x20, #168]
	b	.LBB1_27
.Ltmp73:
.LBB1_15:
	//DEBUG_VALUE: bkops_io_busyidle_notify_handler:bkops <- $x20
	//DEBUG_VALUE: bkops_io_busyidle_notify_handler:event_node <- $x0
	//DEBUG_VALUE: bkops_io_busyidle_notify_handler:state <- $w1
	//DEBUG_VALUE: bkops_io_busyidle_notify_handler:ret <- 0
	//DEBUG_VALUE: test_and_clear_bit:p <- [DW_OP_plus_uconst 168, DW_OP_stack_value] $x20
	//DEBUG_VALUE: test_and_clear_bit:nr <- 5
	//DEBUG_VALUE: test_and_clear_bit:old <- 0
	//DEBUG_VALUE: test_and_clear_bit:mask <- 32
	.loc	185 51 263 is_stmt 1            // include/asm-generic/bitops/atomic.h:51:263
	ldr	x8, [x20, #168]
.Ltmp74:
	.loc	185 51 6 is_stmt 0              // include/asm-generic/bitops/atomic.h:51:6
	tbz	w8, #5, .LBB1_23
.Ltmp75:
// %bb.16:                              // %test_and_clear_bit.exit
	//DEBUG_VALUE: test_and_clear_bit:p <- [DW_OP_plus_uconst 168, DW_OP_stack_value] $x20
	//DEBUG_VALUE: bkops_io_busyidle_notify_handler:bkops <- $x20
	//DEBUG_VALUE: bkops_io_busyidle_notify_handler:event_node <- $x0
	//DEBUG_VALUE: bkops_io_busyidle_notify_handler:state <- $w1
	//DEBUG_VALUE: test_and_clear_bit:mask <- 32
	//DEBUG_VALUE: test_and_clear_bit:old <- 0
	//DEBUG_VALUE: test_and_clear_bit:nr <- 5
	//DEBUG_VALUE: bkops_io_busyidle_notify_handler:ret <- 0
	//DEBUG_VALUE: atomic_long_fetch_andnot:i <- 32
	//DEBUG_VALUE: atomic64_fetch_andnot:i <- 32
	//DEBUG_VALUE: arch_atomic64_fetch_andnot:i <- 32
	//DEBUG_VALUE: __ll_sc_atomic64_fetch_andnot:i <- 32
	//DEBUG_VALUE: __ll_sc_atomic64_fetch_andnot:result <- 0
	//DEBUG_VALUE: __ll_sc_atomic64_fetch_andnot:val <- 0
	//DEBUG_VALUE: __ll_sc_atomic64_fetch_andnot:tmp <- 0
	.loc	182 229 631 is_stmt 1           // arch/arm64/include/asm/atomic_ll_sc.h:229:631
	add	x8, x20, #168                   // =168
	mov	w9, #32
	//APP
	// atomic64_fetch_andnot
	prfm	pstl1strm, [x8]
.Ltmp76:
	ldxr	x10, [x8]
	bic	x11, x10, x9
	stlxr	w12, x11, [x8]
	cbnz	w12, .Ltmp76
	dmb	ish
	//NO_APP
.Ltmp77:
	//DEBUG_VALUE: __ll_sc_atomic64_fetch_andnot:v <- [DW_OP_plus_uconst 168, DW_OP_stack_value] $x20
	//DEBUG_VALUE: arch_atomic64_fetch_andnot:v <- [DW_OP_plus_uconst 168, DW_OP_stack_value] $x20
	//DEBUG_VALUE: atomic64_fetch_andnot:v <- [DW_OP_plus_uconst 168, DW_OP_stack_value] $x20
	//DEBUG_VALUE: atomic_long_fetch_andnot:v <- [DW_OP_plus_uconst 168, DW_OP_stack_value] $x20
	//DEBUG_VALUE: __ll_sc_atomic64_fetch_andnot:tmp <- undef
	//DEBUG_VALUE: __ll_sc_atomic64_fetch_andnot:val <- undef
	//DEBUG_VALUE: __ll_sc_atomic64_fetch_andnot:result <- $x10
	//DEBUG_VALUE: test_and_clear_bit:old <- $x10
	.loc	7 338 7                         // block/mas_bkops_core.c:338:7
	tbz	w10, #5, .LBB1_23
.Ltmp78:
// %bb.17:
	//DEBUG_VALUE: bkops_io_busyidle_notify_handler:bkops <- $x20
	//DEBUG_VALUE: bkops_io_busyidle_notify_handler:event_node <- $x0
	//DEBUG_VALUE: bkops_io_busyidle_notify_handler:state <- $w1
	//DEBUG_VALUE: bkops_io_busyidle_notify_handler:ret <- 0
	.loc	7 343 36                        // block/mas_bkops_core.c:343:36
	add	x0, x20, #32                    // =32
.Ltmp79:
	//DEBUG_VALUE: bkops_io_busyidle_notify_handler:event_node <- [DW_OP_LLVM_entry_value 1] $x0
	.loc	7 343 3 is_stmt 0               // block/mas_bkops_core.c:343:3
	bl	cancel_delayed_work_sync
.Ltmp80:
	//DEBUG_VALUE: bkops_io_busyidle_notify_handler:state <- [DW_OP_LLVM_entry_value 1] $w1
	//DEBUG_VALUE: test_bit:nr <- 0
	.loc	181 106 16 is_stmt 1            // include/asm-generic/bitops/non-atomic.h:106:16
	ldr	x8, [x20, #168]
.Ltmp81:
	//DEBUG_VALUE: test_bit:addr <- [DW_OP_plus_uconst 168, DW_OP_stack_value] $x20
	.loc	7 351 7                         // block/mas_bkops_core.c:351:7
	tbz	w8, #0, .LBB1_23
.Ltmp82:
// %bb.18:
	//DEBUG_VALUE: bkops_io_busyidle_notify_handler:bkops <- $x20
	//DEBUG_VALUE: bkops_io_busyidle_notify_handler:state <- [DW_OP_LLVM_entry_value 1] $w1
	//DEBUG_VALUE: bkops_io_busyidle_notify_handler:event_node <- [DW_OP_LLVM_entry_value 1] $x0
	//DEBUG_VALUE: bkops_io_busyidle_notify_handler:ret <- 0
	//DEBUG_VALUE: mas_bkops_stop:bkops <- $x20
	.loc	7 192 2                         // block/mas_bkops_core.c:192:2
	adrp	x0, bkops_lock
	add	x0, x0, :lo12:bkops_lock
	bl	mutex_lock
.Ltmp83:
	.loc	7 193 7                         // block/mas_bkops_core.c:193:7
	adrp	x8, bkops_enabled
	ldrb	w8, [x8, :lo12:bkops_enabled]
.Ltmp84:
	.loc	7 193 6 is_stmt 0               // block/mas_bkops_core.c:193:6
	tbnz	w8, #0, .LBB1_20
.Ltmp85:
// %bb.19:
	//DEBUG_VALUE: mas_bkops_stop:bkops <- $x20
	//DEBUG_VALUE: bkops_io_busyidle_notify_handler:bkops <- $x20
	//DEBUG_VALUE: bkops_io_busyidle_notify_handler:state <- [DW_OP_LLVM_entry_value 1] $w1
	//DEBUG_VALUE: bkops_io_busyidle_notify_handler:event_node <- [DW_OP_LLVM_entry_value 1] $x0
	//DEBUG_VALUE: bkops_io_busyidle_notify_handler:ret <- 0
	.loc	7 196 9 is_stmt 1               // block/mas_bkops_core.c:196:9
	ldp	x8, x0, [x20, #8]
	.loc	7 196 2 is_stmt 0               // block/mas_bkops_core.c:196:2
	mov	w1, wzr
	.loc	7 196 20                        // block/mas_bkops_core.c:196:20
	ldr	x8, [x8]
	.loc	7 196 2                         // block/mas_bkops_core.c:196:2
	blr	x8
.Ltmp86:
.LBB1_20:                               // %mas_bkops_stop.exit
	//DEBUG_VALUE: mas_bkops_stop:bkops <- $x20
	//DEBUG_VALUE: bkops_io_busyidle_notify_handler:bkops <- $x20
	//DEBUG_VALUE: bkops_io_busyidle_notify_handler:state <- [DW_OP_LLVM_entry_value 1] $w1
	//DEBUG_VALUE: bkops_io_busyidle_notify_handler:event_node <- [DW_OP_LLVM_entry_value 1] $x0
	//DEBUG_VALUE: bkops_io_busyidle_notify_handler:ret <- 0
	//DEBUG_LABEL: mas_bkops_stop:out
	.loc	7 202 2 is_stmt 1               // block/mas_bkops_core.c:202:2
	adrp	x0, bkops_lock
	add	x0, x0, :lo12:bkops_lock
	bl	mutex_unlock
.Ltmp87:
	//DEBUG_VALUE: __ll_sc_atomic64_andnot:tmp <- 0
	//DEBUG_VALUE: __ll_sc_atomic64_andnot:result <- 0
	//DEBUG_VALUE: __ll_sc_atomic64_andnot:i <- 1
	//DEBUG_VALUE: arch_atomic64_andnot:i <- 1
	//DEBUG_VALUE: atomic64_andnot:i <- 1
	//DEBUG_VALUE: atomic_long_andnot:i <- 1
	//DEBUG_VALUE: clear_bit:nr <- 0
	.loc	182 229 203                     // arch/arm64/include/asm/atomic_ll_sc.h:229:203
	add	x8, x20, #168                   // =168
	mov	w9, #1
	//APP
	// atomic64_andnot
	prfm	pstl1strm, [x8]
.Ltmp88:
	ldxr	x10, [x8]
	bic	x10, x10, x9
	stxr	w11, x10, [x8]
	cbnz	w11, .Ltmp88
	//NO_APP
.Ltmp89:
	//DEBUG_VALUE: __ll_sc_atomic64_andnot:v <- [DW_OP_plus_uconst 168, DW_OP_stack_value] undef
	//DEBUG_VALUE: arch_atomic64_andnot:v <- [DW_OP_plus_uconst 168, DW_OP_stack_value] undef
	//DEBUG_VALUE: atomic64_andnot:v <- [DW_OP_plus_uconst 168, DW_OP_stack_value] undef
	//DEBUG_VALUE: atomic_long_andnot:v <- [DW_OP_plus_uconst 168, DW_OP_stack_value] undef
	//DEBUG_VALUE: clear_bit:p <- [DW_OP_plus_uconst 168, DW_OP_stack_value] undef
	//DEBUG_VALUE: __ll_sc_atomic64_andnot:tmp <- undef
	//DEBUG_VALUE: __ll_sc_atomic64_andnot:result <- undef
	.loc	182 0 203 is_stmt 0             // arch/arm64/include/asm/atomic_ll_sc.h:0:203
	b	.LBB1_23
.Ltmp90:
.LBB1_21:
	//DEBUG_VALUE: bkops_io_busyidle_notify_handler:bkops <- $x20
	//DEBUG_VALUE: bkops_io_busyidle_notify_handler:event_node <- $x0
	//DEBUG_VALUE: bkops_io_busyidle_notify_handler:state <- $w19
	//DEBUG_VALUE: bkops_io_busyidle_notify_handler:ret <- 0
	.loc	7 358 227 is_stmt 1             // block/mas_bkops_core.c:358:227
	adrp	x0, bkops_io_busyidle_notify_handler._rs
.Ltmp91:
	//DEBUG_VALUE: bkops_io_busyidle_notify_handler:event_node <- [DW_OP_LLVM_entry_value 1] $x0
	adrp	x1, .L__func__.bkops_io_busyidle_notify_handler
	add	x0, x0, :lo12:bkops_io_busyidle_notify_handler._rs
	add	x1, x1, :lo12:.L__func__.bkops_io_busyidle_notify_handler
	bl	___ratelimit
.Ltmp92:
	.loc	7 358 227 is_stmt 0             // block/mas_bkops_core.c:358:227
	cbz	w0, .LBB1_27
.Ltmp93:
// %bb.22:
	//DEBUG_VALUE: bkops_io_busyidle_notify_handler:bkops <- $x20
	//DEBUG_VALUE: bkops_io_busyidle_notify_handler:state <- $w19
	//DEBUG_VALUE: bkops_io_busyidle_notify_handler:event_node <- [DW_OP_LLVM_entry_value 1] $x0
	//DEBUG_VALUE: bkops_io_busyidle_notify_handler:ret <- 0
	.loc	7 358 257                       // block/mas_bkops_core.c:358:257
	adrp	x0, .L.str.2
	adrp	x1, .L__func__.bkops_io_busyidle_notify_handler
	add	x0, x0, :lo12:.L.str.2
	add	x1, x1, :lo12:.L__func__.bkops_io_busyidle_notify_handler
	mov	w2, w19
	bl	printk
.Ltmp94:
.LBB1_23:                               // %test_and_clear_bit.exit.thread
	//DEBUG_VALUE: bkops_io_busyidle_notify_handler:bkops <- $x20
	//DEBUG_VALUE: bkops_io_busyidle_notify_handler:ret <- 0
	.loc	7 0 0                           // block/mas_bkops_core.c:0:0
	mov	w0, wzr
	b	.LBB1_27
.Ltmp95:
.LBB1_24:
	//DEBUG_VALUE: bkops_strategy:bkops <- $x20
	//DEBUG_VALUE: bkops_should_query:bkops <- $x20
	//DEBUG_VALUE: bkops_io_busyidle_notify_handler:bkops <- $x20
	//DEBUG_VALUE: bkops_strategy:lld <- $x19
	//DEBUG_VALUE: bkops_io_busyidle_notify_handler:state <- [DW_OP_LLVM_entry_value 1] $w1
	//DEBUG_VALUE: bkops_io_busyidle_notify_handler:event_node <- [DW_OP_LLVM_entry_value 1] $x0
	//DEBUG_VALUE: bkops_io_busyidle_notify_handler:ret <- 0
	.loc	7 260 27 is_stmt 1              // block/mas_bkops_core.c:260:27
	str	x9, [x20, #272]
	b	.LBB1_26
.Ltmp96:
.LBB1_25:
	//DEBUG_VALUE: bkops_strategy:bkops <- $x20
	//DEBUG_VALUE: bkops_should_query:bkops <- $x20
	//DEBUG_VALUE: bkops_io_busyidle_notify_handler:bkops <- $x20
	//DEBUG_VALUE: bkops_strategy:lld <- $x19
	//DEBUG_VALUE: bkops_io_busyidle_notify_handler:state <- [DW_OP_LLVM_entry_value 1] $w1
	//DEBUG_VALUE: bkops_io_busyidle_notify_handler:event_node <- [DW_OP_LLVM_entry_value 1] $x0
	//DEBUG_VALUE: bkops_io_busyidle_notify_handler:ret <- 0
	.loc	7 270 25                        // block/mas_bkops_core.c:270:25
	str	x9, [x20, #288]
.Ltmp97:
.LBB1_26:                               // %msecs_to_jiffies.exit
	//DEBUG_VALUE: bkops_should_query:bkops <- $x20
	//DEBUG_VALUE: bkops_io_busyidle_notify_handler:bkops <- $x20
	//DEBUG_VALUE: bkops_io_busyidle_notify_handler:ret <- 0
	//DEBUG_LABEL: bkops_should_query:query_needed
	.loc	7 313 20                        // block/mas_bkops_core.c:313:20
	orr	x8, x8, #0x2
	.loc	7 0 0 is_stmt 0                 // block/mas_bkops_core.c:0:0
	str	x8, [x20, #168]!
.Ltmp98:
	//DEBUG_VALUE: __ll_sc_atomic64_or:tmp <- 0
	//DEBUG_VALUE: __ll_sc_atomic64_or:result <- 0
	//DEBUG_VALUE: __ll_sc_atomic64_or:i <- 32
	//DEBUG_VALUE: arch_atomic64_or:i <- 32
	//DEBUG_VALUE: atomic64_or:i <- 32
	//DEBUG_VALUE: atomic_long_or:i <- 32
	//DEBUG_VALUE: set_bit:nr <- 5
	//DEBUG_VALUE: __ll_sc_atomic64_or:v <- $x20
	//DEBUG_VALUE: arch_atomic64_or:v <- $x20
	//DEBUG_VALUE: atomic64_or:v <- $x20
	//DEBUG_VALUE: atomic_long_or:v <- $x20
	//DEBUG_VALUE: set_bit:p <- $x20
	.loc	182 222 199 is_stmt 1           // arch/arm64/include/asm/atomic_ll_sc.h:222:199
	//APP
	// atomic64_or
	prfm	pstl1strm, [x20]
.Ltmp99:
	ldxr	x8, [x20]
	orr	x8, x8, #0x20
	stxr	w10, x8, [x20]
	cbnz	w10, .Ltmp99
	//NO_APP
.Ltmp100:
	//DEBUG_VALUE: __ll_sc_atomic64_or:tmp <- undef
	//DEBUG_VALUE: __ll_sc_atomic64_or:result <- undef
	.loc	7 333 22                        // block/mas_bkops_core.c:333:22
	adrp	x9, bkops_workqueue_g
	.loc	7 334 28                        // block/mas_bkops_core.c:334:28
	ldr	w0, [x20, #8]
	.loc	7 333 22                        // block/mas_bkops_core.c:333:22
	ldr	x19, [x9, :lo12:bkops_workqueue_g]
	//DEBUG_VALUE: msecs_to_jiffies:m <- undef
	.loc	7 333 49 is_stmt 0              // block/mas_bkops_core.c:333:49
	sub	x20, x20, #136                  // =136
.Ltmp101:
	//DEBUG_VALUE: msecs_to_jiffies:m <- [DW_OP_LLVM_convert 64 7, DW_OP_LLVM_convert 32 7, DW_OP_stack_value] undef
	.file	187 "/mnt/disk/jenkins/ci/workspace/chipset_pipeline_release/opensource/component_code/out/kernel-out/gki_kernel/common" "include/linux/jiffies.h"
	.loc	187 370 10 is_stmt 1            // include/linux/jiffies.h:370:10
	bl	__msecs_to_jiffies
.Ltmp102:
	mov	x3, x0
.Ltmp103:
	//DEBUG_VALUE: queue_delayed_work:dwork <- $x20
	//DEBUG_VALUE: queue_delayed_work:delay <- $x3
	//DEBUG_VALUE: queue_delayed_work:wq <- $x19
	.loc	46 528 9                        // include/linux/workqueue.h:528:9
	mov	w0, #8
	mov	x1, x19
	mov	x2, x20
	bl	queue_delayed_work_on
.Ltmp104:
	.loc	46 0 9 is_stmt 0                // include/linux/workqueue.h:0:9
	mov	w0, #1
.Ltmp105:
	//DEBUG_VALUE: bkops_io_busyidle_notify_handler:ret <- 1
.LBB1_27:                               // %test_and_clear_bit.exit.thread
	//DEBUG_VALUE: bkops_io_busyidle_notify_handler:ret <- $w0
	.loc	7 362 2 is_stmt 1               // block/mas_bkops_core.c:362:2
	ldp	x20, x19, [sp, #16]             // 16-byte Folded Reload
	ldp	x29, x30, [sp], #32             // 16-byte Folded Reload
	ldr	x30, [x18, #-8]!
	hint	#29
	ret
.Ltmp106:
.LBB1_28:
	//DEBUG_VALUE: bkops_strategy:bkops <- $x20
	//DEBUG_VALUE: bkops_should_query:bkops <- $x20
	//DEBUG_VALUE: bkops_io_busyidle_notify_handler:bkops <- $x20
	//DEBUG_VALUE: bkops_strategy:lld <- $x19
	//DEBUG_VALUE: bkops_strategy:tp <- [DW_OP_LLVM_fragment 0 64] $x0
	//DEBUG_VALUE: bkops_io_busyidle_notify_handler:state <- [DW_OP_LLVM_entry_value 1] $w1
	//DEBUG_VALUE: bkops_io_busyidle_notify_handler:event_node <- [DW_OP_LLVM_entry_value 1] $x0
	//DEBUG_VALUE: bkops_io_busyidle_notify_handler:ret <- 0
	.loc	7 313 20                        // block/mas_bkops_core.c:313:20
	ldr	x8, [x20, #168]
.Ltmp107:
	.loc	7 249 33                        // block/mas_bkops_core.c:249:33
	str	x0, [x20, #256]
	b	.LBB1_26
.Ltmp108:
.Lfunc_end1:
	.size	bkops_io_busyidle_notify_handler, .Lfunc_end1-bkops_io_busyidle_notify_handler
	.cfi_endproc
                                        // -- End function
	.globl	bkops_pm_callback               // -- Begin function bkops_pm_callback
	.p2align	2
	.type	bkops_pm_callback,@function
bkops_pm_callback:                      // @bkops_pm_callback
.Lfunc_begin2:
	.loc	7 382 0                         // block/mas_bkops_core.c:382:0
	.cfi_startproc
// %bb.0:
	.loc	7 383 2 prologue_end            // block/mas_bkops_core.c:383:2
	hint	#34
.Ltmp109:
	//DEBUG_VALUE: bkops_pm_callback:self <- $x0
	//DEBUG_VALUE: bkops_pm_callback:action <- $x1
	//DEBUG_VALUE: bkops_pm_callback:action <- $x1
	//DEBUG_VALUE: bkops_pm_callback:ptr <- $x2
	sub	x8, x1, #1                      // =1
	cmp	x8, #3                          // =3
	b.hi	.LBB2_2
.Ltmp110:
// %bb.1:                               // %switch.lookup
	//DEBUG_VALUE: bkops_pm_callback:ptr <- $x2
	//DEBUG_VALUE: bkops_pm_callback:action <- $x1
	//DEBUG_VALUE: bkops_pm_callback:self <- $x0
	hint	#25
	.cfi_negate_ra_state
	str	x30, [x18], #8
	stp	x29, x30, [sp, #-32]!           // 16-byte Folded Spill
	stp	x20, x19, [sp, #16]             // 16-byte Folded Spill
	mov	x29, sp
	.cfi_def_cfa w29, 32
	.cfi_offset w19, -8
	.cfi_offset w20, -16
	.cfi_offset w30, -24
	.cfi_offset w29, -32
.Ltmp111:
	.loc	7 0 0 is_stmt 0                 // block/mas_bkops_core.c:0:0
	adrp	x19, bkops_lock
	add	x19, x19, :lo12:bkops_lock
.Ltmp112:
	.loc	7 383 2                         // block/mas_bkops_core.c:383:2
	tst	x8, #0x1
.Ltmp113:
	.loc	7 0 0                           // block/mas_bkops_core.c:0:0
	mov	x0, x19
.Ltmp114:
	//DEBUG_VALUE: bkops_pm_callback:self <- [DW_OP_LLVM_entry_value 1] $x0
	.loc	7 383 2                         // block/mas_bkops_core.c:383:2
	cset	w20, eq
.Ltmp115:
	.loc	7 0 0                           // block/mas_bkops_core.c:0:0
	bl	mutex_lock
.Ltmp116:
	//DEBUG_VALUE: bkops_pm_callback:ptr <- [DW_OP_LLVM_entry_value 1] $x2
	//DEBUG_VALUE: bkops_pm_callback:action <- [DW_OP_LLVM_entry_value 1] $x1
	adrp	x8, bkops_enabled
	mov	x0, x19
	strb	w20, [x8, :lo12:bkops_enabled]
	bl	mutex_unlock
.Ltmp117:
	ldp	x20, x19, [sp, #16]             // 16-byte Folded Reload
	mov	w0, #1
	ldp	x29, x30, [sp], #32             // 16-byte Folded Reload
	ldr	x30, [x18, #-8]!
	hint	#29
.Ltmp118:
	.loc	7 399 1 is_stmt 1               // block/mas_bkops_core.c:399:1
	ret
.Ltmp119:
.LBB2_2:
	//DEBUG_VALUE: bkops_pm_callback:ptr <- $x2
	//DEBUG_VALUE: bkops_pm_callback:action <- $x1
	//DEBUG_VALUE: bkops_pm_callback:self <- $x0
	.loc	7 0 0 is_stmt 0                 // block/mas_bkops_core.c:0:0
	mov	w0, wzr
.Ltmp120:
	//DEBUG_VALUE: bkops_pm_callback:self <- [DW_OP_LLVM_entry_value 1] $x0
	.loc	7 399 1                         // block/mas_bkops_core.c:399:1
	ret
.Ltmp121:
.Lfunc_end2:
	.size	bkops_pm_callback, .Lfunc_end2-bkops_pm_callback
	.cfi_endproc
                                        // -- End function
	.globl	bkops_notify_reboot             // -- Begin function bkops_notify_reboot
	.p2align	2
	.type	bkops_notify_reboot,@function
bkops_notify_reboot:                    // @bkops_notify_reboot
.Lfunc_begin3:
	.loc	7 404 0 is_stmt 1               // block/mas_bkops_core.c:404:0
	.cfi_startproc
// %bb.0:
	//DEBUG_VALUE: bkops_notify_reboot:self <- $x0
	//DEBUG_VALUE: bkops_notify_reboot:code <- $x1
	//DEBUG_VALUE: bkops_notify_reboot:no_use <- $x2
	hint	#25
	.cfi_negate_ra_state
	str	x30, [x18], #8
	stp	x29, x30, [sp, #-32]!           // 16-byte Folded Spill
	str	x19, [sp, #16]                  // 8-byte Folded Spill
	mov	x29, sp
	.cfi_def_cfa w29, 32
	.cfi_offset w19, -16
	.cfi_offset w30, -24
	.cfi_offset w29, -32
.Ltmp122:
	.loc	7 367 2 prologue_end            // block/mas_bkops_core.c:367:2
	adrp	x19, bkops_lock
	add	x19, x19, :lo12:bkops_lock
	mov	x0, x19
.Ltmp123:
	//DEBUG_VALUE: bkops_notify_reboot:self <- [DW_OP_LLVM_entry_value 1] $x0
	bl	mutex_lock
.Ltmp124:
	//DEBUG_VALUE: bkops_notify_reboot:no_use <- [DW_OP_LLVM_entry_value 1] $x2
	//DEBUG_VALUE: bkops_notify_reboot:code <- [DW_OP_LLVM_entry_value 1] $x1
	.loc	7 368 16                        // block/mas_bkops_core.c:368:16
	adrp	x8, bkops_enabled
	mov	w9, #1
	.loc	7 369 2                         // block/mas_bkops_core.c:369:2
	mov	x0, x19
	.loc	7 368 16                        // block/mas_bkops_core.c:368:16
	strb	w9, [x8, :lo12:bkops_enabled]
	.loc	7 369 2                         // block/mas_bkops_core.c:369:2
	bl	mutex_unlock
.Ltmp125:
	.loc	7 406 2                         // block/mas_bkops_core.c:406:2
	ldr	x19, [sp, #16]                  // 8-byte Folded Reload
	mov	w0, wzr
	ldp	x29, x30, [sp], #32             // 16-byte Folded Reload
	ldr	x30, [x18, #-8]!
	hint	#29
	ret
.Ltmp126:
.Lfunc_end3:
	.size	bkops_notify_reboot, .Lfunc_end3-bkops_notify_reboot
	.cfi_endproc
                                        // -- End function
	.globl	mas_bkops_alloc                 // -- Begin function mas_bkops_alloc
	.p2align	2
	.type	mas_bkops_alloc,@function
mas_bkops_alloc:                        // @mas_bkops_alloc
.Lfunc_begin4:
	.loc	7 451 0                         // block/mas_bkops_core.c:451:0
	.cfi_startproc
// %bb.0:
	//DEBUG_VALUE: kzalloc:size <- 296
	//DEBUG_VALUE: kzalloc:flags <- 3264
	//DEBUG_VALUE: kmalloc:size <- 296
	//DEBUG_VALUE: kmalloc:flags <- 3520
	hint	#25
	.cfi_negate_ra_state
	str	x30, [x18], #8
	stp	x29, x30, [sp, #-32]!           // 16-byte Folded Spill
	str	x19, [sp, #16]                  // 8-byte Folded Spill
	mov	x29, sp
	.cfi_def_cfa w29, 32
	.cfi_offset w19, -16
	.cfi_offset w30, -24
	.cfi_offset w29, -32
.Ltmp127:
	//DEBUG_VALUE: mas_bkops_alloc:bkops <- 0
	//DEBUG_VALUE: index <- 9
	.loc	180 560 5 prologue_end          // include/linux/slab.h:560:5
	adrp	x8, kmalloc_caches+72
	ldr	x0, [x8, :lo12:kmalloc_caches+72]
	.loc	180 559 10                      // include/linux/slab.h:559:10
	mov	w1, #3520
	mov	w2, #296
	bl	kmem_cache_alloc_trace
.Ltmp128:
	mov	x19, x0
.Ltmp129:
	//DEBUG_VALUE: mas_bkops_alloc:bkops <- $x19
	.loc	7 455 6                         // block/mas_bkops_core.c:455:6
	cbz	x0, .LBB4_3
.Ltmp130:
// %bb.1:
	//DEBUG_VALUE: mas_bkops_alloc:bkops <- $x19
	//DEBUG_VALUE: mas_bkops_alloc:bkops <- $x19
	.loc	7 460 36                        // block/mas_bkops_core.c:460:36
	add	x0, x19, #32                    // =32
	.loc	7 460 12 is_stmt 0              // block/mas_bkops_core.c:460:12
	mov	w1, wzr
	bl	__init_work
.Ltmp131:
	.loc	7 460 274                       // block/mas_bkops_core.c:460:274
	adrp	x10, __ufs_bkops_idle_work_func
.Ltmp132:
	.loc	7 460 323                       // block/mas_bkops_core.c:460:323
	adrp	x1, delayed_work_timer_fn
	mov	x8, #137438953408
.Ltmp133:
	.loc	7 460 223                       // block/mas_bkops_core.c:460:223
	add	x9, x19, #40                    // =40
	.loc	7 460 274                       // block/mas_bkops_core.c:460:274
	add	x10, x10, :lo12:__ufs_bkops_idle_work_func
.Ltmp134:
	.loc	7 460 367                       // block/mas_bkops_core.c:460:367
	add	x0, x19, #80                    // =80
	.loc	7 460 323                       // block/mas_bkops_core.c:460:323
	add	x1, x1, :lo12:delayed_work_timer_fn
	mov	w2, #2097152
	mov	x3, xzr
	mov	x4, xzr
.Ltmp135:
	.loc	7 460 111                       // block/mas_bkops_core.c:460:111
	str	x8, [x19, #32]
.Ltmp136:
	//DEBUG_VALUE: INIT_LIST_HEAD:list <- $x9
	.file	188 "/mnt/disk/jenkins/ci/workspace/chipset_pipeline_release/opensource/component_code/out/kernel-out/gki_kernel/common" "include/linux/list.h"
	.loc	188 35 349 is_stmt 1            // include/linux/list.h:35:349
	str	x9, [x19, #40]
.Ltmp137:
	.loc	188 36 13                       // include/linux/list.h:36:13
	stp	x9, x10, [x19, #48]
.Ltmp138:
	.loc	7 460 323                       // block/mas_bkops_core.c:460:323
	bl	init_timer_key
.Ltmp139:
	.loc	7 0 323 is_stmt 0               // block/mas_bkops_core.c:0:323
	mov	w8, #1000
	mov	w9, #3600
	mov	w10, #536870912
.Ltmp140:
	.loc	7 461 29 is_stmt 1              // block/mas_bkops_core.c:461:29
	str	x8, [x19, #176]
	.loc	7 462 30                        // block/mas_bkops_core.c:462:30
	str	x9, [x19, #248]
	.loc	7 463 33                        // block/mas_bkops_core.c:463:33
	str	x10, [x19, #264]
	.loc	7 464 31                        // block/mas_bkops_core.c:464:31
	str	x10, [x19, #280]
.Ltmp141:
.LBB4_2:
	//DEBUG_VALUE: mas_bkops_alloc:bkops <- $x19
	.loc	7 467 1                         // block/mas_bkops_core.c:467:1
	mov	x0, x19
	ldr	x19, [sp, #16]                  // 8-byte Folded Reload
.Ltmp142:
	ldp	x29, x30, [sp], #32             // 16-byte Folded Reload
	ldr	x30, [x18, #-8]!
	hint	#29
	ret
.LBB4_3:
.Ltmp143:
	//DEBUG_VALUE: mas_bkops_alloc:bkops <- $x19
	.loc	7 456 3                         // block/mas_bkops_core.c:456:3
	adrp	x0, .L.str.3
	add	x0, x0, :lo12:.L.str.3
	bl	printk
.Ltmp144:
	.loc	7 0 3 is_stmt 0                 // block/mas_bkops_core.c:0:3
	b	.LBB4_2
.Ltmp145:
.Lfunc_end4:
	.size	mas_bkops_alloc, .Lfunc_end4-mas_bkops_alloc
	.cfi_endproc
                                        // -- End function
	.globl	mas_bkops_manual_gc_proc_show   // -- Begin function mas_bkops_manual_gc_proc_show
	.p2align	2
	.type	mas_bkops_manual_gc_proc_show,@function
mas_bkops_manual_gc_proc_show:          // @mas_bkops_manual_gc_proc_show
.Lfunc_begin5:
	.loc	7 470 0 is_stmt 1               // block/mas_bkops_core.c:470:0
	.cfi_startproc
// %bb.0:
	//DEBUG_VALUE: mas_bkops_manual_gc_proc_show:m <- $x0
	//DEBUG_VALUE: mas_bkops_manual_gc_proc_show:v <- $x1
	hint	#25
	.cfi_negate_ra_state
	str	x30, [x18], #8
	stp	x29, x30, [sp, #-16]!           // 16-byte Folded Spill
	mov	x29, sp
	.cfi_def_cfa w29, 16
	.cfi_offset w30, -8
	.cfi_offset w29, -16
.Ltmp146:
	.loc	7 471 24 prologue_end           // block/mas_bkops_core.c:471:24
	adrp	x8, user_manual_gc
	ldrb	w2, [x8, :lo12:user_manual_gc]
	//DEBUG_VALUE: mas_bkops_manual_gc_proc_show:m <- $x0
	.loc	7 471 2 is_stmt 0               // block/mas_bkops_core.c:471:2
	adrp	x1, .L.str.4
.Ltmp147:
	//DEBUG_VALUE: mas_bkops_manual_gc_proc_show:v <- [DW_OP_LLVM_entry_value 1] $x1
	add	x1, x1, :lo12:.L.str.4
	//DEBUG_VALUE: mas_bkops_manual_gc_proc_show:m <- $x0
	bl	seq_printf
.Ltmp148:
	//DEBUG_VALUE: mas_bkops_manual_gc_proc_show:m <- [DW_OP_LLVM_entry_value 1] $x0
	.loc	7 473 2 is_stmt 1               // block/mas_bkops_core.c:473:2
	mov	w0, wzr
	ldp	x29, x30, [sp], #16             // 16-byte Folded Reload
	ldr	x30, [x18, #-8]!
	hint	#29
	ret
.Ltmp149:
.Lfunc_end5:
	.size	mas_bkops_manual_gc_proc_show, .Lfunc_end5-mas_bkops_manual_gc_proc_show
	.cfi_endproc
                                        // -- End function
	.globl	mas_bkops_manual_gc_proc_open   // -- Begin function mas_bkops_manual_gc_proc_open
	.p2align	2
	.type	mas_bkops_manual_gc_proc_open,@function
mas_bkops_manual_gc_proc_open:          // @mas_bkops_manual_gc_proc_open
.Lfunc_begin6:
	.loc	7 478 0                         // block/mas_bkops_core.c:478:0
	.cfi_startproc
// %bb.0:
	//DEBUG_VALUE: mas_bkops_manual_gc_proc_open:p_inode <- $x0
	//DEBUG_VALUE: mas_bkops_manual_gc_proc_open:p_file <- $x1
	hint	#25
	.cfi_negate_ra_state
	str	x30, [x18], #8
	stp	x29, x30, [sp, #-16]!           // 16-byte Folded Spill
	mov	x29, sp
	.cfi_def_cfa w29, 16
	.cfi_offset w30, -8
	.cfi_offset w29, -16
	mov	x0, x1
.Ltmp150:
	//DEBUG_VALUE: mas_bkops_manual_gc_proc_open:p_inode <- [DW_OP_LLVM_entry_value 1] $x0
	//DEBUG_VALUE: mas_bkops_manual_gc_proc_open:p_file <- $x0
	.loc	7 479 9 prologue_end            // block/mas_bkops_core.c:479:9
	adrp	x1, __cfi_mas_bkops_manual_gc_proc_show
	add	x1, x1, :lo12:__cfi_mas_bkops_manual_gc_proc_show
	//DEBUG_VALUE: mas_bkops_manual_gc_proc_open:p_file <- $x0
	mov	x2, xzr
	bl	single_open
.Ltmp151:
	.loc	7 479 2 is_stmt 0               // block/mas_bkops_core.c:479:2
	ldp	x29, x30, [sp], #16             // 16-byte Folded Reload
	ldr	x30, [x18, #-8]!
	hint	#29
	ret
.Ltmp152:
.Lfunc_end6:
	.size	mas_bkops_manual_gc_proc_open, .Lfunc_end6-mas_bkops_manual_gc_proc_open
	.cfi_endproc
                                        // -- End function
	.globl	mas_bkops_manual_gc_proc_write  // -- Begin function mas_bkops_manual_gc_proc_write
	.p2align	2
	.type	mas_bkops_manual_gc_proc_write,@function
mas_bkops_manual_gc_proc_write:         // @mas_bkops_manual_gc_proc_write
.Lfunc_begin7:
	.loc	7 485 0 is_stmt 1               // block/mas_bkops_core.c:485:0
	.cfi_startproc
// %bb.0:
	//DEBUG_VALUE: mas_bkops_manual_gc_proc_write:p_file <- $x0
	//DEBUG_VALUE: mas_bkops_manual_gc_proc_write:userbuf <- $x1
	//DEBUG_VALUE: mas_bkops_manual_gc_proc_write:count <- $x2
	//DEBUG_VALUE: mas_bkops_manual_gc_proc_write:ppos <- $x3
	hint	#25
	.cfi_negate_ra_state
	sub	sp, sp, #48                     // =48
	str	x30, [x18], #8
	stp	x29, x30, [sp, #16]             // 16-byte Folded Spill
	str	x19, [sp, #32]                  // 8-byte Folded Spill
	add	x29, sp, #16                    // =16
	.cfi_def_cfa w29, 32
	.cfi_offset w19, -16
	.cfi_offset w30, -24
	.cfi_offset w29, -32
	adrp	x8, __stack_chk_guard
	ldr	x8, [x8, :lo12:__stack_chk_guard]
	mov	x0, #-22
.Ltmp153:
	//DEBUG_VALUE: mas_bkops_manual_gc_proc_write:p_file <- [DW_OP_LLVM_entry_value 1] $x0
	str	x8, [sp, #8]
.Ltmp154:
	//DEBUG_VALUE: mas_bkops_manual_gc_proc_write:buf <- 0
	//DEBUG_VALUE: mas_bkops_manual_gc_proc_write:count <- $x2
	//DEBUG_VALUE: mas_bkops_manual_gc_proc_write:userbuf <- $x1
	.loc	7 486 7 prologue_end            // block/mas_bkops_core.c:486:7
	strb	wzr, [sp, #4]
.Ltmp155:
	.loc	7 488 13                        // block/mas_bkops_core.c:488:13
	cbz	x1, .LBB7_6
.Ltmp156:
// %bb.1:
	//DEBUG_VALUE: mas_bkops_manual_gc_proc_write:ppos <- $x3
	//DEBUG_VALUE: mas_bkops_manual_gc_proc_write:count <- $x2
	//DEBUG_VALUE: mas_bkops_manual_gc_proc_write:userbuf <- $x1
	//DEBUG_VALUE: mas_bkops_manual_gc_proc_write:buf <- 0
	//DEBUG_VALUE: mas_bkops_manual_gc_proc_write:p_file <- [DW_OP_LLVM_entry_value 1] $x0
	.loc	7 0 13 is_stmt 0                // block/mas_bkops_core.c:0:13
	mov	x19, x2
.Ltmp157:
	//DEBUG_VALUE: mas_bkops_manual_gc_proc_write:count <- $x19
	.loc	7 488 13                        // block/mas_bkops_core.c:488:13
	cbz	x2, .LBB7_6
.Ltmp158:
// %bb.2:
	//DEBUG_VALUE: mas_bkops_manual_gc_proc_write:count <- $x19
	//DEBUG_VALUE: mas_bkops_manual_gc_proc_write:ppos <- $x3
	//DEBUG_VALUE: mas_bkops_manual_gc_proc_write:userbuf <- $x1
	//DEBUG_VALUE: mas_bkops_manual_gc_proc_write:buf <- 0
	//DEBUG_VALUE: mas_bkops_manual_gc_proc_write:p_file <- [DW_OP_LLVM_entry_value 1] $x0
	//DEBUG_VALUE: mas_bkops_manual_gc_proc_write:buf <- [DW_OP_plus_uconst 4, DW_OP_deref] $sp
	//DEBUG_VALUE: copy_from_user:to <- [DW_OP_plus_uconst 4, DW_OP_stack_value] $sp
	//DEBUG_VALUE: copy_from_user:from <- $x1
	//DEBUG_VALUE: copy_from_user:n <- 1
	.file	189 "/mnt/disk/jenkins/ci/workspace/chipset_pipeline_release/opensource/component_code/out/kernel-out/gki_kernel/common" "include/linux/uaccess.h"
	.loc	189 192 7 is_stmt 1             // include/linux/uaccess.h:192:7
	add	x0, sp, #4                      // =4
	bl	_copy_from_user
.Ltmp159:
	//DEBUG_VALUE: mas_bkops_manual_gc_proc_write:ppos <- [DW_OP_LLVM_entry_value 1] $x3
	//DEBUG_VALUE: mas_bkops_manual_gc_proc_write:userbuf <- [DW_OP_LLVM_entry_value 1] $x1
	//DEBUG_VALUE: copy_from_user:n <- $x0
	.loc	7 491 6                         // block/mas_bkops_core.c:491:6
	cbz	x0, .LBB7_4
.Ltmp160:
// %bb.3:
	//DEBUG_VALUE: mas_bkops_manual_gc_proc_write:count <- $x19
	//DEBUG_VALUE: copy_from_user:n <- $x0
	//DEBUG_VALUE: copy_from_user:to <- [DW_OP_plus_uconst 4, DW_OP_stack_value] $sp
	//DEBUG_VALUE: mas_bkops_manual_gc_proc_write:buf <- [DW_OP_plus_uconst 4, DW_OP_deref] $sp
	//DEBUG_VALUE: mas_bkops_manual_gc_proc_write:ppos <- [DW_OP_LLVM_entry_value 1] $x3
	//DEBUG_VALUE: mas_bkops_manual_gc_proc_write:userbuf <- [DW_OP_LLVM_entry_value 1] $x1
	//DEBUG_VALUE: mas_bkops_manual_gc_proc_write:p_file <- [DW_OP_LLVM_entry_value 1] $x0
	.loc	7 0 6 is_stmt 0                 // block/mas_bkops_core.c:0:6
	mov	x0, #-14
	b	.LBB7_6
.Ltmp161:
.LBB7_4:
	//DEBUG_VALUE: mas_bkops_manual_gc_proc_write:count <- $x19
	//DEBUG_VALUE: mas_bkops_manual_gc_proc_write:buf <- [DW_OP_plus_uconst 4, DW_OP_deref] $sp
	//DEBUG_VALUE: mas_bkops_manual_gc_proc_write:ppos <- [DW_OP_LLVM_entry_value 1] $x3
	//DEBUG_VALUE: mas_bkops_manual_gc_proc_write:userbuf <- [DW_OP_LLVM_entry_value 1] $x1
	//DEBUG_VALUE: mas_bkops_manual_gc_proc_write:p_file <- [DW_OP_LLVM_entry_value 1] $x0
	.loc	7 494 6 is_stmt 1               // block/mas_bkops_core.c:494:6
	ldrb	w8, [sp, #4]
.Ltmp162:
	//DEBUG_VALUE: mas_bkops_manual_gc_proc_write:buf <- $w8
	.loc	7 494 17 is_stmt 0              // block/mas_bkops_core.c:494:17
	sub	w8, w8, #48                     // =48
.Ltmp163:
	cmp	w8, #2                          // =2
	b.hs	.LBB7_8
.Ltmp164:
// %bb.5:
	//DEBUG_VALUE: mas_bkops_manual_gc_proc_write:count <- $x19
	//DEBUG_VALUE: mas_bkops_manual_gc_proc_write:ppos <- [DW_OP_LLVM_entry_value 1] $x3
	//DEBUG_VALUE: mas_bkops_manual_gc_proc_write:userbuf <- [DW_OP_LLVM_entry_value 1] $x1
	//DEBUG_VALUE: mas_bkops_manual_gc_proc_write:p_file <- [DW_OP_LLVM_entry_value 1] $x0
	.loc	7 499 17 is_stmt 1              // block/mas_bkops_core.c:499:17
	adrp	x9, user_manual_gc
	.loc	7 0 0 is_stmt 0                 // block/mas_bkops_core.c:0:0
	mov	x0, x19
	.loc	7 499 17                        // block/mas_bkops_core.c:499:17
	strb	w8, [x9, :lo12:user_manual_gc]
.Ltmp165:
	//DEBUG_VALUE: mas_bkops_manual_gc_proc_write:buf <- undef
.LBB7_6:
	//DEBUG_VALUE: mas_bkops_manual_gc_proc_write:p_file <- [DW_OP_LLVM_entry_value 1] $x0
	.loc	7 0 17                          // block/mas_bkops_core.c:0:17
	adrp	x9, __stack_chk_guard
	ldr	x8, [sp, #8]
	ldr	x9, [x9, :lo12:__stack_chk_guard]
	cmp	x9, x8
	b.ne	.LBB7_9
.Ltmp166:
// %bb.7:
	//DEBUG_VALUE: mas_bkops_manual_gc_proc_write:p_file <- [DW_OP_LLVM_entry_value 1] $x0
	.loc	7 502 1 is_stmt 1               // block/mas_bkops_core.c:502:1
	ldp	x29, x30, [sp, #16]             // 16-byte Folded Reload
	ldr	x19, [sp, #32]                  // 8-byte Folded Reload
	ldr	x30, [x18, #-8]!
	add	sp, sp, #48                     // =48
	hint	#29
	ret
.Ltmp167:
.LBB7_8:
	//DEBUG_VALUE: mas_bkops_manual_gc_proc_write:count <- $x19
	//DEBUG_VALUE: mas_bkops_manual_gc_proc_write:ppos <- [DW_OP_LLVM_entry_value 1] $x3
	//DEBUG_VALUE: mas_bkops_manual_gc_proc_write:userbuf <- [DW_OP_LLVM_entry_value 1] $x1
	//DEBUG_VALUE: mas_bkops_manual_gc_proc_write:p_file <- [DW_OP_LLVM_entry_value 1] $x0
	.loc	7 495 3                         // block/mas_bkops_core.c:495:3
	adrp	x0, .L.str.5
	adrp	x1, .L__func__.mas_bkops_manual_gc_proc_write
	add	x0, x0, :lo12:.L.str.5
	add	x1, x1, :lo12:.L__func__.mas_bkops_manual_gc_proc_write
	mov	w2, #495
	bl	printk
.Ltmp168:
	.loc	7 0 3 is_stmt 0                 // block/mas_bkops_core.c:0:3
	mov	x0, #-22
	b	.LBB7_6
.Ltmp169:
.LBB7_9:
	//DEBUG_VALUE: mas_bkops_manual_gc_proc_write:p_file <- [DW_OP_LLVM_entry_value 1] $x0
	bl	__stack_chk_fail
.Ltmp170:
.Lfunc_end7:
	.size	mas_bkops_manual_gc_proc_write, .Lfunc_end7-mas_bkops_manual_gc_proc_write
	.cfi_endproc
                                        // -- End function
	.globl	mas_bkops_status_proc_show      // -- Begin function mas_bkops_status_proc_show
	.p2align	2
	.type	mas_bkops_status_proc_show,@function
mas_bkops_status_proc_show:             // @mas_bkops_status_proc_show
.Lfunc_begin8:
	.loc	7 523 0 is_stmt 1               // block/mas_bkops_core.c:523:0
	.cfi_startproc
// %bb.0:
	//DEBUG_VALUE: mas_bkops_status_proc_show:m <- $x0
	//DEBUG_VALUE: mas_bkops_status_proc_show:v <- $x1
	hint	#25
	.cfi_negate_ra_state
	sub	sp, sp, #64                     // =64
	str	x30, [x18], #8
	stp	x29, x30, [sp, #16]             // 16-byte Folded Spill
	str	x21, [sp, #32]                  // 8-byte Folded Spill
	stp	x20, x19, [sp, #48]             // 16-byte Folded Spill
	add	x29, sp, #16                    // =16
	.cfi_def_cfa w29, 48
	.cfi_offset w19, -8
	.cfi_offset w20, -16
	.cfi_offset w21, -32
	.cfi_offset w30, -40
	.cfi_offset w29, -48
	adrp	x8, __stack_chk_guard
	ldr	x8, [x8, :lo12:__stack_chk_guard]
	mov	x19, x0
	str	x8, [sp, #8]
.Ltmp171:
	//DEBUG_VALUE: mas_bkops_status_proc_show:status <- 0
	//DEBUG_VALUE: mas_bkops_status_proc_show:m <- $x19
	.loc	7 524 6 prologue_end            // block/mas_bkops_core.c:524:6
	str	wzr, [sp, #4]
.Ltmp172:
	//DEBUG_VALUE: mas_bkops_status_proc_show:ret <- 0
	.loc	7 527 27                        // block/mas_bkops_core.c:527:27
	ldr	x20, [x0, #152]
.Ltmp173:
	//DEBUG_VALUE: mas_bkops_query:bkops_ops_p <- 0
	//DEBUG_VALUE: mas_bkops_query:ret <- 0
	//DEBUG_VALUE: mas_bkops_query:bkops_status <- [DW_OP_plus_uconst 4, DW_OP_stack_value] $sp
	//DEBUG_VALUE: mas_bkops_query:bkops <- $x20
	//DEBUG_VALUE: mas_bkops_status_proc_show:status <- [DW_OP_plus_uconst 4, DW_OP_deref] $sp
	.loc	7 103 2                         // block/mas_bkops_core.c:103:2
	adrp	x0, bkops_lock
	add	x0, x0, :lo12:bkops_lock
	.loc	7 96 41                         // block/mas_bkops_core.c:96:41
	ldr	x21, [x20, #8]
.Ltmp174:
	//DEBUG_VALUE: mas_bkops_query:bkops_ops_p <- $x21
	.loc	7 103 2                         // block/mas_bkops_core.c:103:2
	bl	mutex_lock
.Ltmp175:
	//DEBUG_VALUE: mas_bkops_status_proc_show:v <- [DW_OP_LLVM_entry_value 1] $x1
	.loc	7 104 7                         // block/mas_bkops_core.c:104:7
	adrp	x8, bkops_enabled
	ldrb	w8, [x8, :lo12:bkops_enabled]
.Ltmp176:
	.loc	7 104 6 is_stmt 0               // block/mas_bkops_core.c:104:6
	cmp	w8, #1                          // =1
	b.ne	.LBB8_2
.Ltmp177:
// %bb.1:                               // %mas_bkops_query.exit.thread
	//DEBUG_VALUE: mas_bkops_query:bkops_ops_p <- $x21
	//DEBUG_VALUE: mas_bkops_query:bkops <- $x20
	//DEBUG_VALUE: mas_bkops_status_proc_show:m <- $x19
	//DEBUG_VALUE: mas_bkops_status_proc_show:status <- [DW_OP_plus_uconst 4, DW_OP_deref] $sp
	//DEBUG_VALUE: mas_bkops_query:bkops_status <- [DW_OP_plus_uconst 4, DW_OP_stack_value] $sp
	//DEBUG_VALUE: mas_bkops_status_proc_show:v <- [DW_OP_LLVM_entry_value 1] $x1
	//DEBUG_VALUE: mas_bkops_query:ret <- 0
	//DEBUG_VALUE: mas_bkops_status_proc_show:ret <- 0
	//DEBUG_LABEL: mas_bkops_query:out
	.loc	7 137 2 is_stmt 1               // block/mas_bkops_core.c:137:2
	adrp	x0, bkops_lock
	add	x0, x0, :lo12:bkops_lock
	bl	mutex_unlock
.Ltmp178:
	.loc	7 0 2 is_stmt 0                 // block/mas_bkops_core.c:0:2
	b	.LBB8_6
.Ltmp179:
.LBB8_2:
	//DEBUG_VALUE: mas_bkops_query:bkops_ops_p <- $x21
	//DEBUG_VALUE: mas_bkops_query:bkops <- $x20
	//DEBUG_VALUE: mas_bkops_status_proc_show:m <- $x19
	//DEBUG_VALUE: mas_bkops_status_proc_show:status <- [DW_OP_plus_uconst 4, DW_OP_deref] $sp
	//DEBUG_VALUE: mas_bkops_query:bkops_status <- [DW_OP_plus_uconst 4, DW_OP_stack_value] $sp
	//DEBUG_VALUE: mas_bkops_status_proc_show:v <- [DW_OP_LLVM_entry_value 1] $x1
	//DEBUG_VALUE: mas_bkops_query:ret <- 0
	//DEBUG_VALUE: mas_bkops_status_proc_show:ret <- 0
	.loc	7 116 21 is_stmt 1              // block/mas_bkops_core.c:116:21
	ldr	x8, [x21, #8]
	.loc	7 117 10                        // block/mas_bkops_core.c:117:10
	ldr	x0, [x20, #16]
	.loc	7 116 8                         // block/mas_bkops_core.c:116:8
	add	x1, sp, #4                      // =4
	blr	x8
.Ltmp180:
	.loc	7 118 6                         // block/mas_bkops_core.c:118:6
	adrp	x8, user_manual_gc
	ldrb	w9, [x8, :lo12:user_manual_gc]
.Ltmp181:
	.loc	7 116 8                         // block/mas_bkops_core.c:116:8
	mov	w20, w0
.Ltmp182:
	//DEBUG_VALUE: mas_bkops_query:ret <- $w20
	//DEBUG_VALUE: mas_bkops_status_proc_show:ret <- $w20
	.loc	7 118 21                        // block/mas_bkops_core.c:118:21
	cbz	w9, .LBB8_5
.Ltmp183:
// %bb.3:
	//DEBUG_VALUE: mas_bkops_query:bkops_ops_p <- $x21
	//DEBUG_VALUE: mas_bkops_status_proc_show:m <- $x19
	//DEBUG_VALUE: mas_bkops_status_proc_show:ret <- $w20
	//DEBUG_VALUE: mas_bkops_query:ret <- $w20
	//DEBUG_VALUE: mas_bkops_status_proc_show:status <- [DW_OP_plus_uconst 4, DW_OP_deref] $sp
	//DEBUG_VALUE: mas_bkops_query:bkops_status <- [DW_OP_plus_uconst 4, DW_OP_stack_value] $sp
	//DEBUG_VALUE: mas_bkops_status_proc_show:v <- [DW_OP_LLVM_entry_value 1] $x1
	.loc	7 0 21 is_stmt 0                // block/mas_bkops_core.c:0:21
	ldr	w9, [sp, #4]
	.loc	7 118 21                        // block/mas_bkops_core.c:118:21
	cbnz	w9, .LBB8_5
.Ltmp184:
// %bb.4:
	//DEBUG_VALUE: mas_bkops_query:bkops_ops_p <- $x21
	//DEBUG_VALUE: mas_bkops_status_proc_show:m <- $x19
	//DEBUG_VALUE: mas_bkops_status_proc_show:ret <- $w20
	//DEBUG_VALUE: mas_bkops_query:ret <- $w20
	//DEBUG_VALUE: mas_bkops_status_proc_show:status <- [DW_OP_plus_uconst 4, DW_OP_deref] $sp
	//DEBUG_VALUE: mas_bkops_query:bkops_status <- [DW_OP_plus_uconst 4, DW_OP_stack_value] $sp
	//DEBUG_VALUE: mas_bkops_status_proc_show:v <- [DW_OP_LLVM_entry_value 1] $x1
	.loc	7 119 18 is_stmt 1              // block/mas_bkops_core.c:119:18
	strb	wzr, [x8, :lo12:user_manual_gc]
.Ltmp185:
.LBB8_5:                                // %mas_bkops_query.exit
	//DEBUG_VALUE: mas_bkops_query:bkops_ops_p <- $x21
	//DEBUG_VALUE: mas_bkops_status_proc_show:m <- $x19
	//DEBUG_VALUE: mas_bkops_status_proc_show:ret <- $w20
	//DEBUG_VALUE: mas_bkops_query:ret <- $w20
	//DEBUG_VALUE: mas_bkops_status_proc_show:status <- [DW_OP_plus_uconst 4, DW_OP_deref] $sp
	//DEBUG_VALUE: mas_bkops_query:bkops_status <- [DW_OP_plus_uconst 4, DW_OP_stack_value] $sp
	//DEBUG_VALUE: mas_bkops_status_proc_show:v <- [DW_OP_LLVM_entry_value 1] $x1
	//DEBUG_VALUE: mas_bkops_query:ret <- $w20
	//DEBUG_LABEL: mas_bkops_query:out
	.loc	7 137 2                         // block/mas_bkops_core.c:137:2
	adrp	x0, bkops_lock
	add	x0, x0, :lo12:bkops_lock
	bl	mutex_unlock
.Ltmp186:
	//DEBUG_VALUE: mas_bkops_status_proc_show:ret <- $w20
	.loc	7 528 6                         // block/mas_bkops_core.c:528:6
	cbnz	w20, .LBB8_9
.Ltmp187:
.LBB8_6:
	//DEBUG_VALUE: mas_bkops_status_proc_show:m <- $x19
	//DEBUG_VALUE: mas_bkops_status_proc_show:status <- [DW_OP_plus_uconst 4, DW_OP_deref] $sp
	//DEBUG_VALUE: mas_bkops_status_proc_show:v <- [DW_OP_LLVM_entry_value 1] $x1
	.loc	7 533 24                        // block/mas_bkops_core.c:533:24
	ldr	w2, [sp, #4]
.Ltmp188:
	//DEBUG_VALUE: mas_bkops_status_proc_show:status <- $w2
	.loc	7 533 2 is_stmt 0               // block/mas_bkops_core.c:533:2
	adrp	x1, .L.str.7
	add	x1, x1, :lo12:.L.str.7
	mov	x0, x19
	bl	seq_printf
.Ltmp189:
	.loc	7 0 0                           // block/mas_bkops_core.c:0:0
	mov	w20, wzr
.Ltmp190:
.LBB8_7:
	//DEBUG_VALUE: mas_bkops_status_proc_show:m <- $x19
	//DEBUG_VALUE: mas_bkops_status_proc_show:v <- [DW_OP_LLVM_entry_value 1] $x1
	adrp	x9, __stack_chk_guard
	ldr	x8, [sp, #8]
	ldr	x9, [x9, :lo12:__stack_chk_guard]
	cmp	x9, x8
	b.ne	.LBB8_10
.Ltmp191:
// %bb.8:
	//DEBUG_VALUE: mas_bkops_status_proc_show:m <- $x19
	//DEBUG_VALUE: mas_bkops_status_proc_show:v <- [DW_OP_LLVM_entry_value 1] $x1
	.loc	7 536 1 is_stmt 1               // block/mas_bkops_core.c:536:1
	ldp	x29, x30, [sp, #16]             // 16-byte Folded Reload
	mov	w0, w20
	ldp	x20, x19, [sp, #48]             // 16-byte Folded Reload
.Ltmp192:
	ldr	x21, [sp, #32]                  // 8-byte Folded Reload
	ldr	x30, [x18, #-8]!
	add	sp, sp, #64                     // =64
	hint	#29
	ret
.Ltmp193:
.LBB8_9:
	//DEBUG_VALUE: mas_bkops_status_proc_show:m <- $x19
	//DEBUG_VALUE: mas_bkops_status_proc_show:ret <- $w20
	//DEBUG_VALUE: mas_bkops_status_proc_show:status <- [DW_OP_plus_uconst 4, DW_OP_deref] $sp
	//DEBUG_VALUE: mas_bkops_status_proc_show:v <- [DW_OP_LLVM_entry_value 1] $x1
	.loc	7 529 3                         // block/mas_bkops_core.c:529:3
	adrp	x0, .L.str.6
	adrp	x1, .L__func__.mas_bkops_status_proc_show
	add	x0, x0, :lo12:.L.str.6
	add	x1, x1, :lo12:.L__func__.mas_bkops_status_proc_show
	mov	w2, w20
	bl	printk
.Ltmp194:
	.loc	7 0 3 is_stmt 0                 // block/mas_bkops_core.c:0:3
	b	.LBB8_7
.Ltmp195:
.LBB8_10:
	//DEBUG_VALUE: mas_bkops_status_proc_show:m <- $x19
	//DEBUG_VALUE: mas_bkops_status_proc_show:v <- [DW_OP_LLVM_entry_value 1] $x1
	bl	__stack_chk_fail
.Ltmp196:
.Lfunc_end8:
	.size	mas_bkops_status_proc_show, .Lfunc_end8-mas_bkops_status_proc_show
	.cfi_endproc
                                        // -- End function
	.globl	mas_bkops_status_proc_open      // -- Begin function mas_bkops_status_proc_open
	.p2align	2
	.type	mas_bkops_status_proc_open,@function
mas_bkops_status_proc_open:             // @mas_bkops_status_proc_open
.Lfunc_begin9:
	.loc	7 540 0 is_stmt 1               // block/mas_bkops_core.c:540:0
	.cfi_startproc
// %bb.0:
	//DEBUG_VALUE: mas_bkops_status_proc_open:p_inode <- $x0
	//DEBUG_VALUE: mas_bkops_status_proc_open:p_file <- $x1
	hint	#25
	.cfi_negate_ra_state
	str	x30, [x18], #8
	stp	x29, x30, [sp, #-32]!           // 16-byte Folded Spill
	str	x19, [sp, #16]                  // 8-byte Folded Spill
	mov	x29, sp
	.cfi_def_cfa w29, 32
	.cfi_offset w19, -16
	.cfi_offset w30, -24
	.cfi_offset w29, -32
	mov	x19, x1
.Ltmp197:
	//DEBUG_VALUE: mas_bkops_status_proc_open:p_file <- $x19
	//DEBUG_VALUE: mas_bkops_status_proc_open:p_file <- $x19
	//DEBUG_VALUE: mas_bkops_status_proc_open:p_inode <- $x0
	//DEBUG_VALUE: mas_bkops_status_proc_open:p_inode <- $x0
	.loc	7 542 37 prologue_end           // block/mas_bkops_core.c:542:37
	bl	PDE_DATA
.Ltmp198:
	//DEBUG_VALUE: mas_bkops_status_proc_open:p_inode <- [DW_OP_LLVM_entry_value 1] $x0
	.loc	7 541 9                         // block/mas_bkops_core.c:541:9
	adrp	x1, __cfi_mas_bkops_status_proc_show
	.loc	7 542 37                        // block/mas_bkops_core.c:542:37
	mov	x2, x0
	.loc	7 541 9                         // block/mas_bkops_core.c:541:9
	add	x1, x1, :lo12:__cfi_mas_bkops_status_proc_show
	mov	x0, x19
.Ltmp199:
	//DEBUG_VALUE: mas_bkops_status_proc_open:p_file <- $x0
	bl	single_open
.Ltmp200:
	.loc	7 541 2 is_stmt 0               // block/mas_bkops_core.c:541:2
	ldr	x19, [sp, #16]                  // 8-byte Folded Reload
	ldp	x29, x30, [sp], #32             // 16-byte Folded Reload
	ldr	x30, [x18, #-8]!
	hint	#29
	ret
.Ltmp201:
.Lfunc_end9:
	.size	mas_bkops_status_proc_open, .Lfunc_end9-mas_bkops_status_proc_open
	.cfi_endproc
                                        // -- End function
	.globl	mas_bkops_enable                // -- Begin function mas_bkops_enable
	.p2align	2
	.type	mas_bkops_enable,@function
mas_bkops_enable:                       // @mas_bkops_enable
.Lfunc_begin10:
	.loc	7 578 0 is_stmt 1               // block/mas_bkops_core.c:578:0
	.cfi_startproc
// %bb.0:
	//DEBUG_VALUE: mas_bkops_enable:q <- $x0
	//DEBUG_VALUE: mas_bkops_enable:bkops <- $x1
	//DEBUG_VALUE: mas_bkops_enable:pdir <- $x2
	hint	#25
	.cfi_negate_ra_state
	str	x30, [x18], #8
	stp	x29, x30, [sp, #-80]!           // 16-byte Folded Spill
	str	x25, [sp, #16]                  // 8-byte Folded Spill
	stp	x24, x23, [sp, #32]             // 16-byte Folded Spill
	stp	x22, x21, [sp, #48]             // 16-byte Folded Spill
	stp	x20, x19, [sp, #64]             // 16-byte Folded Spill
	mov	x29, sp
	.cfi_def_cfa w29, 80
	.cfi_offset w19, -8
	.cfi_offset w20, -16
	.cfi_offset w21, -24
	.cfi_offset w22, -32
	.cfi_offset w23, -40
	.cfi_offset w24, -48
	.cfi_offset w25, -64
	.cfi_offset w30, -72
	.cfi_offset w29, -80
	mov	x21, x0
.Ltmp202:
	//DEBUG_VALUE: mas_bkops_enable:q <- $x21
	mov	w0, #-22
.Ltmp203:
	//DEBUG_VALUE: mas_bkops_enable:blk_lld <- 0
	//DEBUG_VALUE: mas_bkops_enable:event_node <- 0
	//DEBUG_VALUE: mas_bkops_enable:pdir <- $x2
	//DEBUG_VALUE: mas_bkops_enable:bkops <- $x1
	//DEBUG_VALUE: mas_bkops_enable:q <- $x21
	.loc	7 582 9 prologue_end            // block/mas_bkops_core.c:582:9
	cbz	x21, .LBB10_17
.Ltmp204:
// %bb.1:
	//DEBUG_VALUE: mas_bkops_enable:q <- $x21
	//DEBUG_VALUE: mas_bkops_enable:pdir <- $x2
	//DEBUG_VALUE: mas_bkops_enable:bkops <- $x1
	//DEBUG_VALUE: mas_bkops_enable:event_node <- 0
	//DEBUG_VALUE: mas_bkops_enable:blk_lld <- 0
	//DEBUG_VALUE: mas_bkops_enable:pdir <- $x2
	.loc	7 0 9 is_stmt 0                 // block/mas_bkops_core.c:0:9
	mov	x19, x1
.Ltmp205:
	//DEBUG_VALUE: mas_bkops_enable:bkops <- $x19
	.loc	7 582 9                         // block/mas_bkops_core.c:582:9
	cbz	x1, .LBB10_17
.Ltmp206:
// %bb.2:
	//DEBUG_VALUE: mas_bkops_enable:q <- $x21
	//DEBUG_VALUE: mas_bkops_enable:bkops <- $x19
	//DEBUG_VALUE: mas_bkops_enable:pdir <- $x2
	//DEBUG_VALUE: mas_bkops_enable:event_node <- 0
	//DEBUG_VALUE: mas_bkops_enable:blk_lld <- 0
	.loc	7 0 9                           // block/mas_bkops_core.c:0:9
	mov	x22, x2
.Ltmp207:
	//DEBUG_VALUE: mas_bkops_enable:pdir <- $x22
	.loc	7 582 9                         // block/mas_bkops_core.c:582:9
	cbz	x2, .LBB10_17
.Ltmp208:
// %bb.3:
	//DEBUG_VALUE: mas_bkops_enable:pdir <- $x22
	//DEBUG_VALUE: mas_bkops_enable:q <- $x21
	//DEBUG_VALUE: mas_bkops_enable:bkops <- $x19
	//DEBUG_VALUE: mas_bkops_enable:event_node <- 0
	//DEBUG_VALUE: mas_bkops_enable:blk_lld <- 0
	//DEBUG_VALUE: mas_bkops_enable:event_node <- undef
	.loc	7 586 12 is_stmt 1              // block/mas_bkops_core.c:586:12
	mov	x0, x21
	bl	mas_blk_get_lld
.Ltmp209:
	//DEBUG_VALUE: mas_bkops_enable:blk_lld <- $x0
	.loc	7 587 6                         // block/mas_bkops_core.c:587:6
	ldrb	w8, [x0, #24]
	tbz	w8, #3, .LBB10_23
.Ltmp210:
// %bb.4:
	//DEBUG_VALUE: mas_bkops_enable:pdir <- $x22
	//DEBUG_VALUE: mas_bkops_enable:q <- $x21
	//DEBUG_VALUE: mas_bkops_enable:bkops <- $x19
	//DEBUG_VALUE: mas_bkops_enable:blk_lld <- $x0
	//DEBUG_VALUE: mas_bkops_enable:blk_lld <- $x0
	//DEBUG_VALUE: mas_bkops_enable:event_node <- undef
	.loc	7 592 13                        // block/mas_bkops_core.c:592:13
	ldr	w8, [x19]
	.loc	7 592 40 is_stmt 0              // block/mas_bkops_core.c:592:40
	sub	w8, w8, #1                      // =1
	cmp	w8, #3                          // =3
	b.hs	.LBB10_18
.Ltmp211:
// %bb.5:
	//DEBUG_VALUE: mas_bkops_enable:pdir <- $x22
	//DEBUG_VALUE: mas_bkops_enable:q <- $x21
	//DEBUG_VALUE: mas_bkops_enable:bkops <- $x19
	//DEBUG_VALUE: mas_bkops_enable:blk_lld <- $x0
	//DEBUG_VALUE: mas_bkops_enable:blk_lld <- $x0
	//DEBUG_VALUE: mas_bkops_enable:event_node <- undef
	.loc	7 598 14 is_stmt 1              // block/mas_bkops_core.c:598:14
	ldr	x8, [x19, #8]
.Ltmp212:
	.loc	7 598 6 is_stmt 0               // block/mas_bkops_core.c:598:6
	cbz	x8, .LBB10_19
.Ltmp213:
// %bb.6:
	//DEBUG_VALUE: mas_bkops_enable:pdir <- $x22
	//DEBUG_VALUE: mas_bkops_enable:q <- $x21
	//DEBUG_VALUE: mas_bkops_enable:bkops <- $x19
	//DEBUG_VALUE: mas_bkops_enable:blk_lld <- $x0
	.loc	7 423 6 is_stmt 1               // block/mas_bkops_core.c:423:6
	adrp	x25, mas_bkops_inited
	ldrb	w8, [x25, :lo12:mas_bkops_inited]
.Ltmp214:
	.loc	7 0 0 is_stmt 0                 // block/mas_bkops_core.c:0:0
	mov	x20, x0
.Ltmp215:
	//DEBUG_VALUE: mas_bkops_enable:blk_lld <- $x20
	//DEBUG_VALUE: mas_bkops_enable:blk_lld <- $x20
	//DEBUG_VALUE: mas_bkops_enable:event_node <- undef
	adrp	x24, bkops_workqueue_g
.Ltmp216:
	.loc	7 423 6                         // block/mas_bkops_core.c:423:6
	tbnz	w8, #0, .LBB10_9
.Ltmp217:
// %bb.7:
	//DEBUG_VALUE: mas_bkops_enable:pdir <- $x22
	//DEBUG_VALUE: mas_bkops_enable:q <- $x21
	//DEBUG_VALUE: mas_bkops_enable:blk_lld <- $x20
	//DEBUG_VALUE: mas_bkops_enable:bkops <- $x19
	.loc	7 426 22 is_stmt 1              // block/mas_bkops_core.c:426:22
	adrp	x0, .L.str.15
	add	x0, x0, :lo12:.L.str.15
	mov	w1, #24
	mov	w2, wzr
	bl	alloc_workqueue
.Ltmp218:
	.loc	7 426 20 is_stmt 0              // block/mas_bkops_core.c:426:20
	str	x0, [x24, :lo12:bkops_workqueue_g]
	.loc	7 428 6 is_stmt 1               // block/mas_bkops_core.c:428:6
	cbz	x0, .LBB10_21
.Ltmp219:
// %bb.8:
	//DEBUG_VALUE: mas_bkops_enable:pdir <- $x22
	//DEBUG_VALUE: mas_bkops_enable:q <- $x21
	//DEBUG_VALUE: mas_bkops_enable:blk_lld <- $x20
	//DEBUG_VALUE: mas_bkops_enable:bkops <- $x19
	.loc	7 429 3                         // block/mas_bkops_core.c:429:3
	adrp	x0, bkops_pm_notifier
	add	x0, x0, :lo12:bkops_pm_notifier
	bl	register_pm_notifier
.Ltmp220:
	.loc	7 430 3                         // block/mas_bkops_core.c:430:3
	adrp	x0, bkops_reboot_notifier
	add	x0, x0, :lo12:bkops_reboot_notifier
	bl	register_reboot_notifier
.Ltmp221:
	.loc	7 0 3 is_stmt 0                 // block/mas_bkops_core.c:0:3
	mov	w8, #1
	.loc	7 431 20 is_stmt 1              // block/mas_bkops_core.c:431:20
	strb	w8, [x25, :lo12:mas_bkops_inited]
.Ltmp222:
.LBB10_9:
	//DEBUG_VALUE: mas_bkops_enable:pdir <- $x22
	//DEBUG_VALUE: mas_bkops_enable:q <- $x21
	//DEBUG_VALUE: mas_bkops_enable:blk_lld <- $x20
	//DEBUG_VALUE: mas_bkops_enable:bkops <- $x19
	.loc	7 609 6                         // block/mas_bkops_core.c:609:6
	mov	x0, x19
	mov	x1, x22
.Ltmp223:
	.loc	7 0 0 is_stmt 0                 // block/mas_bkops_core.c:0:0
	add	x23, x19, #184                  // =184
.Ltmp224:
	//DEBUG_VALUE: mas_bkops_enable:event_node <- $x23
	.loc	7 609 6                         // block/mas_bkops_core.c:609:6
	bl	mas_bkops_add_debugfs
.Ltmp225:
	.loc	7 609 6                         // block/mas_bkops_core.c:609:6
	cbnz	w0, .LBB10_20
.Ltmp226:
.LBB10_10:
	//DEBUG_VALUE: mas_bkops_enable:event_node <- $x23
	//DEBUG_VALUE: mas_bkops_enable:pdir <- $x22
	//DEBUG_VALUE: mas_bkops_enable:q <- $x21
	//DEBUG_VALUE: mas_bkops_enable:blk_lld <- $x20
	//DEBUG_VALUE: mas_bkops_enable:bkops <- $x19
	.loc	7 613 2 is_stmt 1               // block/mas_bkops_core.c:613:2
	adrp	x8, .Lstr
	add	x8, x8, :lo12:.Lstr
	ldr	x8, [x8]
	.loc	7 616 32                        // block/mas_bkops_core.c:616:32
	adrp	x10, __cfi_bkops_io_busyidle_notify_handler
	mov	w9, #115
	add	x10, x10, :lo12:__cfi_bkops_io_busyidle_notify_handler
.Ltmp227:
	.loc	7 618 6                         // block/mas_bkops_core.c:618:6
	mov	x0, x20
	mov	x1, x23
.Ltmp228:
	.loc	7 612 11                        // block/mas_bkops_core.c:612:11
	str	x21, [x19, #24]
	.loc	7 613 2                         // block/mas_bkops_core.c:613:2
	stur	xzr, [x23, #23]
	stp	x9, xzr, [x23, #8]
	str	x8, [x23]
	.loc	7 615 33                        // block/mas_bkops_core.c:615:33
	strb	wzr, [x19, #215]
	.loc	7 616 32                        // block/mas_bkops_core.c:616:32
	stp	x10, x19, [x19, #216]
.Ltmp229:
	.loc	7 618 6                         // block/mas_bkops_core.c:618:6
	bl	blk_lld_busyidle_event_subscribe
.Ltmp230:
	.loc	7 618 6 is_stmt 0               // block/mas_bkops_core.c:618:6
	cbz	w0, .LBB10_14
.Ltmp231:
// %bb.11:
	//DEBUG_VALUE: mas_bkops_enable:event_node <- $x23
	//DEBUG_VALUE: mas_bkops_enable:pdir <- $x22
	//DEBUG_VALUE: mas_bkops_enable:q <- $x21
	//DEBUG_VALUE: mas_bkops_enable:blk_lld <- $x20
	//DEBUG_VALUE: mas_bkops_enable:bkops <- $x19
	//DEBUG_LABEL: mas_bkops_enable:bkops_exit
	.loc	7 440 7 is_stmt 1               // block/mas_bkops_core.c:440:7
	ldr	x8, [x24, :lo12:bkops_workqueue_g]
.Ltmp232:
	.loc	7 440 6 is_stmt 0               // block/mas_bkops_core.c:440:6
	cbz	x8, .LBB10_13
.Ltmp233:
// %bb.12:
	//DEBUG_VALUE: mas_bkops_enable:event_node <- $x23
	//DEBUG_VALUE: mas_bkops_enable:pdir <- $x22
	//DEBUG_VALUE: mas_bkops_enable:q <- $x21
	//DEBUG_VALUE: mas_bkops_enable:blk_lld <- $x20
	//DEBUG_VALUE: mas_bkops_enable:bkops <- $x19
	.loc	7 444 2 is_stmt 1               // block/mas_bkops_core.c:444:2
	adrp	x0, bkops_reboot_notifier
	add	x0, x0, :lo12:bkops_reboot_notifier
	.loc	7 443 19                        // block/mas_bkops_core.c:443:19
	strb	wzr, [x25, :lo12:mas_bkops_inited]
	.loc	7 444 2                         // block/mas_bkops_core.c:444:2
	bl	unregister_reboot_notifier
.Ltmp234:
	.loc	7 445 2                         // block/mas_bkops_core.c:445:2
	adrp	x0, bkops_pm_notifier
	add	x0, x0, :lo12:bkops_pm_notifier
	bl	unregister_pm_notifier
.Ltmp235:
	.loc	7 446 20                        // block/mas_bkops_core.c:446:20
	ldr	x0, [x24, :lo12:bkops_workqueue_g]
	.loc	7 446 2 is_stmt 0               // block/mas_bkops_core.c:446:2
	bl	destroy_workqueue
.Ltmp236:
	.loc	7 447 20 is_stmt 1              // block/mas_bkops_core.c:447:20
	str	xzr, [x24, :lo12:bkops_workqueue_g]
.Ltmp237:
.LBB10_13:                              // %mas_bkops_manual_gc_proc_init.exit
	//DEBUG_VALUE: mas_bkops_enable:pdir <- $x22
	//DEBUG_VALUE: mas_bkops_enable:q <- $x21
	//DEBUG_VALUE: mas_bkops_enable:bkops <- $x19
	.loc	7 0 20 is_stmt 0                // block/mas_bkops_core.c:0:20
	mov	w0, #-22
	b	.LBB10_17
.Ltmp238:
.LBB10_14:
	//DEBUG_VALUE: mas_bkops_enable:event_node <- $x23
	//DEBUG_VALUE: mas_bkops_enable:pdir <- $x22
	//DEBUG_VALUE: mas_bkops_enable:q <- $x21
	//DEBUG_VALUE: mas_bkops_enable:blk_lld <- $x20
	//DEBUG_VALUE: mas_bkops_enable:bkops <- $x19
	//DEBUG_VALUE: mas_bkops_manual_gc_proc_init:bkops <- $x19
	//DEBUG_VALUE: mas_bkops_manual_gc_proc_init:dir <- 0
	.loc	7 565 8 is_stmt 1               // block/mas_bkops_core.c:565:8
	adrp	x0, .L.str.16
	add	x0, x0, :lo12:.L.str.16
	mov	x1, xzr
	bl	proc_mkdir
.Ltmp239:
	//DEBUG_VALUE: mas_bkops_manual_gc_proc_init:dir <- $x0
	.loc	7 566 6                         // block/mas_bkops_core.c:566:6
	cbz	x0, .LBB10_22
.Ltmp240:
// %bb.15:
	//DEBUG_VALUE: mas_bkops_enable:event_node <- $x23
	//DEBUG_VALUE: mas_bkops_enable:pdir <- $x22
	//DEBUG_VALUE: mas_bkops_enable:q <- $x21
	//DEBUG_VALUE: mas_bkops_enable:blk_lld <- $x20
	//DEBUG_VALUE: mas_bkops_manual_gc_proc_init:bkops <- $x19
	//DEBUG_VALUE: mas_bkops_enable:bkops <- $x19
	//DEBUG_VALUE: mas_bkops_manual_gc_proc_init:dir <- $x0
	.loc	7 0 0 is_stmt 0                 // block/mas_bkops_core.c:0:0
	mov	x20, x0
.Ltmp241:
	//DEBUG_VALUE: mas_bkops_manual_gc_proc_init:dir <- $x20
	//DEBUG_VALUE: mas_bkops_manual_gc_proc_init:dir <- $x20
	.loc	7 571 2 is_stmt 1               // block/mas_bkops_core.c:571:2
	adrp	x0, .L.str.18
	adrp	x3, mas_bkops_manual_gc_fops
	add	x0, x0, :lo12:.L.str.18
	add	x3, x3, :lo12:mas_bkops_manual_gc_fops
	mov	w1, #432
	mov	x2, x20
	bl	proc_create
.Ltmp242:
	.loc	7 572 2                         // block/mas_bkops_core.c:572:2
	adrp	x0, .L.str.19
	adrp	x3, mas_bkops_status_fops
	add	x0, x0, :lo12:.L.str.19
	add	x3, x3, :lo12:mas_bkops_status_fops
	mov	w1, #288
	mov	x2, x20
	mov	x4, x19
	bl	proc_create_data
.Ltmp243:
.LBB10_16:                              // %mas_bkops_manual_gc_proc_init.exit
	//DEBUG_VALUE: mas_bkops_enable:event_node <- $x23
	//DEBUG_VALUE: mas_bkops_enable:pdir <- $x22
	//DEBUG_VALUE: mas_bkops_enable:q <- $x21
	//DEBUG_VALUE: mas_bkops_manual_gc_proc_init:bkops <- $x19
	//DEBUG_VALUE: mas_bkops_enable:bkops <- $x19
	.loc	7 0 0 is_stmt 0                 // block/mas_bkops_core.c:0:0
	mov	w0, wzr
.Ltmp244:
.LBB10_17:                              // %mas_bkops_manual_gc_proc_init.exit
	//DEBUG_VALUE: mas_bkops_enable:q <- $x21
	.loc	7 628 1 is_stmt 1               // block/mas_bkops_core.c:628:1
	ldp	x20, x19, [sp, #64]             // 16-byte Folded Reload
	ldp	x22, x21, [sp, #48]             // 16-byte Folded Reload
.Ltmp245:
	ldp	x24, x23, [sp, #32]             // 16-byte Folded Reload
	ldr	x25, [sp, #16]                  // 8-byte Folded Reload
	ldp	x29, x30, [sp], #80             // 16-byte Folded Reload
	ldr	x30, [x18, #-8]!
	hint	#29
	ret
.LBB10_18:
.Ltmp246:
	//DEBUG_VALUE: mas_bkops_enable:pdir <- $x22
	//DEBUG_VALUE: mas_bkops_enable:q <- $x21
	//DEBUG_VALUE: mas_bkops_enable:bkops <- $x19
	//DEBUG_VALUE: mas_bkops_enable:blk_lld <- $x0
	.loc	7 594 3                         // block/mas_bkops_core.c:594:3
	adrp	x0, .L.str.9
.Ltmp247:
	add	x0, x0, :lo12:.L.str.9
.Ltmp248:
	.loc	7 0 0 is_stmt 0                 // block/mas_bkops_core.c:0:0
	bl	printk
.Ltmp249:
	b	.LBB10_13
.Ltmp250:
.LBB10_19:
	//DEBUG_VALUE: mas_bkops_enable:pdir <- $x22
	//DEBUG_VALUE: mas_bkops_enable:q <- $x21
	//DEBUG_VALUE: mas_bkops_enable:bkops <- $x19
	//DEBUG_VALUE: mas_bkops_enable:blk_lld <- $x0
	.loc	7 599 3 is_stmt 1               // block/mas_bkops_core.c:599:3
	adrp	x0, .L.str.10
.Ltmp251:
	add	x0, x0, :lo12:.L.str.10
.Ltmp252:
	.loc	7 0 0 is_stmt 0                 // block/mas_bkops_core.c:0:0
	bl	printk
.Ltmp253:
	b	.LBB10_13
.Ltmp254:
.LBB10_20:
	//DEBUG_VALUE: mas_bkops_enable:event_node <- $x23
	//DEBUG_VALUE: mas_bkops_enable:pdir <- $x22
	//DEBUG_VALUE: mas_bkops_enable:q <- $x21
	//DEBUG_VALUE: mas_bkops_enable:blk_lld <- $x20
	//DEBUG_VALUE: mas_bkops_enable:bkops <- $x19
	.loc	7 610 3 is_stmt 1               // block/mas_bkops_core.c:610:3
	adrp	x0, .L.str.12
	add	x0, x0, :lo12:.L.str.12
	bl	printk
.Ltmp255:
	.loc	7 0 3 is_stmt 0                 // block/mas_bkops_core.c:0:3
	b	.LBB10_10
.Ltmp256:
.LBB10_21:                              // %mas_bkops_init.exit
	//DEBUG_VALUE: mas_bkops_enable:pdir <- $x22
	//DEBUG_VALUE: mas_bkops_enable:q <- $x21
	//DEBUG_VALUE: mas_bkops_enable:blk_lld <- $x20
	//DEBUG_VALUE: mas_bkops_enable:bkops <- $x19
	.loc	7 604 3 is_stmt 1               // block/mas_bkops_core.c:604:3
	adrp	x0, .L.str.11
	adrp	x1, .L__func__.mas_bkops_enable
	add	x0, x0, :lo12:.L.str.11
	add	x1, x1, :lo12:.L__func__.mas_bkops_enable
	mov	w2, #605
	bl	printk
.Ltmp257:
	.loc	7 0 3 is_stmt 0                 // block/mas_bkops_core.c:0:3
	b	.LBB10_13
.Ltmp258:
.LBB10_22:
	//DEBUG_VALUE: mas_bkops_enable:event_node <- $x23
	//DEBUG_VALUE: mas_bkops_enable:pdir <- $x22
	//DEBUG_VALUE: mas_bkops_enable:q <- $x21
	//DEBUG_VALUE: mas_bkops_enable:blk_lld <- $x20
	//DEBUG_VALUE: mas_bkops_manual_gc_proc_init:bkops <- $x19
	//DEBUG_VALUE: mas_bkops_enable:bkops <- $x19
	//DEBUG_VALUE: mas_bkops_manual_gc_proc_init:dir <- $x0
	.loc	7 567 3 is_stmt 1               // block/mas_bkops_core.c:567:3
	adrp	x0, .L.str.17
.Ltmp259:
	adrp	x1, .L__func__.mas_bkops_manual_gc_proc_init
	add	x0, x0, :lo12:.L.str.17
	add	x1, x1, :lo12:.L__func__.mas_bkops_manual_gc_proc_init
	mov	w2, #567
	bl	printk
.Ltmp260:
	.loc	7 0 3 is_stmt 0                 // block/mas_bkops_core.c:0:3
	b	.LBB10_16
.Ltmp261:
.LBB10_23:
	//DEBUG_VALUE: mas_bkops_enable:pdir <- $x22
	//DEBUG_VALUE: mas_bkops_enable:q <- $x21
	//DEBUG_VALUE: mas_bkops_enable:bkops <- $x19
	//DEBUG_VALUE: mas_bkops_enable:blk_lld <- $x0
	.loc	7 588 3 is_stmt 1               // block/mas_bkops_core.c:588:3
	adrp	x0, .L.str.8
.Ltmp262:
	add	x0, x0, :lo12:.L.str.8
.Ltmp263:
	.loc	7 0 0 is_stmt 0                 // block/mas_bkops_core.c:0:0
	bl	printk
.Ltmp264:
	b	.LBB10_13
.Ltmp265:
.Lfunc_end10:
	.size	mas_bkops_enable, .Lfunc_end10-mas_bkops_enable
	.cfi_endproc
	.file	190 "/mnt/disk/jenkins/ci/workspace/chipset_pipeline_release/opensource/component_code/out/kernel-out/gki_kernel/common" "include/linux/suspend.h"
	.file	191 "/mnt/disk/jenkins/ci/workspace/chipset_pipeline_release/opensource/component_code/out/kernel-out/gki_kernel/common" "include/linux/reboot.h"
                                        // -- End function
	.p2align	2                               // -- Begin function _copy_from_user
	.type	_copy_from_user,@function
_copy_from_user:                        // @_copy_from_user
.Lfunc_begin11:
	.loc	189 154 0 is_stmt 1             // include/linux/uaccess.h:154:0
	.cfi_startproc
// %bb.0:
	//DEBUG_VALUE: _copy_from_user:to <- $x0
	//DEBUG_VALUE: _copy_from_user:from <- $x1
	//DEBUG_VALUE: __range_ok:addr <- $x1
	hint	#25
	.cfi_negate_ra_state
	str	x30, [x18], #8
	stp	x29, x30, [sp, #-64]!           // 16-byte Folded Spill
	str	x23, [sp, #16]                  // 8-byte Folded Spill
	stp	x22, x21, [sp, #32]             // 16-byte Folded Spill
	stp	x20, x19, [sp, #48]             // 16-byte Folded Spill
	mov	x29, sp
	.cfi_def_cfa w29, 64
	.cfi_offset w19, -8
	.cfi_offset w20, -16
	.cfi_offset w21, -24
	.cfi_offset w22, -32
	.cfi_offset w23, -48
	.cfi_offset w30, -56
	.cfi_offset w29, -64
.Ltmp266:
	.file	192 "/mnt/disk/jenkins/ci/workspace/chipset_pipeline_release/opensource/component_code/out/kernel-out/gki_kernel/common" "arch/arm64/include/asm/current.h"
	.loc	192 19 2 prologue_end           // arch/arm64/include/asm/current.h:19:2
	//APP
	mrs	x21, SP_EL0
	//NO_APP
.Ltmp267:
	//DEBUG_VALUE: get_current:sp_el0 <- $x21
	//DEBUG_VALUE: get_current:sp_el0 <- $x21
	.file	193 "/mnt/disk/jenkins/ci/workspace/chipset_pipeline_release/opensource/component_code/out/kernel-out/gki_kernel/common" "arch/arm64/include/asm/uaccess.h"
	.loc	193 76 41                       // arch/arm64/include/asm/uaccess.h:76:41
	ldrb	w9, [x21, #70]
.Ltmp268:
	.loc	193 68 68                       // arch/arm64/include/asm/uaccess.h:68:68
	ldr	x8, [x21, #8]
.Ltmp269:
	//DEBUG_VALUE: get_current:sp_el0 <- 0
	//DEBUG_VALUE: __range_ok:limit <- $x8
	.loc	193 0 68 is_stmt 0              // arch/arm64/include/asm/uaccess.h:0:68
	mov	x20, x1
	mov	x19, x0
.Ltmp270:
	//DEBUG_VALUE: _copy_from_user:to <- $x19
	//DEBUG_VALUE: get_current:sp_el0 <- 0
	//DEBUG_VALUE: __range_ok:limit <- 0
	//DEBUG_VALUE: __range_ok:ret <- 0
	//DEBUG_VALUE: __range_ok:size <- 1
	//DEBUG_VALUE: _copy_from_user:res <- 1
	//DEBUG_VALUE: _copy_from_user:n <- 1
	//DEBUG_VALUE: __range_ok:addr <- $x20
	//DEBUG_VALUE: _copy_from_user:from <- $x20
	//DEBUG_VALUE: _copy_from_user:to <- $x19
	lsl	x22, x1, #8
.Ltmp271:
	.loc	193 76 41 is_stmt 1             // arch/arm64/include/asm/uaccess.h:76:41
	tbnz	w9, #5, .LBB11_2
.Ltmp272:
// %bb.1:
	//DEBUG_VALUE: _copy_from_user:from <- $x20
	//DEBUG_VALUE: __range_ok:addr <- $x20
	//DEBUG_VALUE: _copy_from_user:to <- $x19
	//DEBUG_VALUE: _copy_from_user:n <- 1
	//DEBUG_VALUE: _copy_from_user:res <- 1
	//DEBUG_VALUE: __range_ok:size <- 1
	//DEBUG_VALUE: __range_ok:ret <- 0
	//DEBUG_VALUE: __range_ok:limit <- 0
	//DEBUG_VALUE: get_current:sp_el0 <- $x21
	//DEBUG_VALUE: test_ti_thread_flag:flag <- 26
	//DEBUG_VALUE: test_bit:nr <- 26
	//DEBUG_VALUE: test_bit:addr <- $x21
	.loc	181 106 16                      // include/asm-generic/bitops/non-atomic.h:106:16
	ldr	x10, [x21]
.Ltmp273:
	//DEBUG_VALUE: test_ti_thread_flag:ti <- $x21
	.loc	181 0 16 is_stmt 0              // include/asm-generic/bitops/non-atomic.h:0:16
	mov	x9, x20
.Ltmp274:
	.loc	193 75 6 is_stmt 1              // arch/arm64/include/asm/uaccess.h:75:6
	tbz	w10, #26, .LBB11_3
.Ltmp275:
.LBB11_2:
	//DEBUG_VALUE: _copy_from_user:from <- $x20
	//DEBUG_VALUE: __range_ok:addr <- $x20
	//DEBUG_VALUE: _copy_from_user:to <- $x19
	//DEBUG_VALUE: _copy_from_user:n <- 1
	//DEBUG_VALUE: _copy_from_user:res <- 1
	//DEBUG_VALUE: __range_ok:size <- 1
	//DEBUG_VALUE: __range_ok:ret <- 0
	//DEBUG_VALUE: __range_ok:limit <- 0
	//DEBUG_VALUE: __addr <- $x20
	//DEBUG_VALUE: sign_extend64:value <- $x20
	//DEBUG_VALUE: sign_extend64:index <- 55
	//DEBUG_VALUE: sign_extend64:shift <- 8
	.loc	193 77 47                       // arch/arm64/include/asm/uaccess.h:77:47
	and	x9, x20, x22, asr #8
.Ltmp276:
	//DEBUG_VALUE: __addr <- $x9
	//DEBUG_VALUE: __range_ok:addr <- undef
.LBB11_3:                               // %__range_ok.exit
	//DEBUG_VALUE: _copy_from_user:from <- $x20
	//DEBUG_VALUE: _copy_from_user:to <- $x19
	//DEBUG_VALUE: _copy_from_user:n <- 1
	//DEBUG_VALUE: _copy_from_user:res <- 1
	//DEBUG_VALUE: __range_ok:size <- 1
	//DEBUG_VALUE: __range_ok:ret <- 0
	//DEBUG_VALUE: __range_ok:limit <- 0
	//DEBUG_VALUE: __range_ok:addr <- $x9
	.loc	193 80 2                        // arch/arm64/include/asm/uaccess.h:80:2
	//APP
	adds	x9, x9, #1                      // =1
	csel	x8, xzr, x8, hi
	csinv	x9, x9, xzr, lo
	sbcs	xzr, x9, x8
	cset	x9, ls

	//NO_APP
.Ltmp277:
	//DEBUG_VALUE: __range_ok:limit <- undef
	//DEBUG_VALUE: __range_ok:ret <- $x9
	.loc	189 157 6                       // include/linux/uaccess.h:157:6
	cbz	x9, .LBB11_27
.Ltmp278:
// %bb.4:
	//DEBUG_VALUE: _copy_from_user:from <- $x20
	//DEBUG_VALUE: _copy_from_user:to <- $x19
	//DEBUG_VALUE: _copy_from_user:n <- 1
	//DEBUG_VALUE: _copy_from_user:res <- 1
	//DEBUG_VALUE: __acfu_ret <- 0
	//DEBUG_VALUE: cpus_have_const_cap:num <- 4
	//DEBUG_VALUE: branch <- 0
	//DEBUG_VALUE: arch_static_branch_jump:branch <- 1
	.file	194 "/mnt/disk/jenkins/ci/workspace/chipset_pipeline_release/opensource/component_code/out/kernel-out/gki_kernel/common" "arch/arm64/include/asm/jump_label.h"
	.loc	194 38 2                        // arch/arm64/include/asm/jump_label.h:38:2
	//APP
.Ltmp280:
	b	.Ltmp279
	.section	__jump_table,"aw",@progbits
	.p2align	3
.Ltmp281:
	.word	.Ltmp280-.Ltmp281
.Ltmp282:
	.word	.Ltmp279-.Ltmp282
.Ltmp283:
	.xword	(arm64_const_caps_ready+1)-.Ltmp283
	.text


	//NO_APP
.Ltmp284:
// %bb.5:                               // %system_capabilities_finalized.exit.i.i.i.i2
	//DEBUG_VALUE: _copy_from_user:from <- $x20
	//DEBUG_VALUE: _copy_from_user:to <- $x19
	//DEBUG_VALUE: cpus_have_const_cap:num <- 4
	//DEBUG_VALUE: __acfu_ret <- 0
	//DEBUG_VALUE: _copy_from_user:n <- 1
	//DEBUG_VALUE: _copy_from_user:res <- 1
	//DEBUG_VALUE: branch <- [DW_OP_LLVM_convert 1 7, DW_OP_LLVM_convert 8 7, DW_OP_stack_value] -1
	//DEBUG_VALUE: __cpus_have_const_cap:num <- 4
	//DEBUG_VALUE: branch <- 0
	//DEBUG_VALUE: arch_static_branch:branch <- 0
	.loc	194 21 2                        // arch/arm64/include/asm/jump_label.h:21:2
	//APP
.Ltmp286:
	nop
	.section	__jump_table,"aw",@progbits
	.p2align	3
.Ltmp287:
	.word	.Ltmp286-.Ltmp287
.Ltmp288:
	.word	.Ltmp285-.Ltmp288
.Ltmp289:
	.xword	(cpu_hwcap_keys+64)-.Ltmp289
	.text


	//NO_APP
.Ltmp290:
	//DEBUG_VALUE: arch_static_branch:key <- undef
.LBB11_6:                               // %system_uses_ttbr0_pan.exit.i.i4
	//DEBUG_VALUE: _copy_from_user:from <- $x20
	//DEBUG_VALUE: _copy_from_user:to <- $x19
	//DEBUG_VALUE: __acfu_ret <- 0
	//DEBUG_VALUE: _copy_from_user:n <- 1
	//DEBUG_VALUE: _copy_from_user:res <- 1
	//DEBUG_VALUE: __uaccess_ttbr0_enable:flags <- 0
	//DEBUG_VALUE: __uaccess_ttbr0_enable:ttbr0 <- 0
	//DEBUG_VALUE: __uaccess_ttbr0_enable:ttbr1 <- 0
	//DEBUG_VALUE: arch_local_irq_save:flags <- 0
	//DEBUG_VALUE: arch_local_save_flags:flags <- 0
	.file	195 "/mnt/disk/jenkins/ci/workspace/chipset_pipeline_release/opensource/component_code/out/kernel-out/gki_kernel/common" "arch/arm64/include/asm/irqflags.h"
	.loc	195 72 2                        // arch/arm64/include/asm/irqflags.h:72:2
	//APP
.Ltmp291:
	mrs	x23, DAIF
.Ltmp292:
	.section	.altinstructions,"a",@progbits
.Ltmp293:
	.word	.Ltmp291-.Ltmp293
.Ltmp295:
	.word	.Ltmp294-.Ltmp295
	.hword	42
	.byte	.Ltmp292-.Ltmp291
	.byte	.Ltmp296-.Ltmp294
	.text

	.text	1
.Ltmp294:
.set .L__reg_num_x0, 0
.set .L__reg_num_x1, 1
.set .L__reg_num_x2, 2
.set .L__reg_num_x3, 3
.set .L__reg_num_x4, 4
.set .L__reg_num_x5, 5
.set .L__reg_num_x6, 6
.set .L__reg_num_x7, 7
.set .L__reg_num_x8, 8
.set .L__reg_num_x9, 9
.set .L__reg_num_x10, 10
.set .L__reg_num_x11, 11
.set .L__reg_num_x12, 12
.set .L__reg_num_x13, 13
.set .L__reg_num_x14, 14
.set .L__reg_num_x15, 15
.set .L__reg_num_x16, 16
.set .L__reg_num_x17, 17
.set .L__reg_num_x18, 18
.set .L__reg_num_x19, 19
.set .L__reg_num_x20, 20
.set .L__reg_num_x21, 21
.set .L__reg_num_x22, 22
.set .L__reg_num_x23, 23
.set .L__reg_num_x24, 24
.set .L__reg_num_x25, 25
.set .L__reg_num_x26, 26
.set .L__reg_num_x27, 27
.set .L__reg_num_x28, 28
.set .L__reg_num_x29, 29
.set .L__reg_num_x30, 30

.set .L__reg_num_xzr, 31

	.inst	0xd5384617


.Ltmp296:
.Ltmp297:
.org (.Ltmp297-(.Ltmp296-.Ltmp294))+(.Ltmp292-.Ltmp291), 0
.Ltmp298:
.org (.Ltmp298-(.Ltmp292-.Ltmp291))+(.Ltmp296-.Ltmp294), 0
	.text


	//NO_APP
.Ltmp299:
	//DEBUG_VALUE: arch_irqs_disabled_flags:res <- 0
	//DEBUG_VALUE: arch_irqs_disabled_flags:flags <- $x23
	//DEBUG_VALUE: arch_local_save_flags:flags <- $x23
	//DEBUG_VALUE: arch_local_irq_save:flags <- $x23
	.loc	195 87 2                        // arch/arm64/include/asm/irqflags.h:87:2
	//APP
.Ltmp300:
	and	w8, w23, #0x80
.Ltmp301:
	.section	.altinstructions,"a",@progbits
.Ltmp302:
	.word	.Ltmp300-.Ltmp302
.Ltmp304:
	.word	.Ltmp303-.Ltmp304
	.hword	42
	.byte	.Ltmp301-.Ltmp300
	.byte	.Ltmp305-.Ltmp303
	.text

	.text	1
.Ltmp303:
	eor	w8, w23, #0xe0
.Ltmp305:
.Ltmp306:
.org (.Ltmp306-(.Ltmp305-.Ltmp303))+(.Ltmp301-.Ltmp300), 0
.Ltmp307:
.org (.Ltmp307-(.Ltmp301-.Ltmp300))+(.Ltmp305-.Ltmp303), 0
	.text


	//NO_APP
.Ltmp308:
	//DEBUG_VALUE: arch_irqs_disabled_flags:res <- $w8
	.loc	195 113 6                       // arch/arm64/include/asm/irqflags.h:113:6
	cbz	w8, .LBB11_19
.Ltmp309:
// %bb.7:                               // %arch_local_irq_save.exit.i.i.i7
	//DEBUG_VALUE: _copy_from_user:from <- $x20
	//DEBUG_VALUE: _copy_from_user:to <- $x19
	//DEBUG_VALUE: __uaccess_ttbr0_enable:ttbr1 <- 0
	//DEBUG_VALUE: __uaccess_ttbr0_enable:ttbr0 <- 0
	//DEBUG_VALUE: __uaccess_ttbr0_enable:flags <- 0
	//DEBUG_VALUE: __acfu_ret <- 0
	//DEBUG_VALUE: _copy_from_user:n <- 1
	//DEBUG_VALUE: _copy_from_user:res <- 1
	//DEBUG_VALUE: __uaccess_ttbr0_enable:flags <- $x23
	//DEBUG_VALUE: arch_irqs_disabled_flags:flags <- $x23
	//DEBUG_VALUE: arch_irqs_disabled_flags:res <- 0
	.loc	195 87 2                        // arch/arm64/include/asm/irqflags.h:87:2
	//APP
.Ltmp310:
	and	w8, w23, #0x80
.Ltmp311:
	.section	.altinstructions,"a",@progbits
.Ltmp312:
	.word	.Ltmp310-.Ltmp312
.Ltmp314:
	.word	.Ltmp313-.Ltmp314
	.hword	42
	.byte	.Ltmp311-.Ltmp310
	.byte	.Ltmp315-.Ltmp313
	.text

	.text	1
.Ltmp313:
	eor	w8, w23, #0xe0
.Ltmp315:
.Ltmp316:
.org (.Ltmp316-(.Ltmp315-.Ltmp313))+(.Ltmp311-.Ltmp310), 0
.Ltmp317:
.org (.Ltmp317-(.Ltmp311-.Ltmp310))+(.Ltmp315-.Ltmp313), 0
	.text


	//NO_APP
.Ltmp318:
	//DEBUG_VALUE: arch_irqs_disabled_flags:res <- $w8
	.loc	193 138 148                     // arch/arm64/include/asm/uaccess.h:138:148
	cbz	w8, .LBB11_22
.Ltmp319:
.LBB11_8:
	//DEBUG_VALUE: __uaccess_ttbr0_enable:flags <- $x23
	//DEBUG_VALUE: _copy_from_user:from <- $x20
	//DEBUG_VALUE: _copy_from_user:to <- $x19
	//DEBUG_VALUE: __uaccess_ttbr0_enable:ttbr1 <- 0
	//DEBUG_VALUE: __uaccess_ttbr0_enable:ttbr0 <- 0
	//DEBUG_VALUE: __acfu_ret <- 0
	//DEBUG_VALUE: _copy_from_user:n <- 1
	//DEBUG_VALUE: _copy_from_user:res <- 1
	//DEBUG_VALUE: __uaccess_ttbr0_enable:flags <- $x23
	//DEBUG_VALUE: arch_irqs_disabled_flags:flags <- $x23
	//DEBUG_VALUE: get_current:sp_el0 <- $x21
	.loc	193 139 477                     // arch/arm64/include/asm/uaccess.h:139:477
	ldr	x8, [x21, #16]
.Ltmp320:
	//DEBUG_VALUE: __val <- 0
	//DEBUG_VALUE: __uaccess_ttbr0_enable:ttbr0 <- $x8
	.loc	193 142 24                      // arch/arm64/include/asm/uaccess.h:142:24
	//APP
	mrs	x9, TTBR1_EL1
	//NO_APP
.Ltmp321:
	//DEBUG_VALUE: __val <- $x9
	//DEBUG_VALUE: __uaccess_ttbr0_enable:ttbr1 <- undef
	.loc	193 144 8                       // arch/arm64/include/asm/uaccess.h:144:8
	mov	x10, x8
	bfxil	x10, x9, #0, #48
.Ltmp322:
	//DEBUG_VALUE: __val <- $x10
	//DEBUG_VALUE: __uaccess_ttbr0_enable:ttbr1 <- $x10
	.loc	193 145 33                      // arch/arm64/include/asm/uaccess.h:145:33
	//APP
	msr	TTBR1_EL1, x10
	//NO_APP
.Ltmp323:
	.loc	193 146 2                       // arch/arm64/include/asm/uaccess.h:146:2
	//APP
	isb
	//NO_APP
.Ltmp324:
	//DEBUG_VALUE: __val <- $x8
	.loc	193 149 33                      // arch/arm64/include/asm/uaccess.h:149:33
	//APP
	msr	TTBR0_EL1, x8
	//NO_APP
.Ltmp325:
	.loc	193 150 2                       // arch/arm64/include/asm/uaccess.h:150:2
	//APP
	isb
	//NO_APP
.Ltmp326:
	//DEBUG_VALUE: arch_irqs_disabled_flags:res <- 0
	//DEBUG_VALUE: arch_irqs_disabled_flags:flags <- $x23
	.loc	195 87 2                        // arch/arm64/include/asm/irqflags.h:87:2
	//APP
.Ltmp327:
	and	w8, w23, #0x80
.Ltmp328:
	.section	.altinstructions,"a",@progbits
.Ltmp329:
	.word	.Ltmp327-.Ltmp329
.Ltmp331:
	.word	.Ltmp330-.Ltmp331
	.hword	42
	.byte	.Ltmp328-.Ltmp327
	.byte	.Ltmp332-.Ltmp330
	.text

	.text	1
.Ltmp330:
	eor	w8, w23, #0xe0
.Ltmp332:
.Ltmp333:
.org (.Ltmp333-(.Ltmp332-.Ltmp330))+(.Ltmp328-.Ltmp327), 0
.Ltmp334:
.org (.Ltmp334-(.Ltmp328-.Ltmp327))+(.Ltmp332-.Ltmp330), 0
	.text


	//NO_APP
.Ltmp335:
	//DEBUG_VALUE: arch_irqs_disabled_flags:res <- $w8
	.loc	193 151 11                      // arch/arm64/include/asm/uaccess.h:151:11
	cbnz	w8, .LBB11_10
.Ltmp336:
// %bb.9:
	//DEBUG_VALUE: __uaccess_ttbr0_enable:flags <- $x23
	//DEBUG_VALUE: _copy_from_user:from <- $x20
	//DEBUG_VALUE: _copy_from_user:to <- $x19
	//DEBUG_VALUE: __uaccess_ttbr0_enable:ttbr1 <- $x10
	//DEBUG_VALUE: __acfu_ret <- 0
	//DEBUG_VALUE: _copy_from_user:n <- 1
	//DEBUG_VALUE: _copy_from_user:res <- 1
	.loc	193 151 140 is_stmt 0           // arch/arm64/include/asm/uaccess.h:151:140
	bl	trace_hardirqs_on
.Ltmp337:
.LBB11_10:                              // %uaccess_ttbr0_enable.exit.thread.i
	//DEBUG_VALUE: __uaccess_ttbr0_enable:flags <- $x23
	//DEBUG_VALUE: _copy_from_user:from <- $x20
	//DEBUG_VALUE: _copy_from_user:to <- $x19
	//DEBUG_VALUE: __acfu_ret <- 0
	//DEBUG_VALUE: _copy_from_user:n <- 1
	//DEBUG_VALUE: _copy_from_user:res <- 1
	//DEBUG_VALUE: arch_local_irq_restore:flags <- $x23
	.loc	195 124 2 is_stmt 1             // arch/arm64/include/asm/irqflags.h:124:2
	//APP
.Ltmp338:
	msr	DAIF, x23
.Ltmp339:
	.section	.altinstructions,"a",@progbits
.Ltmp340:
	.word	.Ltmp338-.Ltmp340
.Ltmp342:
	.word	.Ltmp341-.Ltmp342
	.hword	42
	.byte	.Ltmp339-.Ltmp338
	.byte	.Ltmp343-.Ltmp341
	.text

	.text	1
.Ltmp341:
.set .L__reg_num_x0, 0
.set .L__reg_num_x1, 1
.set .L__reg_num_x2, 2
.set .L__reg_num_x3, 3
.set .L__reg_num_x4, 4
.set .L__reg_num_x5, 5
.set .L__reg_num_x6, 6
.set .L__reg_num_x7, 7
.set .L__reg_num_x8, 8
.set .L__reg_num_x9, 9
.set .L__reg_num_x10, 10
.set .L__reg_num_x11, 11
.set .L__reg_num_x12, 12
.set .L__reg_num_x13, 13
.set .L__reg_num_x14, 14
.set .L__reg_num_x15, 15
.set .L__reg_num_x16, 16
.set .L__reg_num_x17, 17
.set .L__reg_num_x18, 18
.set .L__reg_num_x19, 19
.set .L__reg_num_x20, 20
.set .L__reg_num_x21, 21
.set .L__reg_num_x22, 22
.set .L__reg_num_x23, 23
.set .L__reg_num_x24, 24
.set .L__reg_num_x25, 25
.set .L__reg_num_x26, 26
.set .L__reg_num_x27, 27
.set .L__reg_num_x28, 28
.set .L__reg_num_x29, 29
.set .L__reg_num_x30, 30

.set .L__reg_num_xzr, 31

	.inst	0xd5184617


.Ltmp343:
.Ltmp344:
.org (.Ltmp344-(.Ltmp343-.Ltmp341))+(.Ltmp339-.Ltmp338), 0
.Ltmp345:
.org (.Ltmp345-(.Ltmp339-.Ltmp338))+(.Ltmp343-.Ltmp341), 0
	.text


	//NO_APP
.Ltmp346:
.LBB11_11:                              // %uaccess_enable_not_uao.exit
	//DEBUG_VALUE: _copy_from_user:from <- $x20
	//DEBUG_VALUE: _copy_from_user:to <- $x19
	//DEBUG_VALUE: __acfu_ret <- 0
	//DEBUG_VALUE: _copy_from_user:n <- 1
	//DEBUG_VALUE: _copy_from_user:res <- 1
	//DEBUG_VALUE: __uaccess_mask_ptr:ptr <- $x20
	//DEBUG_VALUE: __uaccess_mask_ptr:safe_ptr <- 0
	//DEBUG_VALUE: get_current:sp_el0 <- $x21
	.loc	193 294 59                      // arch/arm64/include/asm/uaccess.h:294:59
	ldr	x8, [x21, #8]
.Ltmp347:
	//DEBUG_VALUE: sign_extend64:shift <- 8
	//DEBUG_VALUE: sign_extend64:index <- 55
	//DEBUG_VALUE: sign_extend64:value <- $x20
	//DEBUG_VALUE: __addr <- $x20
	.loc	193 295 45                      // arch/arm64/include/asm/uaccess.h:295:45
	and	x9, x20, x22, asr #8
.Ltmp348:
	//DEBUG_VALUE: __addr <- $x9
	.loc	193 290 2                       // arch/arm64/include/asm/uaccess.h:290:2
	//APP
	bics	xzr, x9, x8
	csel	x1, x20, xzr, eq

	//NO_APP
.Ltmp349:
	//DEBUG_VALUE: __uaccess_mask_ptr:safe_ptr <- $x1
	.loc	193 298 2                       // arch/arm64/include/asm/uaccess.h:298:2
	//APP
	csdb
	//NO_APP
.Ltmp350:
	.loc	189 159 77                      // include/linux/uaccess.h:159:77
	mov	w2, #1
	mov	x0, x19
	bl	__arch_copy_from_user
.Ltmp351:
	mov	x20, x0
.Ltmp352:
	//DEBUG_VALUE: arch_static_branch_jump:branch <- 1
	//DEBUG_VALUE: branch <- 0
	//DEBUG_VALUE: cpus_have_const_cap:num <- 4
	//DEBUG_VALUE: __acfu_ret <- $x20
	.loc	194 38 2                        // arch/arm64/include/asm/jump_label.h:38:2
	//APP
.Ltmp354:
	b	.Ltmp353
	.section	__jump_table,"aw",@progbits
	.p2align	3
.Ltmp355:
	.word	.Ltmp354-.Ltmp355
.Ltmp356:
	.word	.Ltmp353-.Ltmp356
.Ltmp357:
	.xword	(arm64_const_caps_ready+1)-.Ltmp357
	.text


	//NO_APP
.Ltmp358:
// %bb.12:                              // %system_capabilities_finalized.exit.i.i.i.i
	//DEBUG_VALUE: __acfu_ret <- $x20
	//DEBUG_VALUE: _copy_from_user:to <- $x19
	//DEBUG_VALUE: cpus_have_const_cap:num <- 4
	//DEBUG_VALUE: _copy_from_user:n <- 1
	//DEBUG_VALUE: _copy_from_user:res <- 1
	//DEBUG_VALUE: branch <- [DW_OP_LLVM_convert 1 7, DW_OP_LLVM_convert 8 7, DW_OP_stack_value] -1
	//DEBUG_VALUE: __cpus_have_const_cap:num <- 4
	//DEBUG_VALUE: branch <- 0
	//DEBUG_VALUE: arch_static_branch:branch <- 0
	.loc	194 21 2                        // arch/arm64/include/asm/jump_label.h:21:2
	//APP
.Ltmp360:
	nop
	.section	__jump_table,"aw",@progbits
	.p2align	3
.Ltmp361:
	.word	.Ltmp360-.Ltmp361
.Ltmp362:
	.word	.Ltmp359-.Ltmp362
.Ltmp363:
	.xword	(cpu_hwcap_keys+64)-.Ltmp363
	.text


	//NO_APP
.Ltmp364:
	//DEBUG_VALUE: arch_static_branch:key <- undef
.LBB11_13:                              // %system_uses_ttbr0_pan.exit.i.i
	//DEBUG_VALUE: __acfu_ret <- $x20
	//DEBUG_VALUE: _copy_from_user:to <- $x19
	//DEBUG_VALUE: _copy_from_user:n <- 1
	//DEBUG_VALUE: _copy_from_user:res <- 1
	//DEBUG_VALUE: __uaccess_ttbr0_disable:flags <- 0
	//DEBUG_VALUE: __uaccess_ttbr0_disable:ttbr <- 0
	//DEBUG_VALUE: arch_local_irq_save:flags <- 0
	//DEBUG_VALUE: arch_local_save_flags:flags <- 0
	.loc	195 72 2                        // arch/arm64/include/asm/irqflags.h:72:2
	//APP
.Ltmp365:
	mrs	x21, DAIF
.Ltmp366:
	.section	.altinstructions,"a",@progbits
.Ltmp367:
	.word	.Ltmp365-.Ltmp367
.Ltmp369:
	.word	.Ltmp368-.Ltmp369
	.hword	42
	.byte	.Ltmp366-.Ltmp365
	.byte	.Ltmp370-.Ltmp368
	.text

	.text	1
.Ltmp368:
.set .L__reg_num_x0, 0
.set .L__reg_num_x1, 1
.set .L__reg_num_x2, 2
.set .L__reg_num_x3, 3
.set .L__reg_num_x4, 4
.set .L__reg_num_x5, 5
.set .L__reg_num_x6, 6
.set .L__reg_num_x7, 7
.set .L__reg_num_x8, 8
.set .L__reg_num_x9, 9
.set .L__reg_num_x10, 10
.set .L__reg_num_x11, 11
.set .L__reg_num_x12, 12
.set .L__reg_num_x13, 13
.set .L__reg_num_x14, 14
.set .L__reg_num_x15, 15
.set .L__reg_num_x16, 16
.set .L__reg_num_x17, 17
.set .L__reg_num_x18, 18
.set .L__reg_num_x19, 19
.set .L__reg_num_x20, 20
.set .L__reg_num_x21, 21
.set .L__reg_num_x22, 22
.set .L__reg_num_x23, 23
.set .L__reg_num_x24, 24
.set .L__reg_num_x25, 25
.set .L__reg_num_x26, 26
.set .L__reg_num_x27, 27
.set .L__reg_num_x28, 28
.set .L__reg_num_x29, 29
.set .L__reg_num_x30, 30

.set .L__reg_num_xzr, 31

	.inst	0xd5384615


.Ltmp370:
.Ltmp371:
.org (.Ltmp371-(.Ltmp370-.Ltmp368))+(.Ltmp366-.Ltmp365), 0
.Ltmp372:
.org (.Ltmp372-(.Ltmp366-.Ltmp365))+(.Ltmp370-.Ltmp368), 0
	.text


	//NO_APP
.Ltmp373:
	//DEBUG_VALUE: arch_irqs_disabled_flags:res <- 0
	//DEBUG_VALUE: arch_irqs_disabled_flags:flags <- $x21
	//DEBUG_VALUE: arch_local_save_flags:flags <- $x21
	//DEBUG_VALUE: arch_local_irq_save:flags <- $x21
	.loc	195 87 2                        // arch/arm64/include/asm/irqflags.h:87:2
	//APP
.Ltmp374:
	and	w8, w21, #0x80
.Ltmp375:
	.section	.altinstructions,"a",@progbits
.Ltmp376:
	.word	.Ltmp374-.Ltmp376
.Ltmp378:
	.word	.Ltmp377-.Ltmp378
	.hword	42
	.byte	.Ltmp375-.Ltmp374
	.byte	.Ltmp379-.Ltmp377
	.text

	.text	1
.Ltmp377:
	eor	w8, w21, #0xe0
.Ltmp379:
.Ltmp380:
.org (.Ltmp380-(.Ltmp379-.Ltmp377))+(.Ltmp375-.Ltmp374), 0
.Ltmp381:
.org (.Ltmp381-(.Ltmp375-.Ltmp374))+(.Ltmp379-.Ltmp377), 0
	.text


	//NO_APP
.Ltmp382:
	//DEBUG_VALUE: arch_irqs_disabled_flags:res <- $w8
	.loc	195 113 6                       // arch/arm64/include/asm/irqflags.h:113:6
	cbz	w8, .LBB11_23
.Ltmp383:
// %bb.14:                              // %arch_local_irq_save.exit.i.i.i
	//DEBUG_VALUE: __acfu_ret <- $x20
	//DEBUG_VALUE: _copy_from_user:to <- $x19
	//DEBUG_VALUE: __uaccess_ttbr0_disable:ttbr <- 0
	//DEBUG_VALUE: __uaccess_ttbr0_disable:flags <- 0
	//DEBUG_VALUE: _copy_from_user:n <- 1
	//DEBUG_VALUE: _copy_from_user:res <- 1
	//DEBUG_VALUE: __uaccess_ttbr0_disable:flags <- $x21
	//DEBUG_VALUE: arch_irqs_disabled_flags:flags <- $x21
	//DEBUG_VALUE: arch_irqs_disabled_flags:res <- 0
	.loc	195 87 2                        // arch/arm64/include/asm/irqflags.h:87:2
	//APP
.Ltmp384:
	and	w8, w21, #0x80
.Ltmp385:
	.section	.altinstructions,"a",@progbits
.Ltmp386:
	.word	.Ltmp384-.Ltmp386
.Ltmp388:
	.word	.Ltmp387-.Ltmp388
	.hword	42
	.byte	.Ltmp385-.Ltmp384
	.byte	.Ltmp389-.Ltmp387
	.text

	.text	1
.Ltmp387:
	eor	w8, w21, #0xe0
.Ltmp389:
.Ltmp390:
.org (.Ltmp390-(.Ltmp389-.Ltmp387))+(.Ltmp385-.Ltmp384), 0
.Ltmp391:
.org (.Ltmp391-(.Ltmp385-.Ltmp384))+(.Ltmp389-.Ltmp387), 0
	.text


	//NO_APP
.Ltmp392:
	//DEBUG_VALUE: arch_irqs_disabled_flags:res <- $w8
	.loc	193 117 148                     // arch/arm64/include/asm/uaccess.h:117:148
	cbz	w8, .LBB11_26
.Ltmp393:
.LBB11_15:
	//DEBUG_VALUE: __uaccess_ttbr0_disable:flags <- $x21
	//DEBUG_VALUE: __acfu_ret <- $x20
	//DEBUG_VALUE: _copy_from_user:to <- $x19
	//DEBUG_VALUE: __uaccess_ttbr0_disable:ttbr <- 0
	//DEBUG_VALUE: _copy_from_user:n <- 1
	//DEBUG_VALUE: _copy_from_user:res <- 1
	//DEBUG_VALUE: __uaccess_ttbr0_disable:flags <- $x21
	//DEBUG_VALUE: arch_irqs_disabled_flags:flags <- $x21
	//DEBUG_VALUE: __val <- 0
	.loc	193 118 23                      // arch/arm64/include/asm/uaccess.h:118:23
	//APP
	mrs	x8, TTBR1_EL1
	//NO_APP
.Ltmp394:
	//DEBUG_VALUE: __val <- $x8
	//DEBUG_VALUE: __uaccess_ttbr0_disable:ttbr <- $x8
	.loc	193 119 7                       // arch/arm64/include/asm/uaccess.h:119:7
	and	x8, x8, #0xffffffffffff
.Ltmp395:
	//DEBUG_VALUE: __val <- 0
	//DEBUG_VALUE: __uaccess_ttbr0_disable:ttbr <- $x8
	.loc	193 121 30                      // arch/arm64/include/asm/uaccess.h:121:30
	sub	x9, x8, #1, lsl #12             // =4096
.Ltmp396:
	//DEBUG_VALUE: __val <- $x9
	.loc	193 121 48 is_stmt 0            // arch/arm64/include/asm/uaccess.h:121:48
	//APP
	msr	TTBR0_EL1, x9
	//NO_APP
.Ltmp397:
	.loc	193 122 2 is_stmt 1             // arch/arm64/include/asm/uaccess.h:122:2
	//APP
	isb
	//NO_APP
.Ltmp398:
	//DEBUG_VALUE: __val <- $x8
	.loc	193 124 32                      // arch/arm64/include/asm/uaccess.h:124:32
	//APP
	msr	TTBR1_EL1, x8
	//NO_APP
.Ltmp399:
	.loc	193 125 2                       // arch/arm64/include/asm/uaccess.h:125:2
	//APP
	isb
	//NO_APP
.Ltmp400:
	//DEBUG_VALUE: arch_irqs_disabled_flags:res <- 0
	//DEBUG_VALUE: arch_irqs_disabled_flags:flags <- $x21
	.loc	195 87 2                        // arch/arm64/include/asm/irqflags.h:87:2
	//APP
.Ltmp401:
	and	w8, w21, #0x80
.Ltmp402:
	.section	.altinstructions,"a",@progbits
.Ltmp403:
	.word	.Ltmp401-.Ltmp403
.Ltmp405:
	.word	.Ltmp404-.Ltmp405
	.hword	42
	.byte	.Ltmp402-.Ltmp401
	.byte	.Ltmp406-.Ltmp404
	.text

	.text	1
.Ltmp404:
	eor	w8, w21, #0xe0
.Ltmp406:
.Ltmp407:
.org (.Ltmp407-(.Ltmp406-.Ltmp404))+(.Ltmp402-.Ltmp401), 0
.Ltmp408:
.org (.Ltmp408-(.Ltmp402-.Ltmp401))+(.Ltmp406-.Ltmp404), 0
	.text


	//NO_APP
.Ltmp409:
	//DEBUG_VALUE: arch_irqs_disabled_flags:res <- $w8
	.loc	193 126 11                      // arch/arm64/include/asm/uaccess.h:126:11
	cbnz	w8, .LBB11_17
.Ltmp410:
// %bb.16:
	//DEBUG_VALUE: __uaccess_ttbr0_disable:flags <- $x21
	//DEBUG_VALUE: __acfu_ret <- $x20
	//DEBUG_VALUE: _copy_from_user:to <- $x19
	//DEBUG_VALUE: _copy_from_user:n <- 1
	//DEBUG_VALUE: _copy_from_user:res <- 1
	.loc	193 126 140 is_stmt 0           // arch/arm64/include/asm/uaccess.h:126:140
	bl	trace_hardirqs_on
.Ltmp411:
.LBB11_17:                              // %uaccess_ttbr0_disable.exit.thread.i
	//DEBUG_VALUE: __uaccess_ttbr0_disable:flags <- $x21
	//DEBUG_VALUE: __acfu_ret <- $x20
	//DEBUG_VALUE: _copy_from_user:to <- $x19
	//DEBUG_VALUE: _copy_from_user:n <- 1
	//DEBUG_VALUE: _copy_from_user:res <- 1
	//DEBUG_VALUE: arch_local_irq_restore:flags <- $x21
	.loc	195 124 2 is_stmt 1             // arch/arm64/include/asm/irqflags.h:124:2
	//APP
.Ltmp412:
	msr	DAIF, x21
.Ltmp413:
	.section	.altinstructions,"a",@progbits
.Ltmp414:
	.word	.Ltmp412-.Ltmp414
.Ltmp416:
	.word	.Ltmp415-.Ltmp416
	.hword	42
	.byte	.Ltmp413-.Ltmp412
	.byte	.Ltmp417-.Ltmp415
	.text

	.text	1
.Ltmp415:
.set .L__reg_num_x0, 0
.set .L__reg_num_x1, 1
.set .L__reg_num_x2, 2
.set .L__reg_num_x3, 3
.set .L__reg_num_x4, 4
.set .L__reg_num_x5, 5
.set .L__reg_num_x6, 6
.set .L__reg_num_x7, 7
.set .L__reg_num_x8, 8
.set .L__reg_num_x9, 9
.set .L__reg_num_x10, 10
.set .L__reg_num_x11, 11
.set .L__reg_num_x12, 12
.set .L__reg_num_x13, 13
.set .L__reg_num_x14, 14
.set .L__reg_num_x15, 15
.set .L__reg_num_x16, 16
.set .L__reg_num_x17, 17
.set .L__reg_num_x18, 18
.set .L__reg_num_x19, 19
.set .L__reg_num_x20, 20
.set .L__reg_num_x21, 21
.set .L__reg_num_x22, 22
.set .L__reg_num_x23, 23
.set .L__reg_num_x24, 24
.set .L__reg_num_x25, 25
.set .L__reg_num_x26, 26
.set .L__reg_num_x27, 27
.set .L__reg_num_x28, 28
.set .L__reg_num_x29, 29
.set .L__reg_num_x30, 30

.set .L__reg_num_xzr, 31

	.inst	0xd5184615


.Ltmp417:
.Ltmp418:
.org (.Ltmp418-(.Ltmp417-.Ltmp415))+(.Ltmp413-.Ltmp412), 0
.Ltmp419:
.org (.Ltmp419-(.Ltmp413-.Ltmp412))+(.Ltmp417-.Ltmp415), 0
	.text


	//NO_APP
.Ltmp420:
	//DEBUG_VALUE: _copy_from_user:res <- $x20
	.loc	189 161 6                       // include/linux/uaccess.h:161:6
	cbnz	x20, .LBB11_28
.Ltmp421:
.LBB11_18:
	//DEBUG_VALUE: _copy_from_user:to <- $x19
	//DEBUG_VALUE: _copy_from_user:n <- 1
	.loc	189 163 2                       // include/linux/uaccess.h:163:2
	mov	x0, x20
	ldp	x20, x19, [sp, #48]             // 16-byte Folded Reload
.Ltmp422:
	ldp	x22, x21, [sp, #32]             // 16-byte Folded Reload
	ldr	x23, [sp, #16]                  // 8-byte Folded Reload
	ldp	x29, x30, [sp], #64             // 16-byte Folded Reload
	ldr	x30, [x18, #-8]!
	hint	#29
	ret
.Ltmp423:
.LBB11_19:
	//DEBUG_VALUE: arch_local_irq_save:flags <- $x23
	//DEBUG_VALUE: _copy_from_user:from <- $x20
	//DEBUG_VALUE: _copy_from_user:to <- $x19
	//DEBUG_VALUE: __uaccess_ttbr0_enable:ttbr1 <- 0
	//DEBUG_VALUE: __uaccess_ttbr0_enable:ttbr0 <- 0
	//DEBUG_VALUE: __uaccess_ttbr0_enable:flags <- 0
	//DEBUG_VALUE: __acfu_ret <- 0
	//DEBUG_VALUE: _copy_from_user:n <- 1
	//DEBUG_VALUE: _copy_from_user:res <- 1
	//DEBUG_VALUE: __prio <- 96
	//DEBUG_VALUE: branch <- 0
	//DEBUG_VALUE: arch_static_branch:branch <- 0
	.loc	194 21 2                        // arch/arm64/include/asm/jump_label.h:21:2
	//APP
.Ltmp425:
	nop
	.section	__jump_table,"aw",@progbits
	.p2align	3
.Ltmp426:
	.word	.Ltmp425-.Ltmp426
.Ltmp427:
	.word	.Ltmp424-.Ltmp427
.Ltmp428:
	.xword	gic_nonsecure_priorities-.Ltmp428
	.text


	//NO_APP
.Ltmp429:
// %bb.20:
	//DEBUG_VALUE: arch_local_irq_save:flags <- $x23
	//DEBUG_VALUE: _copy_from_user:from <- $x20
	//DEBUG_VALUE: _copy_from_user:to <- $x19
	//DEBUG_VALUE: arch_static_branch:branch <- 0
	//DEBUG_VALUE: branch <- 0
	//DEBUG_VALUE: __prio <- 96
	//DEBUG_VALUE: __uaccess_ttbr0_enable:ttbr1 <- 0
	//DEBUG_VALUE: __uaccess_ttbr0_enable:ttbr0 <- 0
	//DEBUG_VALUE: __uaccess_ttbr0_enable:flags <- 0
	//DEBUG_VALUE: __acfu_ret <- 0
	//DEBUG_VALUE: _copy_from_user:n <- 1
	//DEBUG_VALUE: _copy_from_user:res <- 1
	.loc	194 0 2 is_stmt 0               // arch/arm64/include/asm/jump_label.h:0:2
	mov	w8, #96
.Ltmp430:
.LBB11_21:                              // %arch_local_irq_disable.exit.i.i.i.i5
	//DEBUG_VALUE: arch_local_irq_save:flags <- $x23
	//DEBUG_VALUE: _copy_from_user:from <- $x20
	//DEBUG_VALUE: _copy_from_user:to <- $x19
	//DEBUG_VALUE: __uaccess_ttbr0_enable:ttbr1 <- 0
	//DEBUG_VALUE: __uaccess_ttbr0_enable:ttbr0 <- 0
	//DEBUG_VALUE: __uaccess_ttbr0_enable:flags <- 0
	//DEBUG_VALUE: __acfu_ret <- 0
	//DEBUG_VALUE: _copy_from_user:n <- 1
	//DEBUG_VALUE: _copy_from_user:res <- 1
	//DEBUG_VALUE: __prio <- undef
	.loc	195 56 2 is_stmt 1              // arch/arm64/include/asm/irqflags.h:56:2
	//APP
.Ltmp431:
	msr	DAIFSet, #2	// arch_local_irq_disable
.Ltmp432:
	.section	.altinstructions,"a",@progbits
.Ltmp433:
	.word	.Ltmp431-.Ltmp433
.Ltmp435:
	.word	.Ltmp434-.Ltmp435
	.hword	42
	.byte	.Ltmp432-.Ltmp431
	.byte	.Ltmp436-.Ltmp434
	.text

	.text	1
.Ltmp434:
.set .L__reg_num_x0, 0
.set .L__reg_num_x1, 1
.set .L__reg_num_x2, 2
.set .L__reg_num_x3, 3
.set .L__reg_num_x4, 4
.set .L__reg_num_x5, 5
.set .L__reg_num_x6, 6
.set .L__reg_num_x7, 7
.set .L__reg_num_x8, 8
.set .L__reg_num_x9, 9
.set .L__reg_num_x10, 10
.set .L__reg_num_x11, 11
.set .L__reg_num_x12, 12
.set .L__reg_num_x13, 13
.set .L__reg_num_x14, 14
.set .L__reg_num_x15, 15
.set .L__reg_num_x16, 16
.set .L__reg_num_x17, 17
.set .L__reg_num_x18, 18
.set .L__reg_num_x19, 19
.set .L__reg_num_x20, 20
.set .L__reg_num_x21, 21
.set .L__reg_num_x22, 22
.set .L__reg_num_x23, 23
.set .L__reg_num_x24, 24
.set .L__reg_num_x25, 25
.set .L__reg_num_x26, 26
.set .L__reg_num_x27, 27
.set .L__reg_num_x28, 28
.set .L__reg_num_x29, 29
.set .L__reg_num_x30, 30

.set .L__reg_num_xzr, 31

	.inst	0xd5184608


.Ltmp436:
.Ltmp437:
.org (.Ltmp437-(.Ltmp436-.Ltmp434))+(.Ltmp432-.Ltmp431), 0
.Ltmp438:
.org (.Ltmp438-(.Ltmp432-.Ltmp431))+(.Ltmp436-.Ltmp434), 0
	.text


	//NO_APP
.Ltmp439:
	//DEBUG_VALUE: __uaccess_ttbr0_enable:flags <- $x23
	//DEBUG_VALUE: arch_irqs_disabled_flags:flags <- $x23
	//DEBUG_VALUE: arch_irqs_disabled_flags:res <- 0
	.loc	195 87 2                        // arch/arm64/include/asm/irqflags.h:87:2
	//APP
.Ltmp440:
	and	w8, w23, #0x80
.Ltmp441:
	.section	.altinstructions,"a",@progbits
.Ltmp442:
	.word	.Ltmp440-.Ltmp442
.Ltmp444:
	.word	.Ltmp443-.Ltmp444
	.hword	42
	.byte	.Ltmp441-.Ltmp440
	.byte	.Ltmp445-.Ltmp443
	.text

	.text	1
.Ltmp443:
	eor	w8, w23, #0xe0
.Ltmp445:
.Ltmp446:
.org (.Ltmp446-(.Ltmp445-.Ltmp443))+(.Ltmp441-.Ltmp440), 0
.Ltmp447:
.org (.Ltmp447-(.Ltmp441-.Ltmp440))+(.Ltmp445-.Ltmp443), 0
	.text


	//NO_APP
.Ltmp448:
	//DEBUG_VALUE: arch_irqs_disabled_flags:res <- $w8
	.loc	193 138 148                     // arch/arm64/include/asm/uaccess.h:138:148
	cbnz	w8, .LBB11_8
.Ltmp449:
.LBB11_22:
	//DEBUG_VALUE: __uaccess_ttbr0_enable:flags <- $x23
	//DEBUG_VALUE: _copy_from_user:from <- $x20
	//DEBUG_VALUE: _copy_from_user:to <- $x19
	//DEBUG_VALUE: __uaccess_ttbr0_enable:ttbr1 <- 0
	//DEBUG_VALUE: __uaccess_ttbr0_enable:ttbr0 <- 0
	//DEBUG_VALUE: __acfu_ret <- 0
	//DEBUG_VALUE: _copy_from_user:n <- 1
	//DEBUG_VALUE: _copy_from_user:res <- 1
	.loc	193 138 277 is_stmt 0           // arch/arm64/include/asm/uaccess.h:138:277
	bl	trace_hardirqs_off
.Ltmp450:
	.loc	193 0 277                       // arch/arm64/include/asm/uaccess.h:0:277
	b	.LBB11_8
.Ltmp451:
.LBB11_23:
	//DEBUG_VALUE: arch_local_irq_save:flags <- $x21
	//DEBUG_VALUE: __acfu_ret <- $x20
	//DEBUG_VALUE: _copy_from_user:to <- $x19
	//DEBUG_VALUE: __uaccess_ttbr0_disable:ttbr <- 0
	//DEBUG_VALUE: __uaccess_ttbr0_disable:flags <- 0
	//DEBUG_VALUE: _copy_from_user:n <- 1
	//DEBUG_VALUE: _copy_from_user:res <- 1
	//DEBUG_VALUE: __prio <- 96
	//DEBUG_VALUE: branch <- 0
	//DEBUG_VALUE: arch_static_branch:branch <- 0
	.loc	194 21 2 is_stmt 1              // arch/arm64/include/asm/jump_label.h:21:2
	//APP
.Ltmp453:
	nop
	.section	__jump_table,"aw",@progbits
	.p2align	3
.Ltmp454:
	.word	.Ltmp453-.Ltmp454
.Ltmp455:
	.word	.Ltmp452-.Ltmp455
.Ltmp456:
	.xword	gic_nonsecure_priorities-.Ltmp456
	.text


	//NO_APP
.Ltmp457:
// %bb.24:
	//DEBUG_VALUE: arch_local_irq_save:flags <- $x21
	//DEBUG_VALUE: __acfu_ret <- $x20
	//DEBUG_VALUE: _copy_from_user:to <- $x19
	//DEBUG_VALUE: arch_static_branch:branch <- 0
	//DEBUG_VALUE: branch <- 0
	//DEBUG_VALUE: __prio <- 96
	//DEBUG_VALUE: __uaccess_ttbr0_disable:ttbr <- 0
	//DEBUG_VALUE: __uaccess_ttbr0_disable:flags <- 0
	//DEBUG_VALUE: _copy_from_user:n <- 1
	//DEBUG_VALUE: _copy_from_user:res <- 1
	.loc	194 0 2 is_stmt 0               // arch/arm64/include/asm/jump_label.h:0:2
	mov	w8, #96
.Ltmp458:
.LBB11_25:                              // %arch_local_irq_disable.exit.i.i.i.i
	//DEBUG_VALUE: arch_local_irq_save:flags <- $x21
	//DEBUG_VALUE: __acfu_ret <- $x20
	//DEBUG_VALUE: _copy_from_user:to <- $x19
	//DEBUG_VALUE: __uaccess_ttbr0_disable:ttbr <- 0
	//DEBUG_VALUE: __uaccess_ttbr0_disable:flags <- 0
	//DEBUG_VALUE: _copy_from_user:n <- 1
	//DEBUG_VALUE: _copy_from_user:res <- 1
	//DEBUG_VALUE: __prio <- undef
	.loc	195 56 2 is_stmt 1              // arch/arm64/include/asm/irqflags.h:56:2
	//APP
.Ltmp459:
	msr	DAIFSet, #2	// arch_local_irq_disable
.Ltmp460:
	.section	.altinstructions,"a",@progbits
.Ltmp461:
	.word	.Ltmp459-.Ltmp461
.Ltmp463:
	.word	.Ltmp462-.Ltmp463
	.hword	42
	.byte	.Ltmp460-.Ltmp459
	.byte	.Ltmp464-.Ltmp462
	.text

	.text	1
.Ltmp462:
.set .L__reg_num_x0, 0
.set .L__reg_num_x1, 1
.set .L__reg_num_x2, 2
.set .L__reg_num_x3, 3
.set .L__reg_num_x4, 4
.set .L__reg_num_x5, 5
.set .L__reg_num_x6, 6
.set .L__reg_num_x7, 7
.set .L__reg_num_x8, 8
.set .L__reg_num_x9, 9
.set .L__reg_num_x10, 10
.set .L__reg_num_x11, 11
.set .L__reg_num_x12, 12
.set .L__reg_num_x13, 13
.set .L__reg_num_x14, 14
.set .L__reg_num_x15, 15
.set .L__reg_num_x16, 16
.set .L__reg_num_x17, 17
.set .L__reg_num_x18, 18
.set .L__reg_num_x19, 19
.set .L__reg_num_x20, 20
.set .L__reg_num_x21, 21
.set .L__reg_num_x22, 22
.set .L__reg_num_x23, 23
.set .L__reg_num_x24, 24
.set .L__reg_num_x25, 25
.set .L__reg_num_x26, 26
.set .L__reg_num_x27, 27
.set .L__reg_num_x28, 28
.set .L__reg_num_x29, 29
.set .L__reg_num_x30, 30

.set .L__reg_num_xzr, 31

	.inst	0xd5184608


.Ltmp464:
.Ltmp465:
.org (.Ltmp465-(.Ltmp464-.Ltmp462))+(.Ltmp460-.Ltmp459), 0
.Ltmp466:
.org (.Ltmp466-(.Ltmp460-.Ltmp459))+(.Ltmp464-.Ltmp462), 0
	.text


	//NO_APP
.Ltmp467:
	//DEBUG_VALUE: __uaccess_ttbr0_disable:flags <- $x21
	//DEBUG_VALUE: arch_irqs_disabled_flags:flags <- $x21
	//DEBUG_VALUE: arch_irqs_disabled_flags:res <- 0
	.loc	195 87 2                        // arch/arm64/include/asm/irqflags.h:87:2
	//APP
.Ltmp468:
	and	w8, w21, #0x80
.Ltmp469:
	.section	.altinstructions,"a",@progbits
.Ltmp470:
	.word	.Ltmp468-.Ltmp470
.Ltmp472:
	.word	.Ltmp471-.Ltmp472
	.hword	42
	.byte	.Ltmp469-.Ltmp468
	.byte	.Ltmp473-.Ltmp471
	.text

	.text	1
.Ltmp471:
	eor	w8, w21, #0xe0
.Ltmp473:
.Ltmp474:
.org (.Ltmp474-(.Ltmp473-.Ltmp471))+(.Ltmp469-.Ltmp468), 0
.Ltmp475:
.org (.Ltmp475-(.Ltmp469-.Ltmp468))+(.Ltmp473-.Ltmp471), 0
	.text


	//NO_APP
.Ltmp476:
	//DEBUG_VALUE: arch_irqs_disabled_flags:res <- $w8
	.loc	193 117 148                     // arch/arm64/include/asm/uaccess.h:117:148
	cbnz	w8, .LBB11_15
.Ltmp477:
.LBB11_26:
	//DEBUG_VALUE: __uaccess_ttbr0_disable:flags <- $x21
	//DEBUG_VALUE: __acfu_ret <- $x20
	//DEBUG_VALUE: _copy_from_user:to <- $x19
	//DEBUG_VALUE: __uaccess_ttbr0_disable:ttbr <- 0
	//DEBUG_VALUE: _copy_from_user:n <- 1
	//DEBUG_VALUE: _copy_from_user:res <- 1
	.loc	193 117 277 is_stmt 0           // arch/arm64/include/asm/uaccess.h:117:277
	bl	trace_hardirqs_off
.Ltmp478:
	.loc	193 0 277                       // arch/arm64/include/asm/uaccess.h:0:277
	b	.LBB11_15
.Ltmp479:
.LBB11_27:
	//DEBUG_VALUE: _copy_from_user:from <- $x20
	//DEBUG_VALUE: _copy_from_user:to <- $x19
	//DEBUG_VALUE: __range_ok:ret <- $x9
	//DEBUG_VALUE: _copy_from_user:n <- 1
	//DEBUG_VALUE: _copy_from_user:res <- 1
	//DEBUG_VALUE: __range_ok:size <- 1
	mov	w20, #1
.Ltmp480:
.LBB11_28:                              // %uaccess_disable_not_uao.exit.thread
	//DEBUG_VALUE: _copy_from_user:to <- $x19
	//DEBUG_VALUE: _copy_from_user:n <- 1
	.loc	189 162 13 is_stmt 1            // include/linux/uaccess.h:162:13
	sub	x8, x19, x20
	add	x0, x8, #1                      // =1
	.loc	189 162 3 is_stmt 0             // include/linux/uaccess.h:162:3
	mov	w1, wzr
	mov	x2, x20
	bl	memset
.Ltmp481:
	.loc	189 0 3                         // include/linux/uaccess.h:0:3
	b	.LBB11_18
.Ltmp482:
.Ltmp279:                               // Block address taken
.LBB11_29:
	//DEBUG_VALUE: _copy_from_user:from <- $x20
	//DEBUG_VALUE: _copy_from_user:to <- $x19
	//DEBUG_VALUE: cpus_have_const_cap:num <- 4
	//DEBUG_VALUE: __acfu_ret <- 0
	//DEBUG_VALUE: _copy_from_user:n <- 1
	//DEBUG_VALUE: _copy_from_user:res <- 1
	.loc	181 106 16 is_stmt 1            // include/asm-generic/bitops/non-atomic.h:106:16
	hint	#36
	//DEBUG_VALUE: branch <- [DW_OP_LLVM_convert 1 7, DW_OP_LLVM_convert 8 7, DW_OP_stack_value] -1
.Ltmp483:
	//DEBUG_VALUE: cpus_have_cap:num <- 4
	//DEBUG_VALUE: test_bit:nr <- 4
	//DEBUG_LABEL: arch_static_branch_jump:l_yes
	adrp	x8, cpu_hwcaps
	ldr	x8, [x8, :lo12:cpu_hwcaps]
.Ltmp484:
	//DEBUG_VALUE: test_bit:addr <- undef
	.loc	193 164 6                       // arch/arm64/include/asm/uaccess.h:164:6
	tbz	w8, #4, .LBB11_6
.Ltmp485:
.Ltmp285:                               // Block address taken
.LBB11_30:                              // %uaccess_ttbr0_enable.exit.i
	//DEBUG_VALUE: _copy_from_user:from <- $x20
	//DEBUG_VALUE: _copy_from_user:to <- $x19
	//DEBUG_VALUE: __acfu_ret <- 0
	//DEBUG_VALUE: _copy_from_user:n <- 1
	//DEBUG_VALUE: _copy_from_user:res <- 1
	.loc	193 277 36                      // arch/arm64/include/asm/uaccess.h:277:36
	hint	#36
	//APP
.Ltmp486:
	nop
.Ltmp487:
	.section	.altinstructions,"a",@progbits
.Ltmp488:
	.word	.Ltmp486-.Ltmp488
.Ltmp490:
	.word	.Ltmp489-.Ltmp490
	.hword	10
	.byte	.Ltmp487-.Ltmp486
	.byte	.Ltmp491-.Ltmp489
	.text

	.text	1
.Ltmp489:
	.inst	0xd500409f

.Ltmp491:
.Ltmp492:
.org (.Ltmp492-(.Ltmp491-.Ltmp489))+(.Ltmp487-.Ltmp486), 0
.Ltmp493:
.org (.Ltmp493-(.Ltmp487-.Ltmp486))+(.Ltmp491-.Ltmp489), 0
	.text


	//NO_APP
	b	.LBB11_11
.Ltmp494:
.Ltmp353:                               // Block address taken
.LBB11_31:
	//DEBUG_VALUE: __acfu_ret <- $x20
	//DEBUG_VALUE: _copy_from_user:to <- $x19
	//DEBUG_VALUE: cpus_have_const_cap:num <- 4
	//DEBUG_VALUE: _copy_from_user:n <- 1
	//DEBUG_VALUE: _copy_from_user:res <- 1
	.loc	181 106 16                      // include/asm-generic/bitops/non-atomic.h:106:16
	hint	#36
	//DEBUG_VALUE: branch <- [DW_OP_LLVM_convert 1 7, DW_OP_LLVM_convert 8 7, DW_OP_stack_value] -1
.Ltmp495:
	//DEBUG_VALUE: cpus_have_cap:num <- 4
	//DEBUG_VALUE: test_bit:nr <- 4
	//DEBUG_LABEL: arch_static_branch_jump:l_yes
	adrp	x8, cpu_hwcaps
	ldr	x8, [x8, :lo12:cpu_hwcaps]
.Ltmp496:
	//DEBUG_VALUE: test_bit:addr <- undef
	.loc	193 156 6                       // arch/arm64/include/asm/uaccess.h:156:6
	tbz	w8, #4, .LBB11_13
.Ltmp497:
.Ltmp359:                               // Block address taken
.LBB11_32:                              // %uaccess_ttbr0_disable.exit.i
	//DEBUG_VALUE: __acfu_ret <- $x20
	//DEBUG_VALUE: _copy_from_user:to <- $x19
	//DEBUG_VALUE: _copy_from_user:n <- 1
	//DEBUG_VALUE: _copy_from_user:res <- 1
	.loc	193 272 37                      // arch/arm64/include/asm/uaccess.h:272:37
	hint	#36
	//APP
.Ltmp498:
	nop
.Ltmp499:
	.section	.altinstructions,"a",@progbits
.Ltmp500:
	.word	.Ltmp498-.Ltmp500
.Ltmp502:
	.word	.Ltmp501-.Ltmp502
	.hword	10
	.byte	.Ltmp499-.Ltmp498
	.byte	.Ltmp503-.Ltmp501
	.text

	.text	1
.Ltmp501:
	.inst	0xd500419f

.Ltmp503:
.Ltmp504:
.org (.Ltmp504-(.Ltmp503-.Ltmp501))+(.Ltmp499-.Ltmp498), 0
.Ltmp505:
.org (.Ltmp505-(.Ltmp499-.Ltmp498))+(.Ltmp503-.Ltmp501), 0
	.text


	//NO_APP
.Ltmp506:
	//DEBUG_VALUE: _copy_from_user:res <- $x20
	.loc	189 161 6                       // include/linux/uaccess.h:161:6
	cbz	x20, .LBB11_18
	b	.LBB11_28
.Ltmp507:
.Ltmp424:                               // Block address taken
.LBB11_33:
	//DEBUG_VALUE: arch_local_irq_save:flags <- $x23
	//DEBUG_VALUE: _copy_from_user:from <- $x20
	//DEBUG_VALUE: _copy_from_user:to <- $x19
	//DEBUG_VALUE: arch_static_branch:branch <- 0
	//DEBUG_VALUE: branch <- 0
	//DEBUG_VALUE: __prio <- 96
	//DEBUG_VALUE: __uaccess_ttbr0_enable:ttbr1 <- 0
	//DEBUG_VALUE: __uaccess_ttbr0_enable:ttbr0 <- 0
	//DEBUG_VALUE: __uaccess_ttbr0_enable:flags <- 0
	//DEBUG_VALUE: __acfu_ret <- 0
	//DEBUG_VALUE: _copy_from_user:n <- 1
	//DEBUG_VALUE: _copy_from_user:res <- 1
	.loc	189 0 6 is_stmt 0               // include/linux/uaccess.h:0:6
	hint	#36
	mov	w8, #160
	//DEBUG_VALUE: branch <- [DW_OP_LLVM_convert 1 7, DW_OP_LLVM_convert 8 7, DW_OP_stack_value] 0
	b	.LBB11_21
.Ltmp508:
.Ltmp452:                               // Block address taken
.LBB11_34:
	//DEBUG_VALUE: arch_local_irq_save:flags <- $x21
	//DEBUG_VALUE: __acfu_ret <- $x20
	//DEBUG_VALUE: _copy_from_user:to <- $x19
	//DEBUG_VALUE: arch_static_branch:branch <- 0
	//DEBUG_VALUE: branch <- 0
	//DEBUG_VALUE: __prio <- 96
	//DEBUG_VALUE: __uaccess_ttbr0_disable:ttbr <- 0
	//DEBUG_VALUE: __uaccess_ttbr0_disable:flags <- 0
	//DEBUG_VALUE: _copy_from_user:n <- 1
	//DEBUG_VALUE: _copy_from_user:res <- 1
	hint	#36
	mov	w8, #160
	//DEBUG_VALUE: branch <- [DW_OP_LLVM_convert 1 7, DW_OP_LLVM_convert 8 7, DW_OP_stack_value] 0
	b	.LBB11_25
.Lfunc_end11:
	.size	_copy_from_user, .Lfunc_end11-_copy_from_user
	.cfi_endproc
	.file	196 "/mnt/disk/jenkins/ci/workspace/chipset_pipeline_release/opensource/component_code/out/kernel-out/gki_kernel/common" "include/linux/thread_info.h"
	.file	197 "/mnt/disk/jenkins/ci/workspace/chipset_pipeline_release/opensource/component_code/out/kernel-out/gki_kernel/common" "arch/arm64/include/asm/cpufeature.h"
                                        // -- End function
	.type	.L.str,@object                  // @.str
	.section	.rodata.str1.1,"aMS",@progbits,1
.L.str:
	.asciz	"\0013[BKOPS]mas_bkops_query failed!\n"
	.size	.L.str, 34

	.type	.L.str.1,@object                // @.str.1
.L.str.1:
	.asciz	"\0013[BKOPS]mas_bkops_start failed!\n"
	.size	.L.str.1, 34

	.type	bkops_workqueue_g,@object       // @bkops_workqueue_g
	.local	bkops_workqueue_g
	.comm	bkops_workqueue_g,8,8
	.type	bkops_io_busyidle_notify_handler._rs,@object // @bkops_io_busyidle_notify_handler._rs
	.data
	.p2align	3
bkops_io_busyidle_notify_handler._rs:
	.zero	4
	.word	3735899821                      // 0xdead4ead
	.word	4294967295                      // 0xffffffff
	.zero	4
	.xword	-1
	.word	1250                            // 0x4e2
	.word	10                              // 0xa
	.word	0                               // 0x0
	.word	0                               // 0x0
	.xword	0                               // 0x0
	.xword	0                               // 0x0
	.size	bkops_io_busyidle_notify_handler._rs, 56

	.type	.L__func__.bkops_io_busyidle_notify_handler,@object // @__func__.bkops_io_busyidle_notify_handler
	.section	.rodata.str1.1,"aMS",@progbits,1
.L__func__.bkops_io_busyidle_notify_handler:
	.asciz	"bkops_io_busyidle_notify_handler"
	.size	.L__func__.bkops_io_busyidle_notify_handler, 33

	.type	.L.str.2,@object                // @.str.2
.L.str.2:
	.asciz	"\0013[BKOPS]%s unknown state: %d\n"
	.size	.L.str.2, 31

	.type	.L.str.3,@object                // @.str.3
.L.str.3:
	.asciz	"\0013[BKOPS]Failed to alloc bkops_func\n"
	.size	.L.str.3, 37

	.type	.L.str.4,@object                // @.str.4
.L.str.4:
	.asciz	"%d\n"
	.size	.L.str.4, 4

	.type	user_manual_gc,@object          // @user_manual_gc
	.local	user_manual_gc
	.comm	user_manual_gc,1,4
	.type	.L.str.5,@object                // @.str.5
.L.str.5:
	.asciz	"\0013[BKOPS]%s %d: input error.\n"
	.size	.L.str.5, 30

	.type	.L__func__.mas_bkops_manual_gc_proc_write,@object // @__func__.mas_bkops_manual_gc_proc_write
.L__func__.mas_bkops_manual_gc_proc_write:
	.asciz	"mas_bkops_manual_gc_proc_write"
	.size	.L__func__.mas_bkops_manual_gc_proc_write, 31

	.type	.L.str.6,@object                // @.str.6
.L.str.6:
	.asciz	"\0013[BKOPS]%s: mas_bkops_query failed, ret = %d!\n"
	.size	.L.str.6, 48

	.type	.L__func__.mas_bkops_status_proc_show,@object // @__func__.mas_bkops_status_proc_show
.L__func__.mas_bkops_status_proc_show:
	.asciz	"mas_bkops_status_proc_show"
	.size	.L__func__.mas_bkops_status_proc_show, 27

	.type	.L.str.7,@object                // @.str.7
.L.str.7:
	.asciz	"%u\n"
	.size	.L.str.7, 4

	.type	.L.str.8,@object                // @.str.8
.L.str.8:
	.asciz	"\0013[BKOPS]Busy Idle was not enabled!\n"
	.size	.L.str.8, 37

	.type	.L.str.9,@object                // @.str.9
.L.str.9:
	.asciz	"\0013[BKOPS]bkops dev type not specified!\n"
	.size	.L.str.9, 40

	.type	.L.str.10,@object               // @.str.10
.L.str.10:
	.asciz	"\0013[BKOPS]bkops_ops is NULL!\n"
	.size	.L.str.10, 29

	.type	.L.str.11,@object               // @.str.11
.L.str.11:
	.asciz	"\0013[BKOPS]%s %d mas_bkops_init failed!\n"
	.size	.L.str.11, 39

	.type	.L__func__.mas_bkops_enable,@object // @__func__.mas_bkops_enable
.L__func__.mas_bkops_enable:
	.asciz	"mas_bkops_enable"
	.size	.L__func__.mas_bkops_enable, 17

	.type	.L.str.12,@object               // @.str.12
.L.str.12:
	.asciz	"\0013[BKOPS]Failed to create mmc bkops debugfs!\n"
	.size	.L.str.12, 46

	.type	bkops_lock,@object              // @bkops_lock
	.data
	.p2align	3
bkops_lock:
	.zero	8
	.zero	4
	.word	3735899821                      // 0xdead4ead
	.word	4294967295                      // 0xffffffff
	.zero	4
	.xword	-1
	.zero	4
	.zero	4
	.xword	bkops_lock+40
	.xword	bkops_lock+40
	.zero	16
	.size	bkops_lock, 72

	.type	bkops_enabled,@object           // @bkops_enabled
	.local	bkops_enabled
	.comm	bkops_enabled,1,1
	.type	mas_bkops_inited,@object        // @mas_bkops_inited
	.local	mas_bkops_inited
	.comm	mas_bkops_inited,1,4
	.type	.L.str.15,@object               // @.str.15
	.section	.rodata.str1.1,"aMS",@progbits,1
.L.str.15:
	.asciz	"bkops_workqueue"
	.size	.L.str.15, 16

	.type	bkops_pm_notifier,@object       // @bkops_pm_notifier
	.data
	.p2align	3
bkops_pm_notifier:
	.xword	__cfi_bkops_pm_callback
	.xword	0
	.word	0                               // 0x0
	.zero	4
	.size	bkops_pm_notifier, 24

	.type	bkops_reboot_notifier,@object   // @bkops_reboot_notifier
	.p2align	3
bkops_reboot_notifier:
	.xword	__cfi_bkops_notify_reboot
	.xword	0
	.word	2147483647                      // 0x7fffffff
	.zero	4
	.size	bkops_reboot_notifier, 24

	.type	.L.str.16,@object               // @.str.16
	.section	.rodata.str1.1,"aMS",@progbits,1
.L.str.16:
	.asciz	"block"
	.size	.L.str.16, 6

	.type	.L.str.17,@object               // @.str.17
.L.str.17:
	.asciz	"\0013[BKOPS]%s %d: proc mk error.\n"
	.size	.L.str.17, 32

	.type	.L__func__.mas_bkops_manual_gc_proc_init,@object // @__func__.mas_bkops_manual_gc_proc_init
.L__func__.mas_bkops_manual_gc_proc_init:
	.asciz	"mas_bkops_manual_gc_proc_init"
	.size	.L__func__.mas_bkops_manual_gc_proc_init, 30

	.type	.L.str.18,@object               // @.str.18
.L.str.18:
	.asciz	"manual_gc"
	.size	.L.str.18, 10

	.type	mas_bkops_manual_gc_fops,@object // @mas_bkops_manual_gc_fops
	.section	.rodata,"a",@progbits
	.p2align	3
mas_bkops_manual_gc_fops:
	.word	0                               // 0x0
	.zero	4
	.xword	__cfi_mas_bkops_manual_gc_proc_open
	.xword	seq_read
	.xword	0
	.xword	__cfi_mas_bkops_manual_gc_proc_write
	.xword	seq_lseek
	.xword	single_release
	.xword	0
	.xword	0
	.xword	0
	.xword	0
	.xword	0
	.size	mas_bkops_manual_gc_fops, 96

	.type	.L.str.19,@object               // @.str.19
	.section	.rodata.str1.1,"aMS",@progbits,1
.L.str.19:
	.asciz	"status"
	.size	.L.str.19, 7

	.type	mas_bkops_status_fops,@object   // @mas_bkops_status_fops
	.section	.rodata,"a",@progbits
	.p2align	3
mas_bkops_status_fops:
	.word	0                               // 0x0
	.zero	4
	.xword	__cfi_mas_bkops_status_proc_open
	.xword	seq_read
	.xword	0
	.xword	0
	.xword	seq_lseek
	.xword	single_release
	.xword	0
	.xword	0
	.xword	0
	.xword	0
	.xword	0
	.size	mas_bkops_status_fops, 96

	.type	.Lstr,@object                   // @str
.Lstr:
	.asciz	"mas_bkops\000\000\000\000\000\000\000\000\000\000\000\000\000\000\000\000\000\000\000\000\000\000\000"
	.size	.Lstr, 33
