	.text
	.section	.note.gnu.property,"a",@note
	.p2align	3
	.word	4
	.word	16
	.word	5
	.asciz	"GNU"
	.word	3221225472
	.word	4
	.word	3
	.word	0
.Lsec_end0:
	.text
	.file	"hufs-bkops.c"
	.file	1 "/mnt/disk/jenkins/ci/workspace/chipset_pipeline_release/opensource/component_code/vendor/huawei/extra/build/build_script/kirin_kernel_release" "kernel/drivers/scsi/ufs/ufshcd.h"
	.file	2 "/mnt/disk/jenkins/ci/workspace/chipset_pipeline_release/opensource/component_code/vendor/huawei/extra/build/build_script/kirin_kernel_release" "kernel/include/uapi/asm-generic/int-ll64.h"
	.file	3 "/mnt/disk/jenkins/ci/workspace/chipset_pipeline_release/opensource/component_code/vendor/huawei/extra/build/build_script/kirin_kernel_release" "kernel/include/asm-generic/int-ll64.h"
	.file	4 "/mnt/disk/jenkins/ci/workspace/chipset_pipeline_release/opensource/component_code/vendor/huawei/extra/build/build_script/kirin_kernel_release" "kernel/drivers/scsi/ufs/ufshci.h"
	.file	5 "/mnt/disk/jenkins/ci/workspace/chipset_pipeline_release/opensource/component_code/vendor/huawei/extra/build/build_script/kirin_kernel_release" "kernel/include/uapi/linux/types.h"
	.file	6 "/mnt/disk/jenkins/ci/workspace/chipset_pipeline_release/opensource/component_code/vendor/huawei/extra/build/build_script/kirin_kernel_release" "kernel/include/uapi/scsi/scsi_bsg_ufs.h"
	.file	7 "/mnt/disk/jenkins/ci/workspace/chipset_pipeline_release/opensource/component_code/vendor/huawei/extra/build/build_script/kirin_kernel_release" "kernel/include/linux/types.h"
	.file	8 "/mnt/disk/jenkins/ci/workspace/chipset_pipeline_release/opensource/component_code/vendor/huawei/extra/build/build_script/kirin_kernel_release" "kernel/include/asm-generic/atomic-long.h"
	.file	9 "/mnt/disk/jenkins/ci/workspace/chipset_pipeline_release/opensource/component_code/vendor/huawei/extra/build/build_script/kirin_kernel_release" "kernel/include/linux/workqueue.h"
	.file	10 "/mnt/disk/jenkins/ci/workspace/chipset_pipeline_release/opensource/component_code/vendor/huawei/extra/build/build_script/kirin_kernel_release" "kernel/include/linux/timer.h"
	.file	11 "/mnt/disk/jenkins/ci/workspace/chipset_pipeline_release/opensource/component_code/vendor/huawei/extra/build/build_script/kirin_kernel_release" "kernel/include/linux/iomt_host/dsm_iomt_host.h"
	.file	12 "/mnt/disk/jenkins/ci/workspace/chipset_pipeline_release/opensource/component_code/vendor/huawei/extra/build/build_script/kirin_kernel_release" "kernel/include/scsi/scsi_host.h"
	.file	13 "/mnt/disk/jenkins/ci/workspace/chipset_pipeline_release/opensource/component_code/vendor/huawei/extra/build/build_script/kirin_kernel_release" "kernel/include/asm-generic/qspinlock_types.h"
	.file	14 "/mnt/disk/jenkins/ci/workspace/chipset_pipeline_release/opensource/component_code/vendor/huawei/extra/build/build_script/kirin_kernel_release" "kernel/include/linux/spinlock_types.h"
	.file	15 "/mnt/disk/jenkins/ci/workspace/chipset_pipeline_release/opensource/component_code/vendor/huawei/extra/build/build_script/kirin_kernel_release" "kernel/include/linux/mutex.h"
	.file	16 "/mnt/disk/jenkins/ci/workspace/chipset_pipeline_release/opensource/component_code/vendor/huawei/extra/build/build_script/kirin_kernel_release" "kernel/include/linux/osq_lock.h"
	.file	17 "/mnt/disk/jenkins/ci/workspace/chipset_pipeline_release/opensource/component_code/vendor/huawei/extra/build/build_script/kirin_kernel_release" "kernel/arch/arm64/include/asm/thread_info.h"
	.file	18 "/mnt/disk/jenkins/ci/workspace/chipset_pipeline_release/opensource/component_code/vendor/huawei/extra/build/build_script/kirin_kernel_release" "kernel/include/linux/sched.h"
	.file	19 "/mnt/disk/jenkins/ci/workspace/chipset_pipeline_release/opensource/component_code/vendor/huawei/extra/build/build_script/kirin_kernel_release" "kernel/include/linux/refcount.h"
	.file	20 "/mnt/disk/jenkins/ci/workspace/chipset_pipeline_release/opensource/component_code/vendor/huawei/extra/build/build_script/kirin_kernel_release" "kernel/include/uapi/asm-generic/posix_types.h"
	.file	21 "/mnt/disk/jenkins/ci/workspace/chipset_pipeline_release/opensource/component_code/vendor/huawei/extra/build/build_script/kirin_kernel_release" "kernel/include/linux/llist.h"
	.file	22 "/mnt/disk/jenkins/ci/workspace/chipset_pipeline_release/opensource/component_code/vendor/huawei/extra/build/build_script/kirin_kernel_release" "kernel/include/linux/smp_types.h"
	.file	23 "/mnt/disk/jenkins/ci/workspace/chipset_pipeline_release/opensource/component_code/vendor/huawei/extra/build/build_script/kirin_kernel_release" "kernel/include/linux/rbtree.h"
	.file	24 "/mnt/disk/jenkins/ci/workspace/chipset_pipeline_release/opensource/component_code/vendor/huawei/extra/build/build_script/kirin_kernel_release" "kernel/include/linux/timerqueue.h"
	.file	25 "/mnt/disk/jenkins/ci/workspace/chipset_pipeline_release/opensource/component_code/vendor/huawei/extra/build/build_script/kirin_kernel_release" "kernel/include/linux/ktime.h"
	.file	26 "/mnt/disk/jenkins/ci/workspace/chipset_pipeline_release/opensource/component_code/vendor/huawei/extra/build/build_script/kirin_kernel_release" "kernel/include/linux/hrtimer.h"
	.file	27 "/mnt/disk/jenkins/ci/workspace/chipset_pipeline_release/opensource/component_code/vendor/huawei/extra/build/build_script/kirin_kernel_release" "kernel/include/linux/seqlock.h"
	.file	28 "/mnt/disk/jenkins/ci/workspace/chipset_pipeline_release/opensource/component_code/vendor/huawei/extra/build/build_script/kirin_kernel_release" "kernel/include/linux/cpumask.h"
	.file	29 "/mnt/disk/jenkins/ci/workspace/chipset_pipeline_release/opensource/component_code/vendor/huawei/extra/build/build_script/kirin_kernel_release" "kernel/include/linux/plist.h"
	.file	30 "/mnt/disk/jenkins/ci/workspace/chipset_pipeline_release/opensource/component_code/vendor/huawei/extra/build/build_script/kirin_kernel_release" "kernel/include/linux/mm_types.h"
	.file	31 "/mnt/disk/jenkins/ci/workspace/chipset_pipeline_release/opensource/component_code/vendor/huawei/extra/build/build_script/kirin_kernel_release" "kernel/arch/arm64/include/asm/pgtable-types.h"
	.file	32 "/mnt/disk/jenkins/ci/workspace/chipset_pipeline_release/opensource/component_code/vendor/huawei/extra/build/build_script/kirin_kernel_release" "kernel/include/linux/mm.h"
	.file	33 "/mnt/disk/jenkins/ci/workspace/chipset_pipeline_release/opensource/component_code/vendor/huawei/extra/build/build_script/kirin_kernel_release" "kernel/include/asm-generic/pgtable-nop4d.h"
	.file	34 "/mnt/disk/jenkins/ci/workspace/chipset_pipeline_release/opensource/component_code/vendor/huawei/extra/build/build_script/kirin_kernel_release" "kernel/include/asm-generic/pgtable-nopud.h"
	.file	35 "/mnt/disk/jenkins/ci/workspace/chipset_pipeline_release/opensource/component_code/vendor/huawei/extra/build/build_script/kirin_kernel_release" "kernel/include/linux/fs.h"
	.file	36 "/mnt/disk/jenkins/ci/workspace/chipset_pipeline_release/opensource/component_code/vendor/huawei/extra/build/build_script/kirin_kernel_release" "kernel/include/linux/uidgid.h"
	.file	37 "/mnt/disk/jenkins/ci/workspace/chipset_pipeline_release/opensource/component_code/vendor/huawei/extra/build/build_script/kirin_kernel_release" "kernel/include/linux/dcache.h"
	.file	38 "/mnt/disk/jenkins/ci/workspace/chipset_pipeline_release/opensource/component_code/vendor/huawei/extra/build/build_script/kirin_kernel_release" "kernel/include/linux/list_bl.h"
	.file	39 "/mnt/disk/jenkins/ci/workspace/chipset_pipeline_release/opensource/component_code/vendor/huawei/extra/build/build_script/kirin_kernel_release" "kernel/include/linux/lockref.h"
	.file	40 "/mnt/disk/jenkins/ci/workspace/chipset_pipeline_release/opensource/component_code/vendor/huawei/extra/build/build_script/kirin_kernel_release" "kernel/include/linux/path.h"
	.file	41 "/mnt/disk/jenkins/ci/workspace/chipset_pipeline_release/opensource/component_code/vendor/huawei/extra/build/build_script/kirin_kernel_release" "kernel/include/linux/module.h"
	.file	42 "/mnt/disk/jenkins/ci/workspace/chipset_pipeline_release/opensource/component_code/vendor/huawei/extra/build/build_script/kirin_kernel_release" "kernel/include/linux/kobject.h"
	.file	43 "/mnt/disk/jenkins/ci/workspace/chipset_pipeline_release/opensource/component_code/vendor/huawei/extra/build/build_script/kirin_kernel_release" "kernel/include/linux/sysfs.h"
	.file	44 "/mnt/disk/jenkins/ci/workspace/chipset_pipeline_release/opensource/component_code/vendor/huawei/extra/build/build_script/kirin_kernel_release" "kernel/include/linux/pagemap.h"
	.file	45 "/mnt/disk/jenkins/ci/workspace/chipset_pipeline_release/opensource/component_code/vendor/huawei/extra/build/build_script/kirin_kernel_release" "kernel/include/linux/wait.h"
	.file	46 "/mnt/disk/jenkins/ci/workspace/chipset_pipeline_release/opensource/component_code/vendor/huawei/extra/build/build_script/kirin_kernel_release" "kernel/include/linux/uio.h"
	.file	47 "/mnt/disk/jenkins/ci/workspace/chipset_pipeline_release/opensource/component_code/vendor/huawei/extra/build/build_script/kirin_kernel_release" "kernel/include/uapi/linux/uio.h"
	.file	48 "/mnt/disk/jenkins/ci/workspace/chipset_pipeline_release/opensource/component_code/vendor/huawei/extra/build/build_script/kirin_kernel_release" "kernel/include/linux/bvec.h"
	.file	49 "/mnt/disk/jenkins/ci/workspace/chipset_pipeline_release/opensource/component_code/vendor/huawei/extra/build/build_script/kirin_kernel_release" "kernel/include/asm-generic/qrwlock_types.h"
	.file	50 "/mnt/disk/jenkins/ci/workspace/chipset_pipeline_release/opensource/component_code/vendor/huawei/extra/build/build_script/kirin_kernel_release" "kernel/include/linux/rwlock_types.h"
	.file	51 "/mnt/disk/jenkins/ci/workspace/chipset_pipeline_release/opensource/component_code/vendor/huawei/extra/build/build_script/kirin_kernel_release" "kernel/include/linux/nfs_fs_i.h"
	.file	52 "/mnt/disk/jenkins/ci/workspace/chipset_pipeline_release/opensource/component_code/vendor/huawei/extra/build/build_script/kirin_kernel_release" "kernel/include/linux/seq_file.h"
	.file	53 "/mnt/disk/jenkins/ci/workspace/chipset_pipeline_release/opensource/component_code/vendor/huawei/extra/build/build_script/kirin_kernel_release" "kernel/include/linux/pid.h"
	.file	54 "/mnt/disk/jenkins/ci/workspace/chipset_pipeline_release/opensource/component_code/vendor/huawei/extra/build/build_script/kirin_kernel_release" "kernel/include/linux/kref.h"
	.file	55 "/mnt/disk/jenkins/ci/workspace/chipset_pipeline_release/opensource/component_code/vendor/huawei/extra/build/build_script/kirin_kernel_release" "kernel/include/linux/pid_namespace.h"
	.file	56 "/mnt/disk/jenkins/ci/workspace/chipset_pipeline_release/opensource/component_code/vendor/huawei/extra/build/build_script/kirin_kernel_release" "kernel/include/linux/xarray.h"
	.file	57 "/mnt/disk/jenkins/ci/workspace/chipset_pipeline_release/opensource/component_code/vendor/huawei/extra/build/build_script/kirin_kernel_release" "kernel/include/linux/idr.h"
	.file	58 "/mnt/disk/jenkins/ci/workspace/chipset_pipeline_release/opensource/component_code/vendor/huawei/extra/build/build_script/kirin_kernel_release" "kernel/include/linux/user_namespace.h"
	.file	59 "/mnt/disk/jenkins/ci/workspace/chipset_pipeline_release/opensource/component_code/vendor/huawei/extra/build/build_script/kirin_kernel_release" "kernel/include/linux/ns_common.h"
	.file	60 "/mnt/disk/jenkins/ci/workspace/chipset_pipeline_release/opensource/component_code/vendor/huawei/extra/build/build_script/kirin_kernel_release" "kernel/include/linux/key.h"
	.file	61 "/mnt/disk/jenkins/ci/workspace/chipset_pipeline_release/opensource/component_code/vendor/huawei/extra/build/build_script/kirin_kernel_release" "kernel/include/linux/rwsem.h"
	.file	62 "/mnt/disk/jenkins/ci/workspace/chipset_pipeline_release/opensource/component_code/vendor/huawei/extra/build/build_script/kirin_kernel_release" "kernel/include/linux/time64.h"
	.file	63 "/mnt/disk/jenkins/ci/workspace/chipset_pipeline_release/opensource/component_code/vendor/huawei/extra/build/build_script/kirin_kernel_release" "kernel/include/linux/assoc_array.h"
	.file	64 "/mnt/disk/jenkins/ci/workspace/chipset_pipeline_release/opensource/component_code/vendor/huawei/extra/build/build_script/kirin_kernel_release" "kernel/include/linux/sysctl.h"
	.file	65 "/mnt/disk/jenkins/ci/workspace/chipset_pipeline_release/opensource/component_code/vendor/huawei/extra/build/build_script/kirin_kernel_release" "kernel/include/linux/completion.h"
	.file	66 "/mnt/disk/jenkins/ci/workspace/chipset_pipeline_release/opensource/component_code/vendor/huawei/extra/build/build_script/kirin_kernel_release" "kernel/include/linux/swait.h"
	.file	67 "/mnt/disk/jenkins/ci/workspace/chipset_pipeline_release/opensource/component_code/vendor/huawei/extra/build/build_script/kirin_kernel_release" "kernel/include/linux/cred.h"
	.file	68 "/mnt/disk/jenkins/ci/workspace/chipset_pipeline_release/opensource/component_code/vendor/huawei/extra/build/build_script/kirin_kernel_release" "kernel/include/linux/capability.h"
	.file	69 "/mnt/disk/jenkins/ci/workspace/chipset_pipeline_release/opensource/component_code/vendor/huawei/extra/build/build_script/kirin_kernel_release" "kernel/include/linux/sched/user.h"
	.file	70 "/mnt/disk/jenkins/ci/workspace/chipset_pipeline_release/opensource/component_code/vendor/huawei/extra/build/build_script/kirin_kernel_release" "kernel/include/linux/ratelimit_types.h"
	.file	71 "/mnt/disk/jenkins/ci/workspace/chipset_pipeline_release/opensource/component_code/vendor/huawei/extra/build/build_script/kirin_kernel_release" "kernel/include/linux/errseq.h"
	.file	72 "/mnt/disk/jenkins/ci/workspace/chipset_pipeline_release/opensource/component_code/vendor/huawei/extra/build/build_script/kirin_kernel_release" "kernel/include/linux/kobject_ns.h"
	.file	73 "/mnt/disk/jenkins/ci/workspace/chipset_pipeline_release/opensource/component_code/vendor/huawei/extra/build/build_script/kirin_kernel_release" "kernel/include/linux/kernfs.h"
	.file	74 "/mnt/disk/jenkins/ci/workspace/chipset_pipeline_release/opensource/component_code/vendor/huawei/extra/build/build_script/kirin_kernel_release" "kernel/include/linux/export.h"
	.file	75 "/mnt/disk/jenkins/ci/workspace/chipset_pipeline_release/opensource/component_code/vendor/huawei/extra/build/build_script/kirin_kernel_release" "kernel/include/linux/moduleparam.h"
	.file	76 "/mnt/disk/jenkins/ci/workspace/chipset_pipeline_release/opensource/component_code/vendor/huawei/extra/build/build_script/kirin_kernel_release" "kernel/arch/arm64/include/asm/extable.h"
	.file	77 "/mnt/disk/jenkins/ci/workspace/chipset_pipeline_release/opensource/component_code/vendor/huawei/extra/build/build_script/kirin_kernel_release" "kernel/include/linux/rbtree_latch.h"
	.file	78 "/mnt/disk/jenkins/ci/workspace/chipset_pipeline_release/opensource/component_code/vendor/huawei/extra/build/build_script/kirin_kernel_release" "kernel/arch/arm64/include/asm/module.h"
	.file	79 "/mnt/disk/jenkins/ci/workspace/chipset_pipeline_release/opensource/component_code/vendor/huawei/extra/build/build_script/kirin_kernel_release" "kernel/include/uapi/linux/elf.h"
	.file	80 "/mnt/disk/jenkins/ci/workspace/chipset_pipeline_release/opensource/component_code/vendor/huawei/extra/build/build_script/kirin_kernel_release" "kernel/include/asm-generic/bug.h"
	.file	81 "/mnt/disk/jenkins/ci/workspace/chipset_pipeline_release/opensource/component_code/vendor/huawei/extra/build/build_script/kirin_kernel_release" "kernel/include/linux/tracepoint-defs.h"
	.file	82 "/mnt/disk/jenkins/ci/workspace/chipset_pipeline_release/opensource/component_code/vendor/huawei/extra/build/build_script/kirin_kernel_release" "kernel/include/linux/srcutree.h"
	.file	83 "/mnt/disk/jenkins/ci/workspace/chipset_pipeline_release/opensource/component_code/vendor/huawei/extra/build/build_script/kirin_kernel_release" "kernel/include/linux/rcu_segcblist.h"
	.file	84 "/mnt/disk/jenkins/ci/workspace/chipset_pipeline_release/opensource/component_code/vendor/huawei/extra/build/build_script/kirin_kernel_release" "kernel/include/linux/lockdep_types.h"
	.file	85 "/mnt/disk/jenkins/ci/workspace/chipset_pipeline_release/opensource/component_code/vendor/huawei/extra/build/build_script/kirin_kernel_release" "kernel/include/linux/writeback.h"
	.file	86 "/mnt/disk/jenkins/ci/workspace/chipset_pipeline_release/opensource/component_code/vendor/huawei/extra/build/build_script/kirin_kernel_release" "kernel/include/linux/backing-dev-defs.h"
	.file	87 "/mnt/disk/jenkins/ci/workspace/chipset_pipeline_release/opensource/component_code/vendor/huawei/extra/build/build_script/kirin_kernel_release" "kernel/include/linux/device.h"
	.file	88 "/mnt/disk/jenkins/ci/workspace/chipset_pipeline_release/opensource/component_code/vendor/huawei/extra/build/build_script/kirin_kernel_release" "kernel/include/linux/pm.h"
	.file	89 "/mnt/disk/jenkins/ci/workspace/chipset_pipeline_release/opensource/component_code/vendor/huawei/extra/build/build_script/kirin_kernel_release" "kernel/include/linux/device/bus.h"
	.file	90 "/mnt/disk/jenkins/ci/workspace/chipset_pipeline_release/opensource/component_code/vendor/huawei/extra/build/build_script/kirin_kernel_release" "kernel/include/linux/device/driver.h"
	.file	91 "/mnt/disk/jenkins/ci/workspace/chipset_pipeline_release/opensource/component_code/vendor/huawei/extra/build/build_script/kirin_kernel_release" "kernel/include/linux/pm_wakeup.h"
	.file	92 "/mnt/disk/jenkins/ci/workspace/chipset_pipeline_release/opensource/component_code/vendor/huawei/extra/build/build_script/kirin_kernel_release" "kernel/include/linux/pm_qos.h"
	.file	93 "/mnt/disk/jenkins/ci/workspace/chipset_pipeline_release/opensource/component_code/vendor/huawei/extra/build/build_script/kirin_kernel_release" "kernel/include/linux/notifier.h"
	.file	94 "/mnt/disk/jenkins/ci/workspace/chipset_pipeline_release/opensource/component_code/vendor/huawei/extra/build/build_script/kirin_kernel_release" "kernel/include/linux/energy_model.h"
	.file	95 "/mnt/disk/jenkins/ci/workspace/chipset_pipeline_release/opensource/component_code/vendor/huawei/extra/build/build_script/kirin_kernel_release" "kernel/arch/arm64/include/asm/device.h"
	.file	96 "/mnt/disk/jenkins/ci/workspace/chipset_pipeline_release/opensource/component_code/vendor/huawei/extra/build/build_script/kirin_kernel_release" "kernel/include/linux/fwnode.h"
	.file	97 "/mnt/disk/jenkins/ci/workspace/chipset_pipeline_release/opensource/component_code/vendor/huawei/extra/build/build_script/kirin_kernel_release" "kernel/include/linux/device/class.h"
	.file	98 "/mnt/disk/jenkins/ci/workspace/chipset_pipeline_release/opensource/component_code/vendor/huawei/extra/build/build_script/kirin_kernel_release" "kernel/include/linux/blkdev.h"
	.file	99 "/mnt/disk/jenkins/ci/workspace/chipset_pipeline_release/opensource/component_code/vendor/huawei/extra/build/build_script/kirin_kernel_release" "kernel/include/linux/blk-mq.h"
	.file	100 "/mnt/disk/jenkins/ci/workspace/chipset_pipeline_release/opensource/component_code/vendor/huawei/extra/build/build_script/kirin_kernel_release" "kernel/include/linux/sbitmap.h"
	.file	101 "/mnt/disk/jenkins/ci/workspace/chipset_pipeline_release/opensource/component_code/vendor/huawei/extra/build/build_script/kirin_kernel_release" "kernel/include/linux/blk_types.h"
	.file	102 "/mnt/disk/jenkins/ci/workspace/chipset_pipeline_release/opensource/component_code/vendor/huawei/extra/build/build_script/kirin_kernel_release" "kernel/include/linux/genhd.h"
	.file	103 "/mnt/disk/jenkins/ci/workspace/chipset_pipeline_release/opensource/component_code/vendor/huawei/extra/build/build_script/kirin_kernel_release" "kernel/include/linux/percpu-refcount.h"
	.file	104 "/mnt/disk/jenkins/ci/workspace/chipset_pipeline_release/opensource/component_code/vendor/huawei/extra/build/build_script/kirin_kernel_release" "kernel/include/uapi/linux/blkzoned.h"
	.file	105 "/mnt/disk/jenkins/ci/workspace/chipset_pipeline_release/opensource/component_code/vendor/huawei/extra/build/build_script/kirin_kernel_release" "kernel/include/uapi/linux/time_types.h"
	.file	106 "/mnt/disk/jenkins/ci/workspace/chipset_pipeline_release/opensource/component_code/vendor/huawei/extra/build/build_script/kirin_kernel_release" "kernel/include/linux/blk-cgroup.h"
	.file	107 "/mnt/disk/jenkins/ci/workspace/chipset_pipeline_release/opensource/component_code/vendor/huawei/extra/build/build_script/kirin_kernel_release" "kernel/include/linux/cgroup-defs.h"
	.file	108 "/mnt/disk/jenkins/ci/workspace/chipset_pipeline_release/opensource/component_code/vendor/huawei/extra/build/build_script/kirin_kernel_release" "kernel/include/linux/u64_stats_sync.h"
	.file	109 "/mnt/disk/jenkins/ci/workspace/chipset_pipeline_release/opensource/component_code/vendor/huawei/extra/build/build_script/kirin_kernel_release" "kernel/include/linux/sched/types.h"
	.file	110 "/mnt/disk/jenkins/ci/workspace/chipset_pipeline_release/opensource/component_code/vendor/huawei/extra/build/build_script/kirin_kernel_release" "kernel/include/linux/psi_types.h"
	.file	111 "/mnt/disk/jenkins/ci/workspace/chipset_pipeline_release/opensource/component_code/vendor/huawei/extra/build/build_script/kirin_kernel_release" "kernel/include/linux/bpf.h"
	.file	112 "/mnt/disk/jenkins/ci/workspace/chipset_pipeline_release/opensource/component_code/vendor/huawei/extra/build/build_script/kirin_kernel_release" "kernel/include/linux/bpf-cgroup.h"
	.file	113 "/mnt/disk/jenkins/ci/workspace/chipset_pipeline_release/opensource/component_code/vendor/huawei/extra/build/build_script/kirin_kernel_release" "kernel/include/uapi/linux/bpf.h"
	.file	114 "/mnt/disk/jenkins/ci/workspace/chipset_pipeline_release/opensource/component_code/vendor/huawei/extra/build/build_script/kirin_kernel_release" "kernel/include/linux/bio.h"
	.file	115 "/mnt/disk/jenkins/ci/workspace/chipset_pipeline_release/opensource/component_code/vendor/huawei/extra/build/build_script/kirin_kernel_release" "kernel/include/linux/mempool.h"
	.file	116 "/mnt/disk/jenkins/ci/workspace/chipset_pipeline_release/opensource/component_code/vendor/huawei/extra/build/build_script/kirin_kernel_release" "kernel/include/linux/iocontext.h"
	.file	117 "/mnt/disk/jenkins/ci/workspace/chipset_pipeline_release/opensource/component_code/vendor/huawei/extra/build/build_script/kirin_kernel_release" "kernel/include/linux/smp.h"
	.file	118 "/mnt/disk/jenkins/ci/workspace/chipset_pipeline_release/opensource/component_code/vendor/huawei/extra/build/build_script/kirin_kernel_release" "kernel/include/linux/elevator.h"
	.file	119 "/mnt/disk/jenkins/ci/workspace/chipset_pipeline_release/opensource/component_code/vendor/huawei/extra/build/build_script/kirin_kernel_release" "kernel/include/linux/bsg.h"
	.file	120 "/mnt/disk/jenkins/ci/workspace/chipset_pipeline_release/opensource/component_code/vendor/huawei/extra/build/build_script/kirin_kernel_release" "kernel/include/uapi/linux/bsg.h"
	.file	121 "/mnt/disk/jenkins/ci/workspace/chipset_pipeline_release/opensource/component_code/vendor/huawei/extra/build/build_script/kirin_kernel_release" "kernel/include/linux/percpu_counter.h"
	.file	122 "/mnt/disk/jenkins/ci/workspace/chipset_pipeline_release/opensource/component_code/vendor/huawei/extra/build/build_script/kirin_kernel_release" "kernel/include/linux/flex_proportions.h"
	.file	123 "/mnt/disk/jenkins/ci/workspace/chipset_pipeline_release/opensource/component_code/vendor/huawei/extra/build/build_script/kirin_kernel_release" "kernel/include/linux/quota.h"
	.file	124 "/mnt/disk/jenkins/ci/workspace/chipset_pipeline_release/opensource/component_code/vendor/huawei/extra/build/build_script/kirin_kernel_release" "kernel/include/linux/projid.h"
	.file	125 "/mnt/disk/jenkins/ci/workspace/chipset_pipeline_release/opensource/component_code/vendor/huawei/extra/build/build_script/kirin_kernel_release" "kernel/include/linux/shrinker.h"
	.file	126 "/mnt/disk/jenkins/ci/workspace/chipset_pipeline_release/opensource/component_code/vendor/huawei/extra/build/build_script/kirin_kernel_release" "kernel/include/linux/memcontrol.h"
	.file	127 "/mnt/disk/jenkins/ci/workspace/chipset_pipeline_release/opensource/component_code/vendor/huawei/extra/build/build_script/kirin_kernel_release" "kernel/include/linux/page_counter.h"
	.file	128 "/mnt/disk/jenkins/ci/workspace/chipset_pipeline_release/opensource/component_code/vendor/huawei/extra/build/build_script/kirin_kernel_release" "kernel/include/platform_include/basicplatform/linux/mm/parallel_swapd.h"
	.file	129 "/mnt/disk/jenkins/ci/workspace/chipset_pipeline_release/opensource/component_code/vendor/huawei/extra/build/build_script/kirin_kernel_release" "kernel/include/linux/mmzone.h"
	.file	130 "/mnt/disk/jenkins/ci/workspace/chipset_pipeline_release/opensource/component_code/vendor/huawei/extra/build/build_script/kirin_kernel_release" "kernel/include/linux/vmpressure.h"
	.file	131 "/mnt/disk/jenkins/ci/workspace/chipset_pipeline_release/opensource/component_code/vendor/huawei/extra/build/build_script/kirin_kernel_release" "kernel/include/platform_include/basicplatform/linux/hp/memcg_policy.h"
	.file	132 "/mnt/disk/jenkins/ci/workspace/chipset_pipeline_release/opensource/component_code/vendor/huawei/extra/build/build_script/kirin_kernel_release" "kernel/include/linux/rcu_sync.h"
	.file	133 "/mnt/disk/jenkins/ci/workspace/chipset_pipeline_release/opensource/component_code/vendor/huawei/extra/build/build_script/kirin_kernel_release" "kernel/include/linux/percpu-rwsem.h"
	.file	134 "/mnt/disk/jenkins/ci/workspace/chipset_pipeline_release/opensource/component_code/vendor/huawei/extra/build/build_script/kirin_kernel_release" "kernel/include/linux/rcuwait.h"
	.file	135 "/mnt/disk/jenkins/ci/workspace/chipset_pipeline_release/opensource/component_code/vendor/huawei/extra/build/build_script/kirin_kernel_release" "kernel/include/linux/uuid.h"
	.file	136 "/mnt/disk/jenkins/ci/workspace/chipset_pipeline_release/opensource/component_code/vendor/huawei/extra/build/build_script/kirin_kernel_release" "kernel/include/linux/list_lru.h"
	.file	137 "/mnt/disk/jenkins/ci/workspace/chipset_pipeline_release/opensource/component_code/vendor/huawei/extra/build/build_script/kirin_kernel_release" "kernel/include/linux/delayed_call.h"
	.file	138 "/mnt/disk/jenkins/ci/workspace/chipset_pipeline_release/opensource/component_code/vendor/huawei/extra/build/build_script/kirin_kernel_release" "kernel/include/linux/stat.h"
	.file	139 "/mnt/disk/jenkins/ci/workspace/chipset_pipeline_release/opensource/component_code/vendor/huawei/extra/build/build_script/kirin_kernel_release" "kernel/include/linux/migrate_mode.h"
	.file	140 "/mnt/disk/jenkins/ci/workspace/chipset_pipeline_release/opensource/component_code/vendor/huawei/extra/build/build_script/kirin_kernel_release" "kernel/include/linux/swap.h"
	.file	141 "/mnt/disk/jenkins/ci/workspace/chipset_pipeline_release/opensource/component_code/vendor/huawei/extra/build/build_script/kirin_kernel_release" "kernel/arch/arm64/include/asm/page.h"
	.file	142 "/mnt/disk/jenkins/ci/workspace/chipset_pipeline_release/opensource/component_code/vendor/huawei/extra/build/build_script/kirin_kernel_release" "kernel/include/linux/memremap.h"
	.file	143 "/mnt/disk/jenkins/ci/workspace/chipset_pipeline_release/opensource/component_code/vendor/huawei/extra/build/build_script/kirin_kernel_release" "kernel/include/linux/range.h"
	.file	144 "/mnt/disk/jenkins/ci/workspace/chipset_pipeline_release/opensource/component_code/vendor/huawei/extra/build/build_script/kirin_kernel_release" "kernel/include/linux/mm_types_task.h"
	.file	145 "/mnt/disk/jenkins/ci/workspace/chipset_pipeline_release/opensource/component_code/vendor/huawei/extra/build/build_script/kirin_kernel_release" "kernel/arch/arm64/include/asm/mmu.h"
	.file	146 "/mnt/disk/jenkins/ci/workspace/chipset_pipeline_release/opensource/component_code/vendor/huawei/extra/build/build_script/kirin_kernel_release" "kernel/include/linux/uprobes.h"
	.file	147 "/mnt/disk/jenkins/ci/workspace/chipset_pipeline_release/opensource/component_code/vendor/huawei/extra/build/build_script/kirin_kernel_release" "kernel/include/linux/xreclaimer_types.h"
	.file	148 "/mnt/disk/jenkins/ci/workspace/chipset_pipeline_release/opensource/component_code/vendor/huawei/extra/build/build_script/kirin_kernel_release" "kernel/include/linux/restart_block.h"
	.file	149 "/mnt/disk/jenkins/ci/workspace/chipset_pipeline_release/opensource/component_code/vendor/huawei/extra/build/build_script/kirin_kernel_release" "kernel/include/vdso/time32.h"
	.file	150 "/mnt/disk/jenkins/ci/workspace/chipset_pipeline_release/opensource/component_code/vendor/huawei/extra/build/build_script/kirin_kernel_release" "kernel/include/linux/posix-timers.h"
	.file	151 "/mnt/disk/jenkins/ci/workspace/chipset_pipeline_release/opensource/component_code/vendor/huawei/extra/build/build_script/kirin_kernel_release" "kernel/include/linux/nsproxy.h"
	.file	152 "/mnt/disk/jenkins/ci/workspace/chipset_pipeline_release/opensource/component_code/vendor/huawei/extra/build/build_script/kirin_kernel_release" "kernel/include/linux/cgroup.h"
	.file	153 "/mnt/disk/jenkins/ci/workspace/chipset_pipeline_release/opensource/component_code/vendor/huawei/extra/build/build_script/kirin_kernel_release" "kernel/include/linux/sched/signal.h"
	.file	154 "/mnt/disk/jenkins/ci/workspace/chipset_pipeline_release/opensource/component_code/vendor/huawei/extra/build/build_script/kirin_kernel_release" "kernel/include/linux/signal_types.h"
	.file	155 "/mnt/disk/jenkins/ci/workspace/chipset_pipeline_release/opensource/component_code/vendor/huawei/extra/build/build_script/kirin_kernel_release" "kernel/include/uapi/asm-generic/signal.h"
	.file	156 "/mnt/disk/jenkins/ci/workspace/chipset_pipeline_release/opensource/component_code/vendor/huawei/extra/build/build_script/kirin_kernel_release" "kernel/include/linux/task_io_accounting.h"
	.file	157 "/mnt/disk/jenkins/ci/workspace/chipset_pipeline_release/opensource/component_code/vendor/huawei/extra/build/build_script/kirin_kernel_release" "kernel/include/uapi/linux/resource.h"
	.file	158 "/mnt/disk/jenkins/ci/workspace/chipset_pipeline_release/opensource/component_code/vendor/huawei/extra/build/build_script/kirin_kernel_release" "kernel/include/uapi/linux/taskstats.h"
	.file	159 "/mnt/disk/jenkins/ci/workspace/chipset_pipeline_release/opensource/component_code/vendor/huawei/extra/build/build_script/kirin_kernel_release" "kernel/include/uapi/asm-generic/signal-defs.h"
	.file	160 "/mnt/disk/jenkins/ci/workspace/chipset_pipeline_release/opensource/component_code/vendor/huawei/extra/build/build_script/kirin_kernel_release" "kernel/include/linux/seccomp.h"
	.file	161 "/mnt/disk/jenkins/ci/workspace/chipset_pipeline_release/opensource/component_code/vendor/huawei/extra/build/build_script/kirin_kernel_release" "kernel/include/uapi/asm-generic/siginfo.h"
	.file	162 "/mnt/disk/jenkins/ci/workspace/chipset_pipeline_release/opensource/component_code/vendor/huawei/extra/build/build_script/kirin_kernel_release" "kernel/include/linux/nodemask.h"
	.file	163 "/mnt/disk/jenkins/ci/workspace/chipset_pipeline_release/opensource/component_code/vendor/huawei/extra/build/build_script/kirin_kernel_release" "kernel/include/asm-generic/compat.h"
	.file	164 "/mnt/disk/jenkins/ci/workspace/chipset_pipeline_release/opensource/component_code/vendor/huawei/extra/build/build_script/kirin_kernel_release" "kernel/include/linux/compat.h"
	.file	165 "/mnt/disk/jenkins/ci/workspace/chipset_pipeline_release/opensource/component_code/vendor/huawei/extra/build/build_script/kirin_kernel_release" "kernel/arch/arm64/include/asm/tlbbatch.h"
	.file	166 "/mnt/disk/jenkins/ci/workspace/chipset_pipeline_release/opensource/component_code/vendor/huawei/extra/build/build_script/kirin_kernel_release" "kernel/arch/arm64/include/asm/processor.h"
	.file	167 "/mnt/disk/jenkins/ci/workspace/chipset_pipeline_release/opensource/component_code/vendor/huawei/extra/build/build_script/kirin_kernel_release" "kernel/platform_source/basicplatform/drivers/scsi/ufs/hufs-bkops.c"
	.file	168 "/mnt/disk/jenkins/ci/workspace/chipset_pipeline_release/opensource/component_code/vendor/huawei/extra/build/build_script/kirin_kernel_release" "kernel/arch/arm64/include/uapi/asm/ptrace.h"
	.file	169 "/mnt/disk/jenkins/ci/workspace/chipset_pipeline_release/opensource/component_code/vendor/huawei/extra/build/build_script/kirin_kernel_release" "kernel/arch/arm64/include/asm/pointer_auth.h"
	.file	170 "/mnt/disk/jenkins/ci/workspace/chipset_pipeline_release/opensource/component_code/vendor/huawei/extra/build/build_script/kirin_kernel_release" "kernel/include/scsi/scsi_device.h"
	.file	171 "/mnt/disk/jenkins/ci/workspace/chipset_pipeline_release/opensource/component_code/vendor/huawei/extra/build/build_script/kirin_kernel_release" "kernel/include/scsi/scsi_request.h"
	.file	172 "/mnt/disk/jenkins/ci/workspace/chipset_pipeline_release/opensource/component_code/vendor/huawei/extra/build/build_script/kirin_kernel_release" "kernel/include/scsi/scsi_cmnd.h"
	.file	173 "/mnt/disk/jenkins/ci/workspace/chipset_pipeline_release/opensource/component_code/vendor/huawei/extra/build/build_script/kirin_kernel_release" "kernel/include/linux/dma-direction.h"
	.file	174 "/mnt/disk/jenkins/ci/workspace/chipset_pipeline_release/opensource/component_code/vendor/huawei/extra/build/build_script/kirin_kernel_release" "kernel/include/linux/scatterlist.h"
	.file	175 "/mnt/disk/jenkins/ci/workspace/chipset_pipeline_release/opensource/component_code/vendor/huawei/extra/build/build_script/kirin_kernel_release" "kernel/drivers/scsi/ufs/ufs.h"
	.file	176 "/mnt/disk/jenkins/ci/workspace/chipset_pipeline_release/opensource/component_code/vendor/huawei/extra/build/build_script/kirin_kernel_release" "kernel/include/linux/devfreq.h"
	.file	177 "/mnt/disk/jenkins/ci/workspace/chipset_pipeline_release/opensource/component_code/vendor/huawei/extra/build/build_script/kirin_kernel_release" "kernel/include/linux/semaphore.h"
	.file	178 "/mnt/disk/jenkins/ci/workspace/chipset_pipeline_release/opensource/component_code/vendor/huawei/extra/build/build_script/kirin_kernel_release" "kernel/include/linux/kthread.h"
	.file	179 "/mnt/disk/jenkins/ci/workspace/chipset_pipeline_release/opensource/component_code/vendor/huawei/extra/build/build_script/kirin_kernel_release" "kernel/drivers/scsi/ufs/ufs_func.h"
	.file	180 "/mnt/disk/jenkins/ci/workspace/chipset_pipeline_release/opensource/component_code/vendor/huawei/extra/build/build_script/kirin_kernel_release" "kernel/include/platform_include/basicplatform/linux/mas/mas_bkops_core.h"
	.file	181 "/mnt/disk/jenkins/ci/workspace/chipset_pipeline_release/opensource/component_code/vendor/huawei/extra/build/build_script/kirin_kernel_release" "kernel/include/platform_include/basicplatform/linux/ufs/hufs-bkops.h"
	.file	182 "/mnt/disk/jenkins/ci/workspace/chipset_pipeline_release/opensource/component_code/vendor/huawei/extra/build/build_script/kirin_kernel_release" "kernel/include/linux/stddef.h"
	.globl	ufshcd_bkops_status_query       // -- Begin function ufshcd_bkops_status_query
	.p2align	2
	.type	ufshcd_bkops_status_query,@function
ufshcd_bkops_status_query:              // @ufshcd_bkops_status_query
.Lfunc_begin0:
	.loc	167 201 0                       // kernel/platform_source/basicplatform/drivers/scsi/ufs/hufs-bkops.c:201:0
	.cfi_sections .debug_frame
	.cfi_startproc
// %bb.0:
	//DEBUG_VALUE: ufshcd_bkops_status_query:bkops_data <- $x0
	//DEBUG_VALUE: ufshcd_bkops_status_query:status <- $x1
	hint	#25
	.cfi_negate_ra_state
	stp	x29, x30, [sp, #-48]!           // 16-byte Folded Spill
	str	x21, [sp, #16]                  // 8-byte Folded Spill
	stp	x20, x19, [sp, #32]             // 16-byte Folded Spill
	mov	x29, sp
	.cfi_def_cfa w29, 48
	.cfi_offset w19, -8
	.cfi_offset w20, -16
	.cfi_offset w21, -32
	.cfi_offset w30, -40
	.cfi_offset w29, -48
	mov	w19, #-22
.Ltmp0:
	//DEBUG_VALUE: ufshcd_bkops_status_query:hba <- 0
	//DEBUG_VALUE: ufshcd_bkops_status_query:status <- $x1
	//DEBUG_VALUE: ufshcd_bkops_status_query:bkops_data <- $x0
	.loc	167 208 20 prologue_end         // kernel/platform_source/basicplatform/drivers/scsi/ufs/hufs-bkops.c:208:20
	cbz	x0, .LBB0_3
.Ltmp1:
// %bb.1:
	//DEBUG_VALUE: ufshcd_bkops_status_query:status <- $x1
	//DEBUG_VALUE: ufshcd_bkops_status_query:bkops_data <- $x0
	//DEBUG_VALUE: ufshcd_bkops_status_query:hba <- 0
	.loc	167 0 20 is_stmt 0              // kernel/platform_source/basicplatform/drivers/scsi/ufs/hufs-bkops.c:0:20
	mov	x21, x1
.Ltmp2:
	//DEBUG_VALUE: ufshcd_bkops_status_query:status <- $x21
	//DEBUG_VALUE: ufshcd_bkops_status_query:bkops_data <- $x0
	.loc	167 208 20                      // kernel/platform_source/basicplatform/drivers/scsi/ufs/hufs-bkops.c:208:20
	cbz	x1, .LBB0_3
.Ltmp3:
// %bb.2:
	//DEBUG_VALUE: ufshcd_bkops_status_query:status <- $x21
	//DEBUG_VALUE: ufshcd_bkops_status_query:bkops_data <- $x0
	//DEBUG_VALUE: ufshcd_bkops_status_query:hba <- 0
	.loc	167 0 20                        // kernel/platform_source/basicplatform/drivers/scsi/ufs/hufs-bkops.c:0:20
	mov	x20, x0
.Ltmp4:
	//DEBUG_VALUE: ufshcd_bkops_status_query:bkops_data <- $x20
	//DEBUG_VALUE: ufshcd_bkops_status_query:hba <- $x20
	.loc	167 216 27 is_stmt 1            // kernel/platform_source/basicplatform/drivers/scsi/ufs/hufs-bkops.c:216:27
	ldr	x0, [x0, #15352]
.Ltmp5:
	//DEBUG_VALUE: pm_runtime_get_sync:dev <- $x0
	.file	183 "/mnt/disk/jenkins/ci/workspace/chipset_pipeline_release/opensource/component_code/vendor/huawei/extra/build/build_script/kirin_kernel_release" "kernel/include/linux/pm_runtime.h"
	.loc	183 386 9                       // kernel/include/linux/pm_runtime.h:386:9
	mov	w1, #4
	bl	__pm_runtime_resume
.Ltmp6:
	.loc	167 217 13                      // kernel/platform_source/basicplatform/drivers/scsi/ufs/hufs-bkops.c:217:13
	ldr	x8, [x20, #23104]
	.loc	167 217 8 is_stmt 0             // kernel/platform_source/basicplatform/drivers/scsi/ufs/hufs-bkops.c:217:8
	mov	x0, x20
	mov	x1, x21
	.loc	167 217 32                      // kernel/platform_source/basicplatform/drivers/scsi/ufs/hufs-bkops.c:217:32
	ldr	x8, [x8]
	.loc	167 217 8                       // kernel/platform_source/basicplatform/drivers/scsi/ufs/hufs-bkops.c:217:8
	blr	x8
.Ltmp7:
	.loc	167 218 27 is_stmt 1            // kernel/platform_source/basicplatform/drivers/scsi/ufs/hufs-bkops.c:218:27
	ldr	x8, [x20, #15352]
	.loc	167 217 8                       // kernel/platform_source/basicplatform/drivers/scsi/ufs/hufs-bkops.c:217:8
	mov	w19, w0
.Ltmp8:
	//DEBUG_VALUE: ufshcd_bkops_status_query:err <- $w19
	//DEBUG_VALUE: pm_runtime_put_sync:dev <- $x8
	.loc	183 450 9                       // kernel/include/linux/pm_runtime.h:450:9
	mov	w1, #4
	mov	x0, x8
	bl	__pm_runtime_idle
.Ltmp9:
	.loc	167 232 6                       // kernel/platform_source/basicplatform/drivers/scsi/ufs/hufs-bkops.c:232:6
	cbnz	w19, .LBB0_4
.Ltmp10:
.LBB0_3:
	.loc	167 236 1                       // kernel/platform_source/basicplatform/drivers/scsi/ufs/hufs-bkops.c:236:1
	mov	w0, w19
	ldp	x20, x19, [sp, #32]             // 16-byte Folded Reload
	ldr	x21, [sp, #16]                  // 8-byte Folded Reload
	ldp	x29, x30, [sp], #48             // 16-byte Folded Reload
	hint	#29
	ret
.LBB0_4:
.Ltmp11:
	//DEBUG_VALUE: ufshcd_bkops_status_query:status <- $x21
	//DEBUG_VALUE: ufshcd_bkops_status_query:hba <- $x20
	//DEBUG_VALUE: ufshcd_bkops_status_query:bkops_data <- $x20
	//DEBUG_VALUE: ufshcd_bkops_status_query:err <- $w19
	.loc	167 233 3                       // kernel/platform_source/basicplatform/drivers/scsi/ufs/hufs-bkops.c:233:3
	adrp	x0, .L.str
	add	x0, x0, :lo12:.L.str
	bl	printk
.Ltmp12:
	.loc	167 0 3 is_stmt 0               // kernel/platform_source/basicplatform/drivers/scsi/ufs/hufs-bkops.c:0:3
	b	.LBB0_3
.Ltmp13:
.Lfunc_end0:
	.size	ufshcd_bkops_status_query, .Lfunc_end0-ufshcd_bkops_status_query
	.cfi_endproc
	.file	184 "/mnt/disk/jenkins/ci/workspace/chipset_pipeline_release/opensource/component_code/vendor/huawei/extra/build/build_script/kirin_kernel_release" "kernel/include/linux/printk.h"
                                        // -- End function
	.globl	ufshcd_bkops_start_stop         // -- Begin function ufshcd_bkops_start_stop
	.p2align	2
	.type	ufshcd_bkops_start_stop,@function
ufshcd_bkops_start_stop:                // @ufshcd_bkops_start_stop
.Lfunc_begin1:
	.loc	167 289 0 is_stmt 1             // kernel/platform_source/basicplatform/drivers/scsi/ufs/hufs-bkops.c:289:0
	.cfi_startproc
// %bb.0:
	//DEBUG_VALUE: ufshcd_bkops_start_stop:bkops_data <- $x0
	//DEBUG_VALUE: ufshcd_bkops_start_stop:start <- $w1
	//DEBUG_VALUE: ufshcd_bkops_start_stop:start <- $w1
	//DEBUG_VALUE: ufshcd_bkops_start_stop:bkops_data <- $x0
	hint	#25
	.cfi_negate_ra_state
	stp	x29, x30, [sp, #-32]!           // 16-byte Folded Spill
	str	x19, [sp, #16]                  // 8-byte Folded Spill
	mov	x29, sp
	.cfi_def_cfa w29, 32
	.cfi_offset w19, -16
	.cfi_offset w30, -24
	.cfi_offset w29, -32
.Ltmp14:
	//DEBUG_VALUE: ufshcd_bkops_start_stop:hba <- 0
	.loc	167 293 6 prologue_end          // kernel/platform_source/basicplatform/drivers/scsi/ufs/hufs-bkops.c:293:6
	cbz	x0, .LBB1_4
.Ltmp15:
// %bb.1:
	//DEBUG_VALUE: ufshcd_bkops_start_stop:bkops_data <- $x0
	//DEBUG_VALUE: ufshcd_bkops_start_stop:start <- $w1
	//DEBUG_VALUE: ufshcd_bkops_start_stop:hba <- 0
	//DEBUG_VALUE: ufshcd_bkops_start_stop:bkops_data <- $x0
	//DEBUG_VALUE: ufshcd_bkops_start_stop:hba <- $x0
	.loc	167 298 6                       // kernel/platform_source/basicplatform/drivers/scsi/ufs/hufs-bkops.c:298:6
	cbz	w1, .LBB1_5
.Ltmp16:
// %bb.2:
	//DEBUG_VALUE: ufshcd_bkops_start_stop:hba <- $x0
	//DEBUG_VALUE: ufshcd_bkops_start_stop:bkops_data <- $x0
	//DEBUG_VALUE: ufshcd_bkops_start_stop:start <- $w1
	.loc	167 0 6 is_stmt 0               // kernel/platform_source/basicplatform/drivers/scsi/ufs/hufs-bkops.c:0:6
	mov	x19, x0
.Ltmp17:
	//DEBUG_VALUE: ufshcd_bkops_start_stop:hba <- $x19
	//DEBUG_VALUE: ufshcd_bkops_start_stop:bkops_data <- $x19
	//DEBUG_VALUE: ufshcd_bkops_start_stop:hba <- $x19
	//DEBUG_VALUE: ufshcd_bkops_start:hba <- $x19
	.loc	167 242 27 is_stmt 1            // kernel/platform_source/basicplatform/drivers/scsi/ufs/hufs-bkops.c:242:27
	ldr	x0, [x0, #15352]
.Ltmp18:
	//DEBUG_VALUE: pm_runtime_get_sync:dev <- $x0
	.loc	183 386 9                       // kernel/include/linux/pm_runtime.h:386:9
	mov	w1, #4
.Ltmp19:
	//DEBUG_VALUE: ufshcd_bkops_start_stop:start <- [DW_OP_LLVM_entry_value 1] $w1
	bl	__pm_runtime_resume
.Ltmp20:
	.loc	167 243 13                      // kernel/platform_source/basicplatform/drivers/scsi/ufs/hufs-bkops.c:243:13
	ldr	x8, [x19, #23104]
	.loc	167 243 8 is_stmt 0             // kernel/platform_source/basicplatform/drivers/scsi/ufs/hufs-bkops.c:243:8
	mov	x0, x19
	.loc	167 243 32                      // kernel/platform_source/basicplatform/drivers/scsi/ufs/hufs-bkops.c:243:32
	ldr	x8, [x8, #8]
	.loc	167 243 8                       // kernel/platform_source/basicplatform/drivers/scsi/ufs/hufs-bkops.c:243:8
	blr	x8
.Ltmp21:
	.loc	167 244 27 is_stmt 1            // kernel/platform_source/basicplatform/drivers/scsi/ufs/hufs-bkops.c:244:27
	ldr	x8, [x19, #15352]
	.loc	167 243 8                       // kernel/platform_source/basicplatform/drivers/scsi/ufs/hufs-bkops.c:243:8
	mov	w19, w0
.Ltmp22:
	//DEBUG_VALUE: ufshcd_bkops_start:ret <- $w19
	//DEBUG_VALUE: pm_runtime_put_sync:dev <- $x8
	.loc	183 450 9                       // kernel/include/linux/pm_runtime.h:450:9
	mov	w1, #4
	mov	x0, x8
	bl	__pm_runtime_idle
.Ltmp23:
	.loc	167 245 6                       // kernel/platform_source/basicplatform/drivers/scsi/ufs/hufs-bkops.c:245:6
	cbz	w19, .LBB1_6
.Ltmp24:
// %bb.3:
	//DEBUG_VALUE: ufshcd_bkops_start:ret <- $w19
	//DEBUG_VALUE: ufshcd_bkops_start_stop:start <- [DW_OP_LLVM_entry_value 1] $w1
	.loc	167 246 3                       // kernel/platform_source/basicplatform/drivers/scsi/ufs/hufs-bkops.c:246:3
	adrp	x0, .L.str.2
	add	x0, x0, :lo12:.L.str.2
	bl	printk
.Ltmp25:
	.loc	167 0 3 is_stmt 0               // kernel/platform_source/basicplatform/drivers/scsi/ufs/hufs-bkops.c:0:3
	b	.LBB1_6
.Ltmp26:
.LBB1_4:
	//DEBUG_VALUE: ufshcd_bkops_start_stop:bkops_data <- $x0
	//DEBUG_VALUE: ufshcd_bkops_start_stop:start <- $w1
	//DEBUG_VALUE: ufshcd_bkops_start_stop:hba <- 0
	mov	w19, #-22
	b	.LBB1_6
.Ltmp27:
.LBB1_5:
	//DEBUG_VALUE: ufshcd_bkops_start_stop:hba <- $x0
	//DEBUG_VALUE: ufshcd_bkops_start_stop:bkops_data <- $x0
	//DEBUG_VALUE: ufshcd_bkops_start_stop:start <- $w1
	mov	w19, wzr
.Ltmp28:
.LBB1_6:
	.loc	167 304 1 is_stmt 1             // kernel/platform_source/basicplatform/drivers/scsi/ufs/hufs-bkops.c:304:1
	mov	w0, w19
	ldr	x19, [sp, #16]                  // 8-byte Folded Reload
	ldp	x29, x30, [sp], #32             // 16-byte Folded Reload
	hint	#29
	ret
.Ltmp29:
.Lfunc_end1:
	.size	ufshcd_bkops_start_stop, .Lfunc_end1-ufshcd_bkops_start_stop
	.cfi_endproc
                                        // -- End function
	.globl	hufs_manual_bkops_config        // -- Begin function hufs_manual_bkops_config
	.p2align	2
	.type	hufs_manual_bkops_config,@function
hufs_manual_bkops_config:               // @hufs_manual_bkops_config
.Lfunc_begin2:
	.loc	167 391 0                       // kernel/platform_source/basicplatform/drivers/scsi/ufs/hufs-bkops.c:391:0
	.cfi_startproc
// %bb.0:
	//DEBUG_VALUE: hufs_manual_bkops_config:sdev <- $x0
	//DEBUG_VALUE: hufs_manual_bkops_config:sdev <- $x0
	hint	#25
	.cfi_negate_ra_state
	sub	sp, sp, #128                    // =128
	stp	x29, x30, [sp, #32]             // 16-byte Folded Spill
	stp	x28, x27, [sp, #48]             // 16-byte Folded Spill
	stp	x26, x25, [sp, #64]             // 16-byte Folded Spill
	stp	x24, x23, [sp, #80]             // 16-byte Folded Spill
	stp	x22, x21, [sp, #96]             // 16-byte Folded Spill
	stp	x20, x19, [sp, #112]            // 16-byte Folded Spill
	add	x29, sp, #32                    // =32
	.cfi_def_cfa w29, 96
	.cfi_offset w19, -8
	.cfi_offset w20, -16
	.cfi_offset w21, -24
	.cfi_offset w22, -32
	.cfi_offset w23, -40
	.cfi_offset w24, -48
	.cfi_offset w25, -56
	.cfi_offset w26, -64
	.cfi_offset w27, -72
	.cfi_offset w28, -80
	.cfi_offset w30, -88
	.cfi_offset w29, -96
.Ltmp30:
	//DEBUG_VALUE: hufs_manual_bkops_config:q <- 0
	//DEBUG_VALUE: hufs_manual_bkops_config:ufs_bkops <- 0
	//DEBUG_VALUE: hufs_manual_bkops_config:hba <- 0
	.loc	167 396 6 prologue_end          // kernel/platform_source/basicplatform/drivers/scsi/ufs/hufs-bkops.c:396:6
	cbz	x0, .LBB2_3
.Ltmp31:
// %bb.1:
	//DEBUG_VALUE: hufs_manual_bkops_config:sdev <- $x0
	//DEBUG_VALUE: hufs_manual_bkops_config:hba <- 0
	//DEBUG_VALUE: hufs_manual_bkops_config:ufs_bkops <- 0
	//DEBUG_VALUE: hufs_manual_bkops_config:q <- 0
	.loc	167 399 25                      // kernel/platform_source/basicplatform/drivers/scsi/ufs/hufs-bkops.c:399:25
	ldr	x26, [x0]
.Ltmp32:
	//DEBUG_VALUE: shost_priv:shost <- $x26
	//DEBUG_VALUE: hufs_manual_bkops_config:q <- undef
	//DEBUG_VALUE: hufs_manual_bkops_config:hba <- undef
	.loc	167 0 25 is_stmt 0              // kernel/platform_source/basicplatform/drivers/scsi/ufs/hufs-bkops.c:0:25
	mov	x20, x0
.Ltmp33:
	//DEBUG_VALUE: hufs_manual_bkops_config:sdev <- $x20
	//DEBUG_VALUE: hufs_manual_bkops_config:sdev <- $x20
	.loc	167 402 6 is_stmt 1             // kernel/platform_source/basicplatform/drivers/scsi/ufs/hufs-bkops.c:402:6
	ldrb	w8, [x26, #1248]
	tbnz	w8, #0, .LBB2_4
.Ltmp34:
// %bb.2:
	//DEBUG_VALUE: shost_priv:shost <- $x26
	//DEBUG_VALUE: hufs_manual_bkops_config:sdev <- $x20
	//DEBUG_VALUE: hufs_manual_bkops_config:ufs_bkops <- 0
	.loc	167 0 0 is_stmt 0               // kernel/platform_source/basicplatform/drivers/scsi/ufs/hufs-bkops.c:0:0
	mov	w0, wzr
	b	.LBB2_32
.Ltmp35:
.LBB2_3:
	//DEBUG_VALUE: hufs_manual_bkops_config:sdev <- $x0
	//DEBUG_VALUE: hufs_manual_bkops_config:hba <- 0
	//DEBUG_VALUE: hufs_manual_bkops_config:ufs_bkops <- 0
	//DEBUG_VALUE: hufs_manual_bkops_config:q <- 0
	mov	w0, #-22
.Ltmp36:
	//DEBUG_VALUE: hufs_manual_bkops_config:sdev <- [DW_OP_LLVM_entry_value 1] $x0
	b	.LBB2_32
.Ltmp37:
.LBB2_4:
	//DEBUG_VALUE: hufs_manual_bkops_config:sdev <- $x20
	//DEBUG_VALUE: hufs_manual_bkops_config:ufs_bkops <- 0
	ldr	x9, [x20, #8]
.Ltmp38:
	//DEBUG_VALUE: hufs_manual_bkops_config:q <- $x9
	ldr	x19, [x26, #26248]
.Ltmp39:
	//DEBUG_VALUE: hufs_is_bkops_supported:node <- $x19
	mov	w8, #26168
.Ltmp40:
	add	x8, x26, x8
.Ltmp41:
	//DEBUG_VALUE: hufs_manual_bkops_config:hba <- undef
	str	x9, [sp, #16]                   // 8-byte Folded Spill
.Ltmp42:
	//DEBUG_VALUE: hufs_manual_bkops_config:q <- [DW_OP_plus_uconst 16] [$sp+0]
	//DEBUG_VALUE: hufs_manual_bkops_config:q <- [DW_OP_plus_uconst 16] [$sp+0]
	mov	w9, #26248
.Ltmp43:
	//DEBUG_VALUE: hufs_is_bkops_supported:bkops_id <- 0
	//DEBUG_VALUE: hufs_is_bkops_supported:hba <- [DW_OP_plus_uconst 3112, DW_OP_stack_value] $x26
	//DEBUG_VALUE: hufs_is_bkops_supported:sdev <- $x20
	//DEBUG_VALUE: hufs_is_bkops_supported:node <- 0
	.loc	167 336 2 is_stmt 1             // kernel/platform_source/basicplatform/drivers/scsi/ufs/hufs-bkops.c:336:2
	add	x28, x26, x9
.Ltmp44:
	//DEBUG_VALUE: hufs_is_bkops_supported:node <- undef
	cmp	x19, x28
	stur	x8, [x29, #-8]                  // 8-byte Folded Spill
	//DEBUG_VALUE: hufs_is_bkops_supported:sdev <- $x20
	//DEBUG_VALUE: hufs_is_bkops_supported:hba <- [DW_OP_plus_uconst 3112, DW_OP_stack_value] $x26
	//DEBUG_VALUE: hufs_is_bkops_supported:bkops_id <- 0
	b.eq	.LBB2_12
.Ltmp45:
// %bb.5:
	//DEBUG_VALUE: hufs_is_bkops_supported:hba <- [DW_OP_plus_uconst 3112, DW_OP_stack_value] $x26
	//DEBUG_VALUE: hufs_is_bkops_supported:sdev <- $x20
	//DEBUG_VALUE: hufs_manual_bkops_config:sdev <- $x20
	//DEBUG_VALUE: hufs_manual_bkops_config:q <- [DW_OP_plus_uconst 16] [$sp+0]
	//DEBUG_VALUE: hufs_is_bkops_supported:bkops_id <- 0
	//DEBUG_VALUE: hufs_manual_bkops_config:ufs_bkops <- 0
	.loc	167 0 2 is_stmt 0               // kernel/platform_source/basicplatform/drivers/scsi/ufs/hufs-bkops.c:0:2
	ldur	x8, [x29, #-8]                  // 8-byte Folded Reload
	ldr	x21, [x20, #264]
	adrp	x22, .L.str.4
	adrp	x23, .L.str.3
	ldrh	w27, [x8]
	add	x22, x22, :lo12:.L.str.4
	add	x23, x23, :lo12:.L.str.3
	b	.LBB2_7
.Ltmp46:
.LBB2_6:                                //   in Loop: Header=BB2_7 Depth=1
	//DEBUG_VALUE: hufs_is_bkops_supported:hba <- [DW_OP_plus_uconst 3112, DW_OP_stack_value] $x26
	//DEBUG_VALUE: hufs_is_bkops_supported:sdev <- $x20
	//DEBUG_VALUE: hufs_manual_bkops_config:sdev <- $x20
	//DEBUG_VALUE: hufs_is_bkops_supported:bkops_id <- [DW_OP_constu 24, DW_OP_minus, DW_OP_stack_value] $x19
	//DEBUG_VALUE: hufs_manual_bkops_config:q <- [DW_OP_plus_uconst 16] [$sp+0]
	//DEBUG_VALUE: hufs_manual_bkops_config:ufs_bkops <- 0
	//DEBUG_VALUE: hufs_is_bkops_supported:node <- undef
	ldr	x19, [x19]
.Ltmp47:
	//DEBUG_VALUE: hufs_is_bkops_supported:node <- $x19
	.loc	167 336 2                       // kernel/platform_source/basicplatform/drivers/scsi/ufs/hufs-bkops.c:336:2
	cmp	x19, x28
	b.eq	.LBB2_12
.Ltmp48:
.LBB2_7:                                // =>This Inner Loop Header: Depth=1
	//DEBUG_VALUE: hufs_is_bkops_supported:hba <- [DW_OP_plus_uconst 3112, DW_OP_stack_value] $x26
	//DEBUG_VALUE: hufs_is_bkops_supported:sdev <- $x20
	//DEBUG_VALUE: hufs_manual_bkops_config:sdev <- $x20
	//DEBUG_VALUE: hufs_manual_bkops_config:q <- [DW_OP_plus_uconst 16] [$sp+0]
	//DEBUG_VALUE: hufs_manual_bkops_config:ufs_bkops <- 0
	//DEBUG_VALUE: hufs_is_bkops_supported:bkops_id <- [DW_OP_constu 24, DW_OP_minus, DW_OP_stack_value] $x19
	//DEBUG_VALUE: __mptr <- $x19
	//DEBUG_VALUE: hufs_is_bkops_id_match:bkops_id <- [DW_OP_constu 24, DW_OP_minus, DW_OP_stack_value] $x19
	//DEBUG_VALUE: hufs_is_bkops_id_match:man_id <- $w27
	//DEBUG_VALUE: hufs_is_bkops_id_match:ufs_model <- undef
	//DEBUG_VALUE: hufs_is_bkops_id_match:ufs_rev <- $x21
	.loc	167 314 26 is_stmt 1            // kernel/platform_source/basicplatform/drivers/scsi/ufs/hufs-bkops.c:314:26
	ldurh	w8, [x19, #-24]
.Ltmp49:
	.loc	167 314 6 is_stmt 0             // kernel/platform_source/basicplatform/drivers/scsi/ufs/hufs-bkops.c:314:6
	cmp	w8, w27
	b.ne	.LBB2_6
.Ltmp50:
// %bb.8:                               //   in Loop: Header=BB2_7 Depth=1
	//DEBUG_VALUE: hufs_is_bkops_supported:hba <- [DW_OP_plus_uconst 3112, DW_OP_stack_value] $x26
	//DEBUG_VALUE: hufs_is_bkops_id_match:ufs_rev <- $x21
	//DEBUG_VALUE: hufs_is_bkops_supported:sdev <- $x20
	//DEBUG_VALUE: hufs_manual_bkops_config:sdev <- $x20
	//DEBUG_VALUE: hufs_is_bkops_id_match:bkops_id <- [DW_OP_constu 24, DW_OP_minus, DW_OP_stack_value] $x19
	//DEBUG_VALUE: hufs_is_bkops_supported:bkops_id <- [DW_OP_constu 24, DW_OP_minus, DW_OP_stack_value] $x19
	//DEBUG_VALUE: hufs_is_bkops_id_match:man_id <- $w27
	//DEBUG_VALUE: hufs_manual_bkops_config:q <- [DW_OP_plus_uconst 16] [$sp+0]
	//DEBUG_VALUE: hufs_manual_bkops_config:ufs_bkops <- 0
	.loc	167 317 35 is_stmt 1            // kernel/platform_source/basicplatform/drivers/scsi/ufs/hufs-bkops.c:317:35
	ldur	x24, [x19, #-16]
.Ltmp51:
	.loc	167 340 13                      // kernel/platform_source/basicplatform/drivers/scsi/ufs/hufs-bkops.c:340:13
	ldr	x25, [x20, #256]
.Ltmp52:
	//DEBUG_VALUE: hufs_is_bkops_id_match:ufs_model <- $x25
	.loc	167 318 7                       // kernel/platform_source/basicplatform/drivers/scsi/ufs/hufs-bkops.c:318:7
	mov	x0, x24
	bl	strlen
.Ltmp53:
	mov	x2, x0
	.loc	167 317 6                       // kernel/platform_source/basicplatform/drivers/scsi/ufs/hufs-bkops.c:317:6
	mov	x0, x25
	mov	x1, x24
	bl	strncmp
.Ltmp54:
	.loc	167 318 36                      // kernel/platform_source/basicplatform/drivers/scsi/ufs/hufs-bkops.c:318:36
	cbz	w0, .LBB2_10
.Ltmp55:
// %bb.9:                               //   in Loop: Header=BB2_7 Depth=1
	//DEBUG_VALUE: hufs_is_bkops_supported:hba <- [DW_OP_plus_uconst 3112, DW_OP_stack_value] $x26
	//DEBUG_VALUE: hufs_is_bkops_id_match:ufs_model <- $x25
	//DEBUG_VALUE: hufs_is_bkops_id_match:ufs_rev <- $x21
	//DEBUG_VALUE: hufs_is_bkops_supported:sdev <- $x20
	//DEBUG_VALUE: hufs_manual_bkops_config:sdev <- $x20
	//DEBUG_VALUE: hufs_is_bkops_id_match:bkops_id <- [DW_OP_constu 24, DW_OP_minus, DW_OP_stack_value] $x19
	//DEBUG_VALUE: hufs_is_bkops_supported:bkops_id <- [DW_OP_constu 24, DW_OP_minus, DW_OP_stack_value] $x19
	//DEBUG_VALUE: hufs_is_bkops_id_match:man_id <- $w27
	//DEBUG_VALUE: hufs_manual_bkops_config:q <- [DW_OP_plus_uconst 16] [$sp+0]
	//DEBUG_VALUE: hufs_manual_bkops_config:ufs_bkops <- 0
	.loc	167 319 6                       // kernel/platform_source/basicplatform/drivers/scsi/ufs/hufs-bkops.c:319:6
	mov	x0, x23
	mov	x1, x24
	bl	strcmp
.Ltmp56:
	.loc	167 317 6                       // kernel/platform_source/basicplatform/drivers/scsi/ufs/hufs-bkops.c:317:6
	cbnz	w0, .LBB2_6
.Ltmp57:
.LBB2_10:                               //   in Loop: Header=BB2_7 Depth=1
	//DEBUG_VALUE: hufs_is_bkops_supported:hba <- [DW_OP_plus_uconst 3112, DW_OP_stack_value] $x26
	//DEBUG_VALUE: hufs_is_bkops_id_match:ufs_model <- $x25
	//DEBUG_VALUE: hufs_is_bkops_id_match:ufs_rev <- $x21
	//DEBUG_VALUE: hufs_is_bkops_supported:sdev <- $x20
	//DEBUG_VALUE: hufs_manual_bkops_config:sdev <- $x20
	//DEBUG_VALUE: hufs_is_bkops_id_match:bkops_id <- [DW_OP_constu 24, DW_OP_minus, DW_OP_stack_value] $x19
	//DEBUG_VALUE: hufs_is_bkops_supported:bkops_id <- [DW_OP_constu 24, DW_OP_minus, DW_OP_stack_value] $x19
	//DEBUG_VALUE: hufs_is_bkops_id_match:man_id <- $w27
	//DEBUG_VALUE: hufs_manual_bkops_config:q <- [DW_OP_plus_uconst 16] [$sp+0]
	//DEBUG_VALUE: hufs_manual_bkops_config:ufs_bkops <- 0
	.loc	167 322 32                      // kernel/platform_source/basicplatform/drivers/scsi/ufs/hufs-bkops.c:322:32
	ldur	x24, [x19, #-8]
	.loc	167 322 6 is_stmt 0             // kernel/platform_source/basicplatform/drivers/scsi/ufs/hufs-bkops.c:322:6
	mov	x0, x21
	mov	x1, x24
	bl	strcmp
.Ltmp58:
	.loc	167 322 41                      // kernel/platform_source/basicplatform/drivers/scsi/ufs/hufs-bkops.c:322:41
	cbz	w0, .LBB2_26
.Ltmp59:
// %bb.11:                              //   in Loop: Header=BB2_7 Depth=1
	//DEBUG_VALUE: hufs_is_bkops_supported:hba <- [DW_OP_plus_uconst 3112, DW_OP_stack_value] $x26
	//DEBUG_VALUE: hufs_is_bkops_id_match:ufs_model <- $x25
	//DEBUG_VALUE: hufs_is_bkops_id_match:ufs_rev <- $x21
	//DEBUG_VALUE: hufs_is_bkops_supported:sdev <- $x20
	//DEBUG_VALUE: hufs_manual_bkops_config:sdev <- $x20
	//DEBUG_VALUE: hufs_is_bkops_id_match:bkops_id <- [DW_OP_constu 24, DW_OP_minus, DW_OP_stack_value] $x19
	//DEBUG_VALUE: hufs_is_bkops_supported:bkops_id <- [DW_OP_constu 24, DW_OP_minus, DW_OP_stack_value] $x19
	//DEBUG_VALUE: hufs_is_bkops_id_match:man_id <- $w27
	//DEBUG_VALUE: hufs_manual_bkops_config:q <- [DW_OP_plus_uconst 16] [$sp+0]
	//DEBUG_VALUE: hufs_manual_bkops_config:ufs_bkops <- 0
	.loc	167 323 6 is_stmt 1             // kernel/platform_source/basicplatform/drivers/scsi/ufs/hufs-bkops.c:323:6
	mov	x0, x22
	mov	x1, x24
	bl	strcmp
.Ltmp60:
	.loc	167 0 6 is_stmt 0               // kernel/platform_source/basicplatform/drivers/scsi/ufs/hufs-bkops.c:0:6
	cbnz	w0, .LBB2_6
	b	.LBB2_26
.Ltmp61:
.LBB2_12:
	//DEBUG_VALUE: hufs_is_bkops_supported:hba <- [DW_OP_plus_uconst 3112, DW_OP_stack_value] $x26
	//DEBUG_VALUE: hufs_is_bkops_supported:sdev <- $x20
	//DEBUG_VALUE: hufs_manual_bkops_config:sdev <- $x20
	//DEBUG_VALUE: hufs_manual_bkops_config:q <- [DW_OP_plus_uconst 16] [$sp+0]
	//DEBUG_VALUE: hufs_manual_bkops_config:ufs_bkops <- 0
	//DEBUG_VALUE: hufs_manual_bkops_config:hba <- undef
	ldr	x19, [x26, #26232]
.Ltmp62:
	//DEBUG_VALUE: hufs_is_bkops_supported:node <- $x19
	mov	w8, #26232
	.loc	167 345 2 is_stmt 1             // kernel/platform_source/basicplatform/drivers/scsi/ufs/hufs-bkops.c:345:2
	add	x28, x26, x8
.Ltmp63:
	//DEBUG_VALUE: hufs_is_bkops_supported:node <- undef
	cmp	x19, x28
	b.eq	.LBB2_26
.Ltmp64:
// %bb.13:
	//DEBUG_VALUE: hufs_is_bkops_supported:hba <- [DW_OP_plus_uconst 3112, DW_OP_stack_value] $x26
	//DEBUG_VALUE: hufs_is_bkops_supported:sdev <- $x20
	//DEBUG_VALUE: hufs_manual_bkops_config:sdev <- $x20
	//DEBUG_VALUE: hufs_manual_bkops_config:q <- [DW_OP_plus_uconst 16] [$sp+0]
	//DEBUG_VALUE: hufs_manual_bkops_config:ufs_bkops <- 0
	.loc	167 0 2 is_stmt 0               // kernel/platform_source/basicplatform/drivers/scsi/ufs/hufs-bkops.c:0:2
	ldur	x8, [x29, #-8]                  // 8-byte Folded Reload
	ldr	x21, [x20, #264]
	adrp	x22, .L.str.4
	adrp	x23, .L.str.3
	ldrh	w27, [x8]
	add	x8, x26, #3112                  // =3112
.Ltmp65:
	//DEBUG_VALUE: hufs_manual_bkops_config:hba <- $x8
	add	x22, x22, :lo12:.L.str.4
	add	x23, x23, :lo12:.L.str.3
	str	x8, [sp, #8]                    // 8-byte Folded Spill
.Ltmp66:
	//DEBUG_VALUE: hufs_manual_bkops_config:hba <- [DW_OP_plus_uconst 8] [$sp+0]
	//DEBUG_VALUE: hufs_manual_bkops_config:hba <- [DW_OP_plus_uconst 8] [$sp+0]
	b	.LBB2_15
.Ltmp67:
.LBB2_14:                               //   in Loop: Header=BB2_15 Depth=1
	//DEBUG_VALUE: hufs_is_bkops_supported:hba <- [DW_OP_plus_uconst 3112, DW_OP_stack_value] $x26
	//DEBUG_VALUE: hufs_is_bkops_supported:sdev <- $x20
	//DEBUG_VALUE: hufs_manual_bkops_config:sdev <- $x20
	//DEBUG_VALUE: hufs_is_bkops_supported:bkops_id <- [DW_OP_constu 24, DW_OP_minus, DW_OP_stack_value] $x19
	//DEBUG_VALUE: hufs_manual_bkops_config:hba <- [DW_OP_plus_uconst 8] [$sp+0]
	//DEBUG_VALUE: hufs_manual_bkops_config:q <- [DW_OP_plus_uconst 16] [$sp+0]
	//DEBUG_VALUE: hufs_manual_bkops_config:ufs_bkops <- 0
	//DEBUG_VALUE: hufs_is_bkops_supported:node <- undef
	ldr	x19, [x19]
.Ltmp68:
	//DEBUG_VALUE: hufs_is_bkops_supported:node <- $x19
	.loc	167 345 2                       // kernel/platform_source/basicplatform/drivers/scsi/ufs/hufs-bkops.c:345:2
	cmp	x19, x28
	b.eq	.LBB2_26
.Ltmp69:
.LBB2_15:                               // =>This Inner Loop Header: Depth=1
	//DEBUG_VALUE: hufs_is_bkops_supported:hba <- [DW_OP_plus_uconst 3112, DW_OP_stack_value] $x26
	//DEBUG_VALUE: hufs_is_bkops_supported:sdev <- $x20
	//DEBUG_VALUE: hufs_manual_bkops_config:sdev <- $x20
	//DEBUG_VALUE: hufs_manual_bkops_config:hba <- [DW_OP_plus_uconst 8] [$sp+0]
	//DEBUG_VALUE: hufs_manual_bkops_config:q <- [DW_OP_plus_uconst 16] [$sp+0]
	//DEBUG_VALUE: hufs_manual_bkops_config:ufs_bkops <- 0
	//DEBUG_VALUE: hufs_is_bkops_supported:bkops_id <- [DW_OP_constu 24, DW_OP_minus, DW_OP_stack_value] $x19
	//DEBUG_VALUE: __mptr <- $x19
	//DEBUG_VALUE: hufs_is_bkops_id_match:bkops_id <- [DW_OP_constu 24, DW_OP_minus, DW_OP_stack_value] $x19
	//DEBUG_VALUE: hufs_is_bkops_id_match:man_id <- $w27
	//DEBUG_VALUE: hufs_is_bkops_id_match:ufs_model <- undef
	//DEBUG_VALUE: hufs_is_bkops_id_match:ufs_rev <- $x21
	.loc	167 314 26 is_stmt 1            // kernel/platform_source/basicplatform/drivers/scsi/ufs/hufs-bkops.c:314:26
	ldurh	w8, [x19, #-24]
.Ltmp70:
	.loc	167 314 6 is_stmt 0             // kernel/platform_source/basicplatform/drivers/scsi/ufs/hufs-bkops.c:314:6
	cmp	w8, w27
	b.ne	.LBB2_14
.Ltmp71:
// %bb.16:                              //   in Loop: Header=BB2_15 Depth=1
	//DEBUG_VALUE: hufs_is_bkops_supported:hba <- [DW_OP_plus_uconst 3112, DW_OP_stack_value] $x26
	//DEBUG_VALUE: hufs_is_bkops_id_match:ufs_rev <- $x21
	//DEBUG_VALUE: hufs_is_bkops_supported:sdev <- $x20
	//DEBUG_VALUE: hufs_manual_bkops_config:sdev <- $x20
	//DEBUG_VALUE: hufs_is_bkops_id_match:bkops_id <- [DW_OP_constu 24, DW_OP_minus, DW_OP_stack_value] $x19
	//DEBUG_VALUE: hufs_is_bkops_supported:bkops_id <- [DW_OP_constu 24, DW_OP_minus, DW_OP_stack_value] $x19
	//DEBUG_VALUE: hufs_is_bkops_id_match:man_id <- $w27
	//DEBUG_VALUE: hufs_manual_bkops_config:hba <- [DW_OP_plus_uconst 8] [$sp+0]
	//DEBUG_VALUE: hufs_manual_bkops_config:q <- [DW_OP_plus_uconst 16] [$sp+0]
	//DEBUG_VALUE: hufs_manual_bkops_config:ufs_bkops <- 0
	.loc	167 317 35 is_stmt 1            // kernel/platform_source/basicplatform/drivers/scsi/ufs/hufs-bkops.c:317:35
	ldur	x24, [x19, #-16]
.Ltmp72:
	.loc	167 349 13                      // kernel/platform_source/basicplatform/drivers/scsi/ufs/hufs-bkops.c:349:13
	ldr	x25, [x20, #256]
.Ltmp73:
	//DEBUG_VALUE: hufs_is_bkops_id_match:ufs_model <- $x25
	.loc	167 318 7                       // kernel/platform_source/basicplatform/drivers/scsi/ufs/hufs-bkops.c:318:7
	mov	x0, x24
	bl	strlen
.Ltmp74:
	mov	x2, x0
	.loc	167 317 6                       // kernel/platform_source/basicplatform/drivers/scsi/ufs/hufs-bkops.c:317:6
	mov	x0, x25
	mov	x1, x24
	bl	strncmp
.Ltmp75:
	.loc	167 318 36                      // kernel/platform_source/basicplatform/drivers/scsi/ufs/hufs-bkops.c:318:36
	cbz	w0, .LBB2_18
.Ltmp76:
// %bb.17:                              //   in Loop: Header=BB2_15 Depth=1
	//DEBUG_VALUE: hufs_is_bkops_supported:hba <- [DW_OP_plus_uconst 3112, DW_OP_stack_value] $x26
	//DEBUG_VALUE: hufs_is_bkops_id_match:ufs_model <- $x25
	//DEBUG_VALUE: hufs_is_bkops_id_match:ufs_rev <- $x21
	//DEBUG_VALUE: hufs_is_bkops_supported:sdev <- $x20
	//DEBUG_VALUE: hufs_manual_bkops_config:sdev <- $x20
	//DEBUG_VALUE: hufs_is_bkops_id_match:bkops_id <- [DW_OP_constu 24, DW_OP_minus, DW_OP_stack_value] $x19
	//DEBUG_VALUE: hufs_is_bkops_supported:bkops_id <- [DW_OP_constu 24, DW_OP_minus, DW_OP_stack_value] $x19
	//DEBUG_VALUE: hufs_is_bkops_id_match:man_id <- $w27
	//DEBUG_VALUE: hufs_manual_bkops_config:hba <- [DW_OP_plus_uconst 8] [$sp+0]
	//DEBUG_VALUE: hufs_manual_bkops_config:q <- [DW_OP_plus_uconst 16] [$sp+0]
	//DEBUG_VALUE: hufs_manual_bkops_config:ufs_bkops <- 0
	.loc	167 319 6                       // kernel/platform_source/basicplatform/drivers/scsi/ufs/hufs-bkops.c:319:6
	mov	x0, x23
	mov	x1, x24
	bl	strcmp
.Ltmp77:
	.loc	167 317 6                       // kernel/platform_source/basicplatform/drivers/scsi/ufs/hufs-bkops.c:317:6
	cbnz	w0, .LBB2_14
.Ltmp78:
.LBB2_18:                               //   in Loop: Header=BB2_15 Depth=1
	//DEBUG_VALUE: hufs_is_bkops_supported:hba <- [DW_OP_plus_uconst 3112, DW_OP_stack_value] $x26
	//DEBUG_VALUE: hufs_is_bkops_id_match:ufs_model <- $x25
	//DEBUG_VALUE: hufs_is_bkops_id_match:ufs_rev <- $x21
	//DEBUG_VALUE: hufs_is_bkops_supported:sdev <- $x20
	//DEBUG_VALUE: hufs_manual_bkops_config:sdev <- $x20
	//DEBUG_VALUE: hufs_is_bkops_id_match:bkops_id <- [DW_OP_constu 24, DW_OP_minus, DW_OP_stack_value] $x19
	//DEBUG_VALUE: hufs_is_bkops_supported:bkops_id <- [DW_OP_constu 24, DW_OP_minus, DW_OP_stack_value] $x19
	//DEBUG_VALUE: hufs_is_bkops_id_match:man_id <- $w27
	//DEBUG_VALUE: hufs_manual_bkops_config:hba <- [DW_OP_plus_uconst 8] [$sp+0]
	//DEBUG_VALUE: hufs_manual_bkops_config:q <- [DW_OP_plus_uconst 16] [$sp+0]
	//DEBUG_VALUE: hufs_manual_bkops_config:ufs_bkops <- 0
	.loc	167 322 32                      // kernel/platform_source/basicplatform/drivers/scsi/ufs/hufs-bkops.c:322:32
	ldur	x24, [x19, #-8]
	.loc	167 322 6 is_stmt 0             // kernel/platform_source/basicplatform/drivers/scsi/ufs/hufs-bkops.c:322:6
	mov	x0, x21
	mov	x1, x24
	bl	strcmp
.Ltmp79:
	.loc	167 322 41                      // kernel/platform_source/basicplatform/drivers/scsi/ufs/hufs-bkops.c:322:41
	cbz	w0, .LBB2_20
.Ltmp80:
// %bb.19:                              //   in Loop: Header=BB2_15 Depth=1
	//DEBUG_VALUE: hufs_is_bkops_supported:hba <- [DW_OP_plus_uconst 3112, DW_OP_stack_value] $x26
	//DEBUG_VALUE: hufs_is_bkops_id_match:ufs_model <- $x25
	//DEBUG_VALUE: hufs_is_bkops_id_match:ufs_rev <- $x21
	//DEBUG_VALUE: hufs_is_bkops_supported:sdev <- $x20
	//DEBUG_VALUE: hufs_manual_bkops_config:sdev <- $x20
	//DEBUG_VALUE: hufs_is_bkops_id_match:bkops_id <- [DW_OP_constu 24, DW_OP_minus, DW_OP_stack_value] $x19
	//DEBUG_VALUE: hufs_is_bkops_supported:bkops_id <- [DW_OP_constu 24, DW_OP_minus, DW_OP_stack_value] $x19
	//DEBUG_VALUE: hufs_is_bkops_id_match:man_id <- $w27
	//DEBUG_VALUE: hufs_manual_bkops_config:hba <- [DW_OP_plus_uconst 8] [$sp+0]
	//DEBUG_VALUE: hufs_manual_bkops_config:q <- [DW_OP_plus_uconst 16] [$sp+0]
	//DEBUG_VALUE: hufs_manual_bkops_config:ufs_bkops <- 0
	.loc	167 323 6 is_stmt 1             // kernel/platform_source/basicplatform/drivers/scsi/ufs/hufs-bkops.c:323:6
	mov	x0, x22
	mov	x1, x24
	bl	strcmp
.Ltmp81:
	.loc	167 322 6                       // kernel/platform_source/basicplatform/drivers/scsi/ufs/hufs-bkops.c:322:6
	cbnz	w0, .LBB2_14
.Ltmp82:
.LBB2_20:
	//DEBUG_VALUE: hufs_manual_bkops_config:sdev <- $x20
	//DEBUG_VALUE: hufs_manual_bkops_config:hba <- [DW_OP_plus_uconst 8] [$sp+0]
	//DEBUG_VALUE: hufs_manual_bkops_config:q <- [DW_OP_plus_uconst 16] [$sp+0]
	//DEBUG_VALUE: hufs_manual_bkops_config:ufs_bkops <- 0
	.loc	167 0 6 is_stmt 0               // kernel/platform_source/basicplatform/drivers/scsi/ufs/hufs-bkops.c:0:6
	ldur	x8, [x29, #-8]                  // 8-byte Folded Reload
	.loc	167 406 45 is_stmt 1            // kernel/platform_source/basicplatform/drivers/scsi/ufs/hufs-bkops.c:406:45
	ldrb	w8, [x8, #40]
.Ltmp83:
	.loc	167 406 6 is_stmt 0             // kernel/platform_source/basicplatform/drivers/scsi/ufs/hufs-bkops.c:406:6
	cbnz	w8, .LBB2_26
.Ltmp84:
// %bb.21:
	//DEBUG_VALUE: hufs_manual_bkops_config:sdev <- $x20
	//DEBUG_VALUE: hufs_manual_bkops_config:hba <- [DW_OP_plus_uconst 8] [$sp+0]
	//DEBUG_VALUE: hufs_manual_bkops_config:q <- [DW_OP_plus_uconst 16] [$sp+0]
	//DEBUG_VALUE: hufs_manual_bkops_config:ufs_bkops <- 0
	.loc	167 411 14 is_stmt 1            // kernel/platform_source/basicplatform/drivers/scsi/ufs/hufs-bkops.c:411:14
	bl	mas_bkops_alloc
.Ltmp85:
	//DEBUG_VALUE: hufs_manual_bkops_config:ufs_bkops <- $x0
	.loc	167 412 6                       // kernel/platform_source/basicplatform/drivers/scsi/ufs/hufs-bkops.c:412:6
	cbz	x0, .LBB2_25
.Ltmp86:
// %bb.22:
	//DEBUG_VALUE: hufs_manual_bkops_config:sdev <- $x20
	//DEBUG_VALUE: hufs_manual_bkops_config:ufs_bkops <- $x0
	//DEBUG_VALUE: hufs_manual_bkops_config:hba <- [DW_OP_plus_uconst 8] [$sp+0]
	//DEBUG_VALUE: hufs_manual_bkops_config:q <- [DW_OP_plus_uconst 16] [$sp+0]
	.loc	167 0 6 is_stmt 0               // kernel/platform_source/basicplatform/drivers/scsi/ufs/hufs-bkops.c:0:6
	ldur	x8, [x29, #-8]                  // 8-byte Folded Reload
	mov	x20, x0
.Ltmp87:
	//DEBUG_VALUE: hufs_manual_bkops_config:ufs_bkops <- $x20
	//DEBUG_VALUE: hufs_manual_bkops_config:sdev <- [DW_OP_LLVM_entry_value 1] $x0
	//DEBUG_VALUE: hufs_manual_bkops_config:ufs_bkops <- $x20
	//DEBUG_VALUE: mas_bkops_status_info:hba <- [DW_OP_plus_uconst 8] [$sp+0]
	//DEBUG_VALUE: mas_bkops_status_info:ufs_bkops <- $x20
	.loc	167 371 11 is_stmt 1            // kernel/platform_source/basicplatform/drivers/scsi/ufs/hufs-bkops.c:371:11
	ldrh	w8, [x8]
.Ltmp88:
	.loc	167 371 6 is_stmt 0             // kernel/platform_source/basicplatform/drivers/scsi/ufs/hufs-bkops.c:371:6
	cmp	w8, #2230                       // =2230
	b.eq	.LBB2_27
.Ltmp89:
// %bb.23:
	//DEBUG_VALUE: mas_bkops_status_info:ufs_bkops <- $x20
	//DEBUG_VALUE: hufs_manual_bkops_config:ufs_bkops <- $x20
	//DEBUG_VALUE: mas_bkops_status_info:hba <- [DW_OP_plus_uconst 8] [$sp+0]
	//DEBUG_VALUE: hufs_manual_bkops_config:hba <- [DW_OP_plus_uconst 8] [$sp+0]
	//DEBUG_VALUE: hufs_manual_bkops_config:q <- [DW_OP_plus_uconst 16] [$sp+0]
	//DEBUG_VALUE: hufs_manual_bkops_config:sdev <- [DW_OP_LLVM_entry_value 1] $x0
	.loc	167 0 6                         // kernel/platform_source/basicplatform/drivers/scsi/ufs/hufs-bkops.c:0:6
	ldp	x11, x0, [sp, #8]               // 16-byte Folded Reload
	.loc	167 371 6                       // kernel/platform_source/basicplatform/drivers/scsi/ufs/hufs-bkops.c:371:6
	cmp	w8, #429                        // =429
	b.ne	.LBB2_29
.Ltmp90:
// %bb.24:
	//DEBUG_VALUE: mas_bkops_status_info:ufs_bkops <- $x20
	//DEBUG_VALUE: hufs_manual_bkops_config:ufs_bkops <- $x20
	//DEBUG_VALUE: mas_bkops_status_info:hba <- [DW_OP_plus_uconst 8] [$sp+0]
	//DEBUG_VALUE: hufs_manual_bkops_config:hba <- [DW_OP_plus_uconst 8] [$sp+0]
	//DEBUG_VALUE: hufs_manual_bkops_config:q <- [DW_OP_plus_uconst 16] [$sp+0]
	//DEBUG_VALUE: hufs_manual_bkops_config:sdev <- [DW_OP_LLVM_entry_value 1] $x0
	.loc	167 0 6                         // kernel/platform_source/basicplatform/drivers/scsi/ufs/hufs-bkops.c:0:6
	adrp	x8, hynix_bkops_ops
	add	x8, x8, :lo12:hynix_bkops_ops
	mov	w9, #3
	b	.LBB2_28
.Ltmp91:
.LBB2_25:
	//DEBUG_VALUE: hufs_manual_bkops_config:sdev <- $x20
	//DEBUG_VALUE: hufs_manual_bkops_config:ufs_bkops <- $x0
	//DEBUG_VALUE: hufs_manual_bkops_config:hba <- [DW_OP_plus_uconst 8] [$sp+0]
	//DEBUG_VALUE: hufs_manual_bkops_config:q <- [DW_OP_plus_uconst 16] [$sp+0]
	mov	w0, #-12
.Ltmp92:
	b	.LBB2_32
.Ltmp93:
.LBB2_26:
	//DEBUG_VALUE: hufs_manual_bkops_config:sdev <- $x20
	//DEBUG_VALUE: hufs_manual_bkops_config:q <- [DW_OP_plus_uconst 16] [$sp+0]
	//DEBUG_VALUE: hufs_manual_bkops_config:ufs_bkops <- 0
	.loc	167 407 3 is_stmt 1             // kernel/platform_source/basicplatform/drivers/scsi/ufs/hufs-bkops.c:407:3
	adrp	x0, .L.str.1
	add	x0, x0, :lo12:.L.str.1
	bl	printk
.Ltmp94:
	.loc	167 0 0 is_stmt 0               // kernel/platform_source/basicplatform/drivers/scsi/ufs/hufs-bkops.c:0:0
	mov	w0, wzr
	b	.LBB2_32
.Ltmp95:
.LBB2_27:
	//DEBUG_VALUE: mas_bkops_status_info:ufs_bkops <- $x20
	//DEBUG_VALUE: hufs_manual_bkops_config:ufs_bkops <- $x20
	//DEBUG_VALUE: mas_bkops_status_info:hba <- [DW_OP_plus_uconst 8] [$sp+0]
	//DEBUG_VALUE: hufs_manual_bkops_config:hba <- [DW_OP_plus_uconst 8] [$sp+0]
	//DEBUG_VALUE: hufs_manual_bkops_config:q <- [DW_OP_plus_uconst 16] [$sp+0]
	//DEBUG_VALUE: hufs_manual_bkops_config:sdev <- [DW_OP_LLVM_entry_value 1] $x0
	ldp	x11, x0, [sp, #8]               // 16-byte Folded Reload
	adrp	x8, hi1861_bkops_ops
	add	x8, x8, :lo12:hi1861_bkops_ops
	mov	w9, #2
.Ltmp96:
.LBB2_28:
	//DEBUG_VALUE: mas_bkops_status_info:ufs_bkops <- $x20
	//DEBUG_VALUE: hufs_manual_bkops_config:ufs_bkops <- $x20
	//DEBUG_VALUE: mas_bkops_status_info:hba <- [DW_OP_plus_uconst 8] [$sp+0]
	//DEBUG_VALUE: hufs_manual_bkops_config:hba <- [DW_OP_plus_uconst 8] [$sp+0]
	//DEBUG_VALUE: hufs_manual_bkops_config:q <- [DW_OP_plus_uconst 16] [$sp+0]
	//DEBUG_VALUE: hufs_manual_bkops_config:sdev <- [DW_OP_LLVM_entry_value 1] $x0
	ldr	x10, [x20, #128]
	str	w9, [x20]
	orr	x9, x10, #0x1c
	str	x9, [x20, #128]
	str	x8, [x26, #26216]
.Ltmp97:
.LBB2_29:
	//DEBUG_VALUE: hufs_manual_bkops_config:ufs_bkops <- $x20
	//DEBUG_VALUE: hufs_manual_bkops_config:hba <- [DW_OP_plus_uconst 8] [$sp+0]
	//DEBUG_VALUE: hufs_manual_bkops_config:q <- [DW_OP_plus_uconst 16] [$sp+0]
	//DEBUG_VALUE: hufs_manual_bkops_config:sdev <- [DW_OP_LLVM_entry_value 1] $x0
	.loc	167 419 23 is_stmt 1            // kernel/platform_source/basicplatform/drivers/scsi/ufs/hufs-bkops.c:419:23
	adrp	x8, ufs_bkops_ops
	add	x8, x8, :lo12:ufs_bkops_ops
	mov	w19, #1
	mov	w9, #3600
	.loc	167 417 17                      // kernel/platform_source/basicplatform/drivers/scsi/ufs/hufs-bkops.c:417:17
	str	x20, [x26, #26224]
	.loc	167 418 24                      // kernel/platform_source/basicplatform/drivers/scsi/ufs/hufs-bkops.c:418:24
	stp	x8, x11, [x20, #8]
	.loc	167 420 28                      // kernel/platform_source/basicplatform/drivers/scsi/ufs/hufs-bkops.c:420:28
	str	w19, [x20, #204]
	.loc	167 421 34                      // kernel/platform_source/basicplatform/drivers/scsi/ufs/hufs-bkops.c:421:34
	str	x9, [x20, #208]
.Ltmp98:
	.loc	167 423 56                      // kernel/platform_source/basicplatform/drivers/scsi/ufs/hufs-bkops.c:423:56
	ldr	x2, [x26, #24384]
	.loc	167 423 6 is_stmt 0             // kernel/platform_source/basicplatform/drivers/scsi/ufs/hufs-bkops.c:423:6
	mov	x1, x20
	bl	mas_bkops_enable
.Ltmp99:
	.loc	167 423 6                       // kernel/platform_source/basicplatform/drivers/scsi/ufs/hufs-bkops.c:423:6
	cbz	w0, .LBB2_31
.Ltmp100:
// %bb.30:
	//DEBUG_VALUE: hufs_manual_bkops_config:ufs_bkops <- $x20
	//DEBUG_VALUE: hufs_manual_bkops_config:hba <- [DW_OP_plus_uconst 8] [$sp+0]
	//DEBUG_VALUE: hufs_manual_bkops_config:q <- [DW_OP_plus_uconst 16] [$sp+0]
	//DEBUG_VALUE: hufs_manual_bkops_config:sdev <- [DW_OP_LLVM_entry_value 1] $x0
	//DEBUG_LABEL: hufs_manual_bkops_config:free_ufs_bkops
	.loc	167 434 2 is_stmt 1             // kernel/platform_source/basicplatform/drivers/scsi/ufs/hufs-bkops.c:434:2
	mov	x0, x20
	bl	kfree
.Ltmp101:
	.loc	167 0 2 is_stmt 0               // kernel/platform_source/basicplatform/drivers/scsi/ufs/hufs-bkops.c:0:2
	mov	w0, #-11
	b	.LBB2_32
.Ltmp102:
.LBB2_31:
	//DEBUG_VALUE: hufs_manual_bkops_config:ufs_bkops <- $x20
	//DEBUG_VALUE: hufs_manual_bkops_config:hba <- [DW_OP_plus_uconst 8] [$sp+0]
	//DEBUG_VALUE: hufs_manual_bkops_config:q <- [DW_OP_plus_uconst 16] [$sp+0]
	//DEBUG_VALUE: hufs_manual_bkops_config:sdev <- [DW_OP_LLVM_entry_value 1] $x0
	ldur	x8, [x29, #-8]                  // 8-byte Folded Reload
	.loc	167 426 25 is_stmt 1            // kernel/platform_source/basicplatform/drivers/scsi/ufs/hufs-bkops.c:426:25
	strb	w19, [x8, #40]
.Ltmp103:
.LBB2_32:
	.loc	167 436 1                       // kernel/platform_source/basicplatform/drivers/scsi/ufs/hufs-bkops.c:436:1
	ldp	x20, x19, [sp, #112]            // 16-byte Folded Reload
	ldp	x22, x21, [sp, #96]             // 16-byte Folded Reload
	ldp	x24, x23, [sp, #80]             // 16-byte Folded Reload
	ldp	x26, x25, [sp, #64]             // 16-byte Folded Reload
	ldp	x28, x27, [sp, #48]             // 16-byte Folded Reload
	ldp	x29, x30, [sp, #32]             // 16-byte Folded Reload
	add	sp, sp, #128                    // =128
	hint	#29
	ret
.Ltmp104:
.Lfunc_end2:
	.size	hufs_manual_bkops_config, .Lfunc_end2-hufs_manual_bkops_config
	.cfi_endproc
	.file	185 "/mnt/disk/jenkins/ci/workspace/chipset_pipeline_release/opensource/component_code/vendor/huawei/extra/build/build_script/kirin_kernel_release" "kernel/include/linux/slab.h"
                                        // -- End function
	.p2align	2                               // -- Begin function ufshcd_1861_bkops_query
	.type	ufshcd_1861_bkops_query,@function
ufshcd_1861_bkops_query:                // @ufshcd_1861_bkops_query
.Lfunc_begin3:
	.loc	167 143 0                       // kernel/platform_source/basicplatform/drivers/scsi/ufs/hufs-bkops.c:143:0
	.cfi_startproc
// %bb.0:
	.loc	167 144 6 prologue_end          // kernel/platform_source/basicplatform/drivers/scsi/ufs/hufs-bkops.c:144:6
	hint	#34
.Ltmp105:
	//DEBUG_VALUE: ufshcd_1861_bkops_query:hba <- $x0
	//DEBUG_VALUE: ufshcd_1861_bkops_query:status <- $x1
	//DEBUG_VALUE: ufshcd_1861_bkops_query:status <- $x1
	//DEBUG_VALUE: ufshcd_1861_bkops_query:hba <- $x0
	cbz	x1, .LBB3_2
.Ltmp106:
// %bb.1:
	//DEBUG_VALUE: ufshcd_1861_bkops_query:status <- $x1
	//DEBUG_VALUE: ufshcd_1861_bkops_query:hba <- $x0
	hint	#25
	.cfi_negate_ra_state
	stp	x29, x30, [sp, #-16]!           // 16-byte Folded Spill
	mov	x29, sp
	.cfi_def_cfa w29, 16
	.cfi_offset w30, -8
	.cfi_offset w29, -16
	mov	x2, x1
.Ltmp107:
	//DEBUG_VALUE: ufshcd_1861_bkops_query:status <- $x2
	.loc	167 147 9                       // kernel/platform_source/basicplatform/drivers/scsi/ufs/hufs-bkops.c:147:9
	mov	w1, #242
	bl	ufshcd_query_hi1861_bkops
.Ltmp108:
	//DEBUG_VALUE: ufshcd_1861_bkops_query:hba <- [DW_OP_LLVM_entry_value 1] $x0
	.loc	167 0 9 is_stmt 0               // kernel/platform_source/basicplatform/drivers/scsi/ufs/hufs-bkops.c:0:9
	ldp	x29, x30, [sp], #16             // 16-byte Folded Reload
	hint	#29
	.loc	167 149 1 is_stmt 1             // kernel/platform_source/basicplatform/drivers/scsi/ufs/hufs-bkops.c:149:1
	ret
.Ltmp109:
.LBB3_2:
	//DEBUG_VALUE: ufshcd_1861_bkops_query:status <- $x1
	//DEBUG_VALUE: ufshcd_1861_bkops_query:hba <- $x0
	.loc	167 0 1 is_stmt 0               // kernel/platform_source/basicplatform/drivers/scsi/ufs/hufs-bkops.c:0:1
	mov	w0, #-22
.Ltmp110:
	//DEBUG_VALUE: ufshcd_1861_bkops_query:hba <- [DW_OP_LLVM_entry_value 1] $x0
	.loc	167 149 1                       // kernel/platform_source/basicplatform/drivers/scsi/ufs/hufs-bkops.c:149:1
	ret
.Ltmp111:
.Lfunc_end3:
	.size	ufshcd_1861_bkops_query, .Lfunc_end3-ufshcd_1861_bkops_query
	.cfi_endproc
                                        // -- End function
	.p2align	2                               // -- Begin function ufshcd_1861_bkops_start
	.type	ufshcd_1861_bkops_start,@function
ufshcd_1861_bkops_start:                // @ufshcd_1861_bkops_start
.Lfunc_begin4:
	.loc	167 152 0 is_stmt 1             // kernel/platform_source/basicplatform/drivers/scsi/ufs/hufs-bkops.c:152:0
	.cfi_startproc
// %bb.0:
	//DEBUG_VALUE: ufshcd_1861_bkops_start:hba <- $x0
	//DEBUG_VALUE: ufshcd_1861_bkops_start:hba <- $x0
	hint	#25
	.cfi_negate_ra_state
	stp	x29, x30, [sp, #-16]!           // 16-byte Folded Spill
	mov	x29, sp
	.cfi_def_cfa w29, 16
	.cfi_offset w30, -8
	.cfi_offset w29, -16
.Ltmp112:
	.loc	167 153 9 prologue_end          // kernel/platform_source/basicplatform/drivers/scsi/ufs/hufs-bkops.c:153:9
	mov	w1, #240
	//DEBUG_VALUE: ufshcd_1861_bkops_start:hba <- $x0
	mov	x2, xzr
	bl	ufshcd_query_hi1861_bkops
.Ltmp113:
	//DEBUG_VALUE: ufshcd_1861_bkops_start:hba <- [DW_OP_LLVM_entry_value 1] $x0
	.loc	167 153 2 is_stmt 0             // kernel/platform_source/basicplatform/drivers/scsi/ufs/hufs-bkops.c:153:2
	ldp	x29, x30, [sp], #16             // 16-byte Folded Reload
	hint	#29
	ret
.Ltmp114:
.Lfunc_end4:
	.size	ufshcd_1861_bkops_start, .Lfunc_end4-ufshcd_1861_bkops_start
	.cfi_endproc
                                        // -- End function
	.p2align	2                               // -- Begin function ufshcd_1861_bkops_stop
	.type	ufshcd_1861_bkops_stop,@function
ufshcd_1861_bkops_stop:                 // @ufshcd_1861_bkops_stop
.Lfunc_begin5:
	.loc	167 158 0 is_stmt 1             // kernel/platform_source/basicplatform/drivers/scsi/ufs/hufs-bkops.c:158:0
	.cfi_startproc
// %bb.0:
	//DEBUG_VALUE: ufshcd_1861_bkops_stop:hba <- $x0
	//DEBUG_VALUE: ufshcd_1861_bkops_stop:hba <- $x0
	hint	#25
	.cfi_negate_ra_state
	stp	x29, x30, [sp, #-16]!           // 16-byte Folded Spill
	mov	x29, sp
	.cfi_def_cfa w29, 16
	.cfi_offset w30, -8
	.cfi_offset w29, -16
.Ltmp115:
	.loc	167 159 9 prologue_end          // kernel/platform_source/basicplatform/drivers/scsi/ufs/hufs-bkops.c:159:9
	mov	w1, #241
	//DEBUG_VALUE: ufshcd_1861_bkops_stop:hba <- $x0
	mov	x2, xzr
	bl	ufshcd_query_hi1861_bkops
.Ltmp116:
	//DEBUG_VALUE: ufshcd_1861_bkops_stop:hba <- [DW_OP_LLVM_entry_value 1] $x0
	.loc	167 159 2 is_stmt 0             // kernel/platform_source/basicplatform/drivers/scsi/ufs/hufs-bkops.c:159:2
	ldp	x29, x30, [sp], #16             // 16-byte Folded Reload
	hint	#29
	ret
.Ltmp117:
.Lfunc_end5:
	.size	ufshcd_1861_bkops_stop, .Lfunc_end5-ufshcd_1861_bkops_stop
	.cfi_endproc
                                        // -- End function
	.p2align	2                               // -- Begin function ufshcd_query_hi1861_bkops
	.type	ufshcd_query_hi1861_bkops,@function
ufshcd_query_hi1861_bkops:              // @ufshcd_query_hi1861_bkops
.Lfunc_begin6:
	.loc	167 100 0 is_stmt 1             // kernel/platform_source/basicplatform/drivers/scsi/ufs/hufs-bkops.c:100:0
	.cfi_startproc
// %bb.0:
	//DEBUG_VALUE: ufshcd_query_hi1861_bkops:hba <- $x0
	//DEBUG_VALUE: ufshcd_query_hi1861_bkops:opcode <- $w1
	//DEBUG_VALUE: ufshcd_query_hi1861_bkops:bkops_status <- $x2
	//DEBUG_VALUE: ufshcd_query_hi1861_bkops:bkops_status <- $x2
	//DEBUG_VALUE: ufshcd_query_hi1861_bkops:opcode <- $w1
	//DEBUG_VALUE: ufshcd_query_hi1861_bkops:hba <- $x0
	hint	#25
	.cfi_negate_ra_state
	sub	sp, sp, #80                     // =80
	stp	x29, x30, [sp, #16]             // 16-byte Folded Spill
	str	x23, [sp, #32]                  // 8-byte Folded Spill
	stp	x22, x21, [sp, #48]             // 16-byte Folded Spill
	stp	x20, x19, [sp, #64]             // 16-byte Folded Spill
	add	x29, sp, #16                    // =16
	.cfi_def_cfa w29, 64
	.cfi_offset w19, -8
	.cfi_offset w20, -16
	.cfi_offset w21, -24
	.cfi_offset w22, -32
	.cfi_offset w23, -48
	.cfi_offset w30, -56
	.cfi_offset w29, -64
.Ltmp118:
	//DEBUG_VALUE: ufshcd_query_hi1861_bkops:request <- 0
	.loc	167 101 24 prologue_end         // kernel/platform_source/basicplatform/drivers/scsi/ufs/hufs-bkops.c:101:24
	str	xzr, [x29, #24]
.Ltmp119:
	//DEBUG_VALUE: ufshcd_query_hi1861_bkops:response <- 0
	.loc	167 102 24                      // kernel/platform_source/basicplatform/drivers/scsi/ufs/hufs-bkops.c:102:24
	str	xzr, [sp, #8]
.Ltmp120:
	.loc	167 106 2                       // kernel/platform_source/basicplatform/drivers/scsi/ufs/hufs-bkops.c:106:2
	cbz	x0, .LBB6_15
.Ltmp121:
// %bb.1:
	//DEBUG_VALUE: ufshcd_query_hi1861_bkops:bkops_status <- $x2
	//DEBUG_VALUE: ufshcd_query_hi1861_bkops:hba <- $x0
	//DEBUG_VALUE: ufshcd_query_hi1861_bkops:opcode <- $w1
	//DEBUG_VALUE: ufshcd_query_hi1861_bkops:response <- 0
	//DEBUG_VALUE: ufshcd_query_hi1861_bkops:request <- 0
	.loc	167 108 2                       // kernel/platform_source/basicplatform/drivers/scsi/ufs/hufs-bkops.c:108:2
	ldr	x8, [x0, #15344]
	mov	x22, x0
.Ltmp122:
	//DEBUG_VALUE: ufshcd_query_hi1861_bkops:hba <- $x22
	//DEBUG_VALUE: ufshcd_query_hi1861_bkops:hba <- $x22
	.loc	167 0 2 is_stmt 0               // kernel/platform_source/basicplatform/drivers/scsi/ufs/hufs-bkops.c:0:2
	mov	x21, x2
.Ltmp123:
	//DEBUG_VALUE: ufshcd_query_hi1861_bkops:bkops_status <- $x21
	//DEBUG_VALUE: ufshcd_query_hi1861_bkops:bkops_status <- $x21
	mov	w23, w1
.Ltmp124:
	//DEBUG_VALUE: ufshcd_query_hi1861_bkops:opcode <- $w23
	//DEBUG_VALUE: ufshcd_query_hi1861_bkops:opcode <- $w23
	.loc	167 108 2                       // kernel/platform_source/basicplatform/drivers/scsi/ufs/hufs-bkops.c:108:2
	ldr	x0, [x8, #72]
.Ltmp125:
	//DEBUG_VALUE: spinlock_check:lock <- $x0
	bl	_raw_spin_lock_irqsave
.Ltmp126:
	.loc	167 0 0                         // kernel/platform_source/basicplatform/drivers/scsi/ufs/hufs-bkops.c:0:0
	ldr	x8, [x22, #15344]
	mov	w9, #17648
.Ltmp127:
	.loc	167 109 11 is_stmt 1            // kernel/platform_source/basicplatform/drivers/scsi/ufs/hufs-bkops.c:109:11
	ldr	w19, [x22, x9]
.Ltmp128:
	.loc	167 108 2                       // kernel/platform_source/basicplatform/drivers/scsi/ufs/hufs-bkops.c:108:2
	mov	x1, x0
.Ltmp129:
	//DEBUG_VALUE: spin_unlock_irqrestore:flags <- $x1
	//DEBUG_VALUE: spin_unlock_irqrestore:flags <- $x1
	//DEBUG_VALUE: ufshcd_query_hi1861_bkops:flags <- $x1
	.loc	167 0 0 is_stmt 0               // kernel/platform_source/basicplatform/drivers/scsi/ufs/hufs-bkops.c:0:0
	ldr	x8, [x8, #72]
.Ltmp130:
	//DEBUG_VALUE: spin_unlock_irqrestore:lock <- $x8
	//DEBUG_VALUE: spin_unlock_irqrestore:lock <- $x8
	mov	x0, x8
	bl	_raw_spin_unlock_irqrestore
.Ltmp131:
	.loc	167 109 6 is_stmt 1             // kernel/platform_source/basicplatform/drivers/scsi/ufs/hufs-bkops.c:109:6
	cmp	w19, #2                         // =2
	b.ne	.LBB6_4
.Ltmp132:
// %bb.2:
	//DEBUG_VALUE: ufshcd_query_hi1861_bkops:hba <- $x22
	//DEBUG_VALUE: ufshcd_query_hi1861_bkops:bkops_status <- $x21
	//DEBUG_VALUE: ufshcd_query_hi1861_bkops:opcode <- $w23
	//DEBUG_VALUE: ufshcd_query_hi1861_bkops:response <- 0
	//DEBUG_VALUE: ufshcd_query_hi1861_bkops:request <- 0
	.loc	167 0 6 is_stmt 0               // kernel/platform_source/basicplatform/drivers/scsi/ufs/hufs-bkops.c:0:6
	mov	w8, #23352
	.loc	167 116 19 is_stmt 1            // kernel/platform_source/basicplatform/drivers/scsi/ufs/hufs-bkops.c:116:19
	add	x19, x22, x8
	.loc	167 116 2 is_stmt 0             // kernel/platform_source/basicplatform/drivers/scsi/ufs/hufs-bkops.c:116:2
	mov	x0, x19
	bl	mutex_lock
.Ltmp133:
	.loc	167 0 2                         // kernel/platform_source/basicplatform/drivers/scsi/ufs/hufs-bkops.c:0:2
	mov	w8, #20320
	.loc	167 117 27 is_stmt 1            // kernel/platform_source/basicplatform/drivers/scsi/ufs/hufs-bkops.c:117:27
	add	x20, x22, x8
	.loc	167 117 2 is_stmt 0             // kernel/platform_source/basicplatform/drivers/scsi/ufs/hufs-bkops.c:117:2
	mov	x0, x20
	bl	mutex_lock
.Ltmp134:
	//DEBUG_VALUE: ufshcd_query_hi1861_bkops:response <- [DW_OP_plus_uconst 8, DW_OP_deref] $sp
	//DEBUG_VALUE: ufshcd_query_hi1861_bkops:request <- [DW_OP_plus_uconst 24, DW_OP_deref] $fp
	.loc	167 119 2 is_stmt 1             // kernel/platform_source/basicplatform/drivers/scsi/ufs/hufs-bkops.c:119:2
	add	x1, x29, #24                    // =24
	add	x2, sp, #8                      // =8
	mov	x0, x22
	mov	w3, w23
	mov	w4, wzr
	mov	w5, wzr
	mov	w6, wzr
	bl	ufshcd_init_query
.Ltmp135:
	.loc	167 121 36                      // kernel/platform_source/basicplatform/drivers/scsi/ufs/hufs-bkops.c:121:36
	ldr	x8, [x29, #24]
.Ltmp136:
	//DEBUG_VALUE: mas_bkops_upiu_query_opcode:bkops_status <- $x21
	//DEBUG_VALUE: mas_bkops_upiu_query_opcode:opcode <- $w23
	//DEBUG_VALUE: mas_bkops_upiu_query_opcode:hba <- $x22
	//DEBUG_VALUE: mas_bkops_upiu_query_opcode:request <- $x8
	//DEBUG_VALUE: ufshcd_query_hi1861_bkops:request <- $x8
	.loc	167 71 2                        // kernel/platform_source/basicplatform/drivers/scsi/ufs/hufs-bkops.c:71:2
	sub	w9, w23, #240                   // =240
	cmp	w9, #2                          // =2
	b.hs	.LBB6_5
.Ltmp137:
// %bb.3:
	//DEBUG_VALUE: mas_bkops_upiu_query_opcode:hba <- $x22
	//DEBUG_VALUE: ufshcd_query_hi1861_bkops:hba <- $x22
	//DEBUG_VALUE: mas_bkops_upiu_query_opcode:bkops_status <- $x21
	//DEBUG_VALUE: ufshcd_query_hi1861_bkops:bkops_status <- $x21
	//DEBUG_VALUE: ufshcd_query_hi1861_bkops:request <- $x8
	//DEBUG_VALUE: mas_bkops_upiu_query_opcode:request <- $x8
	//DEBUG_VALUE: mas_bkops_upiu_query_opcode:opcode <- $w23
	//DEBUG_VALUE: ufshcd_query_hi1861_bkops:opcode <- $w23
	//DEBUG_VALUE: ufshcd_query_hi1861_bkops:response <- [DW_OP_plus_uconst 8, DW_OP_deref] $sp
	.loc	167 0 2 is_stmt 0               // kernel/platform_source/basicplatform/drivers/scsi/ufs/hufs-bkops.c:0:2
	mov	w9, #129
.Ltmp138:
	.loc	167 75 23 is_stmt 1             // kernel/platform_source/basicplatform/drivers/scsi/ufs/hufs-bkops.c:75:23
	strb	w9, [x8]
	b	.LBB6_7
.Ltmp139:
.LBB6_4:
	//DEBUG_VALUE: ufshcd_query_hi1861_bkops:hba <- $x22
	//DEBUG_VALUE: ufshcd_query_hi1861_bkops:bkops_status <- $x21
	//DEBUG_VALUE: ufshcd_query_hi1861_bkops:opcode <- $w23
	//DEBUG_VALUE: ufshcd_query_hi1861_bkops:response <- 0
	//DEBUG_VALUE: ufshcd_query_hi1861_bkops:request <- 0
	.loc	167 0 23 is_stmt 0              // kernel/platform_source/basicplatform/drivers/scsi/ufs/hufs-bkops.c:0:23
	mov	w23, #-16
.Ltmp140:
	//DEBUG_VALUE: ufshcd_query_hi1861_bkops:opcode <- [DW_OP_LLVM_entry_value 1] $w1
	b	.LBB6_11
.Ltmp141:
.LBB6_5:
	//DEBUG_VALUE: mas_bkops_upiu_query_opcode:hba <- $x22
	//DEBUG_VALUE: ufshcd_query_hi1861_bkops:hba <- $x22
	//DEBUG_VALUE: mas_bkops_upiu_query_opcode:bkops_status <- $x21
	//DEBUG_VALUE: ufshcd_query_hi1861_bkops:bkops_status <- $x21
	//DEBUG_VALUE: ufshcd_query_hi1861_bkops:request <- $x8
	//DEBUG_VALUE: mas_bkops_upiu_query_opcode:request <- $x8
	//DEBUG_VALUE: mas_bkops_upiu_query_opcode:opcode <- $w23
	//DEBUG_VALUE: ufshcd_query_hi1861_bkops:opcode <- $w23
	//DEBUG_VALUE: ufshcd_query_hi1861_bkops:response <- [DW_OP_plus_uconst 8, DW_OP_deref] $sp
	.loc	167 71 2 is_stmt 1              // kernel/platform_source/basicplatform/drivers/scsi/ufs/hufs-bkops.c:71:2
	cmp	w23, #242                       // =242
	b.ne	.LBB6_13
.Ltmp142:
// %bb.6:
	//DEBUG_VALUE: mas_bkops_upiu_query_opcode:hba <- $x22
	//DEBUG_VALUE: ufshcd_query_hi1861_bkops:hba <- $x22
	//DEBUG_VALUE: mas_bkops_upiu_query_opcode:bkops_status <- $x21
	//DEBUG_VALUE: ufshcd_query_hi1861_bkops:bkops_status <- $x21
	//DEBUG_VALUE: ufshcd_query_hi1861_bkops:request <- $x8
	//DEBUG_VALUE: mas_bkops_upiu_query_opcode:request <- $x8
	//DEBUG_VALUE: mas_bkops_upiu_query_opcode:opcode <- $w23
	//DEBUG_VALUE: ufshcd_query_hi1861_bkops:opcode <- $w23
	//DEBUG_VALUE: ufshcd_query_hi1861_bkops:response <- [DW_OP_plus_uconst 8, DW_OP_deref] $sp
	.loc	167 0 2 is_stmt 0               // kernel/platform_source/basicplatform/drivers/scsi/ufs/hufs-bkops.c:0:2
	mov	w9, #1
.Ltmp143:
	.loc	167 78 23 is_stmt 1             // kernel/platform_source/basicplatform/drivers/scsi/ufs/hufs-bkops.c:78:23
	strb	w9, [x8]
	.loc	167 79 7                        // kernel/platform_source/basicplatform/drivers/scsi/ufs/hufs-bkops.c:79:7
	cbz	x21, .LBB6_14
.Ltmp144:
.LBB6_7:
	//DEBUG_VALUE: ufshcd_query_hi1861_bkops:hba <- $x22
	//DEBUG_VALUE: ufshcd_query_hi1861_bkops:bkops_status <- $x21
	//DEBUG_VALUE: ufshcd_query_hi1861_bkops:request <- $x8
	//DEBUG_VALUE: ufshcd_query_hi1861_bkops:opcode <- $w23
	//DEBUG_VALUE: ufshcd_query_hi1861_bkops:response <- [DW_OP_plus_uconst 8, DW_OP_deref] $sp
	//DEBUG_VALUE: ufshcd_query_hi1861_bkops:err <- undef
	.loc	167 125 8                       // kernel/platform_source/basicplatform/drivers/scsi/ufs/hufs-bkops.c:125:8
	mov	w1, #1
	mov	w2, #1300
	mov	x0, x22
	bl	ufshcd_exec_dev_cmd
.Ltmp145:
	//DEBUG_VALUE: ufshcd_query_hi1861_bkops:err <- $w0
	.loc	167 126 6                       // kernel/platform_source/basicplatform/drivers/scsi/ufs/hufs-bkops.c:126:6
	cbnz	w0, .LBB6_12
.Ltmp146:
// %bb.8:
	//DEBUG_VALUE: ufshcd_query_hi1861_bkops:hba <- $x22
	//DEBUG_VALUE: ufshcd_query_hi1861_bkops:bkops_status <- $x21
	//DEBUG_VALUE: ufshcd_query_hi1861_bkops:opcode <- $w23
	//DEBUG_VALUE: ufshcd_query_hi1861_bkops:err <- $w0
	//DEBUG_VALUE: ufshcd_query_hi1861_bkops:response <- [DW_OP_plus_uconst 8, DW_OP_deref] $sp
	.loc	167 0 0 is_stmt 0               // kernel/platform_source/basicplatform/drivers/scsi/ufs/hufs-bkops.c:0:0
	mov	w23, wzr
.Ltmp147:
	//DEBUG_VALUE: ufshcd_query_hi1861_bkops:opcode <- [DW_OP_LLVM_entry_value 1] $w1
	.loc	167 132 6 is_stmt 1             // kernel/platform_source/basicplatform/drivers/scsi/ufs/hufs-bkops.c:132:6
	cbz	x21, .LBB6_10
.Ltmp148:
// %bb.9:
	//DEBUG_VALUE: ufshcd_query_hi1861_bkops:hba <- $x22
	//DEBUG_VALUE: ufshcd_query_hi1861_bkops:bkops_status <- $x21
	//DEBUG_VALUE: ufshcd_query_hi1861_bkops:err <- $w0
	//DEBUG_VALUE: ufshcd_query_hi1861_bkops:response <- [DW_OP_plus_uconst 8, DW_OP_deref] $sp
	//DEBUG_VALUE: ufshcd_query_hi1861_bkops:opcode <- [DW_OP_LLVM_entry_value 1] $w1
	.loc	167 134 4                       // kernel/platform_source/basicplatform/drivers/scsi/ufs/hufs-bkops.c:134:4
	ldr	x8, [sp, #8]
.Ltmp149:
	//DEBUG_VALUE: ufshcd_query_hi1861_bkops:response <- $x8
	ldrb	w8, [x8, #19]
.Ltmp150:
	.loc	167 133 17                      // kernel/platform_source/basicplatform/drivers/scsi/ufs/hufs-bkops.c:133:17
	str	w8, [x21]
.Ltmp151:
.LBB6_10:
	//DEBUG_VALUE: ufshcd_query_hi1861_bkops:hba <- $x22
	//DEBUG_VALUE: ufshcd_query_hi1861_bkops:bkops_status <- $x21
	//DEBUG_VALUE: ufshcd_query_hi1861_bkops:opcode <- [DW_OP_LLVM_entry_value 1] $w1
	//DEBUG_VALUE: ufshcd_query_hi1861_bkops:err <- $w23
	//DEBUG_LABEL: ufshcd_query_hi1861_bkops:out_unlock
	.loc	167 137 2                       // kernel/platform_source/basicplatform/drivers/scsi/ufs/hufs-bkops.c:137:2
	mov	x0, x20
	bl	mutex_unlock
.Ltmp152:
	.loc	167 138 2                       // kernel/platform_source/basicplatform/drivers/scsi/ufs/hufs-bkops.c:138:2
	mov	x0, x19
	bl	mutex_unlock
.Ltmp153:
.LBB6_11:
	//DEBUG_VALUE: ufshcd_query_hi1861_bkops:hba <- $x22
	//DEBUG_VALUE: ufshcd_query_hi1861_bkops:bkops_status <- $x21
	//DEBUG_VALUE: ufshcd_query_hi1861_bkops:opcode <- [DW_OP_LLVM_entry_value 1] $w1
	.loc	167 140 1                       // kernel/platform_source/basicplatform/drivers/scsi/ufs/hufs-bkops.c:140:1
	mov	w0, w23
	ldp	x20, x19, [sp, #64]             // 16-byte Folded Reload
	ldp	x22, x21, [sp, #48]             // 16-byte Folded Reload
.Ltmp154:
	//DEBUG_VALUE: ufshcd_query_hi1861_bkops:hba <- [DW_OP_LLVM_entry_value 1] $x0
	//DEBUG_VALUE: ufshcd_query_hi1861_bkops:bkops_status <- [DW_OP_LLVM_entry_value 1] $x2
	ldr	x23, [sp, #32]                  // 8-byte Folded Reload
	ldp	x29, x30, [sp, #16]             // 16-byte Folded Reload
	add	sp, sp, #80                     // =80
	hint	#29
	ret
.Ltmp155:
.LBB6_12:
	//DEBUG_VALUE: ufshcd_query_hi1861_bkops:hba <- $x22
	//DEBUG_VALUE: ufshcd_query_hi1861_bkops:bkops_status <- $x21
	//DEBUG_VALUE: ufshcd_query_hi1861_bkops:opcode <- $w23
	//DEBUG_VALUE: ufshcd_query_hi1861_bkops:err <- $w0
	//DEBUG_VALUE: ufshcd_query_hi1861_bkops:response <- [DW_OP_plus_uconst 8, DW_OP_deref] $sp
	.loc	167 0 0 is_stmt 0               // kernel/platform_source/basicplatform/drivers/scsi/ufs/hufs-bkops.c:0:0
	mov	w23, w0
.Ltmp156:
	//DEBUG_VALUE: ufshcd_query_hi1861_bkops:err <- $w23
	//DEBUG_VALUE: ufshcd_query_hi1861_bkops:opcode <- [DW_OP_LLVM_entry_value 1] $w1
	//DEBUG_VALUE: ufshcd_query_hi1861_bkops:err <- $w23
	.loc	167 127 3 is_stmt 1             // kernel/platform_source/basicplatform/drivers/scsi/ufs/hufs-bkops.c:127:3
	ldr	x0, [x22, #15352]
	adrp	x1, .L.str.5
	adrp	x2, .L__func__.ufshcd_query_hi1861_bkops
	add	x1, x1, :lo12:.L.str.5
	add	x2, x2, :lo12:.L__func__.ufshcd_query_hi1861_bkops
	mov	w3, w23
	bl	_dev_err
.Ltmp157:
	.loc	167 0 3 is_stmt 0               // kernel/platform_source/basicplatform/drivers/scsi/ufs/hufs-bkops.c:0:3
	b	.LBB6_10
.Ltmp158:
.LBB6_13:
	//DEBUG_VALUE: mas_bkops_upiu_query_opcode:hba <- $x22
	//DEBUG_VALUE: ufshcd_query_hi1861_bkops:hba <- $x22
	//DEBUG_VALUE: mas_bkops_upiu_query_opcode:bkops_status <- $x21
	//DEBUG_VALUE: ufshcd_query_hi1861_bkops:bkops_status <- $x21
	//DEBUG_VALUE: ufshcd_query_hi1861_bkops:request <- $x8
	//DEBUG_VALUE: mas_bkops_upiu_query_opcode:request <- $x8
	//DEBUG_VALUE: mas_bkops_upiu_query_opcode:opcode <- $w23
	//DEBUG_VALUE: ufshcd_query_hi1861_bkops:opcode <- $w23
	//DEBUG_VALUE: ufshcd_query_hi1861_bkops:response <- [DW_OP_plus_uconst 8, DW_OP_deref] $sp
	.loc	167 88 3 is_stmt 1              // kernel/platform_source/basicplatform/drivers/scsi/ufs/hufs-bkops.c:88:3
	ldr	x0, [x22, #15352]
	adrp	x1, .L.str.7
	adrp	x2, .L__func__.mas_bkops_upiu_query_opcode
	add	x1, x1, :lo12:.L.str.7
	add	x2, x2, :lo12:.L__func__.mas_bkops_upiu_query_opcode
	mov	w3, w23
	bl	_dev_err
.Ltmp159:
	.loc	167 0 3 is_stmt 0               // kernel/platform_source/basicplatform/drivers/scsi/ufs/hufs-bkops.c:0:3
	mov	w23, #-22
.Ltmp160:
	//DEBUG_VALUE: ufshcd_query_hi1861_bkops:opcode <- [DW_OP_LLVM_entry_value 1] $w1
	//DEBUG_VALUE: mas_bkops_upiu_query_opcode:err <- -22
	b	.LBB6_10
.Ltmp161:
.LBB6_14:
	//DEBUG_VALUE: mas_bkops_upiu_query_opcode:hba <- $x22
	//DEBUG_VALUE: ufshcd_query_hi1861_bkops:hba <- $x22
	//DEBUG_VALUE: mas_bkops_upiu_query_opcode:bkops_status <- $x21
	//DEBUG_VALUE: ufshcd_query_hi1861_bkops:bkops_status <- $x21
	//DEBUG_VALUE: ufshcd_query_hi1861_bkops:request <- $x8
	//DEBUG_VALUE: mas_bkops_upiu_query_opcode:request <- $x8
	//DEBUG_VALUE: mas_bkops_upiu_query_opcode:opcode <- $w23
	//DEBUG_VALUE: ufshcd_query_hi1861_bkops:opcode <- $w23
	//DEBUG_VALUE: ufshcd_query_hi1861_bkops:response <- [DW_OP_plus_uconst 8, DW_OP_deref] $sp
	.loc	167 80 4 is_stmt 1              // kernel/platform_source/basicplatform/drivers/scsi/ufs/hufs-bkops.c:80:4
	ldr	x0, [x22, #15352]
	adrp	x1, .L.str.6
	adrp	x2, .L__func__.mas_bkops_upiu_query_opcode
	add	x1, x1, :lo12:.L.str.6
	add	x2, x2, :lo12:.L__func__.mas_bkops_upiu_query_opcode
	bl	_dev_err
.Ltmp162:
	.loc	167 0 4 is_stmt 0               // kernel/platform_source/basicplatform/drivers/scsi/ufs/hufs-bkops.c:0:4
	mov	w23, #-22
.Ltmp163:
	//DEBUG_VALUE: ufshcd_query_hi1861_bkops:opcode <- [DW_OP_LLVM_entry_value 1] $w1
	//DEBUG_VALUE: mas_bkops_upiu_query_opcode:err <- -22
	b	.LBB6_10
.Ltmp164:
.LBB6_15:
	//DEBUG_VALUE: ufshcd_query_hi1861_bkops:bkops_status <- $x2
	//DEBUG_VALUE: ufshcd_query_hi1861_bkops:hba <- $x0
	//DEBUG_VALUE: ufshcd_query_hi1861_bkops:opcode <- $w1
	//DEBUG_VALUE: ufshcd_query_hi1861_bkops:response <- 0
	//DEBUG_VALUE: ufshcd_query_hi1861_bkops:request <- 0
	.loc	167 106 2 is_stmt 1             // kernel/platform_source/basicplatform/drivers/scsi/ufs/hufs-bkops.c:106:2
	//APP
	.section	__bug_table,"aw",@progbits
	.p2align	2
.Ltmp165:
	.word	.Ltmp166-.Ltmp165
	.section	.rodata.str,"aMS",@progbits,1
.Ltmp167:
	.ascii	"platform_source/basicplatform/drivers/scsi/ufs/hufs-bkops.c"
	.byte	0
	.section	__bug_table,"aw",@progbits
	.word	.Ltmp167-.Ltmp165
	.hword	106
	.hword	0
	.text
.Ltmp166:
	brk	#0x800
	//NO_APP
.Ltmp168:
.Lfunc_end6:
	.size	ufshcd_query_hi1861_bkops, .Lfunc_end6-ufshcd_query_hi1861_bkops
	.cfi_endproc
	.file	186 "/mnt/disk/jenkins/ci/workspace/chipset_pipeline_release/opensource/component_code/vendor/huawei/extra/build/build_script/kirin_kernel_release" "kernel/include/linux/spinlock_api_smp.h"
	.file	187 "/mnt/disk/jenkins/ci/workspace/chipset_pipeline_release/opensource/component_code/vendor/huawei/extra/build/build_script/kirin_kernel_release" "kernel/include/linux/dev_printk.h"
                                        // -- End function
	.p2align	2                               // -- Begin function ufshcd_hynix_bkops_query
	.type	ufshcd_hynix_bkops_query,@function
ufshcd_hynix_bkops_query:               // @ufshcd_hynix_bkops_query
.Lfunc_begin7:
	.loc	167 170 0                       // kernel/platform_source/basicplatform/drivers/scsi/ufs/hufs-bkops.c:170:0
	.cfi_startproc
// %bb.0:
	.loc	167 171 6 prologue_end          // kernel/platform_source/basicplatform/drivers/scsi/ufs/hufs-bkops.c:171:6
	hint	#34
.Ltmp169:
	//DEBUG_VALUE: ufshcd_hynix_bkops_query:hba <- $x0
	//DEBUG_VALUE: ufshcd_hynix_bkops_query:status <- $x1
	//DEBUG_VALUE: ufshcd_hynix_bkops_query:status <- $x1
	//DEBUG_VALUE: ufshcd_hynix_bkops_query:hba <- $x0
	cbz	x1, .LBB7_2
.Ltmp170:
// %bb.1:
	//DEBUG_VALUE: ufshcd_hynix_bkops_query:status <- $x1
	//DEBUG_VALUE: ufshcd_hynix_bkops_query:hba <- $x0
	hint	#25
	.cfi_negate_ra_state
	stp	x29, x30, [sp, #-16]!           // 16-byte Folded Spill
	mov	x29, sp
	.cfi_def_cfa w29, 16
	.cfi_offset w30, -8
	.cfi_offset w29, -16
	mov	x5, x1
.Ltmp171:
	//DEBUG_VALUE: ufshcd_hynix_bkops_query:status <- $x5
	.loc	167 174 9                       // kernel/platform_source/basicplatform/drivers/scsi/ufs/hufs-bkops.c:174:9
	mov	w1, #3
	mov	w2, #19
	mov	w3, wzr
	mov	w4, wzr
	bl	ufshcd_query_attr_safe
.Ltmp172:
	//DEBUG_VALUE: ufshcd_hynix_bkops_query:hba <- [DW_OP_LLVM_entry_value 1] $x0
	.loc	167 0 9 is_stmt 0               // kernel/platform_source/basicplatform/drivers/scsi/ufs/hufs-bkops.c:0:9
	ldp	x29, x30, [sp], #16             // 16-byte Folded Reload
	hint	#29
	.loc	167 176 1 is_stmt 1             // kernel/platform_source/basicplatform/drivers/scsi/ufs/hufs-bkops.c:176:1
	ret
.Ltmp173:
.LBB7_2:
	//DEBUG_VALUE: ufshcd_hynix_bkops_query:status <- $x1
	//DEBUG_VALUE: ufshcd_hynix_bkops_query:hba <- $x0
	.loc	167 0 1 is_stmt 0               // kernel/platform_source/basicplatform/drivers/scsi/ufs/hufs-bkops.c:0:1
	mov	w0, #-22
.Ltmp174:
	//DEBUG_VALUE: ufshcd_hynix_bkops_query:hba <- [DW_OP_LLVM_entry_value 1] $x0
	.loc	167 176 1                       // kernel/platform_source/basicplatform/drivers/scsi/ufs/hufs-bkops.c:176:1
	ret
.Ltmp175:
.Lfunc_end7:
	.size	ufshcd_hynix_bkops_query, .Lfunc_end7-ufshcd_hynix_bkops_query
	.cfi_endproc
                                        // -- End function
	.p2align	2                               // -- Begin function ufshcd_hynix_bkops_start
	.type	ufshcd_hynix_bkops_start,@function
ufshcd_hynix_bkops_start:               // @ufshcd_hynix_bkops_start
.Lfunc_begin8:
	.loc	167 179 0 is_stmt 1             // kernel/platform_source/basicplatform/drivers/scsi/ufs/hufs-bkops.c:179:0
	.cfi_startproc
// %bb.0:
	//DEBUG_VALUE: ufshcd_hynix_bkops_start:hba <- $x0
	hint	#25
	.cfi_negate_ra_state
	sub	sp, sp, #32                     // =32
	stp	x29, x30, [sp, #16]             // 16-byte Folded Spill
	add	x29, sp, #16                    // =16
	.cfi_def_cfa w29, 16
	.cfi_offset w30, -8
	.cfi_offset w29, -16
	mov	w8, #1
.Ltmp176:
	//DEBUG_VALUE: ufshcd_hynix_bkops_start:val <- 1
	//DEBUG_VALUE: ufshcd_hynix_bkops_start:hba <- $x0
	.loc	167 182 9 prologue_end          // kernel/platform_source/basicplatform/drivers/scsi/ufs/hufs-bkops.c:182:9
	sub	x5, x29, #4                     // =4
	mov	w1, #4
	mov	w2, #18
	//DEBUG_VALUE: ufshcd_hynix_bkops_start:hba <- $x0
	mov	w3, wzr
	mov	w4, wzr
	.loc	167 180 6                       // kernel/platform_source/basicplatform/drivers/scsi/ufs/hufs-bkops.c:180:6
	stur	w8, [x29, #-4]
.Ltmp177:
	//DEBUG_VALUE: ufshcd_hynix_bkops_start:val <- [DW_OP_constu 4, DW_OP_minus, DW_OP_deref] $fp
	.loc	167 182 9                       // kernel/platform_source/basicplatform/drivers/scsi/ufs/hufs-bkops.c:182:9
	bl	ufshcd_query_attr_safe
.Ltmp178:
	//DEBUG_VALUE: ufshcd_hynix_bkops_start:hba <- [DW_OP_LLVM_entry_value 1] $x0
	.loc	167 182 2 is_stmt 0             // kernel/platform_source/basicplatform/drivers/scsi/ufs/hufs-bkops.c:182:2
	ldp	x29, x30, [sp, #16]             // 16-byte Folded Reload
	add	sp, sp, #32                     // =32
	hint	#29
	ret
.Ltmp179:
.Lfunc_end8:
	.size	ufshcd_hynix_bkops_start, .Lfunc_end8-ufshcd_hynix_bkops_start
	.cfi_endproc
                                        // -- End function
	.p2align	2                               // -- Begin function ufshcd_hynix_bkops_stop
	.type	ufshcd_hynix_bkops_stop,@function
ufshcd_hynix_bkops_stop:                // @ufshcd_hynix_bkops_stop
.Lfunc_begin9:
	.loc	167 187 0 is_stmt 1             // kernel/platform_source/basicplatform/drivers/scsi/ufs/hufs-bkops.c:187:0
	.cfi_startproc
// %bb.0:
	//DEBUG_VALUE: ufshcd_hynix_bkops_stop:hba <- $x0
	//DEBUG_VALUE: ufshcd_hynix_bkops_stop:hba <- $x0
	hint	#25
	.cfi_negate_ra_state
	sub	sp, sp, #32                     // =32
	stp	x29, x30, [sp, #16]             // 16-byte Folded Spill
	add	x29, sp, #16                    // =16
	.cfi_def_cfa w29, 16
	.cfi_offset w30, -8
	.cfi_offset w29, -16
.Ltmp180:
	//DEBUG_VALUE: ufshcd_hynix_bkops_stop:val <- 0
	.loc	167 190 9 prologue_end          // kernel/platform_source/basicplatform/drivers/scsi/ufs/hufs-bkops.c:190:9
	sub	x5, x29, #4                     // =4
	mov	w1, #4
	mov	w2, #18
	//DEBUG_VALUE: ufshcd_hynix_bkops_stop:hba <- $x0
	mov	w3, wzr
	mov	w4, wzr
	.loc	167 188 6                       // kernel/platform_source/basicplatform/drivers/scsi/ufs/hufs-bkops.c:188:6
	stur	wzr, [x29, #-4]
.Ltmp181:
	//DEBUG_VALUE: ufshcd_hynix_bkops_stop:val <- [DW_OP_constu 4, DW_OP_minus, DW_OP_deref] $fp
	.loc	167 190 9                       // kernel/platform_source/basicplatform/drivers/scsi/ufs/hufs-bkops.c:190:9
	bl	ufshcd_query_attr_safe
.Ltmp182:
	//DEBUG_VALUE: ufshcd_hynix_bkops_stop:hba <- [DW_OP_LLVM_entry_value 1] $x0
	.loc	167 190 2 is_stmt 0             // kernel/platform_source/basicplatform/drivers/scsi/ufs/hufs-bkops.c:190:2
	ldp	x29, x30, [sp, #16]             // 16-byte Folded Reload
	add	sp, sp, #32                     // =32
	hint	#29
	ret
.Ltmp183:
.Lfunc_end9:
	.size	ufshcd_hynix_bkops_stop, .Lfunc_end9-ufshcd_hynix_bkops_stop
	.cfi_endproc
                                        // -- End function
	.type	.L.str,@object                  // @.str
	.section	.rodata.str1.1,"aMS",@progbits,1
.L.str:
	.asciz	"\0013UFS bkops status query failed!\n"
	.size	.L.str, 34

	.type	.L.str.1,@object                // @.str.1
.L.str.1:
	.asciz	"\0013bkops not supported or has been enabled already!\n"
	.size	.L.str.1, 52

	.type	ufs_bkops_ops,@object           // @ufs_bkops_ops
	.data
	.p2align	3
ufs_bkops_ops:
	.xword	__ufshcd_bkops_start_stop
	.xword	__ufshcd_bkops_status_query
	.size	ufs_bkops_ops, 16

	.type	.L.str.2,@object                // @.str.2
	.section	.rodata.str1.1,"aMS",@progbits,1
.L.str.2:
	.asciz	"\0013UFS bkops start failed!\n"
	.size	.L.str.2, 27

	.type	.L.str.3,@object                // @.str.3
.L.str.3:
	.asciz	"HUFS_MODEL_ANY"
	.size	.L.str.3, 15

	.type	.L.str.4,@object                // @.str.4
.L.str.4:
	.asciz	"HUFS_REV_ANY"
	.size	.L.str.4, 13

	.type	hi1861_bkops_ops,@object        // @hi1861_bkops_ops
	.data
	.p2align	3
hi1861_bkops_ops:
	.xword	ufshcd_1861_bkops_query
	.xword	ufshcd_1861_bkops_start
	.xword	ufshcd_1861_bkops_stop
	.size	hi1861_bkops_ops, 24

	.type	hynix_bkops_ops,@object         // @hynix_bkops_ops
	.p2align	3
hynix_bkops_ops:
	.xword	ufshcd_hynix_bkops_query
	.xword	ufshcd_hynix_bkops_start
	.xword	ufshcd_hynix_bkops_stop
	.size	hynix_bkops_ops, 24

	.type	.L.str.5,@object                // @.str.5
	.section	.rodata.str1.1,"aMS",@progbits,1
.L.str.5:
	.asciz	"%s: Sending bkops query failed, err = %d\n"
	.size	.L.str.5, 42

	.type	.L__func__.ufshcd_query_hi1861_bkops,@object // @__func__.ufshcd_query_hi1861_bkops
.L__func__.ufshcd_query_hi1861_bkops:
	.asciz	"ufshcd_query_hi1861_bkops"
	.size	.L__func__.ufshcd_query_hi1861_bkops, 26

	.type	.L.str.6,@object                // @.str.6
.L.str.6:
	.asciz	"%s: Invalid argument for read request\n"
	.size	.L.str.6, 39

	.type	.L__func__.mas_bkops_upiu_query_opcode,@object // @__func__.mas_bkops_upiu_query_opcode
.L__func__.mas_bkops_upiu_query_opcode:
	.asciz	"mas_bkops_upiu_query_opcode"
	.size	.L__func__.mas_bkops_upiu_query_opcode, 28

	.type	.L.str.7,@object                // @.str.7
.L.str.7:
	.asciz	"%s: Expected query bkops opcode but got = %d\n"
	.size	.L.str.7, 46
