	.text
	.section	.note.gnu.property,"a",@note
	.p2align	3
	.word	4
	.word	16
	.word	5
	.asciz	"GNU"
	.word	3221225472
	.word	4
	.word	3
	.word	0
.Lsec_end0:
	.text
	.file	"mas_blk_gear_ctrl_sysfs.c"
	.file	1 "/mnt/disk/jenkins/ci/workspace/chipset_pipeline_release/opensource/component_code/vendor/huawei/extra/build/build_script/kirin_kernel_release" "kernel/include/linux/blkdev.h"
	.file	2 "/mnt/disk/jenkins/ci/workspace/chipset_pipeline_release/opensource/component_code/vendor/huawei/extra/build/build_script/kirin_kernel_release" "kernel/include/linux/module.h"
	.file	3 "/mnt/disk/jenkins/ci/workspace/chipset_pipeline_release/opensource/component_code/vendor/huawei/extra/build/build_script/kirin_kernel_release" "kernel/include/linux/hrtimer.h"
	.file	4 "/mnt/disk/jenkins/ci/workspace/chipset_pipeline_release/opensource/component_code/vendor/huawei/extra/build/build_script/kirin_kernel_release" "kernel/include/linux/restart_block.h"
	.file	5 "/mnt/disk/jenkins/ci/workspace/chipset_pipeline_release/opensource/component_code/vendor/huawei/extra/build/build_script/kirin_kernel_release" "kernel/include/linux/device/driver.h"
	.file	6 "/mnt/disk/jenkins/ci/workspace/chipset_pipeline_release/opensource/component_code/vendor/huawei/extra/build/build_script/kirin_kernel_release" "kernel/include/linux/device.h"
	.file	7 "/mnt/disk/jenkins/ci/workspace/chipset_pipeline_release/opensource/component_code/vendor/huawei/extra/build/build_script/kirin_kernel_release" "kernel/include/linux/pm.h"
	.file	8 "/mnt/disk/jenkins/ci/workspace/chipset_pipeline_release/opensource/component_code/vendor/huawei/extra/build/build_script/kirin_kernel_release" "kernel/include/linux/kobject_ns.h"
	.file	9 "/mnt/disk/jenkins/ci/workspace/chipset_pipeline_release/opensource/component_code/vendor/huawei/extra/build/build_script/kirin_kernel_release" "kernel/include/linux/backing-dev-defs.h"
	.file	10 "/mnt/disk/jenkins/ci/workspace/chipset_pipeline_release/opensource/component_code/vendor/huawei/extra/build/build_script/kirin_kernel_release" "kernel/include/linux/migrate_mode.h"
	.file	11 "/mnt/disk/jenkins/ci/workspace/chipset_pipeline_release/opensource/component_code/vendor/huawei/extra/build/build_script/kirin_kernel_release" "kernel/include/linux/memremap.h"
	.file	12 "/mnt/disk/jenkins/ci/workspace/chipset_pipeline_release/opensource/component_code/vendor/huawei/extra/build/build_script/kirin_kernel_release" "kernel/include/linux/mm.h"
	.file	13 "/mnt/disk/jenkins/ci/workspace/chipset_pipeline_release/opensource/component_code/vendor/huawei/extra/build/build_script/kirin_kernel_release" "kernel/include/linux/quota.h"
	.file	14 "/mnt/disk/jenkins/ci/workspace/chipset_pipeline_release/opensource/component_code/vendor/huawei/extra/build/build_script/kirin_kernel_release" "kernel/include/linux/fs.h"
	.file	15 "/mnt/disk/jenkins/ci/workspace/chipset_pipeline_release/opensource/component_code/vendor/huawei/extra/build/build_script/kirin_kernel_release" "kernel/include/linux/pid.h"
	.file	16 "/mnt/disk/jenkins/ci/workspace/chipset_pipeline_release/opensource/component_code/vendor/huawei/extra/build/build_script/kirin_kernel_release" "kernel/include/platform_include/basicplatform/linux/mas/mas_blk.h"
	.file	17 "/mnt/disk/jenkins/ci/workspace/chipset_pipeline_release/opensource/component_code/vendor/huawei/extra/build/build_script/kirin_kernel_release" "kernel/include/linux/elevator.h"
	.file	18 "/mnt/disk/jenkins/ci/workspace/chipset_pipeline_release/opensource/component_code/vendor/huawei/extra/build/build_script/kirin_kernel_release" "kernel/include/uapi/asm-generic/posix_types.h"
	.file	19 "/mnt/disk/jenkins/ci/workspace/chipset_pipeline_release/opensource/component_code/vendor/huawei/extra/build/build_script/kirin_kernel_release" "kernel/include/linux/types.h"
	.globl	mas_gear_ctrl_store             // -- Begin function mas_gear_ctrl_store
	.p2align	2
	.type	mas_gear_ctrl_store,@function
mas_gear_ctrl_store:                    // @mas_gear_ctrl_store
.Lfunc_begin0:
	.file	20 "/mnt/disk/jenkins/ci/workspace/chipset_pipeline_release/opensource/component_code/vendor/huawei/extra/build/build_script/kirin_kernel_release" "kernel/platform_source/basicplatform/block/mas_blk_gear_ctrl_sysfs.c"
	.loc	20 33 0                         // kernel/platform_source/basicplatform/block/mas_blk_gear_ctrl_sysfs.c:33:0
	.cfi_sections .debug_frame
	.cfi_startproc
// %bb.0:
	//DEBUG_VALUE: mas_gear_ctrl_store:q <- $x0
	//DEBUG_VALUE: mas_gear_ctrl_store:page <- $x1
	//DEBUG_VALUE: mas_gear_ctrl_store:count <- $x2
	hint	#25
	.cfi_negate_ra_state
	sub	sp, sp, #64                     // =64
	stp	x29, x30, [sp, #16]             // 16-byte Folded Spill
	stp	x22, x21, [sp, #32]             // 16-byte Folded Spill
	stp	x20, x19, [sp, #48]             // 16-byte Folded Spill
	add	x29, sp, #16                    // =16
	.cfi_def_cfa w29, 48
	.cfi_offset w19, -8
	.cfi_offset w20, -16
	.cfi_offset w21, -24
	.cfi_offset w22, -32
	.cfi_offset w30, -40
	.cfi_offset w29, -48
	mov	x19, x2
.Ltmp0:
	//DEBUG_VALUE: mas_gear_ctrl_store:count <- $x19
	mov	x22, x1
.Ltmp1:
	//DEBUG_VALUE: mas_gear_ctrl_store:page <- $x22
	mov	x20, x0
	//DEBUG_VALUE: mas_gear_ctrl_store:count <- $x19
	//DEBUG_VALUE: mas_gear_ctrl_store:page <- $x22
.Ltmp2:
	//DEBUG_VALUE: mas_gear_ctrl_store:q <- $x20
	.loc	20 36 28 prologue_end           // kernel/platform_source/basicplatform/block/mas_blk_gear_ctrl_sysfs.c:36:28
	bl	mas_blk_get_lld
.Ltmp3:
	//DEBUG_VALUE: mas_gear_ctrl_store:lld <- $x0
	.loc	20 38 6                         // kernel/platform_source/basicplatform/block/mas_blk_gear_ctrl_sysfs.c:38:6
	cbz	x0, .LBB0_10
.Ltmp4:
// %bb.1:
	//DEBUG_VALUE: mas_gear_ctrl_store:page <- $x22
	//DEBUG_VALUE: mas_gear_ctrl_store:q <- $x20
	//DEBUG_VALUE: mas_gear_ctrl_store:count <- $x19
	//DEBUG_VALUE: mas_gear_ctrl_store:lld <- $x0
	ldr	x8, [x0, #80]
.Ltmp5:
	.loc	20 0 0 is_stmt 0                // kernel/platform_source/basicplatform/block/mas_blk_gear_ctrl_sysfs.c:0:0
	mov	x21, x0
.Ltmp6:
	//DEBUG_VALUE: mas_gear_ctrl_store:lld <- $x21
	//DEBUG_VALUE: mas_gear_ctrl_store:lld <- $x21
	.loc	20 38 6                         // kernel/platform_source/basicplatform/block/mas_blk_gear_ctrl_sysfs.c:38:6
	cbz	x8, .LBB0_10
.Ltmp7:
// %bb.2:
	//DEBUG_VALUE: mas_gear_ctrl_store:page <- $x22
	//DEBUG_VALUE: mas_gear_ctrl_store:lld <- $x21
	//DEBUG_VALUE: mas_gear_ctrl_store:q <- $x20
	//DEBUG_VALUE: mas_gear_ctrl_store:count <- $x19
	ldr	x9, [x8, #16]
	cbz	x9, .LBB0_10
.Ltmp8:
// %bb.3:
	//DEBUG_VALUE: mas_gear_ctrl_store:page <- $x22
	//DEBUG_VALUE: mas_gear_ctrl_store:lld <- $x21
	//DEBUG_VALUE: mas_gear_ctrl_store:q <- $x20
	//DEBUG_VALUE: mas_gear_ctrl_store:count <- $x19
	ldr	x8, [x8, #24]
.Ltmp9:
	.loc	20 38 6                         // kernel/platform_source/basicplatform/block/mas_blk_gear_ctrl_sysfs.c:38:6
	cbz	x8, .LBB0_10
.Ltmp10:
// %bb.4:
	//DEBUG_VALUE: mas_gear_ctrl_store:page <- $x22
	//DEBUG_VALUE: mas_gear_ctrl_store:lld <- $x21
	//DEBUG_VALUE: mas_gear_ctrl_store:q <- $x20
	//DEBUG_VALUE: mas_gear_ctrl_store:count <- $x19
	.loc	20 0 6                          // kernel/platform_source/basicplatform/block/mas_blk_gear_ctrl_sysfs.c:0:6
	adrp	x8, g_mas_gear_ctrl_device_abandon
	ldrb	w8, [x8, :lo12:g_mas_gear_ctrl_device_abandon]
	.loc	20 38 6                         // kernel/platform_source/basicplatform/block/mas_blk_gear_ctrl_sysfs.c:38:6
	cbnz	w8, .LBB0_10
.Ltmp11:
// %bb.5:
	//DEBUG_VALUE: mas_gear_ctrl_store:page <- $x22
	//DEBUG_VALUE: mas_gear_ctrl_store:lld <- $x21
	//DEBUG_VALUE: mas_gear_ctrl_store:q <- $x20
	//DEBUG_VALUE: mas_gear_ctrl_store:count <- $x19
	//DEBUG_VALUE: mas_gear_ctrl_store:val <- [DW_OP_plus_uconst 8, DW_OP_deref] $sp
	.loc	20 45 8 is_stmt 1               // kernel/platform_source/basicplatform/block/mas_blk_gear_ctrl_sysfs.c:45:8
	add	x0, sp, #8                      // =8
	mov	x1, x22
	mov	x2, x19
	bl	queue_var_store
.Ltmp12:
	//DEBUG_VALUE: mas_gear_ctrl_store:ret <- $x0
	.loc	20 46 6                         // kernel/platform_source/basicplatform/block/mas_blk_gear_ctrl_sysfs.c:46:6
	tbnz	x0, #63, .LBB0_10
.Ltmp13:
// %bb.6:
	//DEBUG_VALUE: mas_gear_ctrl_store:page <- $x22
	//DEBUG_VALUE: mas_gear_ctrl_store:lld <- $x21
	//DEBUG_VALUE: mas_gear_ctrl_store:q <- $x20
	//DEBUG_VALUE: mas_gear_ctrl_store:count <- $x19
	//DEBUG_VALUE: mas_gear_ctrl_store:ret <- $x0
	//DEBUG_VALUE: mas_gear_ctrl_store:val <- [DW_OP_plus_uconst 8, DW_OP_deref] $sp
	.loc	20 49 6                         // kernel/platform_source/basicplatform/block/mas_blk_gear_ctrl_sysfs.c:49:6
	adrp	x22, g_mas_min_gear_level
.Ltmp14:
	ldr	w8, [x22, :lo12:g_mas_min_gear_level]
	mov	w9, #42405
	movk	w9, #42405, lsl #16
.Ltmp15:
	.loc	20 49 6 is_stmt 0               // kernel/platform_source/basicplatform/block/mas_blk_gear_ctrl_sysfs.c:49:6
	cmp	w8, w9
	b.eq	.LBB0_11
.Ltmp16:
.LBB0_7:
	//DEBUG_VALUE: mas_gear_ctrl_store:lld <- $x21
	//DEBUG_VALUE: mas_gear_ctrl_store:q <- $x20
	//DEBUG_VALUE: mas_gear_ctrl_store:count <- $x19
	//DEBUG_VALUE: mas_gear_ctrl_store:val <- [DW_OP_plus_uconst 8, DW_OP_deref] $sp
	.loc	20 55 13 is_stmt 1              // kernel/platform_source/basicplatform/block/mas_blk_gear_ctrl_sysfs.c:55:13
	adrp	x8, g_mas_max_gear_level
	.loc	20 55 6 is_stmt 0               // kernel/platform_source/basicplatform/block/mas_blk_gear_ctrl_sysfs.c:55:6
	ldr	x1, [sp, #8]
.Ltmp17:
	//DEBUG_VALUE: mas_gear_ctrl_store:val <- $x1
	.loc	20 55 13                        // kernel/platform_source/basicplatform/block/mas_blk_gear_ctrl_sysfs.c:55:13
	ldr	w8, [x8, :lo12:g_mas_max_gear_level]
	.loc	20 55 34                        // kernel/platform_source/basicplatform/block/mas_blk_gear_ctrl_sysfs.c:55:34
	cmp	x1, x8
	b.hi	.LBB0_10
.Ltmp18:
// %bb.8:
	//DEBUG_VALUE: mas_gear_ctrl_store:lld <- $x21
	//DEBUG_VALUE: mas_gear_ctrl_store:q <- $x20
	//DEBUG_VALUE: mas_gear_ctrl_store:count <- $x19
	//DEBUG_VALUE: mas_gear_ctrl_store:val <- $x1
	.loc	20 55 44                        // kernel/platform_source/basicplatform/block/mas_blk_gear_ctrl_sysfs.c:55:44
	ldr	w8, [x22, :lo12:g_mas_min_gear_level]
.Ltmp19:
	.loc	20 55 6                         // kernel/platform_source/basicplatform/block/mas_blk_gear_ctrl_sysfs.c:55:6
	cmp	x1, x8
	b.lo	.LBB0_10
.Ltmp20:
// %bb.9:
	//DEBUG_VALUE: mas_gear_ctrl_store:lld <- $x21
	//DEBUG_VALUE: mas_gear_ctrl_store:q <- $x20
	//DEBUG_VALUE: mas_gear_ctrl_store:count <- $x19
	//DEBUG_VALUE: mas_gear_ctrl_store:val <- $x1
	.loc	20 56 3 is_stmt 1               // kernel/platform_source/basicplatform/block/mas_blk_gear_ctrl_sysfs.c:56:3
	mov	x0, x20
                                        // kill: def $w1 killed $w1 killed $x1
	bl	mas_queue_gear_ctrl_change
.Ltmp21:
.LBB0_10:
	//DEBUG_VALUE: mas_gear_ctrl_store:q <- $x20
	//DEBUG_VALUE: mas_gear_ctrl_store:count <- $x19
	//DEBUG_LABEL: mas_gear_ctrl_store:out
	.loc	20 58 2                         // kernel/platform_source/basicplatform/block/mas_blk_gear_ctrl_sysfs.c:58:2
	mov	x0, x19
	ldp	x20, x19, [sp, #48]             // 16-byte Folded Reload
.Ltmp22:
	ldp	x22, x21, [sp, #32]             // 16-byte Folded Reload
	ldp	x29, x30, [sp, #16]             // 16-byte Folded Reload
	add	sp, sp, #64                     // =64
	hint	#29
	ret
.LBB0_11:
.Ltmp23:
	//DEBUG_VALUE: mas_gear_ctrl_store:lld <- $x21
	//DEBUG_VALUE: mas_gear_ctrl_store:q <- $x20
	//DEBUG_VALUE: mas_gear_ctrl_store:count <- $x19
	//DEBUG_VALUE: mas_gear_ctrl_store:ret <- $x0
	//DEBUG_VALUE: mas_gear_ctrl_store:val <- [DW_OP_plus_uconst 8, DW_OP_deref] $sp
	.loc	20 50 14                        // kernel/platform_source/basicplatform/block/mas_blk_gear_ctrl_sysfs.c:50:14
	ldr	x8, [x21, #80]
	.loc	20 50 9 is_stmt 0               // kernel/platform_source/basicplatform/block/mas_blk_gear_ctrl_sysfs.c:50:9
	adrp	x1, g_mas_min_gear_level
	adrp	x2, g_mas_max_gear_level
	add	x1, x1, :lo12:g_mas_min_gear_level
	.loc	20 50 29                        // kernel/platform_source/basicplatform/block/mas_blk_gear_ctrl_sysfs.c:50:29
	ldr	x8, [x8, #24]
	.loc	20 50 9                         // kernel/platform_source/basicplatform/block/mas_blk_gear_ctrl_sysfs.c:50:9
	add	x2, x2, :lo12:g_mas_max_gear_level
	mov	x0, x20
.Ltmp24:
	blr	x8
.Ltmp25:
	//DEBUG_VALUE: mas_gear_ctrl_store:ret <- [DW_OP_LLVM_convert 32 5, DW_OP_LLVM_convert 64 5, DW_OP_stack_value] $w0
	.loc	20 0 9                          // kernel/platform_source/basicplatform/block/mas_blk_gear_ctrl_sysfs.c:0:9
	cbnz	w0, .LBB0_10
	b	.LBB0_7
.Ltmp26:
.Lfunc_end0:
	.size	mas_gear_ctrl_store, .Lfunc_end0-mas_gear_ctrl_store
	.cfi_endproc
	.file	21 "/mnt/disk/jenkins/ci/workspace/chipset_pipeline_release/opensource/component_code/vendor/huawei/extra/build/build_script/kirin_kernel_release" "kernel/include/asm-generic/qspinlock_types.h"
	.file	22 "/mnt/disk/jenkins/ci/workspace/chipset_pipeline_release/opensource/component_code/vendor/huawei/extra/build/build_script/kirin_kernel_release" "kernel/include/uapi/asm-generic/int-ll64.h"
	.file	23 "/mnt/disk/jenkins/ci/workspace/chipset_pipeline_release/opensource/component_code/vendor/huawei/extra/build/build_script/kirin_kernel_release" "kernel/include/asm-generic/int-ll64.h"
	.file	24 "/mnt/disk/jenkins/ci/workspace/chipset_pipeline_release/opensource/component_code/vendor/huawei/extra/build/build_script/kirin_kernel_release" "kernel/include/linux/spinlock_types.h"
	.file	25 "/mnt/disk/jenkins/ci/workspace/chipset_pipeline_release/opensource/component_code/vendor/huawei/extra/build/build_script/kirin_kernel_release" "kernel/block/blk-mq.h"
	.file	26 "/mnt/disk/jenkins/ci/workspace/chipset_pipeline_release/opensource/component_code/vendor/huawei/extra/build/build_script/kirin_kernel_release" "kernel/include/linux/blk-mq.h"
	.file	27 "/mnt/disk/jenkins/ci/workspace/chipset_pipeline_release/opensource/component_code/vendor/huawei/extra/build/build_script/kirin_kernel_release" "kernel/include/asm-generic/atomic-long.h"
	.file	28 "/mnt/disk/jenkins/ci/workspace/chipset_pipeline_release/opensource/component_code/vendor/huawei/extra/build/build_script/kirin_kernel_release" "kernel/include/linux/workqueue.h"
	.file	29 "/mnt/disk/jenkins/ci/workspace/chipset_pipeline_release/opensource/component_code/vendor/huawei/extra/build/build_script/kirin_kernel_release" "kernel/include/linux/timer.h"
	.file	30 "/mnt/disk/jenkins/ci/workspace/chipset_pipeline_release/opensource/component_code/vendor/huawei/extra/build/build_script/kirin_kernel_release" "kernel/include/linux/cpumask.h"
	.file	31 "/mnt/disk/jenkins/ci/workspace/chipset_pipeline_release/opensource/component_code/vendor/huawei/extra/build/build_script/kirin_kernel_release" "kernel/block/blk.h"
	.file	32 "/mnt/disk/jenkins/ci/workspace/chipset_pipeline_release/opensource/component_code/vendor/huawei/extra/build/build_script/kirin_kernel_release" "kernel/include/linux/blk_types.h"
	.file	33 "/mnt/disk/jenkins/ci/workspace/chipset_pipeline_release/opensource/component_code/vendor/huawei/extra/build/build_script/kirin_kernel_release" "kernel/include/linux/lockdep_types.h"
	.file	34 "/mnt/disk/jenkins/ci/workspace/chipset_pipeline_release/opensource/component_code/vendor/huawei/extra/build/build_script/kirin_kernel_release" "kernel/include/linux/sbitmap.h"
	.file	35 "/mnt/disk/jenkins/ci/workspace/chipset_pipeline_release/opensource/component_code/vendor/huawei/extra/build/build_script/kirin_kernel_release" "kernel/include/linux/wait.h"
	.file	36 "/mnt/disk/jenkins/ci/workspace/chipset_pipeline_release/opensource/component_code/vendor/huawei/extra/build/build_script/kirin_kernel_release" "kernel/block/blk-mq-tag.h"
	.file	37 "/mnt/disk/jenkins/ci/workspace/chipset_pipeline_release/opensource/component_code/vendor/huawei/extra/build/build_script/kirin_kernel_release" "kernel/include/linux/seq_file.h"
	.file	38 "/mnt/disk/jenkins/ci/workspace/chipset_pipeline_release/opensource/component_code/vendor/huawei/extra/build/build_script/kirin_kernel_release" "kernel/include/linux/mutex.h"
	.file	39 "/mnt/disk/jenkins/ci/workspace/chipset_pipeline_release/opensource/component_code/vendor/huawei/extra/build/build_script/kirin_kernel_release" "kernel/include/linux/osq_lock.h"
	.file	40 "/mnt/disk/jenkins/ci/workspace/chipset_pipeline_release/opensource/component_code/vendor/huawei/extra/build/build_script/kirin_kernel_release" "kernel/include/linux/llist.h"
	.file	41 "/mnt/disk/jenkins/ci/workspace/chipset_pipeline_release/opensource/component_code/vendor/huawei/extra/build/build_script/kirin_kernel_release" "kernel/include/linux/path.h"
	.file	42 "/mnt/disk/jenkins/ci/workspace/chipset_pipeline_release/opensource/component_code/vendor/huawei/extra/build/build_script/kirin_kernel_release" "kernel/include/linux/dcache.h"
	.file	43 "/mnt/disk/jenkins/ci/workspace/chipset_pipeline_release/opensource/component_code/vendor/huawei/extra/build/build_script/kirin_kernel_release" "kernel/include/linux/seqlock.h"
	.file	44 "/mnt/disk/jenkins/ci/workspace/chipset_pipeline_release/opensource/component_code/vendor/huawei/extra/build/build_script/kirin_kernel_release" "kernel/include/linux/list_bl.h"
	.file	45 "/mnt/disk/jenkins/ci/workspace/chipset_pipeline_release/opensource/component_code/vendor/huawei/extra/build/build_script/kirin_kernel_release" "kernel/include/linux/uidgid.h"
	.file	46 "/mnt/disk/jenkins/ci/workspace/chipset_pipeline_release/opensource/component_code/vendor/huawei/extra/build/build_script/kirin_kernel_release" "kernel/include/linux/delayed_call.h"
	.file	47 "/mnt/disk/jenkins/ci/workspace/chipset_pipeline_release/opensource/component_code/vendor/huawei/extra/build/build_script/kirin_kernel_release" "kernel/include/linux/time64.h"
	.file	48 "/mnt/disk/jenkins/ci/workspace/chipset_pipeline_release/opensource/component_code/vendor/huawei/extra/build/build_script/kirin_kernel_release" "kernel/include/linux/stat.h"
	.file	49 "/mnt/disk/jenkins/ci/workspace/chipset_pipeline_release/opensource/component_code/vendor/huawei/extra/build/build_script/kirin_kernel_release" "kernel/include/linux/kobject.h"
	.file	50 "/mnt/disk/jenkins/ci/workspace/chipset_pipeline_release/opensource/component_code/vendor/huawei/extra/build/build_script/kirin_kernel_release" "kernel/include/linux/sysfs.h"
	.file	51 "/mnt/disk/jenkins/ci/workspace/chipset_pipeline_release/opensource/component_code/vendor/huawei/extra/build/build_script/kirin_kernel_release" "kernel/include/linux/mm_types.h"
	.file	52 "/mnt/disk/jenkins/ci/workspace/chipset_pipeline_release/opensource/component_code/vendor/huawei/extra/build/build_script/kirin_kernel_release" "kernel/include/linux/rbtree.h"
	.file	53 "/mnt/disk/jenkins/ci/workspace/chipset_pipeline_release/opensource/component_code/vendor/huawei/extra/build/build_script/kirin_kernel_release" "kernel/include/asm-generic/qrwlock_types.h"
	.file	54 "/mnt/disk/jenkins/ci/workspace/chipset_pipeline_release/opensource/component_code/vendor/huawei/extra/build/build_script/kirin_kernel_release" "kernel/include/linux/rwlock_types.h"
	.file	55 "/mnt/disk/jenkins/ci/workspace/chipset_pipeline_release/opensource/component_code/vendor/huawei/extra/build/build_script/kirin_kernel_release" "kernel/arch/arm64/include/asm/pgtable-types.h"
	.file	56 "/mnt/disk/jenkins/ci/workspace/chipset_pipeline_release/opensource/component_code/vendor/huawei/extra/build/build_script/kirin_kernel_release" "kernel/include/linux/rwsem.h"
	.file	57 "/mnt/disk/jenkins/ci/workspace/chipset_pipeline_release/opensource/component_code/vendor/huawei/extra/build/build_script/kirin_kernel_release" "kernel/arch/arm64/include/asm/thread_info.h"
	.file	58 "/mnt/disk/jenkins/ci/workspace/chipset_pipeline_release/opensource/component_code/vendor/huawei/extra/build/build_script/kirin_kernel_release" "kernel/include/linux/sched.h"
	.file	59 "/mnt/disk/jenkins/ci/workspace/chipset_pipeline_release/opensource/component_code/vendor/huawei/extra/build/build_script/kirin_kernel_release" "kernel/include/linux/refcount.h"
	.file	60 "/mnt/disk/jenkins/ci/workspace/chipset_pipeline_release/opensource/component_code/vendor/huawei/extra/build/build_script/kirin_kernel_release" "kernel/include/linux/smp_types.h"
	.file	61 "/mnt/disk/jenkins/ci/workspace/chipset_pipeline_release/opensource/component_code/vendor/huawei/extra/build/build_script/kirin_kernel_release" "kernel/include/linux/timerqueue.h"
	.file	62 "/mnt/disk/jenkins/ci/workspace/chipset_pipeline_release/opensource/component_code/vendor/huawei/extra/build/build_script/kirin_kernel_release" "kernel/include/linux/ktime.h"
	.file	63 "/mnt/disk/jenkins/ci/workspace/chipset_pipeline_release/opensource/component_code/vendor/huawei/extra/build/build_script/kirin_kernel_release" "kernel/include/linux/plist.h"
	.file	64 "/mnt/disk/jenkins/ci/workspace/chipset_pipeline_release/opensource/component_code/vendor/huawei/extra/build/build_script/kirin_kernel_release" "kernel/include/linux/mm_types_task.h"
	.file	65 "/mnt/disk/jenkins/ci/workspace/chipset_pipeline_release/opensource/component_code/vendor/huawei/extra/build/build_script/kirin_kernel_release" "kernel/include/uapi/linux/time_types.h"
	.file	66 "/mnt/disk/jenkins/ci/workspace/chipset_pipeline_release/opensource/component_code/vendor/huawei/extra/build/build_script/kirin_kernel_release" "kernel/include/vdso/time32.h"
	.file	67 "/mnt/disk/jenkins/ci/workspace/chipset_pipeline_release/opensource/component_code/vendor/huawei/extra/build/build_script/kirin_kernel_release" "kernel/include/linux/kref.h"
	.file	68 "/mnt/disk/jenkins/ci/workspace/chipset_pipeline_release/opensource/component_code/vendor/huawei/extra/build/build_script/kirin_kernel_release" "kernel/include/linux/pid_namespace.h"
	.file	69 "/mnt/disk/jenkins/ci/workspace/chipset_pipeline_release/opensource/component_code/vendor/huawei/extra/build/build_script/kirin_kernel_release" "kernel/include/linux/xarray.h"
	.file	70 "/mnt/disk/jenkins/ci/workspace/chipset_pipeline_release/opensource/component_code/vendor/huawei/extra/build/build_script/kirin_kernel_release" "kernel/include/linux/idr.h"
	.file	71 "/mnt/disk/jenkins/ci/workspace/chipset_pipeline_release/opensource/component_code/vendor/huawei/extra/build/build_script/kirin_kernel_release" "kernel/include/linux/ns_common.h"
	.file	72 "/mnt/disk/jenkins/ci/workspace/chipset_pipeline_release/opensource/component_code/vendor/huawei/extra/build/build_script/kirin_kernel_release" "kernel/include/linux/completion.h"
	.file	73 "/mnt/disk/jenkins/ci/workspace/chipset_pipeline_release/opensource/component_code/vendor/huawei/extra/build/build_script/kirin_kernel_release" "kernel/include/linux/swait.h"
	.file	74 "/mnt/disk/jenkins/ci/workspace/chipset_pipeline_release/opensource/component_code/vendor/huawei/extra/build/build_script/kirin_kernel_release" "kernel/include/linux/posix-timers.h"
	.file	75 "/mnt/disk/jenkins/ci/workspace/chipset_pipeline_release/opensource/component_code/vendor/huawei/extra/build/build_script/kirin_kernel_release" "kernel/include/linux/cred.h"
	.file	76 "/mnt/disk/jenkins/ci/workspace/chipset_pipeline_release/opensource/component_code/vendor/huawei/extra/build/build_script/kirin_kernel_release" "kernel/include/linux/capability.h"
	.file	77 "/mnt/disk/jenkins/ci/workspace/chipset_pipeline_release/opensource/component_code/vendor/huawei/extra/build/build_script/kirin_kernel_release" "kernel/include/linux/key.h"
	.file	78 "/mnt/disk/jenkins/ci/workspace/chipset_pipeline_release/opensource/component_code/vendor/huawei/extra/build/build_script/kirin_kernel_release" "kernel/include/linux/assoc_array.h"
	.file	79 "/mnt/disk/jenkins/ci/workspace/chipset_pipeline_release/opensource/component_code/vendor/huawei/extra/build/build_script/kirin_kernel_release" "kernel/include/linux/sched/user.h"
	.file	80 "/mnt/disk/jenkins/ci/workspace/chipset_pipeline_release/opensource/component_code/vendor/huawei/extra/build/build_script/kirin_kernel_release" "kernel/include/linux/ratelimit_types.h"
	.file	81 "/mnt/disk/jenkins/ci/workspace/chipset_pipeline_release/opensource/component_code/vendor/huawei/extra/build/build_script/kirin_kernel_release" "kernel/include/linux/nsproxy.h"
	.file	82 "/mnt/disk/jenkins/ci/workspace/chipset_pipeline_release/opensource/component_code/vendor/huawei/extra/build/build_script/kirin_kernel_release" "kernel/include/linux/sched/signal.h"
	.file	83 "/mnt/disk/jenkins/ci/workspace/chipset_pipeline_release/opensource/component_code/vendor/huawei/extra/build/build_script/kirin_kernel_release" "kernel/include/linux/signal_types.h"
	.file	84 "/mnt/disk/jenkins/ci/workspace/chipset_pipeline_release/opensource/component_code/vendor/huawei/extra/build/build_script/kirin_kernel_release" "kernel/include/uapi/asm-generic/signal.h"
	.file	85 "/mnt/disk/jenkins/ci/workspace/chipset_pipeline_release/opensource/component_code/vendor/huawei/extra/build/build_script/kirin_kernel_release" "kernel/include/linux/task_io_accounting.h"
	.file	86 "/mnt/disk/jenkins/ci/workspace/chipset_pipeline_release/opensource/component_code/vendor/huawei/extra/build/build_script/kirin_kernel_release" "kernel/include/uapi/linux/resource.h"
	.file	87 "/mnt/disk/jenkins/ci/workspace/chipset_pipeline_release/opensource/component_code/vendor/huawei/extra/build/build_script/kirin_kernel_release" "kernel/include/uapi/asm-generic/signal-defs.h"
	.file	88 "/mnt/disk/jenkins/ci/workspace/chipset_pipeline_release/opensource/component_code/vendor/huawei/extra/build/build_script/kirin_kernel_release" "kernel/include/linux/seccomp.h"
	.file	89 "/mnt/disk/jenkins/ci/workspace/chipset_pipeline_release/opensource/component_code/vendor/huawei/extra/build/build_script/kirin_kernel_release" "kernel/include/linux/genhd.h"
	.file	90 "/mnt/disk/jenkins/ci/workspace/chipset_pipeline_release/opensource/component_code/vendor/huawei/extra/build/build_script/kirin_kernel_release" "kernel/include/linux/part_stat.h"
	.file	91 "/mnt/disk/jenkins/ci/workspace/chipset_pipeline_release/opensource/component_code/vendor/huawei/extra/build/build_script/kirin_kernel_release" "kernel/include/asm-generic/local.h"
	.file	92 "/mnt/disk/jenkins/ci/workspace/chipset_pipeline_release/opensource/component_code/vendor/huawei/extra/build/build_script/kirin_kernel_release" "kernel/include/linux/percpu-refcount.h"
	.file	93 "/mnt/disk/jenkins/ci/workspace/chipset_pipeline_release/opensource/component_code/vendor/huawei/extra/build/build_script/kirin_kernel_release" "kernel/include/linux/device/bus.h"
	.file	94 "/mnt/disk/jenkins/ci/workspace/chipset_pipeline_release/opensource/component_code/vendor/huawei/extra/build/build_script/kirin_kernel_release" "kernel/include/linux/pm_wakeup.h"
	.file	95 "/mnt/disk/jenkins/ci/workspace/chipset_pipeline_release/opensource/component_code/vendor/huawei/extra/build/build_script/kirin_kernel_release" "kernel/include/linux/energy_model.h"
	.file	96 "/mnt/disk/jenkins/ci/workspace/chipset_pipeline_release/opensource/component_code/vendor/huawei/extra/build/build_script/kirin_kernel_release" "kernel/arch/arm64/include/asm/device.h"
	.file	97 "/mnt/disk/jenkins/ci/workspace/chipset_pipeline_release/opensource/component_code/vendor/huawei/extra/build/build_script/kirin_kernel_release" "kernel/include/linux/fwnode.h"
	.file	98 "/mnt/disk/jenkins/ci/workspace/chipset_pipeline_release/opensource/component_code/vendor/huawei/extra/build/build_script/kirin_kernel_release" "kernel/include/linux/device/class.h"
	.file	99 "/mnt/disk/jenkins/ci/workspace/chipset_pipeline_release/opensource/component_code/vendor/huawei/extra/build/build_script/kirin_kernel_release" "kernel/include/linux/percpu_counter.h"
	.file	100 "/mnt/disk/jenkins/ci/workspace/chipset_pipeline_release/opensource/component_code/vendor/huawei/extra/build/build_script/kirin_kernel_release" "kernel/include/linux/flex_proportions.h"
	.file	101 "/mnt/disk/jenkins/ci/workspace/chipset_pipeline_release/opensource/component_code/vendor/huawei/extra/build/build_script/kirin_kernel_release" "kernel/include/linux/pagemap.h"
	.file	102 "/mnt/disk/jenkins/ci/workspace/chipset_pipeline_release/opensource/component_code/vendor/huawei/extra/build/build_script/kirin_kernel_release" "kernel/include/linux/uio.h"
	.file	103 "/mnt/disk/jenkins/ci/workspace/chipset_pipeline_release/opensource/component_code/vendor/huawei/extra/build/build_script/kirin_kernel_release" "kernel/include/uapi/linux/uio.h"
	.file	104 "/mnt/disk/jenkins/ci/workspace/chipset_pipeline_release/opensource/component_code/vendor/huawei/extra/build/build_script/kirin_kernel_release" "kernel/include/linux/bvec.h"
	.file	105 "/mnt/disk/jenkins/ci/workspace/chipset_pipeline_release/opensource/component_code/vendor/huawei/extra/build/build_script/kirin_kernel_release" "kernel/include/linux/mmzone.h"
	.file	106 "/mnt/disk/jenkins/ci/workspace/chipset_pipeline_release/opensource/component_code/vendor/huawei/extra/build/build_script/kirin_kernel_release" "kernel/include/linux/errseq.h"
	.file	107 "/mnt/disk/jenkins/ci/workspace/chipset_pipeline_release/opensource/component_code/vendor/huawei/extra/build/build_script/kirin_kernel_release" "kernel/arch/arm64/include/asm/page.h"
	.file	108 "/mnt/disk/jenkins/ci/workspace/chipset_pipeline_release/opensource/component_code/vendor/huawei/extra/build/build_script/kirin_kernel_release" "kernel/include/asm-generic/pgtable-nop4d.h"
	.file	109 "/mnt/disk/jenkins/ci/workspace/chipset_pipeline_release/opensource/component_code/vendor/huawei/extra/build/build_script/kirin_kernel_release" "kernel/include/asm-generic/pgtable-nopud.h"
	.file	110 "/mnt/disk/jenkins/ci/workspace/chipset_pipeline_release/opensource/component_code/vendor/huawei/extra/build/build_script/kirin_kernel_release" "kernel/include/linux/range.h"
	.file	111 "/mnt/disk/jenkins/ci/workspace/chipset_pipeline_release/opensource/component_code/vendor/huawei/extra/build/build_script/kirin_kernel_release" "kernel/include/uapi/linux/blkzoned.h"
	.file	112 "/mnt/disk/jenkins/ci/workspace/chipset_pipeline_release/opensource/component_code/vendor/huawei/extra/build/build_script/kirin_kernel_release" "kernel/include/linux/bio.h"
	.file	113 "/mnt/disk/jenkins/ci/workspace/chipset_pipeline_release/opensource/component_code/vendor/huawei/extra/build/build_script/kirin_kernel_release" "kernel/include/linux/mempool.h"
	.file	114 "/mnt/disk/jenkins/ci/workspace/chipset_pipeline_release/opensource/component_code/vendor/huawei/extra/build/build_script/kirin_kernel_release" "kernel/include/linux/iocontext.h"
	.file	115 "/mnt/disk/jenkins/ci/workspace/chipset_pipeline_release/opensource/component_code/vendor/huawei/extra/build/build_script/kirin_kernel_release" "kernel/include/uapi/asm-generic/siginfo.h"
	.file	116 "/mnt/disk/jenkins/ci/workspace/chipset_pipeline_release/opensource/component_code/vendor/huawei/extra/build/build_script/kirin_kernel_release" "kernel/include/linux/nodemask.h"
	.file	117 "/mnt/disk/jenkins/ci/workspace/chipset_pipeline_release/opensource/component_code/vendor/huawei/extra/build/build_script/kirin_kernel_release" "kernel/include/asm-generic/compat.h"
	.file	118 "/mnt/disk/jenkins/ci/workspace/chipset_pipeline_release/opensource/component_code/vendor/huawei/extra/build/build_script/kirin_kernel_release" "kernel/include/linux/compat.h"
	.file	119 "/mnt/disk/jenkins/ci/workspace/chipset_pipeline_release/opensource/component_code/vendor/huawei/extra/build/build_script/kirin_kernel_release" "kernel/arch/arm64/include/asm/tlbbatch.h"
	.file	120 "/mnt/disk/jenkins/ci/workspace/chipset_pipeline_release/opensource/component_code/vendor/huawei/extra/build/build_script/kirin_kernel_release" "kernel/arch/arm64/include/asm/processor.h"
	.file	121 "/mnt/disk/jenkins/ci/workspace/chipset_pipeline_release/opensource/component_code/vendor/huawei/extra/build/build_script/kirin_kernel_release" "kernel/arch/arm64/include/uapi/asm/ptrace.h"
	.file	122 "/mnt/disk/jenkins/ci/workspace/chipset_pipeline_release/opensource/component_code/vendor/huawei/extra/build/build_script/kirin_kernel_release" "kernel/arch/arm64/include/asm/pointer_auth.h"
	.file	123 "/mnt/disk/jenkins/ci/workspace/chipset_pipeline_release/opensource/component_code/vendor/huawei/extra/build/build_script/kirin_kernel_release" "kernel/arch/arm64/include/asm/mmu.h"
	.file	124 "/mnt/disk/jenkins/ci/workspace/chipset_pipeline_release/opensource/component_code/vendor/huawei/extra/build/build_script/kirin_kernel_release" "kernel/include/linux/uprobes.h"
	.file	125 "/mnt/disk/jenkins/ci/workspace/chipset_pipeline_release/opensource/component_code/vendor/huawei/extra/build/build_script/kirin_kernel_release" "kernel/include/linux/xreclaimer_types.h"
	.file	126 "/mnt/disk/jenkins/ci/workspace/chipset_pipeline_release/opensource/component_code/vendor/huawei/extra/build/build_script/kirin_kernel_release" "kernel/include/linux/kernfs.h"
	.file	127 "/mnt/disk/jenkins/ci/workspace/chipset_pipeline_release/opensource/component_code/vendor/huawei/extra/build/build_script/kirin_kernel_release" "kernel/include/uapi/linux/types.h"
	.file	128 "/mnt/disk/jenkins/ci/workspace/chipset_pipeline_release/opensource/component_code/vendor/huawei/extra/build/build_script/kirin_kernel_release" "kernel/include/linux/export.h"
	.file	129 "/mnt/disk/jenkins/ci/workspace/chipset_pipeline_release/opensource/component_code/vendor/huawei/extra/build/build_script/kirin_kernel_release" "kernel/include/linux/moduleparam.h"
	.file	130 "/mnt/disk/jenkins/ci/workspace/chipset_pipeline_release/opensource/component_code/vendor/huawei/extra/build/build_script/kirin_kernel_release" "kernel/arch/arm64/include/asm/extable.h"
	.file	131 "/mnt/disk/jenkins/ci/workspace/chipset_pipeline_release/opensource/component_code/vendor/huawei/extra/build/build_script/kirin_kernel_release" "kernel/include/linux/rbtree_latch.h"
	.file	132 "/mnt/disk/jenkins/ci/workspace/chipset_pipeline_release/opensource/component_code/vendor/huawei/extra/build/build_script/kirin_kernel_release" "kernel/arch/arm64/include/asm/module.h"
	.file	133 "/mnt/disk/jenkins/ci/workspace/chipset_pipeline_release/opensource/component_code/vendor/huawei/extra/build/build_script/kirin_kernel_release" "kernel/include/uapi/linux/elf.h"
	.file	134 "/mnt/disk/jenkins/ci/workspace/chipset_pipeline_release/opensource/component_code/vendor/huawei/extra/build/build_script/kirin_kernel_release" "kernel/include/asm-generic/bug.h"
	.file	135 "/mnt/disk/jenkins/ci/workspace/chipset_pipeline_release/opensource/component_code/vendor/huawei/extra/build/build_script/kirin_kernel_release" "kernel/include/linux/tracepoint-defs.h"
	.file	136 "/mnt/disk/jenkins/ci/workspace/chipset_pipeline_release/opensource/component_code/vendor/huawei/extra/build/build_script/kirin_kernel_release" "kernel/include/linux/srcutree.h"
	.file	137 "/mnt/disk/jenkins/ci/workspace/chipset_pipeline_release/opensource/component_code/vendor/huawei/extra/build/build_script/kirin_kernel_release" "kernel/include/linux/rcu_segcblist.h"
	.file	138 "/mnt/disk/jenkins/ci/workspace/chipset_pipeline_release/opensource/component_code/vendor/huawei/extra/build/build_script/kirin_kernel_release" "kernel/include/linux/projid.h"
	.file	139 "/mnt/disk/jenkins/ci/workspace/chipset_pipeline_release/opensource/component_code/vendor/huawei/extra/build/build_script/kirin_kernel_release" "kernel/include/linux/shrinker.h"
	.file	140 "/mnt/disk/jenkins/ci/workspace/chipset_pipeline_release/opensource/component_code/vendor/huawei/extra/build/build_script/kirin_kernel_release" "kernel/include/linux/rcu_sync.h"
	.file	141 "/mnt/disk/jenkins/ci/workspace/chipset_pipeline_release/opensource/component_code/vendor/huawei/extra/build/build_script/kirin_kernel_release" "kernel/include/linux/percpu-rwsem.h"
	.file	142 "/mnt/disk/jenkins/ci/workspace/chipset_pipeline_release/opensource/component_code/vendor/huawei/extra/build/build_script/kirin_kernel_release" "kernel/include/linux/rcuwait.h"
	.file	143 "/mnt/disk/jenkins/ci/workspace/chipset_pipeline_release/opensource/component_code/vendor/huawei/extra/build/build_script/kirin_kernel_release" "kernel/include/linux/uuid.h"
	.file	144 "/mnt/disk/jenkins/ci/workspace/chipset_pipeline_release/opensource/component_code/vendor/huawei/extra/build/build_script/kirin_kernel_release" "kernel/include/linux/list_lru.h"
	.file	145 "/mnt/disk/jenkins/ci/workspace/chipset_pipeline_release/opensource/component_code/vendor/huawei/extra/build/build_script/kirin_kernel_release" "kernel/include/linux/nfs_fs_i.h"
	.file	146 "/mnt/disk/jenkins/ci/workspace/chipset_pipeline_release/opensource/component_code/vendor/huawei/extra/build/build_script/kirin_kernel_release" "kernel/include/linux/lockref.h"
	.file	147 "/mnt/disk/jenkins/ci/workspace/chipset_pipeline_release/opensource/component_code/vendor/huawei/extra/build/build_script/kirin_kernel_release" "kernel/include/linux/smp.h"
	.file	148 "/mnt/disk/jenkins/ci/workspace/chipset_pipeline_release/opensource/component_code/vendor/huawei/extra/build/build_script/kirin_kernel_release" "kernel/block/blk-stat.h"
	.file	149 "/mnt/disk/jenkins/ci/workspace/chipset_pipeline_release/opensource/component_code/vendor/huawei/extra/build/build_script/kirin_kernel_release" "kernel/include/linux/bsg.h"
	.file	150 "/mnt/disk/jenkins/ci/workspace/chipset_pipeline_release/opensource/component_code/vendor/huawei/extra/build/build_script/kirin_kernel_release" "kernel/include/uapi/linux/bsg.h"
	.file	151 "/mnt/disk/jenkins/ci/workspace/chipset_pipeline_release/opensource/component_code/vendor/huawei/extra/build/build_script/kirin_kernel_release" "kernel/include/linux/notifier.h"
	.file	152 "/mnt/disk/jenkins/ci/workspace/chipset_pipeline_release/opensource/component_code/vendor/huawei/extra/build/build_script/kirin_kernel_release" "kernel/platform_source/basicplatform/block/mas_blk_gear_ctrl.h"
                                        // -- End function
	.globl	mas_gear_ctrl_show              // -- Begin function mas_gear_ctrl_show
	.p2align	2
	.type	mas_gear_ctrl_show,@function
mas_gear_ctrl_show:                     // @mas_gear_ctrl_show
.Lfunc_begin1:
	.loc	20 62 0 is_stmt 1               // kernel/platform_source/basicplatform/block/mas_blk_gear_ctrl_sysfs.c:62:0
	.cfi_startproc
// %bb.0:
	//DEBUG_VALUE: mas_gear_ctrl_show:q <- $x0
	//DEBUG_VALUE: mas_gear_ctrl_show:page <- $x1
	hint	#25
	.cfi_negate_ra_state
	stp	x29, x30, [sp, #-48]!           // 16-byte Folded Spill
	str	x21, [sp, #16]                  // 8-byte Folded Spill
	stp	x20, x19, [sp, #32]             // 16-byte Folded Spill
	mov	x29, sp
	.cfi_def_cfa w29, 48
	.cfi_offset w19, -8
	.cfi_offset w20, -16
	.cfi_offset w21, -32
	.cfi_offset w30, -40
	.cfi_offset w29, -48
	mov	x19, x1
.Ltmp27:
	//DEBUG_VALUE: mas_gear_ctrl_show:page <- $x19
	mov	x20, x0
.Ltmp28:
	//DEBUG_VALUE: mas_gear_ctrl_show:offset <- 0
	//DEBUG_VALUE: mas_gear_ctrl_show:page <- $x19
	//DEBUG_VALUE: mas_gear_ctrl_show:q <- $x20
	.loc	20 66 28 prologue_end           // kernel/platform_source/basicplatform/block/mas_blk_gear_ctrl_sysfs.c:66:28
	bl	mas_blk_get_lld
.Ltmp29:
	//DEBUG_VALUE: mas_gear_ctrl_show:lld <- $x0
	.loc	20 68 6                         // kernel/platform_source/basicplatform/block/mas_blk_gear_ctrl_sysfs.c:68:6
	cbz	x0, .LBB1_8
.Ltmp30:
// %bb.1:
	//DEBUG_VALUE: mas_gear_ctrl_show:q <- $x20
	//DEBUG_VALUE: mas_gear_ctrl_show:page <- $x19
	//DEBUG_VALUE: mas_gear_ctrl_show:lld <- $x0
	//DEBUG_VALUE: mas_gear_ctrl_show:offset <- 0
	ldr	x9, [x0, #80]
.Ltmp31:
	.loc	20 0 0 is_stmt 0                // kernel/platform_source/basicplatform/block/mas_blk_gear_ctrl_sysfs.c:0:0
	mov	x21, x0
.Ltmp32:
	//DEBUG_VALUE: mas_gear_ctrl_show:lld <- $x21
	//DEBUG_VALUE: mas_gear_ctrl_show:lld <- $x21
	.loc	20 68 6                         // kernel/platform_source/basicplatform/block/mas_blk_gear_ctrl_sysfs.c:68:6
	cbz	x9, .LBB1_9
.Ltmp33:
// %bb.2:
	//DEBUG_VALUE: mas_gear_ctrl_show:lld <- $x21
	//DEBUG_VALUE: mas_gear_ctrl_show:q <- $x20
	//DEBUG_VALUE: mas_gear_ctrl_show:page <- $x19
	//DEBUG_VALUE: mas_gear_ctrl_show:offset <- 0
	ldr	x8, [x9, #16]
	cbz	x8, .LBB1_9
.Ltmp34:
// %bb.3:
	//DEBUG_VALUE: mas_gear_ctrl_show:lld <- $x21
	//DEBUG_VALUE: mas_gear_ctrl_show:q <- $x20
	//DEBUG_VALUE: mas_gear_ctrl_show:page <- $x19
	//DEBUG_VALUE: mas_gear_ctrl_show:offset <- 0
	ldr	x9, [x9, #24]
.Ltmp35:
	.loc	20 68 6                         // kernel/platform_source/basicplatform/block/mas_blk_gear_ctrl_sysfs.c:68:6
	cbz	x9, .LBB1_9
.Ltmp36:
// %bb.4:
	//DEBUG_VALUE: mas_gear_ctrl_show:lld <- $x21
	//DEBUG_VALUE: mas_gear_ctrl_show:q <- $x20
	//DEBUG_VALUE: mas_gear_ctrl_show:page <- $x19
	//DEBUG_VALUE: mas_gear_ctrl_show:offset <- 0
	//DEBUG_VALUE: mas_gear_ctrl_show:cur_gear <- [DW_OP_plus_uconst 28, DW_OP_deref] $fp
	.loc	20 72 9 is_stmt 1               // kernel/platform_source/basicplatform/block/mas_blk_gear_ctrl_sysfs.c:72:9
	add	x1, x29, #28                    // =28
	mov	x0, x20
	blr	x8
.Ltmp37:
	.loc	20 73 14                        // kernel/platform_source/basicplatform/block/mas_blk_gear_ctrl_sysfs.c:73:14
	ldr	x8, [x21, #80]
	.loc	20 73 9 is_stmt 0               // kernel/platform_source/basicplatform/block/mas_blk_gear_ctrl_sysfs.c:73:9
	adrp	x1, g_mas_min_gear_level
	adrp	x2, g_mas_max_gear_level
	.loc	20 72 9 is_stmt 1               // kernel/platform_source/basicplatform/block/mas_blk_gear_ctrl_sysfs.c:72:9
	mov	w21, w0
.Ltmp38:
	//DEBUG_VALUE: mas_gear_ctrl_show:ret1 <- $w21
	.loc	20 73 29                        // kernel/platform_source/basicplatform/block/mas_blk_gear_ctrl_sysfs.c:73:29
	ldr	x8, [x8, #24]
	.loc	20 73 9 is_stmt 0               // kernel/platform_source/basicplatform/block/mas_blk_gear_ctrl_sysfs.c:73:9
	add	x1, x1, :lo12:g_mas_min_gear_level
	add	x2, x2, :lo12:g_mas_max_gear_level
	mov	x0, x20
	blr	x8
.Ltmp39:
	//DEBUG_VALUE: mas_gear_ctrl_show:ret2 <- $w0
	.loc	20 74 11 is_stmt 1              // kernel/platform_source/basicplatform/block/mas_blk_gear_ctrl_sysfs.c:74:11
	orr	w8, w0, w21
	cbz	w8, .LBB1_6
.Ltmp40:
// %bb.5:
	//DEBUG_VALUE: mas_gear_ctrl_show:q <- $x20
	//DEBUG_VALUE: mas_gear_ctrl_show:page <- $x19
	//DEBUG_VALUE: mas_gear_ctrl_show:ret1 <- $w21
	//DEBUG_VALUE: mas_gear_ctrl_show:ret2 <- $w0
	//DEBUG_VALUE: mas_gear_ctrl_show:cur_gear <- [DW_OP_plus_uconst 28, DW_OP_deref] $fp
	//DEBUG_VALUE: mas_gear_ctrl_show:offset <- 0
	.loc	20 75 12                        // kernel/platform_source/basicplatform/block/mas_blk_gear_ctrl_sysfs.c:75:12
	adrp	x3, .L.str
.Ltmp41:
	.loc	20 0 0 is_stmt 0                // kernel/platform_source/basicplatform/block/mas_blk_gear_ctrl_sysfs.c:0:0
	mov	w5, w0
.Ltmp42:
	//DEBUG_VALUE: mas_gear_ctrl_show:ret2 <- $w5
	.loc	20 75 12                        // kernel/platform_source/basicplatform/block/mas_blk_gear_ctrl_sysfs.c:75:12
	add	x3, x3, :lo12:.L.str
	mov	w1, #4096
	mov	w2, #4095
	mov	x0, x19
	mov	w4, w21
	bl	snprintf_s
.Ltmp43:
	.loc	20 0 12                         // kernel/platform_source/basicplatform/block/mas_blk_gear_ctrl_sysfs.c:0:12
	b	.LBB1_7
.Ltmp44:
.LBB1_6:
	//DEBUG_VALUE: mas_gear_ctrl_show:q <- $x20
	//DEBUG_VALUE: mas_gear_ctrl_show:page <- $x19
	//DEBUG_VALUE: mas_gear_ctrl_show:ret1 <- $w21
	//DEBUG_VALUE: mas_gear_ctrl_show:ret2 <- $w0
	//DEBUG_VALUE: mas_gear_ctrl_show:cur_gear <- [DW_OP_plus_uconst 28, DW_OP_deref] $fp
	//DEBUG_VALUE: mas_gear_ctrl_show:offset <- 0
	.loc	20 79 70 is_stmt 1              // kernel/platform_source/basicplatform/block/mas_blk_gear_ctrl_sysfs.c:79:70
	adrp	x8, g_mas_min_gear_level
	.loc	20 80 9                         // kernel/platform_source/basicplatform/block/mas_blk_gear_ctrl_sysfs.c:80:9
	adrp	x9, g_mas_max_gear_level
	.loc	20 79 60                        // kernel/platform_source/basicplatform/block/mas_blk_gear_ctrl_sysfs.c:79:60
	ldr	w4, [x29, #28]
.Ltmp45:
	//DEBUG_VALUE: mas_gear_ctrl_show:cur_gear <- $w4
	.loc	20 79 70 is_stmt 0              // kernel/platform_source/basicplatform/block/mas_blk_gear_ctrl_sysfs.c:79:70
	ldr	w5, [x8, :lo12:g_mas_min_gear_level]
	.loc	20 80 9 is_stmt 1               // kernel/platform_source/basicplatform/block/mas_blk_gear_ctrl_sysfs.c:80:9
	ldr	w6, [x9, :lo12:g_mas_max_gear_level]
	.loc	20 78 12                        // kernel/platform_source/basicplatform/block/mas_blk_gear_ctrl_sysfs.c:78:12
	adrp	x3, .L.str.1
	add	x3, x3, :lo12:.L.str.1
	mov	w1, #4096
	mov	w2, #4095
	mov	x0, x19
.Ltmp46:
	bl	snprintf_s
.Ltmp47:
.LBB1_7:
	//DEBUG_VALUE: mas_gear_ctrl_show:q <- $x20
	//DEBUG_VALUE: mas_gear_ctrl_show:page <- $x19
	//DEBUG_VALUE: mas_gear_ctrl_show:ret1 <- $w21
	//DEBUG_VALUE: mas_gear_ctrl_show:offset <- 0
                                        // kill: def $w0 killed $w0 def $x0
	//DEBUG_VALUE: mas_gear_ctrl_show:offset <- [DW_OP_LLVM_convert 32 5, DW_OP_LLVM_convert 64 5, DW_OP_stack_value] $w0
	.loc	20 0 0 is_stmt 0                // kernel/platform_source/basicplatform/block/mas_blk_gear_ctrl_sysfs.c:0:0
	sxtw	x8, w0
.Ltmp48:
	//DEBUG_VALUE: mas_gear_ctrl_show:offset <- $x8
	.loc	20 82 9 is_stmt 1               // kernel/platform_source/basicplatform/block/mas_blk_gear_ctrl_sysfs.c:82:9
	bic	x0, x8, x8, asr #63
.Ltmp49:
.LBB1_8:
	//DEBUG_VALUE: mas_gear_ctrl_show:q <- $x20
	//DEBUG_VALUE: mas_gear_ctrl_show:page <- $x19
	.loc	20 83 1                         // kernel/platform_source/basicplatform/block/mas_blk_gear_ctrl_sysfs.c:83:1
	ldp	x20, x19, [sp, #32]             // 16-byte Folded Reload
.Ltmp50:
	ldr	x21, [sp, #16]                  // 8-byte Folded Reload
	ldp	x29, x30, [sp], #48             // 16-byte Folded Reload
	hint	#29
	ret
.LBB1_9:
.Ltmp51:
	//DEBUG_VALUE: mas_gear_ctrl_show:lld <- $x21
	//DEBUG_VALUE: mas_gear_ctrl_show:q <- $x20
	//DEBUG_VALUE: mas_gear_ctrl_show:page <- $x19
	//DEBUG_VALUE: mas_gear_ctrl_show:offset <- 0
	.loc	20 0 0 is_stmt 0                // kernel/platform_source/basicplatform/block/mas_blk_gear_ctrl_sysfs.c:0:0
	mov	x0, xzr
	b	.LBB1_8
.Ltmp52:
.Lfunc_end1:
	.size	mas_gear_ctrl_show, .Lfunc_end1-mas_gear_ctrl_show
	.cfi_endproc
	.file	153 "/mnt/disk/jenkins/ci/workspace/chipset_pipeline_release/opensource/component_code/vendor/huawei/extra/build/build_script/kirin_kernel_release" "kernel/lib/libc_sec/include/securec.h"
                                        // -- End function
	.globl	mas_gear_auto_enable_store      // -- Begin function mas_gear_auto_enable_store
	.p2align	2
	.type	mas_gear_auto_enable_store,@function
mas_gear_auto_enable_store:             // @mas_gear_auto_enable_store
.Lfunc_begin2:
	.loc	20 86 0 is_stmt 1               // kernel/platform_source/basicplatform/block/mas_blk_gear_ctrl_sysfs.c:86:0
	.cfi_startproc
// %bb.0:
	//DEBUG_VALUE: mas_gear_auto_enable_store:q <- $x0
	//DEBUG_VALUE: mas_gear_auto_enable_store:page <- $x1
	//DEBUG_VALUE: mas_gear_auto_enable_store:count <- $x2
	hint	#25
	.cfi_negate_ra_state
	stp	x29, x30, [sp, #-32]!           // 16-byte Folded Spill
	str	x19, [sp, #16]                  // 8-byte Folded Spill
	mov	x29, sp
	.cfi_def_cfa w29, 32
	.cfi_offset w19, -16
	.cfi_offset w30, -24
	.cfi_offset w29, -32
.Ltmp53:
	.loc	20 90 6 prologue_end            // kernel/platform_source/basicplatform/block/mas_blk_gear_ctrl_sysfs.c:90:6
	adrp	x8, g_mas_gear_ctrl_device_abandon
	ldrb	w8, [x8, :lo12:g_mas_gear_ctrl_device_abandon]
	//DEBUG_VALUE: mas_gear_auto_enable_store:page <- $x1
	mov	x19, x2
.Ltmp54:
	//DEBUG_VALUE: mas_gear_auto_enable_store:count <- $x19
	//DEBUG_VALUE: mas_gear_auto_enable_store:count <- $x19
	.loc	20 90 6 is_stmt 0               // kernel/platform_source/basicplatform/block/mas_blk_gear_ctrl_sysfs.c:90:6
	cbnz	w8, .LBB2_3
.Ltmp55:
// %bb.1:
	//DEBUG_VALUE: mas_gear_auto_enable_store:count <- $x19
	//DEBUG_VALUE: mas_gear_auto_enable_store:page <- $x1
	//DEBUG_VALUE: mas_gear_auto_enable_store:q <- $x0
	//DEBUG_VALUE: mas_gear_auto_enable_store:val <- [DW_OP_plus_uconst 24, DW_OP_deref] $fp
	.loc	20 92 8 is_stmt 1               // kernel/platform_source/basicplatform/block/mas_blk_gear_ctrl_sysfs.c:92:8
	add	x0, x29, #24                    // =24
.Ltmp56:
	//DEBUG_VALUE: mas_gear_auto_enable_store:q <- [DW_OP_LLVM_entry_value 1] $x0
	mov	x2, x19
	bl	queue_var_store
.Ltmp57:
	//DEBUG_VALUE: mas_gear_auto_enable_store:page <- [DW_OP_LLVM_entry_value 1] $x1
	//DEBUG_VALUE: mas_gear_auto_enable_store:ret <- $x0
	.loc	20 93 6                         // kernel/platform_source/basicplatform/block/mas_blk_gear_ctrl_sysfs.c:93:6
	tbnz	x0, #63, .LBB2_3
.Ltmp58:
// %bb.2:
	//DEBUG_VALUE: mas_gear_auto_enable_store:count <- $x19
	//DEBUG_VALUE: mas_gear_auto_enable_store:ret <- $x0
	//DEBUG_VALUE: mas_gear_auto_enable_store:val <- [DW_OP_plus_uconst 24, DW_OP_deref] $fp
	//DEBUG_VALUE: mas_gear_auto_enable_store:page <- [DW_OP_LLVM_entry_value 1] $x1
	//DEBUG_VALUE: mas_gear_auto_enable_store:q <- [DW_OP_LLVM_entry_value 1] $x0
	.loc	20 96 27                        // kernel/platform_source/basicplatform/block/mas_blk_gear_ctrl_sysfs.c:96:27
	ldr	x8, [x29, #24]
.Ltmp59:
	//DEBUG_VALUE: mas_gear_auto_enable_store:val <- $x8
	.loc	20 96 26 is_stmt 0              // kernel/platform_source/basicplatform/block/mas_blk_gear_ctrl_sysfs.c:96:26
	cmp	x8, #0                          // =0
	cset	w0, ne
.Ltmp60:
	.loc	20 96 2                         // kernel/platform_source/basicplatform/block/mas_blk_gear_ctrl_sysfs.c:96:2
	bl	mas_blk_auto_gear_ctrl
.Ltmp61:
.LBB2_3:
	//DEBUG_VALUE: mas_gear_auto_enable_store:count <- $x19
	.loc	20 98 1 is_stmt 1               // kernel/platform_source/basicplatform/block/mas_blk_gear_ctrl_sysfs.c:98:1
	mov	x0, x19
	ldr	x19, [sp, #16]                  // 8-byte Folded Reload
.Ltmp62:
	//DEBUG_VALUE: mas_gear_auto_enable_store:count <- [DW_OP_LLVM_entry_value 1] $x2
	ldp	x29, x30, [sp], #32             // 16-byte Folded Reload
	hint	#29
	ret
.Ltmp63:
.Lfunc_end2:
	.size	mas_gear_auto_enable_store, .Lfunc_end2-mas_gear_auto_enable_store
	.cfi_endproc
                                        // -- End function
	.globl	mas_gear_auto_enable_show       // -- Begin function mas_gear_auto_enable_show
	.p2align	2
	.type	mas_gear_auto_enable_show,@function
mas_gear_auto_enable_show:              // @mas_gear_auto_enable_show
.Lfunc_begin3:
	.loc	20 101 0                        // kernel/platform_source/basicplatform/block/mas_blk_gear_ctrl_sysfs.c:101:0
	.cfi_startproc
// %bb.0:
	//DEBUG_VALUE: mas_gear_auto_enable_show:q <- $x0
	//DEBUG_VALUE: mas_gear_auto_enable_show:page <- $x1
	hint	#25
	.cfi_negate_ra_state
	stp	x29, x30, [sp, #-16]!           // 16-byte Folded Spill
	mov	x29, sp
	.cfi_def_cfa w29, 16
	.cfi_offset w30, -8
	.cfi_offset w29, -16
.Ltmp64:
	.loc	20 104 6 prologue_end           // kernel/platform_source/basicplatform/block/mas_blk_gear_ctrl_sysfs.c:104:6
	adrp	x8, g_mas_gear_ctrl_device_abandon
	ldrb	w8, [x8, :lo12:g_mas_gear_ctrl_device_abandon]
	mov	x0, x1
.Ltmp65:
	//DEBUG_VALUE: mas_gear_auto_enable_show:q <- [DW_OP_LLVM_entry_value 1] $x0
	//DEBUG_VALUE: mas_gear_auto_enable_show:offset <- 0
	//DEBUG_VALUE: mas_gear_auto_enable_show:page <- $x0
	.loc	20 104 6 is_stmt 0              // kernel/platform_source/basicplatform/block/mas_blk_gear_ctrl_sysfs.c:104:6
	cbz	w8, .LBB3_2
.Ltmp66:
// %bb.1:
	//DEBUG_VALUE: mas_gear_auto_enable_show:page <- $x0
	//DEBUG_VALUE: mas_gear_auto_enable_show:offset <- 0
	//DEBUG_VALUE: mas_gear_auto_enable_show:q <- [DW_OP_LLVM_entry_value 1] $x0
	.loc	20 105 12 is_stmt 1             // kernel/platform_source/basicplatform/block/mas_blk_gear_ctrl_sysfs.c:105:12
	adrp	x3, .L.str.2
	add	x3, x3, :lo12:.L.str.2
	mov	w1, #4096
	mov	w2, #4095
	bl	snprintf_s
.Ltmp67:
	.loc	20 0 12 is_stmt 0               // kernel/platform_source/basicplatform/block/mas_blk_gear_ctrl_sysfs.c:0:12
	b	.LBB3_3
.Ltmp68:
.LBB3_2:
	//DEBUG_VALUE: mas_gear_auto_enable_show:page <- $x0
	//DEBUG_VALUE: mas_gear_auto_enable_show:offset <- 0
	//DEBUG_VALUE: mas_gear_auto_enable_show:q <- [DW_OP_LLVM_entry_value 1] $x0
	.loc	20 110 8 is_stmt 1              // kernel/platform_source/basicplatform/block/mas_blk_gear_ctrl_sysfs.c:110:8
	adrp	x8, g_mas_gear_auto_flag
	ldrb	w4, [x8, :lo12:g_mas_gear_auto_flag]
	.loc	20 109 11                       // kernel/platform_source/basicplatform/block/mas_blk_gear_ctrl_sysfs.c:109:11
	adrp	x3, .L.str.3
	add	x3, x3, :lo12:.L.str.3
	mov	w1, #4096
	mov	w2, #4095
	bl	snprintf_s
.Ltmp69:
.LBB3_3:
	//DEBUG_VALUE: mas_gear_auto_enable_show:offset <- 0
	//DEBUG_VALUE: mas_gear_auto_enable_show:q <- [DW_OP_LLVM_entry_value 1] $x0
                                        // kill: def $w0 killed $w0 def $x0
	.loc	20 0 0 is_stmt 0                // kernel/platform_source/basicplatform/block/mas_blk_gear_ctrl_sysfs.c:0:0
	sxtw	x8, w0
.Ltmp70:
	//DEBUG_VALUE: mas_gear_auto_enable_show:offset <- $x8
	bic	x0, x8, x8, asr #63
	.loc	20 113 1 is_stmt 1              // kernel/platform_source/basicplatform/block/mas_blk_gear_ctrl_sysfs.c:113:1
	ldp	x29, x30, [sp], #16             // 16-byte Folded Reload
	hint	#29
	ret
.Ltmp71:
.Lfunc_end3:
	.size	mas_gear_auto_enable_show, .Lfunc_end3-mas_gear_auto_enable_show
	.cfi_endproc
                                        // -- End function
	.globl	mas_gear_ufs_rate_store         // -- Begin function mas_gear_ufs_rate_store
	.p2align	2
	.type	mas_gear_ufs_rate_store,@function
mas_gear_ufs_rate_store:                // @mas_gear_ufs_rate_store
.Lfunc_begin4:
	.loc	20 116 0                        // kernel/platform_source/basicplatform/block/mas_blk_gear_ctrl_sysfs.c:116:0
	.cfi_startproc
// %bb.0:
	//DEBUG_VALUE: mas_gear_ufs_rate_store:q <- $x0
	//DEBUG_VALUE: mas_gear_ufs_rate_store:page <- $x1
	//DEBUG_VALUE: mas_gear_ufs_rate_store:count <- $x2
	hint	#25
	.cfi_negate_ra_state
	stp	x29, x30, [sp, #-32]!           // 16-byte Folded Spill
	str	x19, [sp, #16]                  // 8-byte Folded Spill
	mov	x29, sp
	.cfi_def_cfa w29, 32
	.cfi_offset w19, -16
	.cfi_offset w30, -24
	.cfi_offset w29, -32
.Ltmp72:
	.loc	20 120 6 prologue_end           // kernel/platform_source/basicplatform/block/mas_blk_gear_ctrl_sysfs.c:120:6
	adrp	x8, g_mas_gear_ctrl_device_abandon
	ldrb	w8, [x8, :lo12:g_mas_gear_ctrl_device_abandon]
	//DEBUG_VALUE: mas_gear_ufs_rate_store:page <- $x1
	mov	x19, x2
.Ltmp73:
	//DEBUG_VALUE: mas_gear_ufs_rate_store:count <- $x19
	//DEBUG_VALUE: mas_gear_ufs_rate_store:count <- $x19
	.loc	20 120 6 is_stmt 0              // kernel/platform_source/basicplatform/block/mas_blk_gear_ctrl_sysfs.c:120:6
	cbz	w8, .LBB4_2
.Ltmp74:
.LBB4_1:
	//DEBUG_VALUE: mas_gear_ufs_rate_store:count <- $x19
	.loc	20 130 1 is_stmt 1              // kernel/platform_source/basicplatform/block/mas_blk_gear_ctrl_sysfs.c:130:1
	mov	x0, x19
	ldr	x19, [sp, #16]                  // 8-byte Folded Reload
.Ltmp75:
	//DEBUG_VALUE: mas_gear_ufs_rate_store:count <- [DW_OP_LLVM_entry_value 1] $x2
	ldp	x29, x30, [sp], #32             // 16-byte Folded Reload
	hint	#29
	ret
.Ltmp76:
.LBB4_2:
	//DEBUG_VALUE: mas_gear_ufs_rate_store:count <- $x19
	//DEBUG_VALUE: mas_gear_ufs_rate_store:page <- $x1
	//DEBUG_VALUE: mas_gear_ufs_rate_store:q <- $x0
	//DEBUG_VALUE: mas_gear_ufs_rate_store:val <- [DW_OP_plus_uconst 24, DW_OP_deref] $fp
	.loc	20 122 8                        // kernel/platform_source/basicplatform/block/mas_blk_gear_ctrl_sysfs.c:122:8
	add	x0, x29, #24                    // =24
.Ltmp77:
	//DEBUG_VALUE: mas_gear_ufs_rate_store:q <- [DW_OP_LLVM_entry_value 1] $x0
	mov	x2, x19
	bl	queue_var_store
.Ltmp78:
	//DEBUG_VALUE: mas_gear_ufs_rate_store:page <- [DW_OP_LLVM_entry_value 1] $x1
	//DEBUG_VALUE: mas_gear_ufs_rate_store:ret <- $x0
	.loc	20 123 6                        // kernel/platform_source/basicplatform/block/mas_blk_gear_ctrl_sysfs.c:123:6
	tbnz	x0, #63, .LBB4_1
.Ltmp79:
// %bb.3:
	//DEBUG_VALUE: mas_gear_ufs_rate_store:count <- $x19
	//DEBUG_VALUE: mas_gear_ufs_rate_store:ret <- $x0
	//DEBUG_VALUE: mas_gear_ufs_rate_store:val <- [DW_OP_plus_uconst 24, DW_OP_deref] $fp
	//DEBUG_VALUE: mas_gear_ufs_rate_store:page <- [DW_OP_LLVM_entry_value 1] $x1
	//DEBUG_VALUE: mas_gear_ufs_rate_store:q <- [DW_OP_LLVM_entry_value 1] $x0
	.loc	20 126 6                        // kernel/platform_source/basicplatform/block/mas_blk_gear_ctrl_sysfs.c:126:6
	ldr	x8, [x29, #24]
.Ltmp80:
	//DEBUG_VALUE: mas_gear_ufs_rate_store:val <- $x8
	.loc	20 126 6 is_stmt 0              // kernel/platform_source/basicplatform/block/mas_blk_gear_ctrl_sysfs.c:126:6
	cmp	x8, #100                        // =100
	b.hi	.LBB4_1
.Ltmp81:
// %bb.4:
	//DEBUG_VALUE: mas_gear_ufs_rate_store:count <- $x19
	//DEBUG_VALUE: mas_gear_ufs_rate_store:val <- $x8
	//DEBUG_VALUE: mas_gear_ufs_rate_store:ret <- $x0
	//DEBUG_VALUE: mas_gear_ufs_rate_store:page <- [DW_OP_LLVM_entry_value 1] $x1
	//DEBUG_VALUE: mas_gear_ufs_rate_store:q <- [DW_OP_LLVM_entry_value 1] $x0
	.loc	20 127 18 is_stmt 1             // kernel/platform_source/basicplatform/block/mas_blk_gear_ctrl_sysfs.c:127:18
	adrp	x9, g_mas_ufs_rate
	str	w8, [x9, :lo12:g_mas_ufs_rate]
	b	.LBB4_1
.Ltmp82:
.Lfunc_end4:
	.size	mas_gear_ufs_rate_store, .Lfunc_end4-mas_gear_ufs_rate_store
	.cfi_endproc
                                        // -- End function
	.globl	mas_gear_ufs_rate_show          // -- Begin function mas_gear_ufs_rate_show
	.p2align	2
	.type	mas_gear_ufs_rate_show,@function
mas_gear_ufs_rate_show:                 // @mas_gear_ufs_rate_show
.Lfunc_begin5:
	.loc	20 133 0                        // kernel/platform_source/basicplatform/block/mas_blk_gear_ctrl_sysfs.c:133:0
	.cfi_startproc
// %bb.0:
	//DEBUG_VALUE: mas_gear_ufs_rate_show:q <- $x0
	//DEBUG_VALUE: mas_gear_ufs_rate_show:page <- $x1
	hint	#25
	.cfi_negate_ra_state
	stp	x29, x30, [sp, #-16]!           // 16-byte Folded Spill
	mov	x29, sp
	.cfi_def_cfa w29, 16
	.cfi_offset w30, -8
	.cfi_offset w29, -16
.Ltmp83:
	.loc	20 136 6 prologue_end           // kernel/platform_source/basicplatform/block/mas_blk_gear_ctrl_sysfs.c:136:6
	adrp	x8, g_mas_gear_ctrl_device_abandon
	ldrb	w8, [x8, :lo12:g_mas_gear_ctrl_device_abandon]
	mov	x0, x1
.Ltmp84:
	//DEBUG_VALUE: mas_gear_ufs_rate_show:q <- [DW_OP_LLVM_entry_value 1] $x0
	//DEBUG_VALUE: mas_gear_ufs_rate_show:offset <- 0
	//DEBUG_VALUE: mas_gear_ufs_rate_show:page <- $x0
	.loc	20 136 6 is_stmt 0              // kernel/platform_source/basicplatform/block/mas_blk_gear_ctrl_sysfs.c:136:6
	cbz	w8, .LBB5_2
.Ltmp85:
// %bb.1:
	//DEBUG_VALUE: mas_gear_ufs_rate_show:page <- $x0
	//DEBUG_VALUE: mas_gear_ufs_rate_show:offset <- 0
	//DEBUG_VALUE: mas_gear_ufs_rate_show:q <- [DW_OP_LLVM_entry_value 1] $x0
	.loc	20 137 12 is_stmt 1             // kernel/platform_source/basicplatform/block/mas_blk_gear_ctrl_sysfs.c:137:12
	adrp	x3, .L.str.2
	add	x3, x3, :lo12:.L.str.2
	mov	w1, #4096
	mov	w2, #4095
	bl	snprintf_s
.Ltmp86:
	.loc	20 0 12 is_stmt 0               // kernel/platform_source/basicplatform/block/mas_blk_gear_ctrl_sysfs.c:0:12
	b	.LBB5_3
.Ltmp87:
.LBB5_2:
	//DEBUG_VALUE: mas_gear_ufs_rate_show:page <- $x0
	//DEBUG_VALUE: mas_gear_ufs_rate_show:offset <- 0
	//DEBUG_VALUE: mas_gear_ufs_rate_show:q <- [DW_OP_LLVM_entry_value 1] $x0
	.loc	20 141 94 is_stmt 1             // kernel/platform_source/basicplatform/block/mas_blk_gear_ctrl_sysfs.c:141:94
	adrp	x8, g_mas_ufs_rate
	ldr	w4, [x8, :lo12:g_mas_ufs_rate]
	.loc	20 141 11 is_stmt 0             // kernel/platform_source/basicplatform/block/mas_blk_gear_ctrl_sysfs.c:141:11
	adrp	x3, .L.str.4
	add	x3, x3, :lo12:.L.str.4
	mov	w1, #4096
	mov	w2, #4095
	bl	snprintf_s
.Ltmp88:
.LBB5_3:
	//DEBUG_VALUE: mas_gear_ufs_rate_show:offset <- 0
	//DEBUG_VALUE: mas_gear_ufs_rate_show:q <- [DW_OP_LLVM_entry_value 1] $x0
                                        // kill: def $w0 killed $w0 def $x0
	.loc	20 0 0                          // kernel/platform_source/basicplatform/block/mas_blk_gear_ctrl_sysfs.c:0:0
	sxtw	x8, w0
.Ltmp89:
	//DEBUG_VALUE: mas_gear_ufs_rate_show:offset <- $x8
	bic	x0, x8, x8, asr #63
	.loc	20 144 1 is_stmt 1              // kernel/platform_source/basicplatform/block/mas_blk_gear_ctrl_sysfs.c:144:1
	ldp	x29, x30, [sp], #16             // 16-byte Folded Reload
	hint	#29
	ret
.Ltmp90:
.Lfunc_end5:
	.size	mas_gear_ufs_rate_show, .Lfunc_end5-mas_gear_ufs_rate_show
	.cfi_endproc
                                        // -- End function
	.globl	mas_gear_fg_num_store           // -- Begin function mas_gear_fg_num_store
	.p2align	2
	.type	mas_gear_fg_num_store,@function
mas_gear_fg_num_store:                  // @mas_gear_fg_num_store
.Lfunc_begin6:
	.loc	20 147 0                        // kernel/platform_source/basicplatform/block/mas_blk_gear_ctrl_sysfs.c:147:0
	.cfi_startproc
// %bb.0:
	//DEBUG_VALUE: mas_gear_fg_num_store:q <- $x0
	//DEBUG_VALUE: mas_gear_fg_num_store:page <- $x1
	//DEBUG_VALUE: mas_gear_fg_num_store:count <- $x2
	hint	#25
	.cfi_negate_ra_state
	stp	x29, x30, [sp, #-32]!           // 16-byte Folded Spill
	str	x19, [sp, #16]                  // 8-byte Folded Spill
	mov	x29, sp
	.cfi_def_cfa w29, 32
	.cfi_offset w19, -16
	.cfi_offset w30, -24
	.cfi_offset w29, -32
.Ltmp91:
	.loc	20 151 6 prologue_end           // kernel/platform_source/basicplatform/block/mas_blk_gear_ctrl_sysfs.c:151:6
	adrp	x8, g_mas_gear_ctrl_device_abandon
	ldrb	w8, [x8, :lo12:g_mas_gear_ctrl_device_abandon]
	//DEBUG_VALUE: mas_gear_fg_num_store:page <- $x1
	mov	x19, x2
.Ltmp92:
	//DEBUG_VALUE: mas_gear_fg_num_store:count <- $x19
	//DEBUG_VALUE: mas_gear_fg_num_store:count <- $x19
	.loc	20 151 6 is_stmt 0              // kernel/platform_source/basicplatform/block/mas_blk_gear_ctrl_sysfs.c:151:6
	cbnz	w8, .LBB6_3
.Ltmp93:
// %bb.1:
	//DEBUG_VALUE: mas_gear_fg_num_store:count <- $x19
	//DEBUG_VALUE: mas_gear_fg_num_store:page <- $x1
	//DEBUG_VALUE: mas_gear_fg_num_store:q <- $x0
	//DEBUG_VALUE: mas_gear_fg_num_store:val <- [DW_OP_plus_uconst 24, DW_OP_deref] $fp
	.loc	20 153 8 is_stmt 1              // kernel/platform_source/basicplatform/block/mas_blk_gear_ctrl_sysfs.c:153:8
	add	x0, x29, #24                    // =24
.Ltmp94:
	//DEBUG_VALUE: mas_gear_fg_num_store:q <- [DW_OP_LLVM_entry_value 1] $x0
	mov	x2, x19
	bl	queue_var_store
.Ltmp95:
	//DEBUG_VALUE: mas_gear_fg_num_store:page <- [DW_OP_LLVM_entry_value 1] $x1
	//DEBUG_VALUE: mas_gear_fg_num_store:ret <- $x0
	.loc	20 154 6                        // kernel/platform_source/basicplatform/block/mas_blk_gear_ctrl_sysfs.c:154:6
	tbnz	x0, #63, .LBB6_3
.Ltmp96:
// %bb.2:
	//DEBUG_VALUE: mas_gear_fg_num_store:count <- $x19
	//DEBUG_VALUE: mas_gear_fg_num_store:ret <- $x0
	//DEBUG_VALUE: mas_gear_fg_num_store:val <- [DW_OP_plus_uconst 24, DW_OP_deref] $fp
	//DEBUG_VALUE: mas_gear_fg_num_store:page <- [DW_OP_LLVM_entry_value 1] $x1
	//DEBUG_VALUE: mas_gear_fg_num_store:q <- [DW_OP_LLVM_entry_value 1] $x0
	.loc	20 157 17                       // kernel/platform_source/basicplatform/block/mas_blk_gear_ctrl_sysfs.c:157:17
	ldr	x8, [x29, #24]
.Ltmp97:
	//DEBUG_VALUE: mas_gear_fg_num_store:val <- $x8
	.loc	20 157 15 is_stmt 0             // kernel/platform_source/basicplatform/block/mas_blk_gear_ctrl_sysfs.c:157:15
	adrp	x9, g_mas_fg_num
	str	w8, [x9, :lo12:g_mas_fg_num]
.Ltmp98:
.LBB6_3:
	//DEBUG_VALUE: mas_gear_fg_num_store:count <- $x19
	.loc	20 160 1 is_stmt 1              // kernel/platform_source/basicplatform/block/mas_blk_gear_ctrl_sysfs.c:160:1
	mov	x0, x19
	ldr	x19, [sp, #16]                  // 8-byte Folded Reload
.Ltmp99:
	//DEBUG_VALUE: mas_gear_fg_num_store:count <- [DW_OP_LLVM_entry_value 1] $x2
	ldp	x29, x30, [sp], #32             // 16-byte Folded Reload
	hint	#29
	ret
.Ltmp100:
.Lfunc_end6:
	.size	mas_gear_fg_num_store, .Lfunc_end6-mas_gear_fg_num_store
	.cfi_endproc
                                        // -- End function
	.globl	mas_gear_fg_num_show            // -- Begin function mas_gear_fg_num_show
	.p2align	2
	.type	mas_gear_fg_num_show,@function
mas_gear_fg_num_show:                   // @mas_gear_fg_num_show
.Lfunc_begin7:
	.loc	20 163 0                        // kernel/platform_source/basicplatform/block/mas_blk_gear_ctrl_sysfs.c:163:0
	.cfi_startproc
// %bb.0:
	//DEBUG_VALUE: mas_gear_fg_num_show:q <- $x0
	//DEBUG_VALUE: mas_gear_fg_num_show:page <- $x1
	hint	#25
	.cfi_negate_ra_state
	stp	x29, x30, [sp, #-16]!           // 16-byte Folded Spill
	mov	x29, sp
	.cfi_def_cfa w29, 16
	.cfi_offset w30, -8
	.cfi_offset w29, -16
.Ltmp101:
	.loc	20 166 6 prologue_end           // kernel/platform_source/basicplatform/block/mas_blk_gear_ctrl_sysfs.c:166:6
	adrp	x8, g_mas_gear_ctrl_device_abandon
	ldrb	w8, [x8, :lo12:g_mas_gear_ctrl_device_abandon]
	mov	x0, x1
.Ltmp102:
	//DEBUG_VALUE: mas_gear_fg_num_show:q <- [DW_OP_LLVM_entry_value 1] $x0
	//DEBUG_VALUE: mas_gear_fg_num_show:offset <- 0
	//DEBUG_VALUE: mas_gear_fg_num_show:page <- $x0
	.loc	20 166 6 is_stmt 0              // kernel/platform_source/basicplatform/block/mas_blk_gear_ctrl_sysfs.c:166:6
	cbz	w8, .LBB7_2
.Ltmp103:
// %bb.1:
	//DEBUG_VALUE: mas_gear_fg_num_show:page <- $x0
	//DEBUG_VALUE: mas_gear_fg_num_show:offset <- 0
	//DEBUG_VALUE: mas_gear_fg_num_show:q <- [DW_OP_LLVM_entry_value 1] $x0
	.loc	20 167 12 is_stmt 1             // kernel/platform_source/basicplatform/block/mas_blk_gear_ctrl_sysfs.c:167:12
	adrp	x3, .L.str.2
	add	x3, x3, :lo12:.L.str.2
	mov	w1, #4096
	mov	w2, #4095
	bl	snprintf_s
.Ltmp104:
	.loc	20 0 12 is_stmt 0               // kernel/platform_source/basicplatform/block/mas_blk_gear_ctrl_sysfs.c:0:12
	b	.LBB7_3
.Ltmp105:
.LBB7_2:
	//DEBUG_VALUE: mas_gear_fg_num_show:page <- $x0
	//DEBUG_VALUE: mas_gear_fg_num_show:offset <- 0
	//DEBUG_VALUE: mas_gear_fg_num_show:q <- [DW_OP_LLVM_entry_value 1] $x0
	.loc	20 171 92 is_stmt 1             // kernel/platform_source/basicplatform/block/mas_blk_gear_ctrl_sysfs.c:171:92
	adrp	x8, g_mas_fg_num
	ldr	w4, [x8, :lo12:g_mas_fg_num]
	.loc	20 171 11 is_stmt 0             // kernel/platform_source/basicplatform/block/mas_blk_gear_ctrl_sysfs.c:171:11
	adrp	x3, .L.str.5
	add	x3, x3, :lo12:.L.str.5
	mov	w1, #4096
	mov	w2, #4095
	bl	snprintf_s
.Ltmp106:
.LBB7_3:
	//DEBUG_VALUE: mas_gear_fg_num_show:offset <- 0
	//DEBUG_VALUE: mas_gear_fg_num_show:q <- [DW_OP_LLVM_entry_value 1] $x0
                                        // kill: def $w0 killed $w0 def $x0
	.loc	20 0 0                          // kernel/platform_source/basicplatform/block/mas_blk_gear_ctrl_sysfs.c:0:0
	sxtw	x8, w0
.Ltmp107:
	//DEBUG_VALUE: mas_gear_fg_num_show:offset <- $x8
	bic	x0, x8, x8, asr #63
	.loc	20 174 1 is_stmt 1              // kernel/platform_source/basicplatform/block/mas_blk_gear_ctrl_sysfs.c:174:1
	ldp	x29, x30, [sp], #16             // 16-byte Folded Reload
	hint	#29
	ret
.Ltmp108:
.Lfunc_end7:
	.size	mas_gear_fg_num_show, .Lfunc_end7-mas_gear_fg_num_show
	.cfi_endproc
                                        // -- End function
	.globl	mas_gear_flow_wndsz_store       // -- Begin function mas_gear_flow_wndsz_store
	.p2align	2
	.type	mas_gear_flow_wndsz_store,@function
mas_gear_flow_wndsz_store:              // @mas_gear_flow_wndsz_store
.Lfunc_begin8:
	.loc	20 177 0                        // kernel/platform_source/basicplatform/block/mas_blk_gear_ctrl_sysfs.c:177:0
	.cfi_startproc
// %bb.0:
	//DEBUG_VALUE: mas_gear_flow_wndsz_store:q <- $x0
	//DEBUG_VALUE: mas_gear_flow_wndsz_store:page <- $x1
	//DEBUG_VALUE: mas_gear_flow_wndsz_store:count <- $x2
	hint	#25
	.cfi_negate_ra_state
	stp	x29, x30, [sp, #-32]!           // 16-byte Folded Spill
	str	x19, [sp, #16]                  // 8-byte Folded Spill
	mov	x29, sp
	.cfi_def_cfa w29, 32
	.cfi_offset w19, -16
	.cfi_offset w30, -24
	.cfi_offset w29, -32
.Ltmp109:
	.loc	20 181 6 prologue_end           // kernel/platform_source/basicplatform/block/mas_blk_gear_ctrl_sysfs.c:181:6
	adrp	x8, g_mas_gear_ctrl_device_abandon
	ldrb	w8, [x8, :lo12:g_mas_gear_ctrl_device_abandon]
	//DEBUG_VALUE: mas_gear_flow_wndsz_store:page <- $x1
	mov	x19, x2
.Ltmp110:
	//DEBUG_VALUE: mas_gear_flow_wndsz_store:count <- $x19
	//DEBUG_VALUE: mas_gear_flow_wndsz_store:count <- $x19
	.loc	20 181 6 is_stmt 0              // kernel/platform_source/basicplatform/block/mas_blk_gear_ctrl_sysfs.c:181:6
	cbnz	w8, .LBB8_3
.Ltmp111:
// %bb.1:
	//DEBUG_VALUE: mas_gear_flow_wndsz_store:count <- $x19
	//DEBUG_VALUE: mas_gear_flow_wndsz_store:page <- $x1
	//DEBUG_VALUE: mas_gear_flow_wndsz_store:q <- $x0
	//DEBUG_VALUE: mas_gear_flow_wndsz_store:val <- [DW_OP_plus_uconst 24, DW_OP_deref] $fp
	.loc	20 183 8 is_stmt 1              // kernel/platform_source/basicplatform/block/mas_blk_gear_ctrl_sysfs.c:183:8
	add	x0, x29, #24                    // =24
.Ltmp112:
	//DEBUG_VALUE: mas_gear_flow_wndsz_store:q <- [DW_OP_LLVM_entry_value 1] $x0
	mov	x2, x19
	bl	queue_var_store
.Ltmp113:
	//DEBUG_VALUE: mas_gear_flow_wndsz_store:page <- [DW_OP_LLVM_entry_value 1] $x1
	//DEBUG_VALUE: mas_gear_flow_wndsz_store:ret <- $x0
	.loc	20 184 6                        // kernel/platform_source/basicplatform/block/mas_blk_gear_ctrl_sysfs.c:184:6
	tbnz	x0, #63, .LBB8_3
.Ltmp114:
// %bb.2:
	//DEBUG_VALUE: mas_gear_flow_wndsz_store:count <- $x19
	//DEBUG_VALUE: mas_gear_flow_wndsz_store:ret <- $x0
	//DEBUG_VALUE: mas_gear_flow_wndsz_store:val <- [DW_OP_plus_uconst 24, DW_OP_deref] $fp
	//DEBUG_VALUE: mas_gear_flow_wndsz_store:page <- [DW_OP_LLVM_entry_value 1] $x1
	//DEBUG_VALUE: mas_gear_flow_wndsz_store:q <- [DW_OP_LLVM_entry_value 1] $x0
	.loc	20 187 40                       // kernel/platform_source/basicplatform/block/mas_blk_gear_ctrl_sysfs.c:187:40
	ldr	x8, [x29, #24]
.Ltmp115:
	//DEBUG_VALUE: mas_gear_flow_wndsz_store:val <- $x8
	.loc	20 187 38 is_stmt 0             // kernel/platform_source/basicplatform/block/mas_blk_gear_ctrl_sysfs.c:187:38
	adrp	x9, g_mas_gear_ctrl_flow_window_time_us
	str	w8, [x9, :lo12:g_mas_gear_ctrl_flow_window_time_us]
.Ltmp116:
.LBB8_3:
	//DEBUG_VALUE: mas_gear_flow_wndsz_store:count <- $x19
	.loc	20 190 1 is_stmt 1              // kernel/platform_source/basicplatform/block/mas_blk_gear_ctrl_sysfs.c:190:1
	mov	x0, x19
	ldr	x19, [sp, #16]                  // 8-byte Folded Reload
.Ltmp117:
	//DEBUG_VALUE: mas_gear_flow_wndsz_store:count <- [DW_OP_LLVM_entry_value 1] $x2
	ldp	x29, x30, [sp], #32             // 16-byte Folded Reload
	hint	#29
	ret
.Ltmp118:
.Lfunc_end8:
	.size	mas_gear_flow_wndsz_store, .Lfunc_end8-mas_gear_flow_wndsz_store
	.cfi_endproc
                                        // -- End function
	.globl	mas_gear_flow_wndsz_show        // -- Begin function mas_gear_flow_wndsz_show
	.p2align	2
	.type	mas_gear_flow_wndsz_show,@function
mas_gear_flow_wndsz_show:               // @mas_gear_flow_wndsz_show
.Lfunc_begin9:
	.loc	20 193 0                        // kernel/platform_source/basicplatform/block/mas_blk_gear_ctrl_sysfs.c:193:0
	.cfi_startproc
// %bb.0:
	//DEBUG_VALUE: mas_gear_flow_wndsz_show:q <- $x0
	//DEBUG_VALUE: mas_gear_flow_wndsz_show:page <- $x1
	hint	#25
	.cfi_negate_ra_state
	stp	x29, x30, [sp, #-16]!           // 16-byte Folded Spill
	mov	x29, sp
	.cfi_def_cfa w29, 16
	.cfi_offset w30, -8
	.cfi_offset w29, -16
.Ltmp119:
	.loc	20 196 6 prologue_end           // kernel/platform_source/basicplatform/block/mas_blk_gear_ctrl_sysfs.c:196:6
	adrp	x8, g_mas_gear_ctrl_device_abandon
	ldrb	w8, [x8, :lo12:g_mas_gear_ctrl_device_abandon]
	mov	x0, x1
.Ltmp120:
	//DEBUG_VALUE: mas_gear_flow_wndsz_show:q <- [DW_OP_LLVM_entry_value 1] $x0
	//DEBUG_VALUE: mas_gear_flow_wndsz_show:offset <- 0
	//DEBUG_VALUE: mas_gear_flow_wndsz_show:page <- $x0
	.loc	20 196 6 is_stmt 0              // kernel/platform_source/basicplatform/block/mas_blk_gear_ctrl_sysfs.c:196:6
	cbz	w8, .LBB9_2
.Ltmp121:
// %bb.1:
	//DEBUG_VALUE: mas_gear_flow_wndsz_show:page <- $x0
	//DEBUG_VALUE: mas_gear_flow_wndsz_show:offset <- 0
	//DEBUG_VALUE: mas_gear_flow_wndsz_show:q <- [DW_OP_LLVM_entry_value 1] $x0
	.loc	20 197 12 is_stmt 1             // kernel/platform_source/basicplatform/block/mas_blk_gear_ctrl_sysfs.c:197:12
	adrp	x3, .L.str.2
	add	x3, x3, :lo12:.L.str.2
	mov	w1, #4096
	mov	w2, #4095
	bl	snprintf_s
.Ltmp122:
	.loc	20 0 12 is_stmt 0               // kernel/platform_source/basicplatform/block/mas_blk_gear_ctrl_sysfs.c:0:12
	b	.LBB9_3
.Ltmp123:
.LBB9_2:
	//DEBUG_VALUE: mas_gear_flow_wndsz_show:page <- $x0
	//DEBUG_VALUE: mas_gear_flow_wndsz_show:offset <- 0
	//DEBUG_VALUE: mas_gear_flow_wndsz_show:q <- [DW_OP_LLVM_entry_value 1] $x0
	.loc	20 202 8 is_stmt 1              // kernel/platform_source/basicplatform/block/mas_blk_gear_ctrl_sysfs.c:202:8
	adrp	x8, g_mas_gear_ctrl_flow_window_time_us
	ldr	w4, [x8, :lo12:g_mas_gear_ctrl_flow_window_time_us]
	.loc	20 201 11                       // kernel/platform_source/basicplatform/block/mas_blk_gear_ctrl_sysfs.c:201:11
	adrp	x3, .L.str.6
	add	x3, x3, :lo12:.L.str.6
	mov	w1, #4096
	mov	w2, #4095
	bl	snprintf_s
.Ltmp124:
.LBB9_3:
	//DEBUG_VALUE: mas_gear_flow_wndsz_show:offset <- 0
	//DEBUG_VALUE: mas_gear_flow_wndsz_show:q <- [DW_OP_LLVM_entry_value 1] $x0
                                        // kill: def $w0 killed $w0 def $x0
	.loc	20 0 0 is_stmt 0                // kernel/platform_source/basicplatform/block/mas_blk_gear_ctrl_sysfs.c:0:0
	sxtw	x8, w0
.Ltmp125:
	//DEBUG_VALUE: mas_gear_flow_wndsz_show:offset <- $x8
	bic	x0, x8, x8, asr #63
	.loc	20 205 1 is_stmt 1              // kernel/platform_source/basicplatform/block/mas_blk_gear_ctrl_sysfs.c:205:1
	ldp	x29, x30, [sp], #16             // 16-byte Folded Reload
	hint	#29
	ret
.Ltmp126:
.Lfunc_end9:
	.size	mas_gear_flow_wndsz_show, .Lfunc_end9-mas_gear_flow_wndsz_show
	.cfi_endproc
                                        // -- End function
	.globl	mas_gear_flow_threshold_size_store // -- Begin function mas_gear_flow_threshold_size_store
	.p2align	2
	.type	mas_gear_flow_threshold_size_store,@function
mas_gear_flow_threshold_size_store:     // @mas_gear_flow_threshold_size_store
.Lfunc_begin10:
	.loc	20 208 0                        // kernel/platform_source/basicplatform/block/mas_blk_gear_ctrl_sysfs.c:208:0
	.cfi_startproc
// %bb.0:
	//DEBUG_VALUE: mas_gear_flow_threshold_size_store:q <- $x0
	//DEBUG_VALUE: mas_gear_flow_threshold_size_store:page <- $x1
	//DEBUG_VALUE: mas_gear_flow_threshold_size_store:count <- $x2
	hint	#25
	.cfi_negate_ra_state
	stp	x29, x30, [sp, #-32]!           // 16-byte Folded Spill
	str	x19, [sp, #16]                  // 8-byte Folded Spill
	mov	x29, sp
	.cfi_def_cfa w29, 32
	.cfi_offset w19, -16
	.cfi_offset w30, -24
	.cfi_offset w29, -32
.Ltmp127:
	.loc	20 212 6 prologue_end           // kernel/platform_source/basicplatform/block/mas_blk_gear_ctrl_sysfs.c:212:6
	adrp	x8, g_mas_gear_ctrl_device_abandon
	ldrb	w8, [x8, :lo12:g_mas_gear_ctrl_device_abandon]
	//DEBUG_VALUE: mas_gear_flow_threshold_size_store:page <- $x1
	mov	x19, x2
.Ltmp128:
	//DEBUG_VALUE: mas_gear_flow_threshold_size_store:count <- $x19
	//DEBUG_VALUE: mas_gear_flow_threshold_size_store:count <- $x19
	.loc	20 212 6 is_stmt 0              // kernel/platform_source/basicplatform/block/mas_blk_gear_ctrl_sysfs.c:212:6
	cbnz	w8, .LBB10_3
.Ltmp129:
// %bb.1:
	//DEBUG_VALUE: mas_gear_flow_threshold_size_store:count <- $x19
	//DEBUG_VALUE: mas_gear_flow_threshold_size_store:page <- $x1
	//DEBUG_VALUE: mas_gear_flow_threshold_size_store:q <- $x0
	//DEBUG_VALUE: mas_gear_flow_threshold_size_store:val <- [DW_OP_plus_uconst 24, DW_OP_deref] $fp
	.loc	20 214 8 is_stmt 1              // kernel/platform_source/basicplatform/block/mas_blk_gear_ctrl_sysfs.c:214:8
	add	x0, x29, #24                    // =24
.Ltmp130:
	//DEBUG_VALUE: mas_gear_flow_threshold_size_store:q <- [DW_OP_LLVM_entry_value 1] $x0
	mov	x2, x19
	bl	queue_var_store
.Ltmp131:
	//DEBUG_VALUE: mas_gear_flow_threshold_size_store:page <- [DW_OP_LLVM_entry_value 1] $x1
	//DEBUG_VALUE: mas_gear_flow_threshold_size_store:ret <- $x0
	.loc	20 215 6                        // kernel/platform_source/basicplatform/block/mas_blk_gear_ctrl_sysfs.c:215:6
	tbnz	x0, #63, .LBB10_3
.Ltmp132:
// %bb.2:
	//DEBUG_VALUE: mas_gear_flow_threshold_size_store:count <- $x19
	//DEBUG_VALUE: mas_gear_flow_threshold_size_store:ret <- $x0
	//DEBUG_VALUE: mas_gear_flow_threshold_size_store:val <- [DW_OP_plus_uconst 24, DW_OP_deref] $fp
	//DEBUG_VALUE: mas_gear_flow_threshold_size_store:page <- [DW_OP_LLVM_entry_value 1] $x1
	//DEBUG_VALUE: mas_gear_flow_threshold_size_store:q <- [DW_OP_LLVM_entry_value 1] $x0
	.loc	20 218 40                       // kernel/platform_source/basicplatform/block/mas_blk_gear_ctrl_sysfs.c:218:40
	ldr	x8, [x29, #24]
.Ltmp133:
	//DEBUG_VALUE: mas_gear_flow_threshold_size_store:val <- $x8
	.loc	20 218 38 is_stmt 0             // kernel/platform_source/basicplatform/block/mas_blk_gear_ctrl_sysfs.c:218:38
	adrp	x9, g_mas_gear_ctrl_flow_threshold_size
	str	w8, [x9, :lo12:g_mas_gear_ctrl_flow_threshold_size]
.Ltmp134:
.LBB10_3:
	//DEBUG_VALUE: mas_gear_flow_threshold_size_store:count <- $x19
	.loc	20 221 1 is_stmt 1              // kernel/platform_source/basicplatform/block/mas_blk_gear_ctrl_sysfs.c:221:1
	mov	x0, x19
	ldr	x19, [sp, #16]                  // 8-byte Folded Reload
.Ltmp135:
	//DEBUG_VALUE: mas_gear_flow_threshold_size_store:count <- [DW_OP_LLVM_entry_value 1] $x2
	ldp	x29, x30, [sp], #32             // 16-byte Folded Reload
	hint	#29
	ret
.Ltmp136:
.Lfunc_end10:
	.size	mas_gear_flow_threshold_size_store, .Lfunc_end10-mas_gear_flow_threshold_size_store
	.cfi_endproc
                                        // -- End function
	.globl	mas_gear_flow_threshold_size_show // -- Begin function mas_gear_flow_threshold_size_show
	.p2align	2
	.type	mas_gear_flow_threshold_size_show,@function
mas_gear_flow_threshold_size_show:      // @mas_gear_flow_threshold_size_show
.Lfunc_begin11:
	.loc	20 224 0                        // kernel/platform_source/basicplatform/block/mas_blk_gear_ctrl_sysfs.c:224:0
	.cfi_startproc
// %bb.0:
	//DEBUG_VALUE: mas_gear_flow_threshold_size_show:q <- $x0
	//DEBUG_VALUE: mas_gear_flow_threshold_size_show:page <- $x1
	hint	#25
	.cfi_negate_ra_state
	stp	x29, x30, [sp, #-16]!           // 16-byte Folded Spill
	mov	x29, sp
	.cfi_def_cfa w29, 16
	.cfi_offset w30, -8
	.cfi_offset w29, -16
.Ltmp137:
	.loc	20 227 6 prologue_end           // kernel/platform_source/basicplatform/block/mas_blk_gear_ctrl_sysfs.c:227:6
	adrp	x8, g_mas_gear_ctrl_device_abandon
	ldrb	w8, [x8, :lo12:g_mas_gear_ctrl_device_abandon]
	mov	x0, x1
.Ltmp138:
	//DEBUG_VALUE: mas_gear_flow_threshold_size_show:q <- [DW_OP_LLVM_entry_value 1] $x0
	//DEBUG_VALUE: mas_gear_flow_threshold_size_show:offset <- 0
	//DEBUG_VALUE: mas_gear_flow_threshold_size_show:page <- $x0
	.loc	20 227 6 is_stmt 0              // kernel/platform_source/basicplatform/block/mas_blk_gear_ctrl_sysfs.c:227:6
	cbz	w8, .LBB11_2
.Ltmp139:
// %bb.1:
	//DEBUG_VALUE: mas_gear_flow_threshold_size_show:page <- $x0
	//DEBUG_VALUE: mas_gear_flow_threshold_size_show:offset <- 0
	//DEBUG_VALUE: mas_gear_flow_threshold_size_show:q <- [DW_OP_LLVM_entry_value 1] $x0
	.loc	20 228 12 is_stmt 1             // kernel/platform_source/basicplatform/block/mas_blk_gear_ctrl_sysfs.c:228:12
	adrp	x3, .L.str.2
	add	x3, x3, :lo12:.L.str.2
	mov	w1, #4096
	mov	w2, #4095
	bl	snprintf_s
.Ltmp140:
	.loc	20 0 12 is_stmt 0               // kernel/platform_source/basicplatform/block/mas_blk_gear_ctrl_sysfs.c:0:12
	b	.LBB11_3
.Ltmp141:
.LBB11_2:
	//DEBUG_VALUE: mas_gear_flow_threshold_size_show:page <- $x0
	//DEBUG_VALUE: mas_gear_flow_threshold_size_show:offset <- 0
	//DEBUG_VALUE: mas_gear_flow_threshold_size_show:q <- [DW_OP_LLVM_entry_value 1] $x0
	.loc	20 233 8 is_stmt 1              // kernel/platform_source/basicplatform/block/mas_blk_gear_ctrl_sysfs.c:233:8
	adrp	x8, g_mas_gear_ctrl_flow_threshold_size
	ldr	w4, [x8, :lo12:g_mas_gear_ctrl_flow_threshold_size]
	.loc	20 232 11                       // kernel/platform_source/basicplatform/block/mas_blk_gear_ctrl_sysfs.c:232:11
	adrp	x3, .L.str.7
	add	x3, x3, :lo12:.L.str.7
	mov	w1, #4096
	mov	w2, #4095
	bl	snprintf_s
.Ltmp142:
.LBB11_3:
	//DEBUG_VALUE: mas_gear_flow_threshold_size_show:offset <- 0
	//DEBUG_VALUE: mas_gear_flow_threshold_size_show:q <- [DW_OP_LLVM_entry_value 1] $x0
                                        // kill: def $w0 killed $w0 def $x0
	.loc	20 0 0 is_stmt 0                // kernel/platform_source/basicplatform/block/mas_blk_gear_ctrl_sysfs.c:0:0
	sxtw	x8, w0
.Ltmp143:
	//DEBUG_VALUE: mas_gear_flow_threshold_size_show:offset <- $x8
	bic	x0, x8, x8, asr #63
	.loc	20 236 1 is_stmt 1              // kernel/platform_source/basicplatform/block/mas_blk_gear_ctrl_sysfs.c:236:1
	ldp	x29, x30, [sp], #16             // 16-byte Folded Reload
	hint	#29
	ret
.Ltmp144:
.Lfunc_end11:
	.size	mas_gear_flow_threshold_size_show, .Lfunc_end11-mas_gear_flow_threshold_size_show
	.cfi_endproc
                                        // -- End function
	.globl	mas_gear_flow_threshold_cnt_store // -- Begin function mas_gear_flow_threshold_cnt_store
	.p2align	2
	.type	mas_gear_flow_threshold_cnt_store,@function
mas_gear_flow_threshold_cnt_store:      // @mas_gear_flow_threshold_cnt_store
.Lfunc_begin12:
	.loc	20 239 0                        // kernel/platform_source/basicplatform/block/mas_blk_gear_ctrl_sysfs.c:239:0
	.cfi_startproc
// %bb.0:
	//DEBUG_VALUE: mas_gear_flow_threshold_cnt_store:q <- $x0
	//DEBUG_VALUE: mas_gear_flow_threshold_cnt_store:page <- $x1
	//DEBUG_VALUE: mas_gear_flow_threshold_cnt_store:count <- $x2
	hint	#25
	.cfi_negate_ra_state
	stp	x29, x30, [sp, #-32]!           // 16-byte Folded Spill
	str	x19, [sp, #16]                  // 8-byte Folded Spill
	mov	x29, sp
	.cfi_def_cfa w29, 32
	.cfi_offset w19, -16
	.cfi_offset w30, -24
	.cfi_offset w29, -32
.Ltmp145:
	.loc	20 243 6 prologue_end           // kernel/platform_source/basicplatform/block/mas_blk_gear_ctrl_sysfs.c:243:6
	adrp	x8, g_mas_gear_ctrl_device_abandon
	ldrb	w8, [x8, :lo12:g_mas_gear_ctrl_device_abandon]
	//DEBUG_VALUE: mas_gear_flow_threshold_cnt_store:page <- $x1
	mov	x19, x2
.Ltmp146:
	//DEBUG_VALUE: mas_gear_flow_threshold_cnt_store:count <- $x19
	//DEBUG_VALUE: mas_gear_flow_threshold_cnt_store:count <- $x19
	.loc	20 243 6 is_stmt 0              // kernel/platform_source/basicplatform/block/mas_blk_gear_ctrl_sysfs.c:243:6
	cbnz	w8, .LBB12_3
.Ltmp147:
// %bb.1:
	//DEBUG_VALUE: mas_gear_flow_threshold_cnt_store:count <- $x19
	//DEBUG_VALUE: mas_gear_flow_threshold_cnt_store:page <- $x1
	//DEBUG_VALUE: mas_gear_flow_threshold_cnt_store:q <- $x0
	//DEBUG_VALUE: mas_gear_flow_threshold_cnt_store:val <- [DW_OP_plus_uconst 24, DW_OP_deref] $fp
	.loc	20 245 8 is_stmt 1              // kernel/platform_source/basicplatform/block/mas_blk_gear_ctrl_sysfs.c:245:8
	add	x0, x29, #24                    // =24
.Ltmp148:
	//DEBUG_VALUE: mas_gear_flow_threshold_cnt_store:q <- [DW_OP_LLVM_entry_value 1] $x0
	mov	x2, x19
	bl	queue_var_store
.Ltmp149:
	//DEBUG_VALUE: mas_gear_flow_threshold_cnt_store:page <- [DW_OP_LLVM_entry_value 1] $x1
	//DEBUG_VALUE: mas_gear_flow_threshold_cnt_store:ret <- $x0
	.loc	20 246 6                        // kernel/platform_source/basicplatform/block/mas_blk_gear_ctrl_sysfs.c:246:6
	tbnz	x0, #63, .LBB12_3
.Ltmp150:
// %bb.2:
	//DEBUG_VALUE: mas_gear_flow_threshold_cnt_store:count <- $x19
	//DEBUG_VALUE: mas_gear_flow_threshold_cnt_store:ret <- $x0
	//DEBUG_VALUE: mas_gear_flow_threshold_cnt_store:val <- [DW_OP_plus_uconst 24, DW_OP_deref] $fp
	//DEBUG_VALUE: mas_gear_flow_threshold_cnt_store:page <- [DW_OP_LLVM_entry_value 1] $x1
	//DEBUG_VALUE: mas_gear_flow_threshold_cnt_store:q <- [DW_OP_LLVM_entry_value 1] $x0
	.loc	20 249 39                       // kernel/platform_source/basicplatform/block/mas_blk_gear_ctrl_sysfs.c:249:39
	ldr	x8, [x29, #24]
.Ltmp151:
	//DEBUG_VALUE: mas_gear_flow_threshold_cnt_store:val <- $x8
	.loc	20 249 37 is_stmt 0             // kernel/platform_source/basicplatform/block/mas_blk_gear_ctrl_sysfs.c:249:37
	adrp	x9, g_mas_gear_ctrl_flow_threshold_cnt
	str	w8, [x9, :lo12:g_mas_gear_ctrl_flow_threshold_cnt]
.Ltmp152:
.LBB12_3:
	//DEBUG_VALUE: mas_gear_flow_threshold_cnt_store:count <- $x19
	.loc	20 252 1 is_stmt 1              // kernel/platform_source/basicplatform/block/mas_blk_gear_ctrl_sysfs.c:252:1
	mov	x0, x19
	ldr	x19, [sp, #16]                  // 8-byte Folded Reload
.Ltmp153:
	//DEBUG_VALUE: mas_gear_flow_threshold_cnt_store:count <- [DW_OP_LLVM_entry_value 1] $x2
	ldp	x29, x30, [sp], #32             // 16-byte Folded Reload
	hint	#29
	ret
.Ltmp154:
.Lfunc_end12:
	.size	mas_gear_flow_threshold_cnt_store, .Lfunc_end12-mas_gear_flow_threshold_cnt_store
	.cfi_endproc
                                        // -- End function
	.globl	mas_gear_flow_threshold_cnt_show // -- Begin function mas_gear_flow_threshold_cnt_show
	.p2align	2
	.type	mas_gear_flow_threshold_cnt_show,@function
mas_gear_flow_threshold_cnt_show:       // @mas_gear_flow_threshold_cnt_show
.Lfunc_begin13:
	.loc	20 255 0                        // kernel/platform_source/basicplatform/block/mas_blk_gear_ctrl_sysfs.c:255:0
	.cfi_startproc
// %bb.0:
	//DEBUG_VALUE: mas_gear_flow_threshold_cnt_show:q <- $x0
	//DEBUG_VALUE: mas_gear_flow_threshold_cnt_show:page <- $x1
	hint	#25
	.cfi_negate_ra_state
	stp	x29, x30, [sp, #-16]!           // 16-byte Folded Spill
	mov	x29, sp
	.cfi_def_cfa w29, 16
	.cfi_offset w30, -8
	.cfi_offset w29, -16
.Ltmp155:
	.loc	20 258 6 prologue_end           // kernel/platform_source/basicplatform/block/mas_blk_gear_ctrl_sysfs.c:258:6
	adrp	x8, g_mas_gear_ctrl_device_abandon
	ldrb	w8, [x8, :lo12:g_mas_gear_ctrl_device_abandon]
	mov	x0, x1
.Ltmp156:
	//DEBUG_VALUE: mas_gear_flow_threshold_cnt_show:q <- [DW_OP_LLVM_entry_value 1] $x0
	//DEBUG_VALUE: mas_gear_flow_threshold_cnt_show:offset <- 0
	//DEBUG_VALUE: mas_gear_flow_threshold_cnt_show:page <- $x0
	.loc	20 258 6 is_stmt 0              // kernel/platform_source/basicplatform/block/mas_blk_gear_ctrl_sysfs.c:258:6
	cbz	w8, .LBB13_2
.Ltmp157:
// %bb.1:
	//DEBUG_VALUE: mas_gear_flow_threshold_cnt_show:page <- $x0
	//DEBUG_VALUE: mas_gear_flow_threshold_cnt_show:offset <- 0
	//DEBUG_VALUE: mas_gear_flow_threshold_cnt_show:q <- [DW_OP_LLVM_entry_value 1] $x0
	.loc	20 259 12 is_stmt 1             // kernel/platform_source/basicplatform/block/mas_blk_gear_ctrl_sysfs.c:259:12
	adrp	x3, .L.str.2
	add	x3, x3, :lo12:.L.str.2
	mov	w1, #4096
	mov	w2, #4095
	bl	snprintf_s
.Ltmp158:
	.loc	20 0 12 is_stmt 0               // kernel/platform_source/basicplatform/block/mas_blk_gear_ctrl_sysfs.c:0:12
	b	.LBB13_3
.Ltmp159:
.LBB13_2:
	//DEBUG_VALUE: mas_gear_flow_threshold_cnt_show:page <- $x0
	//DEBUG_VALUE: mas_gear_flow_threshold_cnt_show:offset <- 0
	//DEBUG_VALUE: mas_gear_flow_threshold_cnt_show:q <- [DW_OP_LLVM_entry_value 1] $x0
	.loc	20 264 8 is_stmt 1              // kernel/platform_source/basicplatform/block/mas_blk_gear_ctrl_sysfs.c:264:8
	adrp	x8, g_mas_gear_ctrl_flow_threshold_cnt
	ldr	w4, [x8, :lo12:g_mas_gear_ctrl_flow_threshold_cnt]
	.loc	20 263 11                       // kernel/platform_source/basicplatform/block/mas_blk_gear_ctrl_sysfs.c:263:11
	adrp	x3, .L.str.8
	add	x3, x3, :lo12:.L.str.8
	mov	w1, #4096
	mov	w2, #4095
	bl	snprintf_s
.Ltmp160:
.LBB13_3:
	//DEBUG_VALUE: mas_gear_flow_threshold_cnt_show:offset <- 0
	//DEBUG_VALUE: mas_gear_flow_threshold_cnt_show:q <- [DW_OP_LLVM_entry_value 1] $x0
                                        // kill: def $w0 killed $w0 def $x0
	.loc	20 0 0 is_stmt 0                // kernel/platform_source/basicplatform/block/mas_blk_gear_ctrl_sysfs.c:0:0
	sxtw	x8, w0
.Ltmp161:
	//DEBUG_VALUE: mas_gear_flow_threshold_cnt_show:offset <- $x8
	bic	x0, x8, x8, asr #63
	.loc	20 267 1 is_stmt 1              // kernel/platform_source/basicplatform/block/mas_blk_gear_ctrl_sysfs.c:267:1
	ldp	x29, x30, [sp], #16             // 16-byte Folded Reload
	hint	#29
	ret
.Ltmp162:
.Lfunc_end13:
	.size	mas_gear_flow_threshold_cnt_show, .Lfunc_end13-mas_gear_flow_threshold_cnt_show
	.cfi_endproc
                                        // -- End function
	.globl	mas_gear_sync_num_store         // -- Begin function mas_gear_sync_num_store
	.p2align	2
	.type	mas_gear_sync_num_store,@function
mas_gear_sync_num_store:                // @mas_gear_sync_num_store
.Lfunc_begin14:
	.loc	20 270 0                        // kernel/platform_source/basicplatform/block/mas_blk_gear_ctrl_sysfs.c:270:0
	.cfi_startproc
// %bb.0:
	//DEBUG_VALUE: mas_gear_sync_num_store:q <- $x0
	//DEBUG_VALUE: mas_gear_sync_num_store:page <- $x1
	//DEBUG_VALUE: mas_gear_sync_num_store:count <- $x2
	hint	#25
	.cfi_negate_ra_state
	stp	x29, x30, [sp, #-32]!           // 16-byte Folded Spill
	str	x19, [sp, #16]                  // 8-byte Folded Spill
	mov	x29, sp
	.cfi_def_cfa w29, 32
	.cfi_offset w19, -16
	.cfi_offset w30, -24
	.cfi_offset w29, -32
.Ltmp163:
	.loc	20 274 6 prologue_end           // kernel/platform_source/basicplatform/block/mas_blk_gear_ctrl_sysfs.c:274:6
	adrp	x8, g_mas_gear_ctrl_device_abandon
	ldrb	w8, [x8, :lo12:g_mas_gear_ctrl_device_abandon]
	//DEBUG_VALUE: mas_gear_sync_num_store:page <- $x1
	mov	x19, x2
.Ltmp164:
	//DEBUG_VALUE: mas_gear_sync_num_store:count <- $x19
	//DEBUG_VALUE: mas_gear_sync_num_store:count <- $x19
	.loc	20 274 6 is_stmt 0              // kernel/platform_source/basicplatform/block/mas_blk_gear_ctrl_sysfs.c:274:6
	cbnz	w8, .LBB14_3
.Ltmp165:
// %bb.1:
	//DEBUG_VALUE: mas_gear_sync_num_store:count <- $x19
	//DEBUG_VALUE: mas_gear_sync_num_store:page <- $x1
	//DEBUG_VALUE: mas_gear_sync_num_store:q <- $x0
	//DEBUG_VALUE: mas_gear_sync_num_store:val <- [DW_OP_plus_uconst 24, DW_OP_deref] $fp
	.loc	20 276 8 is_stmt 1              // kernel/platform_source/basicplatform/block/mas_blk_gear_ctrl_sysfs.c:276:8
	add	x0, x29, #24                    // =24
.Ltmp166:
	//DEBUG_VALUE: mas_gear_sync_num_store:q <- [DW_OP_LLVM_entry_value 1] $x0
	mov	x2, x19
	bl	queue_var_store
.Ltmp167:
	//DEBUG_VALUE: mas_gear_sync_num_store:page <- [DW_OP_LLVM_entry_value 1] $x1
	//DEBUG_VALUE: mas_gear_sync_num_store:ret <- $x0
	.loc	20 277 6                        // kernel/platform_source/basicplatform/block/mas_blk_gear_ctrl_sysfs.c:277:6
	tbnz	x0, #63, .LBB14_3
.Ltmp168:
// %bb.2:
	//DEBUG_VALUE: mas_gear_sync_num_store:count <- $x19
	//DEBUG_VALUE: mas_gear_sync_num_store:ret <- $x0
	//DEBUG_VALUE: mas_gear_sync_num_store:val <- [DW_OP_plus_uconst 24, DW_OP_deref] $fp
	//DEBUG_VALUE: mas_gear_sync_num_store:page <- [DW_OP_LLVM_entry_value 1] $x1
	//DEBUG_VALUE: mas_gear_sync_num_store:q <- [DW_OP_LLVM_entry_value 1] $x0
	.loc	20 280 19                       // kernel/platform_source/basicplatform/block/mas_blk_gear_ctrl_sysfs.c:280:19
	ldr	x8, [x29, #24]
.Ltmp169:
	//DEBUG_VALUE: mas_gear_sync_num_store:val <- $x8
	.loc	20 280 17 is_stmt 0             // kernel/platform_source/basicplatform/block/mas_blk_gear_ctrl_sysfs.c:280:17
	adrp	x9, g_mas_sync_num
	str	w8, [x9, :lo12:g_mas_sync_num]
.Ltmp170:
.LBB14_3:
	//DEBUG_VALUE: mas_gear_sync_num_store:count <- $x19
	.loc	20 283 1 is_stmt 1              // kernel/platform_source/basicplatform/block/mas_blk_gear_ctrl_sysfs.c:283:1
	mov	x0, x19
	ldr	x19, [sp, #16]                  // 8-byte Folded Reload
.Ltmp171:
	//DEBUG_VALUE: mas_gear_sync_num_store:count <- [DW_OP_LLVM_entry_value 1] $x2
	ldp	x29, x30, [sp], #32             // 16-byte Folded Reload
	hint	#29
	ret
.Ltmp172:
.Lfunc_end14:
	.size	mas_gear_sync_num_store, .Lfunc_end14-mas_gear_sync_num_store
	.cfi_endproc
                                        // -- End function
	.globl	mas_gear_sync_num_show          // -- Begin function mas_gear_sync_num_show
	.p2align	2
	.type	mas_gear_sync_num_show,@function
mas_gear_sync_num_show:                 // @mas_gear_sync_num_show
.Lfunc_begin15:
	.loc	20 286 0                        // kernel/platform_source/basicplatform/block/mas_blk_gear_ctrl_sysfs.c:286:0
	.cfi_startproc
// %bb.0:
	//DEBUG_VALUE: mas_gear_sync_num_show:q <- $x0
	//DEBUG_VALUE: mas_gear_sync_num_show:page <- $x1
	hint	#25
	.cfi_negate_ra_state
	stp	x29, x30, [sp, #-16]!           // 16-byte Folded Spill
	mov	x29, sp
	.cfi_def_cfa w29, 16
	.cfi_offset w30, -8
	.cfi_offset w29, -16
.Ltmp173:
	.loc	20 289 6 prologue_end           // kernel/platform_source/basicplatform/block/mas_blk_gear_ctrl_sysfs.c:289:6
	adrp	x8, g_mas_gear_ctrl_device_abandon
	ldrb	w8, [x8, :lo12:g_mas_gear_ctrl_device_abandon]
	mov	x0, x1
.Ltmp174:
	//DEBUG_VALUE: mas_gear_sync_num_show:q <- [DW_OP_LLVM_entry_value 1] $x0
	//DEBUG_VALUE: mas_gear_sync_num_show:offset <- 0
	//DEBUG_VALUE: mas_gear_sync_num_show:page <- $x0
	.loc	20 289 6 is_stmt 0              // kernel/platform_source/basicplatform/block/mas_blk_gear_ctrl_sysfs.c:289:6
	cbz	w8, .LBB15_2
.Ltmp175:
// %bb.1:
	//DEBUG_VALUE: mas_gear_sync_num_show:page <- $x0
	//DEBUG_VALUE: mas_gear_sync_num_show:offset <- 0
	//DEBUG_VALUE: mas_gear_sync_num_show:q <- [DW_OP_LLVM_entry_value 1] $x0
	.loc	20 290 12 is_stmt 1             // kernel/platform_source/basicplatform/block/mas_blk_gear_ctrl_sysfs.c:290:12
	adrp	x3, .L.str.2
	add	x3, x3, :lo12:.L.str.2
	mov	w1, #4096
	mov	w2, #4095
	bl	snprintf_s
.Ltmp176:
	.loc	20 0 12 is_stmt 0               // kernel/platform_source/basicplatform/block/mas_blk_gear_ctrl_sysfs.c:0:12
	b	.LBB15_3
.Ltmp177:
.LBB15_2:
	//DEBUG_VALUE: mas_gear_sync_num_show:page <- $x0
	//DEBUG_VALUE: mas_gear_sync_num_show:offset <- 0
	//DEBUG_VALUE: mas_gear_sync_num_show:q <- [DW_OP_LLVM_entry_value 1] $x0
	.loc	20 294 94 is_stmt 1             // kernel/platform_source/basicplatform/block/mas_blk_gear_ctrl_sysfs.c:294:94
	adrp	x8, g_mas_sync_num
	ldr	w4, [x8, :lo12:g_mas_sync_num]
	.loc	20 294 11 is_stmt 0             // kernel/platform_source/basicplatform/block/mas_blk_gear_ctrl_sysfs.c:294:11
	adrp	x3, .L.str.9
	add	x3, x3, :lo12:.L.str.9
	mov	w1, #4096
	mov	w2, #4095
	bl	snprintf_s
.Ltmp178:
.LBB15_3:
	//DEBUG_VALUE: mas_gear_sync_num_show:offset <- 0
	//DEBUG_VALUE: mas_gear_sync_num_show:q <- [DW_OP_LLVM_entry_value 1] $x0
                                        // kill: def $w0 killed $w0 def $x0
	.loc	20 0 0                          // kernel/platform_source/basicplatform/block/mas_blk_gear_ctrl_sysfs.c:0:0
	sxtw	x8, w0
.Ltmp179:
	//DEBUG_VALUE: mas_gear_sync_num_show:offset <- $x8
	bic	x0, x8, x8, asr #63
	.loc	20 297 1 is_stmt 1              // kernel/platform_source/basicplatform/block/mas_blk_gear_ctrl_sysfs.c:297:1
	ldp	x29, x30, [sp], #16             // 16-byte Folded Reload
	hint	#29
	ret
.Ltmp180:
.Lfunc_end15:
	.size	mas_gear_sync_num_show, .Lfunc_end15-mas_gear_sync_num_show
	.cfi_endproc
                                        // -- End function
	.globl	mas_min_gear_stay_time_store    // -- Begin function mas_min_gear_stay_time_store
	.p2align	2
	.type	mas_min_gear_stay_time_store,@function
mas_min_gear_stay_time_store:           // @mas_min_gear_stay_time_store
.Lfunc_begin16:
	.loc	20 300 0                        // kernel/platform_source/basicplatform/block/mas_blk_gear_ctrl_sysfs.c:300:0
	.cfi_startproc
// %bb.0:
	//DEBUG_VALUE: mas_min_gear_stay_time_store:q <- $x0
	//DEBUG_VALUE: mas_min_gear_stay_time_store:page <- $x1
	//DEBUG_VALUE: mas_min_gear_stay_time_store:count <- $x2
	hint	#25
	.cfi_negate_ra_state
	stp	x29, x30, [sp, #-32]!           // 16-byte Folded Spill
	str	x19, [sp, #16]                  // 8-byte Folded Spill
	mov	x29, sp
	.cfi_def_cfa w29, 32
	.cfi_offset w19, -16
	.cfi_offset w30, -24
	.cfi_offset w29, -32
.Ltmp181:
	.loc	20 304 6 prologue_end           // kernel/platform_source/basicplatform/block/mas_blk_gear_ctrl_sysfs.c:304:6
	adrp	x8, g_mas_gear_ctrl_device_abandon
	ldrb	w8, [x8, :lo12:g_mas_gear_ctrl_device_abandon]
	//DEBUG_VALUE: mas_min_gear_stay_time_store:page <- $x1
	mov	x19, x2
.Ltmp182:
	//DEBUG_VALUE: mas_min_gear_stay_time_store:count <- $x19
	//DEBUG_VALUE: mas_min_gear_stay_time_store:count <- $x19
	.loc	20 304 6 is_stmt 0              // kernel/platform_source/basicplatform/block/mas_blk_gear_ctrl_sysfs.c:304:6
	cbnz	w8, .LBB16_3
.Ltmp183:
// %bb.1:
	//DEBUG_VALUE: mas_min_gear_stay_time_store:count <- $x19
	//DEBUG_VALUE: mas_min_gear_stay_time_store:page <- $x1
	//DEBUG_VALUE: mas_min_gear_stay_time_store:q <- $x0
	//DEBUG_VALUE: mas_min_gear_stay_time_store:val <- [DW_OP_plus_uconst 24, DW_OP_deref] $fp
	.loc	20 306 8 is_stmt 1              // kernel/platform_source/basicplatform/block/mas_blk_gear_ctrl_sysfs.c:306:8
	add	x0, x29, #24                    // =24
.Ltmp184:
	//DEBUG_VALUE: mas_min_gear_stay_time_store:q <- [DW_OP_LLVM_entry_value 1] $x0
	mov	x2, x19
	bl	queue_var_store
.Ltmp185:
	//DEBUG_VALUE: mas_min_gear_stay_time_store:page <- [DW_OP_LLVM_entry_value 1] $x1
	//DEBUG_VALUE: mas_min_gear_stay_time_store:ret <- undef
	.loc	20 307 6                        // kernel/platform_source/basicplatform/block/mas_blk_gear_ctrl_sysfs.c:307:6
	tbnz	w0, #31, .LBB16_3
.Ltmp186:
// %bb.2:
	//DEBUG_VALUE: mas_min_gear_stay_time_store:count <- $x19
	//DEBUG_VALUE: mas_min_gear_stay_time_store:val <- [DW_OP_plus_uconst 24, DW_OP_deref] $fp
	//DEBUG_VALUE: mas_min_gear_stay_time_store:page <- [DW_OP_LLVM_entry_value 1] $x1
	//DEBUG_VALUE: mas_min_gear_stay_time_store:q <- [DW_OP_LLVM_entry_value 1] $x0
	.loc	20 310 37                       // kernel/platform_source/basicplatform/block/mas_blk_gear_ctrl_sysfs.c:310:37
	ldr	x8, [x29, #24]
.Ltmp187:
	//DEBUG_VALUE: mas_min_gear_stay_time_store:val <- $x8
	.loc	20 310 35 is_stmt 0             // kernel/platform_source/basicplatform/block/mas_blk_gear_ctrl_sysfs.c:310:35
	adrp	x9, g_mas_min_highest_gear_stay_time
	str	w8, [x9, :lo12:g_mas_min_highest_gear_stay_time]
.Ltmp188:
.LBB16_3:
	//DEBUG_VALUE: mas_min_gear_stay_time_store:count <- $x19
	.loc	20 313 1 is_stmt 1              // kernel/platform_source/basicplatform/block/mas_blk_gear_ctrl_sysfs.c:313:1
	mov	x0, x19
	ldr	x19, [sp, #16]                  // 8-byte Folded Reload
.Ltmp189:
	//DEBUG_VALUE: mas_min_gear_stay_time_store:count <- [DW_OP_LLVM_entry_value 1] $x2
	ldp	x29, x30, [sp], #32             // 16-byte Folded Reload
	hint	#29
	ret
.Ltmp190:
.Lfunc_end16:
	.size	mas_min_gear_stay_time_store, .Lfunc_end16-mas_min_gear_stay_time_store
	.cfi_endproc
                                        // -- End function
	.globl	mas_min_gear_stay_time_show     // -- Begin function mas_min_gear_stay_time_show
	.p2align	2
	.type	mas_min_gear_stay_time_show,@function
mas_min_gear_stay_time_show:            // @mas_min_gear_stay_time_show
.Lfunc_begin17:
	.loc	20 316 0                        // kernel/platform_source/basicplatform/block/mas_blk_gear_ctrl_sysfs.c:316:0
	.cfi_startproc
// %bb.0:
	//DEBUG_VALUE: mas_min_gear_stay_time_show:q <- $x0
	//DEBUG_VALUE: mas_min_gear_stay_time_show:page <- $x1
	hint	#25
	.cfi_negate_ra_state
	stp	x29, x30, [sp, #-16]!           // 16-byte Folded Spill
	mov	x29, sp
	.cfi_def_cfa w29, 16
	.cfi_offset w30, -8
	.cfi_offset w29, -16
.Ltmp191:
	.loc	20 319 6 prologue_end           // kernel/platform_source/basicplatform/block/mas_blk_gear_ctrl_sysfs.c:319:6
	adrp	x8, g_mas_gear_ctrl_device_abandon
	ldrb	w8, [x8, :lo12:g_mas_gear_ctrl_device_abandon]
	mov	x0, x1
.Ltmp192:
	//DEBUG_VALUE: mas_min_gear_stay_time_show:q <- [DW_OP_LLVM_entry_value 1] $x0
	//DEBUG_VALUE: mas_min_gear_stay_time_show:offset <- 0
	//DEBUG_VALUE: mas_min_gear_stay_time_show:page <- $x0
	.loc	20 319 6 is_stmt 0              // kernel/platform_source/basicplatform/block/mas_blk_gear_ctrl_sysfs.c:319:6
	cbz	w8, .LBB17_2
.Ltmp193:
// %bb.1:
	//DEBUG_VALUE: mas_min_gear_stay_time_show:page <- $x0
	//DEBUG_VALUE: mas_min_gear_stay_time_show:offset <- 0
	//DEBUG_VALUE: mas_min_gear_stay_time_show:q <- [DW_OP_LLVM_entry_value 1] $x0
	.loc	20 320 12 is_stmt 1             // kernel/platform_source/basicplatform/block/mas_blk_gear_ctrl_sysfs.c:320:12
	adrp	x3, .L.str.2
	add	x3, x3, :lo12:.L.str.2
	mov	w1, #4096
	mov	w2, #4095
	bl	snprintf_s
.Ltmp194:
	.loc	20 0 12 is_stmt 0               // kernel/platform_source/basicplatform/block/mas_blk_gear_ctrl_sysfs.c:0:12
	b	.LBB17_3
.Ltmp195:
.LBB17_2:
	//DEBUG_VALUE: mas_min_gear_stay_time_show:page <- $x0
	//DEBUG_VALUE: mas_min_gear_stay_time_show:offset <- 0
	//DEBUG_VALUE: mas_min_gear_stay_time_show:q <- [DW_OP_LLVM_entry_value 1] $x0
	.loc	20 325 8 is_stmt 1              // kernel/platform_source/basicplatform/block/mas_blk_gear_ctrl_sysfs.c:325:8
	adrp	x8, g_mas_min_highest_gear_stay_time
	ldr	w4, [x8, :lo12:g_mas_min_highest_gear_stay_time]
	.loc	20 324 11                       // kernel/platform_source/basicplatform/block/mas_blk_gear_ctrl_sysfs.c:324:11
	adrp	x3, .L.str.10
	add	x3, x3, :lo12:.L.str.10
	mov	w1, #4096
	mov	w2, #4095
	bl	snprintf_s
.Ltmp196:
.LBB17_3:
	//DEBUG_VALUE: mas_min_gear_stay_time_show:offset <- 0
	//DEBUG_VALUE: mas_min_gear_stay_time_show:q <- [DW_OP_LLVM_entry_value 1] $x0
                                        // kill: def $w0 killed $w0 def $x0
	.loc	20 0 0 is_stmt 0                // kernel/platform_source/basicplatform/block/mas_blk_gear_ctrl_sysfs.c:0:0
	sxtw	x8, w0
.Ltmp197:
	//DEBUG_VALUE: mas_min_gear_stay_time_show:offset <- $x8
	bic	x0, x8, x8, asr #63
	.loc	20 328 1 is_stmt 1              // kernel/platform_source/basicplatform/block/mas_blk_gear_ctrl_sysfs.c:328:1
	ldp	x29, x30, [sp], #16             // 16-byte Folded Reload
	hint	#29
	ret
.Ltmp198:
.Lfunc_end17:
	.size	mas_min_gear_stay_time_show, .Lfunc_end17-mas_min_gear_stay_time_show
	.cfi_endproc
                                        // -- End function
	.globl	mas_gear_io_back_store          // -- Begin function mas_gear_io_back_store
	.p2align	2
	.type	mas_gear_io_back_store,@function
mas_gear_io_back_store:                 // @mas_gear_io_back_store
.Lfunc_begin18:
	.loc	20 331 0                        // kernel/platform_source/basicplatform/block/mas_blk_gear_ctrl_sysfs.c:331:0
	.cfi_startproc
// %bb.0:
	//DEBUG_VALUE: mas_gear_io_back_store:q <- $x0
	//DEBUG_VALUE: mas_gear_io_back_store:page <- $x1
	//DEBUG_VALUE: mas_gear_io_back_store:count <- $x2
	hint	#25
	.cfi_negate_ra_state
	stp	x29, x30, [sp, #-32]!           // 16-byte Folded Spill
	str	x19, [sp, #16]                  // 8-byte Folded Spill
	mov	x29, sp
	.cfi_def_cfa w29, 32
	.cfi_offset w19, -16
	.cfi_offset w30, -24
	.cfi_offset w29, -32
.Ltmp199:
	.loc	20 335 6 prologue_end           // kernel/platform_source/basicplatform/block/mas_blk_gear_ctrl_sysfs.c:335:6
	adrp	x8, g_mas_gear_ctrl_device_abandon
	ldrb	w8, [x8, :lo12:g_mas_gear_ctrl_device_abandon]
	//DEBUG_VALUE: mas_gear_io_back_store:page <- $x1
	mov	x19, x2
.Ltmp200:
	//DEBUG_VALUE: mas_gear_io_back_store:count <- $x19
	//DEBUG_VALUE: mas_gear_io_back_store:count <- $x19
	.loc	20 335 6 is_stmt 0              // kernel/platform_source/basicplatform/block/mas_blk_gear_ctrl_sysfs.c:335:6
	cbnz	w8, .LBB18_3
.Ltmp201:
// %bb.1:
	//DEBUG_VALUE: mas_gear_io_back_store:count <- $x19
	//DEBUG_VALUE: mas_gear_io_back_store:page <- $x1
	//DEBUG_VALUE: mas_gear_io_back_store:q <- $x0
	//DEBUG_VALUE: mas_gear_io_back_store:val <- [DW_OP_plus_uconst 24, DW_OP_deref] $fp
	.loc	20 337 8 is_stmt 1              // kernel/platform_source/basicplatform/block/mas_blk_gear_ctrl_sysfs.c:337:8
	add	x0, x29, #24                    // =24
.Ltmp202:
	//DEBUG_VALUE: mas_gear_io_back_store:q <- [DW_OP_LLVM_entry_value 1] $x0
	mov	x2, x19
	bl	queue_var_store
.Ltmp203:
	//DEBUG_VALUE: mas_gear_io_back_store:page <- [DW_OP_LLVM_entry_value 1] $x1
	//DEBUG_VALUE: mas_gear_io_back_store:ret <- $x0
	.loc	20 338 6                        // kernel/platform_source/basicplatform/block/mas_blk_gear_ctrl_sysfs.c:338:6
	tbnz	x0, #63, .LBB18_3
.Ltmp204:
// %bb.2:
	//DEBUG_VALUE: mas_gear_io_back_store:count <- $x19
	//DEBUG_VALUE: mas_gear_io_back_store:ret <- $x0
	//DEBUG_VALUE: mas_gear_io_back_store:val <- [DW_OP_plus_uconst 24, DW_OP_deref] $fp
	//DEBUG_VALUE: mas_gear_io_back_store:page <- [DW_OP_LLVM_entry_value 1] $x1
	//DEBUG_VALUE: mas_gear_io_back_store:q <- [DW_OP_LLVM_entry_value 1] $x0
	.loc	20 341 30                       // kernel/platform_source/basicplatform/block/mas_blk_gear_ctrl_sysfs.c:341:30
	ldr	x8, [x29, #24]
.Ltmp205:
	//DEBUG_VALUE: mas_gear_io_back_store:val <- $x8
	.loc	20 341 26 is_stmt 0             // kernel/platform_source/basicplatform/block/mas_blk_gear_ctrl_sysfs.c:341:26
	adrp	x9, g_mas_gear_auto_io_back
	.loc	20 341 29                       // kernel/platform_source/basicplatform/block/mas_blk_gear_ctrl_sysfs.c:341:29
	cmp	x8, #0                          // =0
	cset	w8, ne
.Ltmp206:
	.loc	20 341 26                       // kernel/platform_source/basicplatform/block/mas_blk_gear_ctrl_sysfs.c:341:26
	strb	w8, [x9, :lo12:g_mas_gear_auto_io_back]
.Ltmp207:
.LBB18_3:
	//DEBUG_VALUE: mas_gear_io_back_store:count <- $x19
	.loc	20 344 1 is_stmt 1              // kernel/platform_source/basicplatform/block/mas_blk_gear_ctrl_sysfs.c:344:1
	mov	x0, x19
	ldr	x19, [sp, #16]                  // 8-byte Folded Reload
.Ltmp208:
	//DEBUG_VALUE: mas_gear_io_back_store:count <- [DW_OP_LLVM_entry_value 1] $x2
	ldp	x29, x30, [sp], #32             // 16-byte Folded Reload
	hint	#29
	ret
.Ltmp209:
.Lfunc_end18:
	.size	mas_gear_io_back_store, .Lfunc_end18-mas_gear_io_back_store
	.cfi_endproc
                                        // -- End function
	.globl	mas_gear_io_back_show           // -- Begin function mas_gear_io_back_show
	.p2align	2
	.type	mas_gear_io_back_show,@function
mas_gear_io_back_show:                  // @mas_gear_io_back_show
.Lfunc_begin19:
	.loc	20 347 0                        // kernel/platform_source/basicplatform/block/mas_blk_gear_ctrl_sysfs.c:347:0
	.cfi_startproc
// %bb.0:
	//DEBUG_VALUE: mas_gear_io_back_show:q <- $x0
	//DEBUG_VALUE: mas_gear_io_back_show:page <- $x1
	hint	#25
	.cfi_negate_ra_state
	stp	x29, x30, [sp, #-16]!           // 16-byte Folded Spill
	mov	x29, sp
	.cfi_def_cfa w29, 16
	.cfi_offset w30, -8
	.cfi_offset w29, -16
.Ltmp210:
	.loc	20 350 6 prologue_end           // kernel/platform_source/basicplatform/block/mas_blk_gear_ctrl_sysfs.c:350:6
	adrp	x8, g_mas_gear_ctrl_device_abandon
	ldrb	w8, [x8, :lo12:g_mas_gear_ctrl_device_abandon]
	mov	x0, x1
.Ltmp211:
	//DEBUG_VALUE: mas_gear_io_back_show:q <- [DW_OP_LLVM_entry_value 1] $x0
	//DEBUG_VALUE: mas_gear_io_back_show:offset <- 0
	//DEBUG_VALUE: mas_gear_io_back_show:page <- $x0
	.loc	20 350 6 is_stmt 0              // kernel/platform_source/basicplatform/block/mas_blk_gear_ctrl_sysfs.c:350:6
	cbz	w8, .LBB19_2
.Ltmp212:
// %bb.1:
	//DEBUG_VALUE: mas_gear_io_back_show:page <- $x0
	//DEBUG_VALUE: mas_gear_io_back_show:offset <- 0
	//DEBUG_VALUE: mas_gear_io_back_show:q <- [DW_OP_LLVM_entry_value 1] $x0
	.loc	20 351 13 is_stmt 1             // kernel/platform_source/basicplatform/block/mas_blk_gear_ctrl_sysfs.c:351:13
	adrp	x3, .L.str.2
	add	x3, x3, :lo12:.L.str.2
	mov	w1, #4096
	mov	w2, #4095
	bl	snprintf_s
.Ltmp213:
	.loc	20 0 13 is_stmt 0               // kernel/platform_source/basicplatform/block/mas_blk_gear_ctrl_sysfs.c:0:13
	b	.LBB19_3
.Ltmp214:
.LBB19_2:
	//DEBUG_VALUE: mas_gear_io_back_show:page <- $x0
	//DEBUG_VALUE: mas_gear_io_back_show:offset <- 0
	//DEBUG_VALUE: mas_gear_io_back_show:q <- [DW_OP_LLVM_entry_value 1] $x0
	.loc	20 356 9 is_stmt 1              // kernel/platform_source/basicplatform/block/mas_blk_gear_ctrl_sysfs.c:356:9
	adrp	x8, g_mas_gear_auto_io_back
	ldrb	w4, [x8, :lo12:g_mas_gear_auto_io_back]
	.loc	20 355 12                       // kernel/platform_source/basicplatform/block/mas_blk_gear_ctrl_sysfs.c:355:12
	adrp	x3, .L.str.11
	add	x3, x3, :lo12:.L.str.11
	mov	w1, #4096
	mov	w2, #4095
	bl	snprintf_s
.Ltmp215:
.LBB19_3:
	//DEBUG_VALUE: mas_gear_io_back_show:offset <- 0
	//DEBUG_VALUE: mas_gear_io_back_show:q <- [DW_OP_LLVM_entry_value 1] $x0
                                        // kill: def $w0 killed $w0 def $x0
	.loc	20 0 0 is_stmt 0                // kernel/platform_source/basicplatform/block/mas_blk_gear_ctrl_sysfs.c:0:0
	sxtw	x8, w0
.Ltmp216:
	//DEBUG_VALUE: mas_gear_io_back_show:offset <- $x8
	bic	x0, x8, x8, asr #63
	.loc	20 359 1 is_stmt 1              // kernel/platform_source/basicplatform/block/mas_blk_gear_ctrl_sysfs.c:359:1
	ldp	x29, x30, [sp], #16             // 16-byte Folded Reload
	hint	#29
	ret
.Ltmp217:
.Lfunc_end19:
	.size	mas_gear_io_back_show, .Lfunc_end19-mas_gear_io_back_show
	.cfi_endproc
                                        // -- End function
	.type	.L.str,@object                  // @.str
	.section	.rodata.str1.1,"aMS",@progbits,1
.L.str:
	.asciz	"can't get current gear level or cap: %d, %d\n"
	.size	.L.str, 45

	.type	.L.str.1,@object                // @.str.1
.L.str.1:
	.asciz	"cur_gear = %u, min_level = %u, max_level = %u\n"
	.size	.L.str.1, 47

	.type	.L.str.2,@object                // @.str.2
.L.str.2:
	.asciz	"not support gear ctrl!\n"
	.size	.L.str.2, 24

	.type	.L.str.3,@object                // @.str.3
.L.str.3:
	.asciz	"mas_gear_auto_flag: %d\n"
	.size	.L.str.3, 24

	.type	.L.str.4,@object                // @.str.4
.L.str.4:
	.asciz	"mas_ufs_rate: %u\n"
	.size	.L.str.4, 18

	.type	.L.str.5,@object                // @.str.5
.L.str.5:
	.asciz	"mas_fg_num: %u\n"
	.size	.L.str.5, 16

	.type	.L.str.6,@object                // @.str.6
.L.str.6:
	.asciz	"flow_wndsz: %uus\n"
	.size	.L.str.6, 18

	.type	.L.str.7,@object                // @.str.7
.L.str.7:
	.asciz	"flow_threshold_size: %u\n"
	.size	.L.str.7, 25

	.type	.L.str.8,@object                // @.str.8
.L.str.8:
	.asciz	"flow_threshold_cnt: %u\n"
	.size	.L.str.8, 24

	.type	.L.str.9,@object                // @.str.9
.L.str.9:
	.asciz	"mas_sync_num: %u\n"
	.size	.L.str.9, 18

	.type	.L.str.10,@object               // @.str.10
.L.str.10:
	.asciz	"min_gear4_time: %llu\n"
	.size	.L.str.10, 22

	.type	.L.str.11,@object               // @.str.11
.L.str.11:
	.asciz	"mas_gear_io_back true?: %d\n"
	.size	.L.str.11, 28
