	.text
	.section	.note.gnu.property,"a",@note
	.p2align	3
	.word	4
	.word	16
	.word	5
	.asciz	"GNU"
	.word	3221225472
	.word	4
	.word	3
	.word	0
.Lsec_end0:
	.text
	.file	"mas_bkops_core.c"
	.file	1 "/mnt/disk/jenkins/ci/workspace/chipset_pipeline_release/opensource/component_code/vendor/huawei/extra/build/build_script/kirin_kernel_release" "kernel/include/linux/types.h"
	.file	2 "/mnt/disk/jenkins/ci/workspace/chipset_pipeline_release/opensource/component_code/vendor/huawei/extra/build/build_script/kirin_kernel_release" "kernel/include/asm-generic/qspinlock_types.h"
	.file	3 "/mnt/disk/jenkins/ci/workspace/chipset_pipeline_release/opensource/component_code/vendor/huawei/extra/build/build_script/kirin_kernel_release" "kernel/include/uapi/asm-generic/int-ll64.h"
	.file	4 "/mnt/disk/jenkins/ci/workspace/chipset_pipeline_release/opensource/component_code/vendor/huawei/extra/build/build_script/kirin_kernel_release" "kernel/include/asm-generic/int-ll64.h"
	.file	5 "/mnt/disk/jenkins/ci/workspace/chipset_pipeline_release/opensource/component_code/vendor/huawei/extra/build/build_script/kirin_kernel_release" "kernel/include/linux/spinlock_types.h"
	.file	6 "/mnt/disk/jenkins/ci/workspace/chipset_pipeline_release/opensource/component_code/vendor/huawei/extra/build/build_script/kirin_kernel_release" "kernel/include/linux/ratelimit_types.h"
	.file	7 "/mnt/disk/jenkins/ci/workspace/chipset_pipeline_release/opensource/component_code/vendor/huawei/extra/build/build_script/kirin_kernel_release" "kernel/platform_source/basicplatform/block/mas_bkops_core.c"
	.file	8 "/mnt/disk/jenkins/ci/workspace/chipset_pipeline_release/opensource/component_code/vendor/huawei/extra/build/build_script/kirin_kernel_release" "kernel/include/asm-generic/atomic-long.h"
	.file	9 "/mnt/disk/jenkins/ci/workspace/chipset_pipeline_release/opensource/component_code/vendor/huawei/extra/build/build_script/kirin_kernel_release" "kernel/include/linux/mutex.h"
	.file	10 "/mnt/disk/jenkins/ci/workspace/chipset_pipeline_release/opensource/component_code/vendor/huawei/extra/build/build_script/kirin_kernel_release" "kernel/include/linux/osq_lock.h"
	.file	11 "/mnt/disk/jenkins/ci/workspace/chipset_pipeline_release/opensource/component_code/vendor/huawei/extra/build/build_script/kirin_kernel_release" "kernel/include/linux/notifier.h"
	.file	12 "/mnt/disk/jenkins/ci/workspace/chipset_pipeline_release/opensource/component_code/vendor/huawei/extra/build/build_script/kirin_kernel_release" "kernel/include/linux/proc_fs.h"
	.file	13 "/mnt/disk/jenkins/ci/workspace/chipset_pipeline_release/opensource/component_code/vendor/huawei/extra/build/build_script/kirin_kernel_release" "kernel/include/linux/fs.h"
	.file	14 "/mnt/disk/jenkins/ci/workspace/chipset_pipeline_release/opensource/component_code/vendor/huawei/extra/build/build_script/kirin_kernel_release" "kernel/include/uapi/asm-generic/posix_types.h"
	.file	15 "/mnt/disk/jenkins/ci/workspace/chipset_pipeline_release/opensource/component_code/vendor/huawei/extra/build/build_script/kirin_kernel_release" "kernel/include/linux/uidgid.h"
	.file	16 "/mnt/disk/jenkins/ci/workspace/chipset_pipeline_release/opensource/component_code/vendor/huawei/extra/build/build_script/kirin_kernel_release" "kernel/include/linux/dcache.h"
	.file	17 "/mnt/disk/jenkins/ci/workspace/chipset_pipeline_release/opensource/component_code/vendor/huawei/extra/build/build_script/kirin_kernel_release" "kernel/include/linux/seqlock.h"
	.file	18 "/mnt/disk/jenkins/ci/workspace/chipset_pipeline_release/opensource/component_code/vendor/huawei/extra/build/build_script/kirin_kernel_release" "kernel/include/linux/list_bl.h"
	.file	19 "/mnt/disk/jenkins/ci/workspace/chipset_pipeline_release/opensource/component_code/vendor/huawei/extra/build/build_script/kirin_kernel_release" "kernel/include/linux/lockref.h"
	.file	20 "/mnt/disk/jenkins/ci/workspace/chipset_pipeline_release/opensource/component_code/vendor/huawei/extra/build/build_script/kirin_kernel_release" "kernel/include/linux/path.h"
	.file	21 "/mnt/disk/jenkins/ci/workspace/chipset_pipeline_release/opensource/component_code/vendor/huawei/extra/build/build_script/kirin_kernel_release" "kernel/include/linux/module.h"
	.file	22 "/mnt/disk/jenkins/ci/workspace/chipset_pipeline_release/opensource/component_code/vendor/huawei/extra/build/build_script/kirin_kernel_release" "kernel/include/linux/kobject.h"
	.file	23 "/mnt/disk/jenkins/ci/workspace/chipset_pipeline_release/opensource/component_code/vendor/huawei/extra/build/build_script/kirin_kernel_release" "kernel/include/linux/sysfs.h"
	.file	24 "/mnt/disk/jenkins/ci/workspace/chipset_pipeline_release/opensource/component_code/vendor/huawei/extra/build/build_script/kirin_kernel_release" "kernel/include/linux/llist.h"
	.file	25 "/mnt/disk/jenkins/ci/workspace/chipset_pipeline_release/opensource/component_code/vendor/huawei/extra/build/build_script/kirin_kernel_release" "kernel/include/linux/mm_types.h"
	.file	26 "/mnt/disk/jenkins/ci/workspace/chipset_pipeline_release/opensource/component_code/vendor/huawei/extra/build/build_script/kirin_kernel_release" "kernel/include/linux/xarray.h"
	.file	27 "/mnt/disk/jenkins/ci/workspace/chipset_pipeline_release/opensource/component_code/vendor/huawei/extra/build/build_script/kirin_kernel_release" "kernel/include/linux/rbtree.h"
	.file	28 "/mnt/disk/jenkins/ci/workspace/chipset_pipeline_release/opensource/component_code/vendor/huawei/extra/build/build_script/kirin_kernel_release" "kernel/include/linux/rwsem.h"
	.file	29 "/mnt/disk/jenkins/ci/workspace/chipset_pipeline_release/opensource/component_code/vendor/huawei/extra/build/build_script/kirin_kernel_release" "kernel/arch/arm64/include/asm/thread_info.h"
	.file	30 "/mnt/disk/jenkins/ci/workspace/chipset_pipeline_release/opensource/component_code/vendor/huawei/extra/build/build_script/kirin_kernel_release" "kernel/include/linux/sched.h"
	.file	31 "/mnt/disk/jenkins/ci/workspace/chipset_pipeline_release/opensource/component_code/vendor/huawei/extra/build/build_script/kirin_kernel_release" "kernel/include/linux/refcount.h"
	.file	32 "/mnt/disk/jenkins/ci/workspace/chipset_pipeline_release/opensource/component_code/vendor/huawei/extra/build/build_script/kirin_kernel_release" "kernel/include/linux/smp_types.h"
	.file	33 "/mnt/disk/jenkins/ci/workspace/chipset_pipeline_release/opensource/component_code/vendor/huawei/extra/build/build_script/kirin_kernel_release" "kernel/include/linux/timerqueue.h"
	.file	34 "/mnt/disk/jenkins/ci/workspace/chipset_pipeline_release/opensource/component_code/vendor/huawei/extra/build/build_script/kirin_kernel_release" "kernel/include/linux/ktime.h"
	.file	35 "/mnt/disk/jenkins/ci/workspace/chipset_pipeline_release/opensource/component_code/vendor/huawei/extra/build/build_script/kirin_kernel_release" "kernel/include/linux/hrtimer.h"
	.file	36 "/mnt/disk/jenkins/ci/workspace/chipset_pipeline_release/opensource/component_code/vendor/huawei/extra/build/build_script/kirin_kernel_release" "kernel/include/linux/cpumask.h"
	.file	37 "/mnt/disk/jenkins/ci/workspace/chipset_pipeline_release/opensource/component_code/vendor/huawei/extra/build/build_script/kirin_kernel_release" "kernel/include/linux/plist.h"
	.file	38 "/mnt/disk/jenkins/ci/workspace/chipset_pipeline_release/opensource/component_code/vendor/huawei/extra/build/build_script/kirin_kernel_release" "kernel/arch/arm64/include/asm/pgtable-types.h"
	.file	39 "/mnt/disk/jenkins/ci/workspace/chipset_pipeline_release/opensource/component_code/vendor/huawei/extra/build/build_script/kirin_kernel_release" "kernel/include/linux/mm.h"
	.file	40 "/mnt/disk/jenkins/ci/workspace/chipset_pipeline_release/opensource/component_code/vendor/huawei/extra/build/build_script/kirin_kernel_release" "kernel/include/asm-generic/pgtable-nop4d.h"
	.file	41 "/mnt/disk/jenkins/ci/workspace/chipset_pipeline_release/opensource/component_code/vendor/huawei/extra/build/build_script/kirin_kernel_release" "kernel/include/asm-generic/pgtable-nopud.h"
	.file	42 "/mnt/disk/jenkins/ci/workspace/chipset_pipeline_release/opensource/component_code/vendor/huawei/extra/build/build_script/kirin_kernel_release" "kernel/arch/arm64/include/asm/page.h"
	.file	43 "/mnt/disk/jenkins/ci/workspace/chipset_pipeline_release/opensource/component_code/vendor/huawei/extra/build/build_script/kirin_kernel_release" "kernel/include/asm-generic/qrwlock_types.h"
	.file	44 "/mnt/disk/jenkins/ci/workspace/chipset_pipeline_release/opensource/component_code/vendor/huawei/extra/build/build_script/kirin_kernel_release" "kernel/include/linux/rwlock_types.h"
	.file	45 "/mnt/disk/jenkins/ci/workspace/chipset_pipeline_release/opensource/component_code/vendor/huawei/extra/build/build_script/kirin_kernel_release" "kernel/include/linux/mm_types_task.h"
	.file	46 "/mnt/disk/jenkins/ci/workspace/chipset_pipeline_release/opensource/component_code/vendor/huawei/extra/build/build_script/kirin_kernel_release" "kernel/arch/arm64/include/asm/mmu.h"
	.file	47 "/mnt/disk/jenkins/ci/workspace/chipset_pipeline_release/opensource/component_code/vendor/huawei/extra/build/build_script/kirin_kernel_release" "kernel/include/linux/completion.h"
	.file	48 "/mnt/disk/jenkins/ci/workspace/chipset_pipeline_release/opensource/component_code/vendor/huawei/extra/build/build_script/kirin_kernel_release" "kernel/include/linux/swait.h"
	.file	49 "/mnt/disk/jenkins/ci/workspace/chipset_pipeline_release/opensource/component_code/vendor/huawei/extra/build/build_script/kirin_kernel_release" "kernel/include/linux/user_namespace.h"
	.file	50 "/mnt/disk/jenkins/ci/workspace/chipset_pipeline_release/opensource/component_code/vendor/huawei/extra/build/build_script/kirin_kernel_release" "kernel/include/linux/ns_common.h"
	.file	51 "/mnt/disk/jenkins/ci/workspace/chipset_pipeline_release/opensource/component_code/vendor/huawei/extra/build/build_script/kirin_kernel_release" "kernel/include/linux/key.h"
	.file	52 "/mnt/disk/jenkins/ci/workspace/chipset_pipeline_release/opensource/component_code/vendor/huawei/extra/build/build_script/kirin_kernel_release" "kernel/include/linux/time64.h"
	.file	53 "/mnt/disk/jenkins/ci/workspace/chipset_pipeline_release/opensource/component_code/vendor/huawei/extra/build/build_script/kirin_kernel_release" "kernel/include/linux/assoc_array.h"
	.file	54 "/mnt/disk/jenkins/ci/workspace/chipset_pipeline_release/opensource/component_code/vendor/huawei/extra/build/build_script/kirin_kernel_release" "kernel/include/linux/workqueue.h"
	.file	55 "/mnt/disk/jenkins/ci/workspace/chipset_pipeline_release/opensource/component_code/vendor/huawei/extra/build/build_script/kirin_kernel_release" "kernel/include/linux/sysctl.h"
	.file	56 "/mnt/disk/jenkins/ci/workspace/chipset_pipeline_release/opensource/component_code/vendor/huawei/extra/build/build_script/kirin_kernel_release" "kernel/include/linux/wait.h"
	.file	57 "/mnt/disk/jenkins/ci/workspace/chipset_pipeline_release/opensource/component_code/vendor/huawei/extra/build/build_script/kirin_kernel_release" "kernel/include/linux/uprobes.h"
	.file	58 "/mnt/disk/jenkins/ci/workspace/chipset_pipeline_release/opensource/component_code/vendor/huawei/extra/build/build_script/kirin_kernel_release" "kernel/include/linux/xreclaimer_types.h"
	.file	59 "/mnt/disk/jenkins/ci/workspace/chipset_pipeline_release/opensource/component_code/vendor/huawei/extra/build/build_script/kirin_kernel_release" "kernel/include/linux/restart_block.h"
	.file	60 "/mnt/disk/jenkins/ci/workspace/chipset_pipeline_release/opensource/component_code/vendor/huawei/extra/build/build_script/kirin_kernel_release" "kernel/include/uapi/linux/time_types.h"
	.file	61 "/mnt/disk/jenkins/ci/workspace/chipset_pipeline_release/opensource/component_code/vendor/huawei/extra/build/build_script/kirin_kernel_release" "kernel/include/vdso/time32.h"
	.file	62 "/mnt/disk/jenkins/ci/workspace/chipset_pipeline_release/opensource/component_code/vendor/huawei/extra/build/build_script/kirin_kernel_release" "kernel/include/linux/pid.h"
	.file	63 "/mnt/disk/jenkins/ci/workspace/chipset_pipeline_release/opensource/component_code/vendor/huawei/extra/build/build_script/kirin_kernel_release" "kernel/include/linux/kref.h"
	.file	64 "/mnt/disk/jenkins/ci/workspace/chipset_pipeline_release/opensource/component_code/vendor/huawei/extra/build/build_script/kirin_kernel_release" "kernel/include/linux/pid_namespace.h"
	.file	65 "/mnt/disk/jenkins/ci/workspace/chipset_pipeline_release/opensource/component_code/vendor/huawei/extra/build/build_script/kirin_kernel_release" "kernel/include/linux/idr.h"
	.file	66 "/mnt/disk/jenkins/ci/workspace/chipset_pipeline_release/opensource/component_code/vendor/huawei/extra/build/build_script/kirin_kernel_release" "kernel/include/linux/posix-timers.h"
	.file	67 "/mnt/disk/jenkins/ci/workspace/chipset_pipeline_release/opensource/component_code/vendor/huawei/extra/build/build_script/kirin_kernel_release" "kernel/include/linux/cred.h"
	.file	68 "/mnt/disk/jenkins/ci/workspace/chipset_pipeline_release/opensource/component_code/vendor/huawei/extra/build/build_script/kirin_kernel_release" "kernel/include/linux/capability.h"
	.file	69 "/mnt/disk/jenkins/ci/workspace/chipset_pipeline_release/opensource/component_code/vendor/huawei/extra/build/build_script/kirin_kernel_release" "kernel/include/linux/sched/user.h"
	.file	70 "/mnt/disk/jenkins/ci/workspace/chipset_pipeline_release/opensource/component_code/vendor/huawei/extra/build/build_script/kirin_kernel_release" "kernel/include/linux/nsproxy.h"
	.file	71 "/mnt/disk/jenkins/ci/workspace/chipset_pipeline_release/opensource/component_code/vendor/huawei/extra/build/build_script/kirin_kernel_release" "kernel/include/linux/cgroup.h"
	.file	72 "/mnt/disk/jenkins/ci/workspace/chipset_pipeline_release/opensource/component_code/vendor/huawei/extra/build/build_script/kirin_kernel_release" "kernel/include/linux/cgroup-defs.h"
	.file	73 "/mnt/disk/jenkins/ci/workspace/chipset_pipeline_release/opensource/component_code/vendor/huawei/extra/build/build_script/kirin_kernel_release" "kernel/include/linux/kernfs.h"
	.file	74 "/mnt/disk/jenkins/ci/workspace/chipset_pipeline_release/opensource/component_code/vendor/huawei/extra/build/build_script/kirin_kernel_release" "kernel/include/linux/seq_file.h"
	.file	75 "/mnt/disk/jenkins/ci/workspace/chipset_pipeline_release/opensource/component_code/vendor/huawei/extra/build/build_script/kirin_kernel_release" "kernel/include/uapi/linux/types.h"
	.file	76 "/mnt/disk/jenkins/ci/workspace/chipset_pipeline_release/opensource/component_code/vendor/huawei/extra/build/build_script/kirin_kernel_release" "kernel/include/linux/timer.h"
	.file	77 "/mnt/disk/jenkins/ci/workspace/chipset_pipeline_release/opensource/component_code/vendor/huawei/extra/build/build_script/kirin_kernel_release" "kernel/include/linux/u64_stats_sync.h"
	.file	78 "/mnt/disk/jenkins/ci/workspace/chipset_pipeline_release/opensource/component_code/vendor/huawei/extra/build/build_script/kirin_kernel_release" "kernel/include/linux/sched/types.h"
	.file	79 "/mnt/disk/jenkins/ci/workspace/chipset_pipeline_release/opensource/component_code/vendor/huawei/extra/build/build_script/kirin_kernel_release" "kernel/include/linux/psi_types.h"
	.file	80 "/mnt/disk/jenkins/ci/workspace/chipset_pipeline_release/opensource/component_code/vendor/huawei/extra/build/build_script/kirin_kernel_release" "kernel/include/linux/bpf.h"
	.file	81 "/mnt/disk/jenkins/ci/workspace/chipset_pipeline_release/opensource/component_code/vendor/huawei/extra/build/build_script/kirin_kernel_release" "kernel/include/linux/bpf-cgroup.h"
	.file	82 "/mnt/disk/jenkins/ci/workspace/chipset_pipeline_release/opensource/component_code/vendor/huawei/extra/build/build_script/kirin_kernel_release" "kernel/include/uapi/linux/bpf.h"
	.file	83 "/mnt/disk/jenkins/ci/workspace/chipset_pipeline_release/opensource/component_code/vendor/huawei/extra/build/build_script/kirin_kernel_release" "kernel/include/linux/percpu-refcount.h"
	.file	84 "/mnt/disk/jenkins/ci/workspace/chipset_pipeline_release/opensource/component_code/vendor/huawei/extra/build/build_script/kirin_kernel_release" "kernel/include/linux/sched/signal.h"
	.file	85 "/mnt/disk/jenkins/ci/workspace/chipset_pipeline_release/opensource/component_code/vendor/huawei/extra/build/build_script/kirin_kernel_release" "kernel/include/linux/signal_types.h"
	.file	86 "/mnt/disk/jenkins/ci/workspace/chipset_pipeline_release/opensource/component_code/vendor/huawei/extra/build/build_script/kirin_kernel_release" "kernel/include/uapi/asm-generic/signal.h"
	.file	87 "/mnt/disk/jenkins/ci/workspace/chipset_pipeline_release/opensource/component_code/vendor/huawei/extra/build/build_script/kirin_kernel_release" "kernel/include/linux/task_io_accounting.h"
	.file	88 "/mnt/disk/jenkins/ci/workspace/chipset_pipeline_release/opensource/component_code/vendor/huawei/extra/build/build_script/kirin_kernel_release" "kernel/include/uapi/linux/resource.h"
	.file	89 "/mnt/disk/jenkins/ci/workspace/chipset_pipeline_release/opensource/component_code/vendor/huawei/extra/build/build_script/kirin_kernel_release" "kernel/include/uapi/linux/taskstats.h"
	.file	90 "/mnt/disk/jenkins/ci/workspace/chipset_pipeline_release/opensource/component_code/vendor/huawei/extra/build/build_script/kirin_kernel_release" "kernel/include/uapi/asm-generic/signal-defs.h"
	.file	91 "/mnt/disk/jenkins/ci/workspace/chipset_pipeline_release/opensource/component_code/vendor/huawei/extra/build/build_script/kirin_kernel_release" "kernel/include/linux/seccomp.h"
	.file	92 "/mnt/disk/jenkins/ci/workspace/chipset_pipeline_release/opensource/component_code/vendor/huawei/extra/build/build_script/kirin_kernel_release" "kernel/include/linux/blk_types.h"
	.file	93 "/mnt/disk/jenkins/ci/workspace/chipset_pipeline_release/opensource/component_code/vendor/huawei/extra/build/build_script/kirin_kernel_release" "kernel/include/linux/genhd.h"
	.file	94 "/mnt/disk/jenkins/ci/workspace/chipset_pipeline_release/opensource/component_code/vendor/huawei/extra/build/build_script/kirin_kernel_release" "kernel/include/linux/part_stat.h"
	.file	95 "/mnt/disk/jenkins/ci/workspace/chipset_pipeline_release/opensource/component_code/vendor/huawei/extra/build/build_script/kirin_kernel_release" "kernel/include/asm-generic/local.h"
	.file	96 "/mnt/disk/jenkins/ci/workspace/chipset_pipeline_release/opensource/component_code/vendor/huawei/extra/build/build_script/kirin_kernel_release" "kernel/include/linux/device.h"
	.file	97 "/mnt/disk/jenkins/ci/workspace/chipset_pipeline_release/opensource/component_code/vendor/huawei/extra/build/build_script/kirin_kernel_release" "kernel/include/linux/pm.h"
	.file	98 "/mnt/disk/jenkins/ci/workspace/chipset_pipeline_release/opensource/component_code/vendor/huawei/extra/build/build_script/kirin_kernel_release" "kernel/include/linux/device/bus.h"
	.file	99 "/mnt/disk/jenkins/ci/workspace/chipset_pipeline_release/opensource/component_code/vendor/huawei/extra/build/build_script/kirin_kernel_release" "kernel/include/linux/device/driver.h"
	.file	100 "/mnt/disk/jenkins/ci/workspace/chipset_pipeline_release/opensource/component_code/vendor/huawei/extra/build/build_script/kirin_kernel_release" "kernel/include/linux/lockdep_types.h"
	.file	101 "/mnt/disk/jenkins/ci/workspace/chipset_pipeline_release/opensource/component_code/vendor/huawei/extra/build/build_script/kirin_kernel_release" "kernel/include/linux/pm_wakeup.h"
	.file	102 "/mnt/disk/jenkins/ci/workspace/chipset_pipeline_release/opensource/component_code/vendor/huawei/extra/build/build_script/kirin_kernel_release" "kernel/include/linux/energy_model.h"
	.file	103 "/mnt/disk/jenkins/ci/workspace/chipset_pipeline_release/opensource/component_code/vendor/huawei/extra/build/build_script/kirin_kernel_release" "kernel/arch/arm64/include/asm/device.h"
	.file	104 "/mnt/disk/jenkins/ci/workspace/chipset_pipeline_release/opensource/component_code/vendor/huawei/extra/build/build_script/kirin_kernel_release" "kernel/include/linux/fwnode.h"
	.file	105 "/mnt/disk/jenkins/ci/workspace/chipset_pipeline_release/opensource/component_code/vendor/huawei/extra/build/build_script/kirin_kernel_release" "kernel/include/linux/device/class.h"
	.file	106 "/mnt/disk/jenkins/ci/workspace/chipset_pipeline_release/opensource/component_code/vendor/huawei/extra/build/build_script/kirin_kernel_release" "kernel/include/linux/kobject_ns.h"
	.file	107 "/mnt/disk/jenkins/ci/workspace/chipset_pipeline_release/opensource/component_code/vendor/huawei/extra/build/build_script/kirin_kernel_release" "kernel/include/linux/blkdev.h"
	.file	108 "/mnt/disk/jenkins/ci/workspace/chipset_pipeline_release/opensource/component_code/vendor/huawei/extra/build/build_script/kirin_kernel_release" "kernel/include/linux/backing-dev-defs.h"
	.file	109 "/mnt/disk/jenkins/ci/workspace/chipset_pipeline_release/opensource/component_code/vendor/huawei/extra/build/build_script/kirin_kernel_release" "kernel/include/linux/percpu_counter.h"
	.file	110 "/mnt/disk/jenkins/ci/workspace/chipset_pipeline_release/opensource/component_code/vendor/huawei/extra/build/build_script/kirin_kernel_release" "kernel/include/linux/flex_proportions.h"
	.file	111 "/mnt/disk/jenkins/ci/workspace/chipset_pipeline_release/opensource/component_code/vendor/huawei/extra/build/build_script/kirin_kernel_release" "kernel/block/blk-mq.h"
	.file	112 "/mnt/disk/jenkins/ci/workspace/chipset_pipeline_release/opensource/component_code/vendor/huawei/extra/build/build_script/kirin_kernel_release" "kernel/include/linux/blk-mq.h"
	.file	113 "/mnt/disk/jenkins/ci/workspace/chipset_pipeline_release/opensource/component_code/vendor/huawei/extra/build/build_script/kirin_kernel_release" "kernel/block/blk.h"
	.file	114 "/mnt/disk/jenkins/ci/workspace/chipset_pipeline_release/opensource/component_code/vendor/huawei/extra/build/build_script/kirin_kernel_release" "kernel/include/linux/sbitmap.h"
	.file	115 "/mnt/disk/jenkins/ci/workspace/chipset_pipeline_release/opensource/component_code/vendor/huawei/extra/build/build_script/kirin_kernel_release" "kernel/block/blk-mq-tag.h"
	.file	116 "/mnt/disk/jenkins/ci/workspace/chipset_pipeline_release/opensource/component_code/vendor/huawei/extra/build/build_script/kirin_kernel_release" "kernel/include/platform_include/basicplatform/linux/mas/mas_blk.h"
	.file	117 "/mnt/disk/jenkins/ci/workspace/chipset_pipeline_release/opensource/component_code/vendor/huawei/extra/build/build_script/kirin_kernel_release" "kernel/include/linux/srcutree.h"
	.file	118 "/mnt/disk/jenkins/ci/workspace/chipset_pipeline_release/opensource/component_code/vendor/huawei/extra/build/build_script/kirin_kernel_release" "kernel/include/linux/rcu_segcblist.h"
	.file	119 "/mnt/disk/jenkins/ci/workspace/chipset_pipeline_release/opensource/component_code/vendor/huawei/extra/build/build_script/kirin_kernel_release" "kernel/include/linux/bvec.h"
	.file	120 "/mnt/disk/jenkins/ci/workspace/chipset_pipeline_release/opensource/component_code/vendor/huawei/extra/build/build_script/kirin_kernel_release" "kernel/include/linux/iocontext.h"
	.file	121 "/mnt/disk/jenkins/ci/workspace/chipset_pipeline_release/opensource/component_code/vendor/huawei/extra/build/build_script/kirin_kernel_release" "kernel/include/linux/smp.h"
	.file	122 "/mnt/disk/jenkins/ci/workspace/chipset_pipeline_release/opensource/component_code/vendor/huawei/extra/build/build_script/kirin_kernel_release" "kernel/include/linux/elevator.h"
	.file	123 "/mnt/disk/jenkins/ci/workspace/chipset_pipeline_release/opensource/component_code/vendor/huawei/extra/build/build_script/kirin_kernel_release" "kernel/block/blk-stat.h"
	.file	124 "/mnt/disk/jenkins/ci/workspace/chipset_pipeline_release/opensource/component_code/vendor/huawei/extra/build/build_script/kirin_kernel_release" "kernel/include/linux/blk-cgroup.h"
	.file	125 "/mnt/disk/jenkins/ci/workspace/chipset_pipeline_release/opensource/component_code/vendor/huawei/extra/build/build_script/kirin_kernel_release" "kernel/include/linux/bsg.h"
	.file	126 "/mnt/disk/jenkins/ci/workspace/chipset_pipeline_release/opensource/component_code/vendor/huawei/extra/build/build_script/kirin_kernel_release" "kernel/include/uapi/linux/bsg.h"
	.file	127 "/mnt/disk/jenkins/ci/workspace/chipset_pipeline_release/opensource/component_code/vendor/huawei/extra/build/build_script/kirin_kernel_release" "kernel/include/linux/bio.h"
	.file	128 "/mnt/disk/jenkins/ci/workspace/chipset_pipeline_release/opensource/component_code/vendor/huawei/extra/build/build_script/kirin_kernel_release" "kernel/include/linux/mempool.h"
	.file	129 "/mnt/disk/jenkins/ci/workspace/chipset_pipeline_release/opensource/component_code/vendor/huawei/extra/build/build_script/kirin_kernel_release" "kernel/include/uapi/linux/blkzoned.h"
	.file	130 "/mnt/disk/jenkins/ci/workspace/chipset_pipeline_release/opensource/component_code/vendor/huawei/extra/build/build_script/kirin_kernel_release" "kernel/include/linux/swap.h"
	.file	131 "/mnt/disk/jenkins/ci/workspace/chipset_pipeline_release/opensource/component_code/vendor/huawei/extra/build/build_script/kirin_kernel_release" "kernel/include/uapi/asm-generic/siginfo.h"
	.file	132 "/mnt/disk/jenkins/ci/workspace/chipset_pipeline_release/opensource/component_code/vendor/huawei/extra/build/build_script/kirin_kernel_release" "kernel/include/linux/nodemask.h"
	.file	133 "/mnt/disk/jenkins/ci/workspace/chipset_pipeline_release/opensource/component_code/vendor/huawei/extra/build/build_script/kirin_kernel_release" "kernel/include/asm-generic/compat.h"
	.file	134 "/mnt/disk/jenkins/ci/workspace/chipset_pipeline_release/opensource/component_code/vendor/huawei/extra/build/build_script/kirin_kernel_release" "kernel/include/linux/compat.h"
	.file	135 "/mnt/disk/jenkins/ci/workspace/chipset_pipeline_release/opensource/component_code/vendor/huawei/extra/build/build_script/kirin_kernel_release" "kernel/arch/arm64/include/asm/tlbbatch.h"
	.file	136 "/mnt/disk/jenkins/ci/workspace/chipset_pipeline_release/opensource/component_code/vendor/huawei/extra/build/build_script/kirin_kernel_release" "kernel/include/linux/memcontrol.h"
	.file	137 "/mnt/disk/jenkins/ci/workspace/chipset_pipeline_release/opensource/component_code/vendor/huawei/extra/build/build_script/kirin_kernel_release" "kernel/include/linux/page_counter.h"
	.file	138 "/mnt/disk/jenkins/ci/workspace/chipset_pipeline_release/opensource/component_code/vendor/huawei/extra/build/build_script/kirin_kernel_release" "kernel/include/platform_include/basicplatform/linux/mm/parallel_swapd.h"
	.file	139 "/mnt/disk/jenkins/ci/workspace/chipset_pipeline_release/opensource/component_code/vendor/huawei/extra/build/build_script/kirin_kernel_release" "kernel/include/linux/mmzone.h"
	.file	140 "/mnt/disk/jenkins/ci/workspace/chipset_pipeline_release/opensource/component_code/vendor/huawei/extra/build/build_script/kirin_kernel_release" "kernel/include/linux/vmpressure.h"
	.file	141 "/mnt/disk/jenkins/ci/workspace/chipset_pipeline_release/opensource/component_code/vendor/huawei/extra/build/build_script/kirin_kernel_release" "kernel/include/platform_include/basicplatform/linux/hp/memcg_policy.h"
	.file	142 "/mnt/disk/jenkins/ci/workspace/chipset_pipeline_release/opensource/component_code/vendor/huawei/extra/build/build_script/kirin_kernel_release" "kernel/include/linux/writeback.h"
	.file	143 "/mnt/disk/jenkins/ci/workspace/chipset_pipeline_release/opensource/component_code/vendor/huawei/extra/build/build_script/kirin_kernel_release" "kernel/arch/arm64/include/asm/processor.h"
	.file	144 "/mnt/disk/jenkins/ci/workspace/chipset_pipeline_release/opensource/component_code/vendor/huawei/extra/build/build_script/kirin_kernel_release" "kernel/arch/arm64/include/uapi/asm/ptrace.h"
	.file	145 "/mnt/disk/jenkins/ci/workspace/chipset_pipeline_release/opensource/component_code/vendor/huawei/extra/build/build_script/kirin_kernel_release" "kernel/arch/arm64/include/asm/pointer_auth.h"
	.file	146 "/mnt/disk/jenkins/ci/workspace/chipset_pipeline_release/opensource/component_code/vendor/huawei/extra/build/build_script/kirin_kernel_release" "kernel/include/linux/pagemap.h"
	.file	147 "/mnt/disk/jenkins/ci/workspace/chipset_pipeline_release/opensource/component_code/vendor/huawei/extra/build/build_script/kirin_kernel_release" "kernel/include/linux/migrate_mode.h"
	.file	148 "/mnt/disk/jenkins/ci/workspace/chipset_pipeline_release/opensource/component_code/vendor/huawei/extra/build/build_script/kirin_kernel_release" "kernel/include/linux/errseq.h"
	.file	149 "/mnt/disk/jenkins/ci/workspace/chipset_pipeline_release/opensource/component_code/vendor/huawei/extra/build/build_script/kirin_kernel_release" "kernel/include/linux/memremap.h"
	.file	150 "/mnt/disk/jenkins/ci/workspace/chipset_pipeline_release/opensource/component_code/vendor/huawei/extra/build/build_script/kirin_kernel_release" "kernel/include/linux/range.h"
	.file	151 "/mnt/disk/jenkins/ci/workspace/chipset_pipeline_release/opensource/component_code/vendor/huawei/extra/build/build_script/kirin_kernel_release" "kernel/include/linux/uio.h"
	.file	152 "/mnt/disk/jenkins/ci/workspace/chipset_pipeline_release/opensource/component_code/vendor/huawei/extra/build/build_script/kirin_kernel_release" "kernel/include/uapi/linux/uio.h"
	.file	153 "/mnt/disk/jenkins/ci/workspace/chipset_pipeline_release/opensource/component_code/vendor/huawei/extra/build/build_script/kirin_kernel_release" "kernel/include/linux/nfs_fs_i.h"
	.file	154 "/mnt/disk/jenkins/ci/workspace/chipset_pipeline_release/opensource/component_code/vendor/huawei/extra/build/build_script/kirin_kernel_release" "kernel/include/linux/export.h"
	.file	155 "/mnt/disk/jenkins/ci/workspace/chipset_pipeline_release/opensource/component_code/vendor/huawei/extra/build/build_script/kirin_kernel_release" "kernel/include/linux/moduleparam.h"
	.file	156 "/mnt/disk/jenkins/ci/workspace/chipset_pipeline_release/opensource/component_code/vendor/huawei/extra/build/build_script/kirin_kernel_release" "kernel/arch/arm64/include/asm/extable.h"
	.file	157 "/mnt/disk/jenkins/ci/workspace/chipset_pipeline_release/opensource/component_code/vendor/huawei/extra/build/build_script/kirin_kernel_release" "kernel/include/linux/rbtree_latch.h"
	.file	158 "/mnt/disk/jenkins/ci/workspace/chipset_pipeline_release/opensource/component_code/vendor/huawei/extra/build/build_script/kirin_kernel_release" "kernel/arch/arm64/include/asm/module.h"
	.file	159 "/mnt/disk/jenkins/ci/workspace/chipset_pipeline_release/opensource/component_code/vendor/huawei/extra/build/build_script/kirin_kernel_release" "kernel/include/uapi/linux/elf.h"
	.file	160 "/mnt/disk/jenkins/ci/workspace/chipset_pipeline_release/opensource/component_code/vendor/huawei/extra/build/build_script/kirin_kernel_release" "kernel/include/asm-generic/bug.h"
	.file	161 "/mnt/disk/jenkins/ci/workspace/chipset_pipeline_release/opensource/component_code/vendor/huawei/extra/build/build_script/kirin_kernel_release" "kernel/include/linux/tracepoint-defs.h"
	.file	162 "/mnt/disk/jenkins/ci/workspace/chipset_pipeline_release/opensource/component_code/vendor/huawei/extra/build/build_script/kirin_kernel_release" "kernel/include/linux/statfs.h"
	.file	163 "/mnt/disk/jenkins/ci/workspace/chipset_pipeline_release/opensource/component_code/vendor/huawei/extra/build/build_script/kirin_kernel_release" "kernel/include/linux/quota.h"
	.file	164 "/mnt/disk/jenkins/ci/workspace/chipset_pipeline_release/opensource/component_code/vendor/huawei/extra/build/build_script/kirin_kernel_release" "kernel/include/linux/projid.h"
	.file	165 "/mnt/disk/jenkins/ci/workspace/chipset_pipeline_release/opensource/component_code/vendor/huawei/extra/build/build_script/kirin_kernel_release" "kernel/include/linux/shrinker.h"
	.file	166 "/mnt/disk/jenkins/ci/workspace/chipset_pipeline_release/opensource/component_code/vendor/huawei/extra/build/build_script/kirin_kernel_release" "kernel/include/linux/rcu_sync.h"
	.file	167 "/mnt/disk/jenkins/ci/workspace/chipset_pipeline_release/opensource/component_code/vendor/huawei/extra/build/build_script/kirin_kernel_release" "kernel/include/linux/percpu-rwsem.h"
	.file	168 "/mnt/disk/jenkins/ci/workspace/chipset_pipeline_release/opensource/component_code/vendor/huawei/extra/build/build_script/kirin_kernel_release" "kernel/include/linux/rcuwait.h"
	.file	169 "/mnt/disk/jenkins/ci/workspace/chipset_pipeline_release/opensource/component_code/vendor/huawei/extra/build/build_script/kirin_kernel_release" "kernel/include/linux/uuid.h"
	.file	170 "/mnt/disk/jenkins/ci/workspace/chipset_pipeline_release/opensource/component_code/vendor/huawei/extra/build/build_script/kirin_kernel_release" "kernel/include/linux/list_lru.h"
	.file	171 "/mnt/disk/jenkins/ci/workspace/chipset_pipeline_release/opensource/component_code/vendor/huawei/extra/build/build_script/kirin_kernel_release" "kernel/include/linux/delayed_call.h"
	.file	172 "/mnt/disk/jenkins/ci/workspace/chipset_pipeline_release/opensource/component_code/vendor/huawei/extra/build/build_script/kirin_kernel_release" "kernel/include/linux/stat.h"
	.file	173 "/mnt/disk/jenkins/ci/workspace/chipset_pipeline_release/opensource/component_code/vendor/huawei/extra/build/build_script/kirin_kernel_release" "kernel/include/platform_include/basicplatform/linux/mas/mas_bkops_core.h"
	.file	174 "/mnt/disk/jenkins/ci/workspace/chipset_pipeline_release/opensource/component_code/vendor/huawei/extra/build/build_script/kirin_kernel_release" "kernel/include/linux/stddef.h"
	.file	175 "/mnt/disk/jenkins/ci/workspace/chipset_pipeline_release/opensource/component_code/vendor/huawei/extra/build/build_script/kirin_kernel_release" "kernel/include/linux/timekeeping.h"
	.file	176 "/mnt/disk/jenkins/ci/workspace/chipset_pipeline_release/opensource/component_code/vendor/huawei/extra/build/build_script/kirin_kernel_release" "kernel/include/linux/slab.h"
	.globl	bkops_idle_work_func            // -- Begin function bkops_idle_work_func
	.p2align	2
	.type	bkops_idle_work_func,@function
bkops_idle_work_func:                   // @bkops_idle_work_func
.Lfunc_begin0:
	.loc	7 218 0                         // kernel/platform_source/basicplatform/block/mas_bkops_core.c:218:0
	.cfi_sections .debug_frame
	.cfi_startproc
// %bb.0:
	//DEBUG_VALUE: bkops_idle_work_func:work <- $x0
	hint	#25
	.cfi_negate_ra_state
	stp	x29, x30, [sp, #-48]!           // 16-byte Folded Spill
	str	x21, [sp, #16]                  // 8-byte Folded Spill
	stp	x20, x19, [sp, #32]             // 16-byte Folded Spill
	mov	x29, sp
	.cfi_def_cfa w29, 48
	.cfi_offset w19, -8
	.cfi_offset w20, -16
	.cfi_offset w21, -32
	.cfi_offset w30, -40
	.cfi_offset w29, -48
.Ltmp0:
	.loc	7 219 6 prologue_end            // kernel/platform_source/basicplatform/block/mas_bkops_core.c:219:6
	str	wzr, [x29, #28]
.Ltmp1:
	//DEBUG_VALUE: mas_bkops_query:ret <- 0
	//DEBUG_VALUE: mas_bkops_query:bkops_status <- [DW_OP_plus_uconst 28, DW_OP_stack_value] $fp
	//DEBUG_VALUE: mas_bkops_query:bkops <- [DW_OP_constu 32, DW_OP_minus, DW_OP_stack_value] $x19
	//DEBUG_VALUE: bkops_idle_work_func:bkops <- [DW_OP_constu 32, DW_OP_minus, DW_OP_stack_value] $x19
	//DEBUG_VALUE: bkops_idle_work_func:bkops_status <- [DW_OP_plus_uconst 28, DW_OP_deref] $fp
	.loc	7 98 41                         // kernel/platform_source/basicplatform/block/mas_bkops_core.c:98:41
	ldur	x20, [x0, #-24]
.Ltmp2:
	//DEBUG_VALUE: mas_bkops_query:bkops_ops_p <- $x20
	.loc	7 0 41 is_stmt 0                // kernel/platform_source/basicplatform/block/mas_bkops_core.c:0:41
	mov	x19, x0
.Ltmp3:
	//DEBUG_VALUE: bkops_idle_work_func:work <- $x19
	//DEBUG_VALUE: bkops_idle_work_func:bkops_status <- 0
	//DEBUG_VALUE: bkops_idle_work_func:work <- $x19
	.loc	7 105 2 is_stmt 1               // kernel/platform_source/basicplatform/block/mas_bkops_core.c:105:2
	adrp	x0, bkops_lock
	add	x0, x0, :lo12:bkops_lock
	bl	mutex_lock
.Ltmp4:
	.loc	7 106 7                         // kernel/platform_source/basicplatform/block/mas_bkops_core.c:106:7
	adrp	x21, bkops_enabled
	ldrb	w8, [x21, :lo12:bkops_enabled]
.Ltmp5:
	.loc	7 106 6 is_stmt 0               // kernel/platform_source/basicplatform/block/mas_bkops_core.c:106:6
	cmp	w8, #1                          // =1
	b.ne	.LBB0_2
.Ltmp6:
// %bb.1:
	//DEBUG_VALUE: mas_bkops_query:bkops_ops_p <- $x20
	//DEBUG_VALUE: bkops_idle_work_func:work <- $x19
	//DEBUG_VALUE: mas_bkops_query:bkops_status <- [DW_OP_plus_uconst 28, DW_OP_stack_value] $fp
	//DEBUG_VALUE: bkops_idle_work_func:bkops_status <- 0
	//DEBUG_VALUE: mas_bkops_query:ret <- 0
	//DEBUG_LABEL: mas_bkops_query:out
	.loc	7 139 2 is_stmt 1               // kernel/platform_source/basicplatform/block/mas_bkops_core.c:139:2
	adrp	x0, bkops_lock
	add	x0, x0, :lo12:bkops_lock
	bl	mutex_unlock
.Ltmp7:
	.loc	7 0 2 is_stmt 0                 // kernel/platform_source/basicplatform/block/mas_bkops_core.c:0:2
	b	.LBB0_6
.Ltmp8:
.LBB0_2:
	//DEBUG_VALUE: mas_bkops_query:bkops_ops_p <- $x20
	//DEBUG_VALUE: bkops_idle_work_func:work <- $x19
	//DEBUG_VALUE: mas_bkops_query:bkops_status <- [DW_OP_plus_uconst 28, DW_OP_stack_value] $fp
	//DEBUG_VALUE: bkops_idle_work_func:bkops_status <- 0
	//DEBUG_VALUE: mas_bkops_query:ret <- 0
	.loc	7 118 21 is_stmt 1              // kernel/platform_source/basicplatform/block/mas_bkops_core.c:118:21
	ldr	x8, [x20, #8]
	.loc	7 119 10                        // kernel/platform_source/basicplatform/block/mas_bkops_core.c:119:10
	ldur	x0, [x19, #-16]
	.loc	7 118 8                         // kernel/platform_source/basicplatform/block/mas_bkops_core.c:118:8
	add	x1, x29, #28                    // =28
	blr	x8
.Ltmp9:
	.loc	7 120 6                         // kernel/platform_source/basicplatform/block/mas_bkops_core.c:120:6
	adrp	x8, user_manual_gc
	ldrb	w9, [x8, :lo12:user_manual_gc]
.Ltmp10:
	.loc	7 118 8                         // kernel/platform_source/basicplatform/block/mas_bkops_core.c:118:8
	mov	w20, w0
.Ltmp11:
	//DEBUG_VALUE: bkops_idle_work_func:ret <- $w20
	//DEBUG_VALUE: mas_bkops_query:ret <- $w20
	.loc	7 120 21                        // kernel/platform_source/basicplatform/block/mas_bkops_core.c:120:21
	cbz	w9, .LBB0_5
.Ltmp12:
// %bb.3:
	//DEBUG_VALUE: bkops_idle_work_func:work <- $x19
	//DEBUG_VALUE: mas_bkops_query:ret <- $w20
	//DEBUG_VALUE: bkops_idle_work_func:ret <- $w20
	//DEBUG_VALUE: mas_bkops_query:bkops_status <- [DW_OP_plus_uconst 28, DW_OP_stack_value] $fp
	//DEBUG_VALUE: bkops_idle_work_func:bkops_status <- 0
	.loc	7 0 21 is_stmt 0                // kernel/platform_source/basicplatform/block/mas_bkops_core.c:0:21
	ldr	w9, [x29, #28]
	.loc	7 120 21                        // kernel/platform_source/basicplatform/block/mas_bkops_core.c:120:21
	cbnz	w9, .LBB0_5
.Ltmp13:
// %bb.4:
	//DEBUG_VALUE: bkops_idle_work_func:work <- $x19
	//DEBUG_VALUE: mas_bkops_query:ret <- $w20
	//DEBUG_VALUE: bkops_idle_work_func:ret <- $w20
	//DEBUG_VALUE: mas_bkops_query:bkops_status <- [DW_OP_plus_uconst 28, DW_OP_stack_value] $fp
	//DEBUG_VALUE: bkops_idle_work_func:bkops_status <- 0
	.loc	7 121 18 is_stmt 1              // kernel/platform_source/basicplatform/block/mas_bkops_core.c:121:18
	strb	wzr, [x8, :lo12:user_manual_gc]
.Ltmp14:
.LBB0_5:
	//DEBUG_VALUE: bkops_idle_work_func:work <- $x19
	//DEBUG_VALUE: mas_bkops_query:ret <- $w20
	//DEBUG_VALUE: bkops_idle_work_func:ret <- $w20
	//DEBUG_VALUE: mas_bkops_query:bkops_status <- [DW_OP_plus_uconst 28, DW_OP_stack_value] $fp
	//DEBUG_VALUE: bkops_idle_work_func:bkops_status <- 0
	//DEBUG_VALUE: mas_bkops_query:ret <- $w20
	//DEBUG_LABEL: mas_bkops_query:out
	.loc	7 139 2                         // kernel/platform_source/basicplatform/block/mas_bkops_core.c:139:2
	adrp	x0, bkops_lock
	add	x0, x0, :lo12:bkops_lock
	bl	mutex_unlock
.Ltmp15:
	//DEBUG_VALUE: bkops_idle_work_func:ret <- $w20
	.loc	7 231 6                         // kernel/platform_source/basicplatform/block/mas_bkops_core.c:231:6
	cbnz	w20, .LBB0_13
.Ltmp16:
.LBB0_6:
	//DEBUG_VALUE: bkops_idle_work_func:work <- $x19
	//DEBUG_VALUE: bkops_idle_work_func:bkops_status <- 0
	.loc	7 235 20                        // kernel/platform_source/basicplatform/block/mas_bkops_core.c:235:20
	ldr	x8, [x19, #96]
	and	x8, x8, #0xfffffffffffffffd
	str	x8, [x19, #96]
	.loc	7 238 24                        // kernel/platform_source/basicplatform/block/mas_bkops_core.c:238:24
	ldr	w8, [x29, #28]
.Ltmp17:
	//DEBUG_VALUE: bkops_idle_work_func:bkops_status <- $w8
	.loc	7 238 22 is_stmt 0              // kernel/platform_source/basicplatform/block/mas_bkops_core.c:238:22
	str	w8, [x19, #168]
.Ltmp18:
	.loc	7 244 19 is_stmt 1              // kernel/platform_source/basicplatform/block/mas_bkops_core.c:244:19
	cbz	w8, .LBB0_12
.Ltmp19:
// %bb.7:
	//DEBUG_VALUE: bkops_idle_work_func:work <- $x19
	//DEBUG_VALUE: bkops_idle_work_func:bkops_status <- $w8
	//DEBUG_VALUE: test_bit:nr <- 0
	.file	177 "/mnt/disk/jenkins/ci/workspace/chipset_pipeline_release/opensource/component_code/vendor/huawei/extra/build/build_script/kirin_kernel_release" "kernel/include/asm-generic/bitops/non-atomic.h"
	.loc	177 106 16                      // kernel/include/asm-generic/bitops/non-atomic.h:106:16
	ldr	x8, [x19, #96]
.Ltmp20:
	//DEBUG_VALUE: test_bit:addr <- [DW_OP_plus_uconst 96, DW_OP_stack_value] $x19
	.loc	7 244 6                         // kernel/platform_source/basicplatform/block/mas_bkops_core.c:244:6
	tbnz	w8, #0, .LBB0_12
.Ltmp21:
// %bb.8:
	//DEBUG_VALUE: bkops_idle_work_func:work <- $x19
	//DEBUG_VALUE: mas_bkops_start:bkops <- [DW_OP_constu 32, DW_OP_minus, DW_OP_stack_value] $x19
	//DEBUG_VALUE: mas_bkops_start:ret <- 0
	.loc	7 146 41                        // kernel/platform_source/basicplatform/block/mas_bkops_core.c:146:41
	ldur	x20, [x19, #-24]
.Ltmp22:
	//DEBUG_VALUE: mas_bkops_start:bkops_ops_p <- $x20
	.loc	7 156 2                         // kernel/platform_source/basicplatform/block/mas_bkops_core.c:156:2
	adrp	x0, bkops_lock
	add	x0, x0, :lo12:bkops_lock
	bl	mutex_lock
.Ltmp23:
	.loc	7 157 7                         // kernel/platform_source/basicplatform/block/mas_bkops_core.c:157:7
	ldrb	w8, [x21, :lo12:bkops_enabled]
.Ltmp24:
	.loc	7 157 6 is_stmt 0               // kernel/platform_source/basicplatform/block/mas_bkops_core.c:157:6
	cmp	w8, #1                          // =1
	b.ne	.LBB0_10
.Ltmp25:
// %bb.9:
	//DEBUG_VALUE: mas_bkops_start:bkops_ops_p <- $x20
	//DEBUG_VALUE: mas_bkops_start:bkops <- [DW_OP_constu 32, DW_OP_minus, DW_OP_stack_value] $x19
	//DEBUG_VALUE: bkops_idle_work_func:work <- $x19
	//DEBUG_VALUE: mas_bkops_start:ret <- 0
	//DEBUG_LABEL: mas_bkops_start:out
	.loc	7 179 2 is_stmt 1               // kernel/platform_source/basicplatform/block/mas_bkops_core.c:179:2
	adrp	x0, bkops_lock
	add	x0, x0, :lo12:bkops_lock
	bl	mutex_unlock
.Ltmp26:
	.loc	7 0 2 is_stmt 0                 // kernel/platform_source/basicplatform/block/mas_bkops_core.c:0:2
	b	.LBB0_11
.Ltmp27:
.LBB0_10:
	//DEBUG_VALUE: mas_bkops_start:bkops_ops_p <- $x20
	//DEBUG_VALUE: mas_bkops_start:bkops <- [DW_OP_constu 32, DW_OP_minus, DW_OP_stack_value] $x19
	//DEBUG_VALUE: bkops_idle_work_func:work <- $x19
	//DEBUG_VALUE: mas_bkops_start:ret <- 0
	.loc	7 160 21 is_stmt 1              // kernel/platform_source/basicplatform/block/mas_bkops_core.c:160:21
	ldr	x8, [x20]
	.loc	7 160 45 is_stmt 0              // kernel/platform_source/basicplatform/block/mas_bkops_core.c:160:45
	ldur	x0, [x19, #-16]
	.loc	7 160 8                         // kernel/platform_source/basicplatform/block/mas_bkops_core.c:160:8
	mov	w1, #1
	blr	x8
.Ltmp28:
	mov	w20, w0
.Ltmp29:
	//DEBUG_LABEL: mas_bkops_start:out
	//DEBUG_VALUE: mas_bkops_start:ret <- $w20
	//DEBUG_VALUE: bkops_idle_work_func:ret <- $w20
	.loc	7 179 2 is_stmt 1               // kernel/platform_source/basicplatform/block/mas_bkops_core.c:179:2
	adrp	x0, bkops_lock
	add	x0, x0, :lo12:bkops_lock
	bl	mutex_unlock
.Ltmp30:
	.loc	7 246 7                         // kernel/platform_source/basicplatform/block/mas_bkops_core.c:246:7
	cbnz	w20, .LBB0_14
.Ltmp31:
.LBB0_11:
	//DEBUG_VALUE: bkops_idle_work_func:work <- $x19
	//DEBUG_VALUE: set_bit:nr <- 0
	//DEBUG_VALUE: atomic_long_or:i <- 1
	//DEBUG_VALUE: atomic64_or:i <- 1
	//DEBUG_VALUE: arch_atomic64_or:i <- 1
	//DEBUG_VALUE: __ll_sc_atomic64_or:i <- 1
	.file	178 "/mnt/disk/jenkins/ci/workspace/chipset_pipeline_release/opensource/component_code/vendor/huawei/extra/build/build_script/kirin_kernel_release" "kernel/arch/arm64/include/asm/atomic_ll_sc.h"
	.loc	178 222 1                       // kernel/arch/arm64/include/asm/atomic_ll_sc.h:222:1
	add	x8, x19, #96                    // =96
	//APP
	// atomic64_or
	prfm	pstl1strm, [x8]
.Ltmp32:
	ldxr	x9, [x8]
	orr	x9, x9, #0x1
	stxr	w10, x9, [x8]
	cbnz	w10, .Ltmp32
	//NO_APP
.Ltmp33:
	//DEBUG_VALUE: __ll_sc_atomic64_or:v <- [DW_OP_plus_uconst 96, DW_OP_stack_value] undef
	//DEBUG_VALUE: arch_atomic64_or:v <- [DW_OP_plus_uconst 96, DW_OP_stack_value] undef
	//DEBUG_VALUE: atomic64_or:v <- [DW_OP_plus_uconst 96, DW_OP_stack_value] undef
	//DEBUG_VALUE: atomic_long_or:v <- [DW_OP_plus_uconst 96, DW_OP_stack_value] undef
	//DEBUG_VALUE: set_bit:p <- [DW_OP_plus_uconst 96, DW_OP_stack_value] undef
	//DEBUG_VALUE: __ll_sc_atomic64_or:tmp <- undef
	//DEBUG_VALUE: __ll_sc_atomic64_or:result <- undef
.LBB0_12:
	//DEBUG_VALUE: bkops_idle_work_func:work <- $x19
	.loc	7 251 1                         // kernel/platform_source/basicplatform/block/mas_bkops_core.c:251:1
	ldp	x20, x19, [sp, #32]             // 16-byte Folded Reload
.Ltmp34:
	ldr	x21, [sp, #16]                  // 8-byte Folded Reload
	ldp	x29, x30, [sp], #48             // 16-byte Folded Reload
	hint	#29
	ret
.LBB0_13:
.Ltmp35:
	//DEBUG_VALUE: bkops_idle_work_func:work <- $x19
	//DEBUG_VALUE: bkops_idle_work_func:ret <- $w20
	//DEBUG_VALUE: bkops_idle_work_func:bkops_status <- 0
	.loc	7 232 3                         // kernel/platform_source/basicplatform/block/mas_bkops_core.c:232:3
	adrp	x0, .L.str
	add	x0, x0, :lo12:.L.str
	b	.LBB0_15
.Ltmp36:
.LBB0_14:
	//DEBUG_VALUE: bkops_idle_work_func:work <- $x19
	//DEBUG_VALUE: bkops_idle_work_func:ret <- $w20
	.loc	7 247 4                         // kernel/platform_source/basicplatform/block/mas_bkops_core.c:247:4
	adrp	x0, .L.str.1
	add	x0, x0, :lo12:.L.str.1
.Ltmp37:
.LBB0_15:
	//DEBUG_VALUE: bkops_idle_work_func:work <- $x19
	//DEBUG_VALUE: bkops_idle_work_func:ret <- $w20
	.loc	7 0 0 is_stmt 0                 // kernel/platform_source/basicplatform/block/mas_bkops_core.c:0:0
	bl	printk
.Ltmp38:
	b	.LBB0_12
.Ltmp39:
.Lfunc_end0:
	.size	bkops_idle_work_func, .Lfunc_end0-bkops_idle_work_func
	.cfi_endproc
	.file	179 "/mnt/disk/jenkins/ci/workspace/chipset_pipeline_release/opensource/component_code/vendor/huawei/extra/build/build_script/kirin_kernel_release" "kernel/arch/arm64/include/asm/atomic.h"
	.file	180 "/mnt/disk/jenkins/ci/workspace/chipset_pipeline_release/opensource/component_code/vendor/huawei/extra/build/build_script/kirin_kernel_release" "kernel/include/asm-generic/atomic-instrumented.h"
	.file	181 "/mnt/disk/jenkins/ci/workspace/chipset_pipeline_release/opensource/component_code/vendor/huawei/extra/build/build_script/kirin_kernel_release" "kernel/include/asm-generic/bitops/atomic.h"
	.file	182 "/mnt/disk/jenkins/ci/workspace/chipset_pipeline_release/opensource/component_code/vendor/huawei/extra/build/build_script/kirin_kernel_release" "kernel/include/linux/printk.h"
                                        // -- End function
	.globl	bkops_io_busyidle_notify_handler // -- Begin function bkops_io_busyidle_notify_handler
	.p2align	2
	.type	bkops_io_busyidle_notify_handler,@function
bkops_io_busyidle_notify_handler:       // @bkops_io_busyidle_notify_handler
.Lfunc_begin1:
	.loc	7 378 0 is_stmt 1               // kernel/platform_source/basicplatform/block/mas_bkops_core.c:378:0
	.cfi_startproc
// %bb.0:
	//DEBUG_VALUE: bkops_io_busyidle_notify_handler:event_node <- $x0
	//DEBUG_VALUE: bkops_io_busyidle_notify_handler:event_node <- $x0
	//DEBUG_VALUE: bkops_io_busyidle_notify_handler:state <- $w1
	hint	#25
	.cfi_negate_ra_state
	stp	x29, x30, [sp, #-32]!           // 16-byte Folded Spill
	stp	x20, x19, [sp, #16]             // 16-byte Folded Spill
	mov	x29, sp
	.cfi_def_cfa w29, 32
	.cfi_offset w19, -8
	.cfi_offset w20, -16
	.cfi_offset w30, -24
	.cfi_offset w29, -32
.Ltmp40:
	//DEBUG_VALUE: bkops_io_busyidle_notify_handler:ret <- 0
	.loc	7 384 36 prologue_end           // kernel/platform_source/basicplatform/block/mas_bkops_core.c:384:36
	ldr	x20, [x0, #40]
.Ltmp41:
	//DEBUG_VALUE: bkops_io_busyidle_notify_handler:bkops <- $x20
	//DEBUG_VALUE: bkops_io_busyidle_notify_handler:state <- $w1
	.loc	7 386 2                         // kernel/platform_source/basicplatform/block/mas_bkops_core.c:386:2
	cbz	w1, .LBB1_15
.Ltmp42:
// %bb.1:
	//DEBUG_VALUE: bkops_io_busyidle_notify_handler:bkops <- $x20
	//DEBUG_VALUE: bkops_io_busyidle_notify_handler:event_node <- $x0
	//DEBUG_VALUE: bkops_io_busyidle_notify_handler:state <- $w1
	//DEBUG_VALUE: bkops_io_busyidle_notify_handler:ret <- 0
	.loc	7 0 2 is_stmt 0                 // kernel/platform_source/basicplatform/block/mas_bkops_core.c:0:2
	mov	w19, w1
.Ltmp43:
	//DEBUG_VALUE: bkops_io_busyidle_notify_handler:state <- $w19
	.loc	7 386 2                         // kernel/platform_source/basicplatform/block/mas_bkops_core.c:386:2
	cmp	w1, #1                          // =1
	b.ne	.LBB1_21
.Ltmp44:
// %bb.2:
	//DEBUG_VALUE: bkops_io_busyidle_notify_handler:bkops <- $x20
	//DEBUG_VALUE: bkops_io_busyidle_notify_handler:event_node <- $x0
	//DEBUG_VALUE: bkops_io_busyidle_notify_handler:state <- $w19
	//DEBUG_VALUE: bkops_io_busyidle_notify_handler:ret <- 0
	//DEBUG_VALUE: bkops_should_query:bkops <- $x20
	.loc	7 312 13 is_stmt 1              // kernel/platform_source/basicplatform/block/mas_bkops_core.c:312:13
	ldr	x8, [x20, #128]
.Ltmp45:
	.loc	7 312 6 is_stmt 0               // kernel/platform_source/basicplatform/block/mas_bkops_core.c:312:6
	tbnz	w8, #1, .LBB1_25
.Ltmp46:
// %bb.3:
	//DEBUG_VALUE: bkops_should_query:bkops <- $x20
	//DEBUG_VALUE: bkops_io_busyidle_notify_handler:bkops <- $x20
	//DEBUG_VALUE: bkops_io_busyidle_notify_handler:event_node <- $x0
	//DEBUG_VALUE: bkops_io_busyidle_notify_handler:state <- $w19
	//DEBUG_VALUE: bkops_io_busyidle_notify_handler:ret <- 0
	.loc	7 315 13 is_stmt 1              // kernel/platform_source/basicplatform/block/mas_bkops_core.c:315:13
	ldr	w9, [x20, #204]
	.loc	7 315 28 is_stmt 0              // kernel/platform_source/basicplatform/block/mas_bkops_core.c:315:28
	cbz	w9, .LBB1_5
.Ltmp47:
// %bb.4:
	//DEBUG_VALUE: bkops_should_query:bkops <- $x20
	//DEBUG_VALUE: bkops_io_busyidle_notify_handler:bkops <- $x20
	//DEBUG_VALUE: bkops_io_busyidle_notify_handler:event_node <- $x0
	//DEBUG_VALUE: bkops_io_busyidle_notify_handler:state <- $w19
	//DEBUG_VALUE: bkops_io_busyidle_notify_handler:ret <- 0
	.loc	7 315 38                        // kernel/platform_source/basicplatform/block/mas_bkops_core.c:315:38
	ldr	w9, [x20, #200]
.Ltmp48:
	.loc	7 315 6                         // kernel/platform_source/basicplatform/block/mas_bkops_core.c:315:6
	cbnz	w9, .LBB1_25
.Ltmp49:
.LBB1_5:
	//DEBUG_VALUE: bkops_should_query:bkops <- $x20
	//DEBUG_VALUE: bkops_io_busyidle_notify_handler:bkops <- $x20
	//DEBUG_VALUE: bkops_io_busyidle_notify_handler:event_node <- $x0
	//DEBUG_VALUE: bkops_io_busyidle_notify_handler:state <- $w19
	//DEBUG_VALUE: bkops_io_busyidle_notify_handler:ret <- 0
	//DEBUG_VALUE: bkops_strategy:bkops <- $x20
	.loc	7 255 51 is_stmt 1              // kernel/platform_source/basicplatform/block/mas_bkops_core.c:255:51
	ldr	x0, [x20, #24]
.Ltmp50:
	//DEBUG_VALUE: bkops_io_busyidle_notify_handler:event_node <- [DW_OP_LLVM_entry_value 1] $x0
	.loc	7 255 28 is_stmt 0              // kernel/platform_source/basicplatform/block/mas_bkops_core.c:255:28
	bl	mas_blk_get_lld
.Ltmp51:
	.loc	7 262 13 is_stmt 1              // kernel/platform_source/basicplatform/block/mas_bkops_core.c:262:13
	ldr	x8, [x20, #128]
.Ltmp52:
	.loc	7 255 28                        // kernel/platform_source/basicplatform/block/mas_bkops_core.c:255:28
	mov	x19, x0
.Ltmp53:
	//DEBUG_VALUE: bkops_io_busyidle_notify_handler:state <- [DW_OP_LLVM_entry_value 1] $w1
	//DEBUG_VALUE: bkops_strategy:lld <- $x19
	.loc	7 262 6                         // kernel/platform_source/basicplatform/block/mas_bkops_core.c:262:6
	tbz	w8, #4, .LBB1_9
.Ltmp54:
// %bb.6:
	//DEBUG_VALUE: bkops_strategy:bkops <- $x20
	//DEBUG_VALUE: bkops_should_query:bkops <- $x20
	//DEBUG_VALUE: bkops_io_busyidle_notify_handler:bkops <- $x20
	//DEBUG_VALUE: bkops_strategy:lld <- $x19
	//DEBUG_VALUE: bkops_io_busyidle_notify_handler:state <- [DW_OP_LLVM_entry_value 1] $w1
	//DEBUG_VALUE: bkops_io_busyidle_notify_handler:event_node <- [DW_OP_LLVM_entry_value 1] $x0
	//DEBUG_VALUE: bkops_io_busyidle_notify_handler:ret <- 0
	//DEBUG_VALUE: ktime_get_boottime_ts64:ts <- undef
	.loc	175 127 9                       // kernel/include/linux/timekeeping.h:127:9
	mov	w0, #1
	bl	ktime_get_with_offset
.Ltmp55:
	.loc	175 221 8                       // kernel/include/linux/timekeeping.h:221:8
	bl	ns_to_timespec64
.Ltmp56:
	.loc	7 268 7                         // kernel/platform_source/basicplatform/block/mas_bkops_core.c:268:7
	ldr	x8, [x20, #216]
.Ltmp57:
	//DEBUG_VALUE: bkops_strategy:tp <- [DW_OP_LLVM_fragment 64 64] undef
	//DEBUG_VALUE: bkops_strategy:tp <- [DW_OP_LLVM_fragment 0 64] $x0
	.loc	7 268 47 is_stmt 0              // kernel/platform_source/basicplatform/block/mas_bkops_core.c:268:47
	cbz	x8, .LBB1_27
.Ltmp58:
// %bb.7:
	//DEBUG_VALUE: bkops_strategy:bkops <- $x20
	//DEBUG_VALUE: bkops_should_query:bkops <- $x20
	//DEBUG_VALUE: bkops_io_busyidle_notify_handler:bkops <- $x20
	//DEBUG_VALUE: bkops_strategy:lld <- $x19
	//DEBUG_VALUE: bkops_strategy:tp <- [DW_OP_LLVM_fragment 0 64] $x0
	//DEBUG_VALUE: bkops_io_busyidle_notify_handler:state <- [DW_OP_LLVM_entry_value 1] $w1
	//DEBUG_VALUE: bkops_io_busyidle_notify_handler:event_node <- [DW_OP_LLVM_entry_value 1] $x0
	//DEBUG_VALUE: bkops_io_busyidle_notify_handler:ret <- 0
	.loc	7 269 4 is_stmt 1               // kernel/platform_source/basicplatform/block/mas_bkops_core.c:269:4
	ldr	x9, [x20, #208]
	sub	x8, x0, x8
.Ltmp59:
	.loc	7 268 7                         // kernel/platform_source/basicplatform/block/mas_bkops_core.c:268:7
	cmp	x8, x9
	b.ge	.LBB1_27
.Ltmp60:
// %bb.8:
	//DEBUG_VALUE: bkops_strategy:bkops <- $x20
	//DEBUG_VALUE: bkops_should_query:bkops <- $x20
	//DEBUG_VALUE: bkops_io_busyidle_notify_handler:bkops <- $x20
	//DEBUG_VALUE: bkops_strategy:lld <- $x19
	//DEBUG_VALUE: bkops_strategy:tp <- [DW_OP_LLVM_fragment 0 64] $x0
	//DEBUG_VALUE: bkops_io_busyidle_notify_handler:state <- [DW_OP_LLVM_entry_value 1] $w1
	//DEBUG_VALUE: bkops_io_busyidle_notify_handler:event_node <- [DW_OP_LLVM_entry_value 1] $x0
	//DEBUG_VALUE: bkops_io_busyidle_notify_handler:ret <- 0
	.loc	7 279 14                        // kernel/platform_source/basicplatform/block/mas_bkops_core.c:279:14
	ldr	x8, [x20, #128]
.Ltmp61:
.LBB1_9:
	//DEBUG_VALUE: bkops_strategy:bkops <- $x20
	//DEBUG_VALUE: bkops_should_query:bkops <- $x20
	//DEBUG_VALUE: bkops_io_busyidle_notify_handler:bkops <- $x20
	//DEBUG_VALUE: bkops_strategy:lld <- $x19
	//DEBUG_VALUE: bkops_io_busyidle_notify_handler:state <- [DW_OP_LLVM_entry_value 1] $w1
	//DEBUG_VALUE: bkops_io_busyidle_notify_handler:event_node <- [DW_OP_LLVM_entry_value 1] $x0
	//DEBUG_VALUE: bkops_io_busyidle_notify_handler:ret <- 0
	.loc	7 279 51 is_stmt 0              // kernel/platform_source/basicplatform/block/mas_bkops_core.c:279:51
	tbz	w8, #3, .LBB1_11
.Ltmp62:
// %bb.10:
	//DEBUG_VALUE: bkops_strategy:bkops <- $x20
	//DEBUG_VALUE: bkops_should_query:bkops <- $x20
	//DEBUG_VALUE: bkops_io_busyidle_notify_handler:bkops <- $x20
	//DEBUG_VALUE: bkops_strategy:lld <- $x19
	//DEBUG_VALUE: bkops_io_busyidle_notify_handler:state <- [DW_OP_LLVM_entry_value 1] $w1
	//DEBUG_VALUE: bkops_io_busyidle_notify_handler:event_node <- [DW_OP_LLVM_entry_value 1] $x0
	//DEBUG_VALUE: bkops_io_busyidle_notify_handler:ret <- 0
	.loc	7 280 10 is_stmt 1              // kernel/platform_source/basicplatform/block/mas_bkops_core.c:280:10
	ldr	x9, [x19, #448]
	.loc	7 280 31 is_stmt 0              // kernel/platform_source/basicplatform/block/mas_bkops_core.c:280:31
	ldp	x11, x10, [x20, #224]
	.loc	7 280 22                        // kernel/platform_source/basicplatform/block/mas_bkops_core.c:280:22
	sub	x10, x9, x10
.Ltmp63:
	.loc	7 279 6 is_stmt 1               // kernel/platform_source/basicplatform/block/mas_bkops_core.c:279:6
	cmp	x10, x11
	b.hs	.LBB1_23
.Ltmp64:
.LBB1_11:
	//DEBUG_VALUE: bkops_strategy:bkops <- $x20
	//DEBUG_VALUE: bkops_should_query:bkops <- $x20
	//DEBUG_VALUE: bkops_io_busyidle_notify_handler:bkops <- $x20
	//DEBUG_VALUE: bkops_strategy:lld <- $x19
	//DEBUG_VALUE: bkops_io_busyidle_notify_handler:state <- [DW_OP_LLVM_entry_value 1] $w1
	//DEBUG_VALUE: bkops_io_busyidle_notify_handler:event_node <- [DW_OP_LLVM_entry_value 1] $x0
	//DEBUG_VALUE: bkops_io_busyidle_notify_handler:ret <- 0
	.loc	7 289 49                        // kernel/platform_source/basicplatform/block/mas_bkops_core.c:289:49
	tbz	w8, #2, .LBB1_13
.Ltmp65:
// %bb.12:
	//DEBUG_VALUE: bkops_strategy:bkops <- $x20
	//DEBUG_VALUE: bkops_should_query:bkops <- $x20
	//DEBUG_VALUE: bkops_io_busyidle_notify_handler:bkops <- $x20
	//DEBUG_VALUE: bkops_strategy:lld <- $x19
	//DEBUG_VALUE: bkops_io_busyidle_notify_handler:state <- [DW_OP_LLVM_entry_value 1] $w1
	//DEBUG_VALUE: bkops_io_busyidle_notify_handler:event_node <- [DW_OP_LLVM_entry_value 1] $x0
	//DEBUG_VALUE: bkops_io_busyidle_notify_handler:ret <- 0
	.loc	7 290 10                        // kernel/platform_source/basicplatform/block/mas_bkops_core.c:290:10
	ldr	x9, [x19, #440]
	.loc	7 290 29 is_stmt 0              // kernel/platform_source/basicplatform/block/mas_bkops_core.c:290:29
	ldp	x11, x10, [x20, #240]
	.loc	7 290 20                        // kernel/platform_source/basicplatform/block/mas_bkops_core.c:290:20
	sub	x10, x9, x10
.Ltmp66:
	.loc	7 289 6 is_stmt 1               // kernel/platform_source/basicplatform/block/mas_bkops_core.c:289:6
	cmp	x10, x11
	b.hs	.LBB1_24
.Ltmp67:
.LBB1_13:
	//DEBUG_VALUE: bkops_should_query:bkops <- $x20
	//DEBUG_VALUE: bkops_io_busyidle_notify_handler:bkops <- $x20
	//DEBUG_VALUE: bkops_io_busyidle_notify_handler:state <- [DW_OP_LLVM_entry_value 1] $w1
	//DEBUG_VALUE: bkops_io_busyidle_notify_handler:event_node <- [DW_OP_LLVM_entry_value 1] $x0
	//DEBUG_VALUE: bkops_io_busyidle_notify_handler:ret <- 0
	.loc	7 0 6 is_stmt 0                 // kernel/platform_source/basicplatform/block/mas_bkops_core.c:0:6
	adrp	x9, user_manual_gc
	ldrb	w9, [x9, :lo12:user_manual_gc]
	.loc	7 322 6 is_stmt 1               // kernel/platform_source/basicplatform/block/mas_bkops_core.c:322:6
	cbnz	w9, .LBB1_25
.Ltmp68:
// %bb.14:
	//DEBUG_VALUE: bkops_should_query:bkops <- $x20
	//DEBUG_VALUE: bkops_io_busyidle_notify_handler:bkops <- $x20
	//DEBUG_VALUE: bkops_io_busyidle_notify_handler:state <- [DW_OP_LLVM_entry_value 1] $w1
	//DEBUG_VALUE: bkops_io_busyidle_notify_handler:event_node <- [DW_OP_LLVM_entry_value 1] $x0
	//DEBUG_VALUE: bkops_io_busyidle_notify_handler:ret <- 0
	.loc	7 331 20                        // kernel/platform_source/basicplatform/block/mas_bkops_core.c:331:20
	and	x8, x8, #0xfffffffffffffffd
.Ltmp69:
	.loc	7 0 0 is_stmt 0                 // kernel/platform_source/basicplatform/block/mas_bkops_core.c:0:0
	mov	w0, wzr
.Ltmp70:
	str	x8, [x20, #128]
	b	.LBB1_26
.Ltmp71:
.LBB1_15:
	//DEBUG_VALUE: bkops_io_busyidle_notify_handler:bkops <- $x20
	//DEBUG_VALUE: bkops_io_busyidle_notify_handler:event_node <- $x0
	//DEBUG_VALUE: bkops_io_busyidle_notify_handler:state <- $w1
	//DEBUG_VALUE: bkops_io_busyidle_notify_handler:ret <- 0
	.loc	7 404 42 is_stmt 1              // kernel/platform_source/basicplatform/block/mas_bkops_core.c:404:42
	add	x8, x20, #128                   // =128
	mov	w9, #32
.Ltmp72:
	//DEBUG_VALUE: __ll_sc_atomic64_fetch_andnot:i <- 32
	//DEBUG_VALUE: arch_atomic64_fetch_andnot:i <- 32
	//DEBUG_VALUE: atomic64_fetch_andnot:i <- 32
	//DEBUG_VALUE: atomic_long_fetch_andnot:i <- 32
	//DEBUG_VALUE: test_and_clear_bit:mask <- 32
	//DEBUG_VALUE: test_and_clear_bit:nr <- 5
	//DEBUG_VALUE: __ll_sc_atomic64_fetch_andnot:v <- $x8
	//DEBUG_VALUE: arch_atomic64_fetch_andnot:v <- $x8
	//DEBUG_VALUE: atomic64_fetch_andnot:v <- $x8
	//DEBUG_VALUE: atomic_long_fetch_andnot:v <- $x8
	//DEBUG_VALUE: test_and_clear_bit:p <- $x8
	.loc	178 229 1                       // kernel/arch/arm64/include/asm/atomic_ll_sc.h:229:1
	//APP
	// atomic64_fetch_andnot
	prfm	pstl1strm, [x8]
.Ltmp73:
	ldxr	x10, [x8]
	bic	x11, x10, x9
	stlxr	w12, x11, [x8]
	cbnz	w12, .Ltmp73
	dmb	ish
	//NO_APP
.Ltmp74:
	//DEBUG_VALUE: __ll_sc_atomic64_fetch_andnot:tmp <- undef
	//DEBUG_VALUE: __ll_sc_atomic64_fetch_andnot:val <- undef
	//DEBUG_VALUE: test_and_clear_bit:old <- $x10
	//DEBUG_VALUE: __ll_sc_atomic64_fetch_andnot:result <- $x10
	.loc	7 403 7                         // kernel/platform_source/basicplatform/block/mas_bkops_core.c:403:7
	tbz	w10, #5, .LBB1_20
.Ltmp75:
// %bb.16:
	//DEBUG_VALUE: bkops_io_busyidle_notify_handler:bkops <- $x20
	//DEBUG_VALUE: bkops_io_busyidle_notify_handler:event_node <- $x0
	//DEBUG_VALUE: bkops_io_busyidle_notify_handler:state <- $w1
	//DEBUG_VALUE: bkops_io_busyidle_notify_handler:ret <- 0
	.loc	7 411 36                        // kernel/platform_source/basicplatform/block/mas_bkops_core.c:411:36
	add	x0, x20, #32                    // =32
.Ltmp76:
	//DEBUG_VALUE: bkops_io_busyidle_notify_handler:event_node <- [DW_OP_LLVM_entry_value 1] $x0
	.loc	7 411 3 is_stmt 0               // kernel/platform_source/basicplatform/block/mas_bkops_core.c:411:3
	bl	cancel_delayed_work_sync
.Ltmp77:
	//DEBUG_VALUE: bkops_io_busyidle_notify_handler:state <- [DW_OP_LLVM_entry_value 1] $w1
	//DEBUG_VALUE: test_bit:nr <- 0
	.loc	177 106 16 is_stmt 1            // kernel/include/asm-generic/bitops/non-atomic.h:106:16
	ldr	x8, [x20, #128]
.Ltmp78:
	//DEBUG_VALUE: test_bit:addr <- [DW_OP_plus_uconst 128, DW_OP_stack_value] $x20
	.loc	7 419 7                         // kernel/platform_source/basicplatform/block/mas_bkops_core.c:419:7
	tbz	w8, #0, .LBB1_20
.Ltmp79:
// %bb.17:
	//DEBUG_VALUE: bkops_io_busyidle_notify_handler:bkops <- $x20
	//DEBUG_VALUE: bkops_io_busyidle_notify_handler:state <- [DW_OP_LLVM_entry_value 1] $w1
	//DEBUG_VALUE: bkops_io_busyidle_notify_handler:event_node <- [DW_OP_LLVM_entry_value 1] $x0
	//DEBUG_VALUE: bkops_io_busyidle_notify_handler:ret <- 0
	//DEBUG_VALUE: mas_bkops_stop:bkops <- $x20
	.loc	7 194 2                         // kernel/platform_source/basicplatform/block/mas_bkops_core.c:194:2
	adrp	x0, bkops_lock
	add	x0, x0, :lo12:bkops_lock
	bl	mutex_lock
.Ltmp80:
	.loc	7 195 7                         // kernel/platform_source/basicplatform/block/mas_bkops_core.c:195:7
	adrp	x8, bkops_enabled
	ldrb	w8, [x8, :lo12:bkops_enabled]
.Ltmp81:
	.loc	7 195 6 is_stmt 0               // kernel/platform_source/basicplatform/block/mas_bkops_core.c:195:6
	tbnz	w8, #0, .LBB1_19
.Ltmp82:
// %bb.18:
	//DEBUG_VALUE: mas_bkops_stop:bkops <- $x20
	//DEBUG_VALUE: bkops_io_busyidle_notify_handler:bkops <- $x20
	//DEBUG_VALUE: bkops_io_busyidle_notify_handler:state <- [DW_OP_LLVM_entry_value 1] $w1
	//DEBUG_VALUE: bkops_io_busyidle_notify_handler:event_node <- [DW_OP_LLVM_entry_value 1] $x0
	//DEBUG_VALUE: bkops_io_busyidle_notify_handler:ret <- 0
	.loc	7 198 9 is_stmt 1               // kernel/platform_source/basicplatform/block/mas_bkops_core.c:198:9
	ldp	x8, x0, [x20, #8]
	.loc	7 198 2 is_stmt 0               // kernel/platform_source/basicplatform/block/mas_bkops_core.c:198:2
	mov	w1, wzr
	.loc	7 198 20                        // kernel/platform_source/basicplatform/block/mas_bkops_core.c:198:20
	ldr	x8, [x8]
	.loc	7 198 2                         // kernel/platform_source/basicplatform/block/mas_bkops_core.c:198:2
	blr	x8
.Ltmp83:
.LBB1_19:
	//DEBUG_VALUE: mas_bkops_stop:bkops <- $x20
	//DEBUG_VALUE: bkops_io_busyidle_notify_handler:bkops <- $x20
	//DEBUG_VALUE: bkops_io_busyidle_notify_handler:state <- [DW_OP_LLVM_entry_value 1] $w1
	//DEBUG_VALUE: bkops_io_busyidle_notify_handler:event_node <- [DW_OP_LLVM_entry_value 1] $x0
	//DEBUG_VALUE: bkops_io_busyidle_notify_handler:ret <- 0
	//DEBUG_LABEL: mas_bkops_stop:out
	.loc	7 204 2 is_stmt 1               // kernel/platform_source/basicplatform/block/mas_bkops_core.c:204:2
	adrp	x0, bkops_lock
	add	x0, x0, :lo12:bkops_lock
	bl	mutex_unlock
.Ltmp84:
	//DEBUG_VALUE: __ll_sc_atomic64_andnot:i <- 1
	//DEBUG_VALUE: arch_atomic64_andnot:i <- 1
	//DEBUG_VALUE: atomic64_andnot:i <- 1
	//DEBUG_VALUE: atomic_long_andnot:i <- 1
	//DEBUG_VALUE: clear_bit:nr <- 0
	.loc	178 229 1                       // kernel/arch/arm64/include/asm/atomic_ll_sc.h:229:1
	add	x8, x20, #128                   // =128
	mov	w9, #1
	//APP
	// atomic64_andnot
	prfm	pstl1strm, [x8]
.Ltmp85:
	ldxr	x10, [x8]
	bic	x10, x10, x9
	stxr	w11, x10, [x8]
	cbnz	w11, .Ltmp85
	//NO_APP
.Ltmp86:
	//DEBUG_VALUE: __ll_sc_atomic64_andnot:v <- [DW_OP_plus_uconst 128, DW_OP_stack_value] undef
	//DEBUG_VALUE: arch_atomic64_andnot:v <- [DW_OP_plus_uconst 128, DW_OP_stack_value] undef
	//DEBUG_VALUE: atomic64_andnot:v <- [DW_OP_plus_uconst 128, DW_OP_stack_value] undef
	//DEBUG_VALUE: atomic_long_andnot:v <- [DW_OP_plus_uconst 128, DW_OP_stack_value] undef
	//DEBUG_VALUE: clear_bit:p <- [DW_OP_plus_uconst 128, DW_OP_stack_value] undef
	//DEBUG_VALUE: __ll_sc_atomic64_andnot:tmp <- undef
	//DEBUG_VALUE: __ll_sc_atomic64_andnot:result <- undef
.LBB1_20:
	//DEBUG_VALUE: bkops_io_busyidle_notify_handler:bkops <- $x20
	//DEBUG_VALUE: bkops_io_busyidle_notify_handler:ret <- 0
	.loc	7 0 0 is_stmt 0                 // kernel/platform_source/basicplatform/block/mas_bkops_core.c:0:0
	mov	w0, wzr
	b	.LBB1_26
.Ltmp87:
.LBB1_21:
	//DEBUG_VALUE: bkops_io_busyidle_notify_handler:bkops <- $x20
	//DEBUG_VALUE: bkops_io_busyidle_notify_handler:event_node <- $x0
	//DEBUG_VALUE: bkops_io_busyidle_notify_handler:state <- $w19
	//DEBUG_VALUE: bkops_io_busyidle_notify_handler:ret <- 0
	.loc	7 432 3 is_stmt 1               // kernel/platform_source/basicplatform/block/mas_bkops_core.c:432:3
	adrp	x0, bkops_io_busyidle_notify_handler._rs
.Ltmp88:
	//DEBUG_VALUE: bkops_io_busyidle_notify_handler:event_node <- [DW_OP_LLVM_entry_value 1] $x0
	adrp	x1, .L__func__.bkops_io_busyidle_notify_handler
	add	x0, x0, :lo12:bkops_io_busyidle_notify_handler._rs
	add	x1, x1, :lo12:.L__func__.bkops_io_busyidle_notify_handler
	bl	___ratelimit
.Ltmp89:
	.loc	7 432 3 is_stmt 0               // kernel/platform_source/basicplatform/block/mas_bkops_core.c:432:3
	cbz	w0, .LBB1_26
.Ltmp90:
// %bb.22:
	//DEBUG_VALUE: bkops_io_busyidle_notify_handler:bkops <- $x20
	//DEBUG_VALUE: bkops_io_busyidle_notify_handler:state <- $w19
	//DEBUG_VALUE: bkops_io_busyidle_notify_handler:event_node <- [DW_OP_LLVM_entry_value 1] $x0
	//DEBUG_VALUE: bkops_io_busyidle_notify_handler:ret <- 0
	.loc	7 432 3                         // kernel/platform_source/basicplatform/block/mas_bkops_core.c:432:3
	adrp	x0, .L.str.2
	adrp	x1, .L__func__.bkops_io_busyidle_notify_handler
	add	x0, x0, :lo12:.L.str.2
	add	x1, x1, :lo12:.L__func__.bkops_io_busyidle_notify_handler
	mov	w2, w19
	bl	printk
.Ltmp91:
	.loc	7 0 3                           // kernel/platform_source/basicplatform/block/mas_bkops_core.c:0:3
	b	.LBB1_20
.Ltmp92:
.LBB1_23:
	//DEBUG_VALUE: bkops_strategy:bkops <- $x20
	//DEBUG_VALUE: bkops_should_query:bkops <- $x20
	//DEBUG_VALUE: bkops_io_busyidle_notify_handler:bkops <- $x20
	//DEBUG_VALUE: bkops_strategy:lld <- $x19
	//DEBUG_VALUE: bkops_io_busyidle_notify_handler:state <- [DW_OP_LLVM_entry_value 1] $w1
	//DEBUG_VALUE: bkops_io_busyidle_notify_handler:event_node <- [DW_OP_LLVM_entry_value 1] $x0
	//DEBUG_VALUE: bkops_io_busyidle_notify_handler:ret <- 0
	.loc	7 282 27 is_stmt 1              // kernel/platform_source/basicplatform/block/mas_bkops_core.c:282:27
	str	x9, [x20, #232]
	b	.LBB1_25
.Ltmp93:
.LBB1_24:
	//DEBUG_VALUE: bkops_strategy:bkops <- $x20
	//DEBUG_VALUE: bkops_should_query:bkops <- $x20
	//DEBUG_VALUE: bkops_io_busyidle_notify_handler:bkops <- $x20
	//DEBUG_VALUE: bkops_strategy:lld <- $x19
	//DEBUG_VALUE: bkops_io_busyidle_notify_handler:state <- [DW_OP_LLVM_entry_value 1] $w1
	//DEBUG_VALUE: bkops_io_busyidle_notify_handler:event_node <- [DW_OP_LLVM_entry_value 1] $x0
	//DEBUG_VALUE: bkops_io_busyidle_notify_handler:ret <- 0
	.loc	7 292 25                        // kernel/platform_source/basicplatform/block/mas_bkops_core.c:292:25
	str	x9, [x20, #248]
.Ltmp94:
.LBB1_25:
	//DEBUG_VALUE: bkops_should_query:bkops <- $x20
	//DEBUG_VALUE: bkops_io_busyidle_notify_handler:bkops <- $x20
	//DEBUG_VALUE: bkops_io_busyidle_notify_handler:ret <- 0
	//DEBUG_LABEL: bkops_should_query:query_needed
	.loc	7 335 20                        // kernel/platform_source/basicplatform/block/mas_bkops_core.c:335:20
	orr	x8, x8, #0x2
	.loc	7 0 0 is_stmt 0                 // kernel/platform_source/basicplatform/block/mas_bkops_core.c:0:0
	str	x8, [x20, #128]!
.Ltmp95:
	//DEBUG_VALUE: __ll_sc_atomic64_or:i <- 32
	//DEBUG_VALUE: arch_atomic64_or:i <- 32
	//DEBUG_VALUE: atomic64_or:i <- 32
	//DEBUG_VALUE: atomic_long_or:i <- 32
	//DEBUG_VALUE: set_bit:nr <- 5
	//DEBUG_VALUE: __ll_sc_atomic64_or:v <- $x20
	//DEBUG_VALUE: arch_atomic64_or:v <- $x20
	//DEBUG_VALUE: atomic64_or:v <- $x20
	//DEBUG_VALUE: atomic_long_or:v <- $x20
	//DEBUG_VALUE: set_bit:p <- $x20
	.loc	178 222 1 is_stmt 1             // kernel/arch/arm64/include/asm/atomic_ll_sc.h:222:1
	//APP
	// atomic64_or
	prfm	pstl1strm, [x20]
.Ltmp96:
	ldxr	x8, [x20]
	orr	x8, x8, #0x20
	stxr	w10, x8, [x20]
	cbnz	w10, .Ltmp96
	//NO_APP
.Ltmp97:
	//DEBUG_VALUE: __ll_sc_atomic64_or:tmp <- undef
	//DEBUG_VALUE: __ll_sc_atomic64_or:result <- undef
	.loc	7 394 22                        // kernel/platform_source/basicplatform/block/mas_bkops_core.c:394:22
	adrp	x9, bkops_workqueue_g
	.loc	7 395 28                        // kernel/platform_source/basicplatform/block/mas_bkops_core.c:395:28
	ldr	w0, [x20, #8]
	.loc	7 394 22                        // kernel/platform_source/basicplatform/block/mas_bkops_core.c:394:22
	ldr	x19, [x9, :lo12:bkops_workqueue_g]
	//DEBUG_VALUE: msecs_to_jiffies:m <- undef
	.loc	7 394 49 is_stmt 0              // kernel/platform_source/basicplatform/block/mas_bkops_core.c:394:49
	sub	x20, x20, #96                   // =96
.Ltmp98:
	//DEBUG_VALUE: msecs_to_jiffies:m <- [DW_OP_LLVM_convert 64 7, DW_OP_LLVM_convert 32 7, DW_OP_stack_value] undef
	.file	183 "/mnt/disk/jenkins/ci/workspace/chipset_pipeline_release/opensource/component_code/vendor/huawei/extra/build/build_script/kirin_kernel_release" "kernel/include/linux/jiffies.h"
	.loc	183 370 10 is_stmt 1            // kernel/include/linux/jiffies.h:370:10
	bl	__msecs_to_jiffies
.Ltmp99:
	mov	x3, x0
.Ltmp100:
	//DEBUG_VALUE: queue_delayed_work:dwork <- $x20
	//DEBUG_VALUE: queue_delayed_work:delay <- $x3
	//DEBUG_VALUE: queue_delayed_work:wq <- $x19
	.loc	54 529 9                        // kernel/include/linux/workqueue.h:529:9
	mov	w0, #12
	mov	x1, x19
	mov	x2, x20
	bl	queue_delayed_work_on
.Ltmp101:
	.loc	54 0 9 is_stmt 0                // kernel/include/linux/workqueue.h:0:9
	mov	w0, #1
.Ltmp102:
	//DEBUG_VALUE: bkops_io_busyidle_notify_handler:ret <- 1
.LBB1_26:
	//DEBUG_VALUE: bkops_io_busyidle_notify_handler:ret <- $w0
	.loc	7 436 2 is_stmt 1               // kernel/platform_source/basicplatform/block/mas_bkops_core.c:436:2
	ldp	x20, x19, [sp, #16]             // 16-byte Folded Reload
	ldp	x29, x30, [sp], #32             // 16-byte Folded Reload
	hint	#29
	ret
.Ltmp103:
.LBB1_27:
	//DEBUG_VALUE: bkops_strategy:bkops <- $x20
	//DEBUG_VALUE: bkops_should_query:bkops <- $x20
	//DEBUG_VALUE: bkops_io_busyidle_notify_handler:bkops <- $x20
	//DEBUG_VALUE: bkops_strategy:lld <- $x19
	//DEBUG_VALUE: bkops_strategy:tp <- [DW_OP_LLVM_fragment 0 64] $x0
	//DEBUG_VALUE: bkops_io_busyidle_notify_handler:state <- [DW_OP_LLVM_entry_value 1] $w1
	//DEBUG_VALUE: bkops_io_busyidle_notify_handler:event_node <- [DW_OP_LLVM_entry_value 1] $x0
	//DEBUG_VALUE: bkops_io_busyidle_notify_handler:ret <- 0
	.loc	7 335 20                        // kernel/platform_source/basicplatform/block/mas_bkops_core.c:335:20
	ldr	x8, [x20, #128]
.Ltmp104:
	.loc	7 271 33                        // kernel/platform_source/basicplatform/block/mas_bkops_core.c:271:33
	str	x0, [x20, #216]
	b	.LBB1_25
.Ltmp105:
.Lfunc_end1:
	.size	bkops_io_busyidle_notify_handler, .Lfunc_end1-bkops_io_busyidle_notify_handler
	.cfi_endproc
                                        // -- End function
	.globl	bkops_pm_callback               // -- Begin function bkops_pm_callback
	.p2align	2
	.type	bkops_pm_callback,@function
bkops_pm_callback:                      // @bkops_pm_callback
.Lfunc_begin2:
	.loc	7 647 0                         // kernel/platform_source/basicplatform/block/mas_bkops_core.c:647:0
	.cfi_startproc
// %bb.0:
	.loc	7 648 2 prologue_end            // kernel/platform_source/basicplatform/block/mas_bkops_core.c:648:2
	hint	#34
.Ltmp106:
	//DEBUG_VALUE: bkops_pm_callback:self <- $x0
	//DEBUG_VALUE: bkops_pm_callback:action <- $x1
	//DEBUG_VALUE: bkops_pm_callback:action <- $x1
	//DEBUG_VALUE: bkops_pm_callback:ptr <- $x2
	sub	x8, x1, #1                      // =1
	cmp	x8, #3                          // =3
	b.hi	.LBB2_2
.Ltmp107:
// %bb.1:
	//DEBUG_VALUE: bkops_pm_callback:ptr <- $x2
	//DEBUG_VALUE: bkops_pm_callback:action <- $x1
	//DEBUG_VALUE: bkops_pm_callback:self <- $x0
	hint	#25
	.cfi_negate_ra_state
	stp	x29, x30, [sp, #-32]!           // 16-byte Folded Spill
	stp	x20, x19, [sp, #16]             // 16-byte Folded Spill
	mov	x29, sp
	.cfi_def_cfa w29, 32
	.cfi_offset w19, -8
	.cfi_offset w20, -16
	.cfi_offset w30, -24
	.cfi_offset w29, -32
.Ltmp108:
	.loc	7 0 0 is_stmt 0                 // kernel/platform_source/basicplatform/block/mas_bkops_core.c:0:0
	adrp	x19, bkops_lock
	add	x19, x19, :lo12:bkops_lock
.Ltmp109:
	.loc	7 648 2                         // kernel/platform_source/basicplatform/block/mas_bkops_core.c:648:2
	tst	x8, #0x1
.Ltmp110:
	.loc	7 0 0                           // kernel/platform_source/basicplatform/block/mas_bkops_core.c:0:0
	mov	x0, x19
.Ltmp111:
	//DEBUG_VALUE: bkops_pm_callback:self <- [DW_OP_LLVM_entry_value 1] $x0
	.loc	7 648 2                         // kernel/platform_source/basicplatform/block/mas_bkops_core.c:648:2
	cset	w20, eq
.Ltmp112:
	.loc	7 0 0                           // kernel/platform_source/basicplatform/block/mas_bkops_core.c:0:0
	bl	mutex_lock
.Ltmp113:
	//DEBUG_VALUE: bkops_pm_callback:ptr <- [DW_OP_LLVM_entry_value 1] $x2
	//DEBUG_VALUE: bkops_pm_callback:action <- [DW_OP_LLVM_entry_value 1] $x1
	adrp	x8, bkops_enabled
	mov	x0, x19
	strb	w20, [x8, :lo12:bkops_enabled]
	bl	mutex_unlock
.Ltmp114:
	ldp	x20, x19, [sp, #16]             // 16-byte Folded Reload
	mov	w0, #1
	ldp	x29, x30, [sp], #32             // 16-byte Folded Reload
	hint	#29
.Ltmp115:
	.loc	7 664 1 is_stmt 1               // kernel/platform_source/basicplatform/block/mas_bkops_core.c:664:1
	ret
.Ltmp116:
.LBB2_2:
	//DEBUG_VALUE: bkops_pm_callback:ptr <- $x2
	//DEBUG_VALUE: bkops_pm_callback:action <- $x1
	//DEBUG_VALUE: bkops_pm_callback:self <- $x0
	.loc	7 0 0 is_stmt 0                 // kernel/platform_source/basicplatform/block/mas_bkops_core.c:0:0
	mov	w0, wzr
.Ltmp117:
	//DEBUG_VALUE: bkops_pm_callback:self <- [DW_OP_LLVM_entry_value 1] $x0
	.loc	7 664 1                         // kernel/platform_source/basicplatform/block/mas_bkops_core.c:664:1
	ret
.Ltmp118:
.Lfunc_end2:
	.size	bkops_pm_callback, .Lfunc_end2-bkops_pm_callback
	.cfi_endproc
                                        // -- End function
	.globl	bkops_notify_reboot             // -- Begin function bkops_notify_reboot
	.p2align	2
	.type	bkops_notify_reboot,@function
bkops_notify_reboot:                    // @bkops_notify_reboot
.Lfunc_begin3:
	.loc	7 669 0 is_stmt 1               // kernel/platform_source/basicplatform/block/mas_bkops_core.c:669:0
	.cfi_startproc
// %bb.0:
	//DEBUG_VALUE: bkops_notify_reboot:self <- $x0
	//DEBUG_VALUE: bkops_notify_reboot:code <- $x1
	//DEBUG_VALUE: bkops_notify_reboot:no_use <- $x2
	hint	#25
	.cfi_negate_ra_state
	stp	x29, x30, [sp, #-32]!           // 16-byte Folded Spill
	str	x19, [sp, #16]                  // 8-byte Folded Spill
	mov	x29, sp
	.cfi_def_cfa w29, 32
	.cfi_offset w19, -16
	.cfi_offset w30, -24
	.cfi_offset w29, -32
.Ltmp119:
	.loc	7 632 2 prologue_end            // kernel/platform_source/basicplatform/block/mas_bkops_core.c:632:2
	adrp	x19, bkops_lock
	add	x19, x19, :lo12:bkops_lock
	mov	x0, x19
.Ltmp120:
	//DEBUG_VALUE: bkops_notify_reboot:self <- [DW_OP_LLVM_entry_value 1] $x0
	bl	mutex_lock
.Ltmp121:
	//DEBUG_VALUE: bkops_notify_reboot:no_use <- [DW_OP_LLVM_entry_value 1] $x2
	//DEBUG_VALUE: bkops_notify_reboot:code <- [DW_OP_LLVM_entry_value 1] $x1
	.loc	7 633 16                        // kernel/platform_source/basicplatform/block/mas_bkops_core.c:633:16
	adrp	x8, bkops_enabled
	mov	w9, #1
	.loc	7 634 2                         // kernel/platform_source/basicplatform/block/mas_bkops_core.c:634:2
	mov	x0, x19
	.loc	7 633 16                        // kernel/platform_source/basicplatform/block/mas_bkops_core.c:633:16
	strb	w9, [x8, :lo12:bkops_enabled]
	.loc	7 634 2                         // kernel/platform_source/basicplatform/block/mas_bkops_core.c:634:2
	bl	mutex_unlock
.Ltmp122:
	.loc	7 671 2                         // kernel/platform_source/basicplatform/block/mas_bkops_core.c:671:2
	ldr	x19, [sp, #16]                  // 8-byte Folded Reload
	mov	w0, wzr
	ldp	x29, x30, [sp], #32             // 16-byte Folded Reload
	hint	#29
	ret
.Ltmp123:
.Lfunc_end3:
	.size	bkops_notify_reboot, .Lfunc_end3-bkops_notify_reboot
	.cfi_endproc
                                        // -- End function
	.globl	mas_bkops_alloc                 // -- Begin function mas_bkops_alloc
	.p2align	2
	.type	mas_bkops_alloc,@function
mas_bkops_alloc:                        // @mas_bkops_alloc
.Lfunc_begin4:
	.loc	7 716 0                         // kernel/platform_source/basicplatform/block/mas_bkops_core.c:716:0
	.cfi_startproc
// %bb.0:
	//DEBUG_VALUE: kzalloc:size <- 256
	//DEBUG_VALUE: kzalloc:flags <- 3264
	//DEBUG_VALUE: kmalloc:size <- 256
	//DEBUG_VALUE: kmalloc:flags <- 3520
	hint	#25
	.cfi_negate_ra_state
	stp	x29, x30, [sp, #-32]!           // 16-byte Folded Spill
	str	x19, [sp, #16]                  // 8-byte Folded Spill
	mov	x29, sp
	.cfi_def_cfa w29, 32
	.cfi_offset w19, -16
	.cfi_offset w30, -24
	.cfi_offset w29, -32
.Ltmp124:
	//DEBUG_VALUE: index <- 8
	.loc	176 566 5 prologue_end          // kernel/include/linux/slab.h:566:5
	adrp	x8, kmalloc_caches+64
	ldr	x0, [x8, :lo12:kmalloc_caches+64]
	.loc	176 565 10                      // kernel/include/linux/slab.h:565:10
	mov	w1, #3520
	mov	w2, #256
	bl	kmem_cache_alloc_trace
.Ltmp125:
	mov	x19, x0
.Ltmp126:
	//DEBUG_VALUE: mas_bkops_alloc:bkops <- $x19
	.loc	7 720 6                         // kernel/platform_source/basicplatform/block/mas_bkops_core.c:720:6
	cbz	x0, .LBB4_3
.Ltmp127:
// %bb.1:
	//DEBUG_VALUE: mas_bkops_alloc:bkops <- $x19
	//DEBUG_VALUE: mas_bkops_alloc:bkops <- $x19
	.loc	7 725 2                         // kernel/platform_source/basicplatform/block/mas_bkops_core.c:725:2
	adrp	x10, __ufs_bkops_idle_work_func
.Ltmp128:
	.loc	7 725 2 is_stmt 0               // kernel/platform_source/basicplatform/block/mas_bkops_core.c:725:2
	adrp	x1, delayed_work_timer_fn
	mov	x8, #68719476704
.Ltmp129:
	.loc	7 725 2                         // kernel/platform_source/basicplatform/block/mas_bkops_core.c:725:2
	add	x9, x19, #40                    // =40
	add	x10, x10, :lo12:__ufs_bkops_idle_work_func
.Ltmp130:
	.loc	7 725 2                         // kernel/platform_source/basicplatform/block/mas_bkops_core.c:725:2
	add	x0, x19, #64                    // =64
	add	x1, x1, :lo12:delayed_work_timer_fn
	mov	w2, #2097152
	mov	x3, xzr
	mov	x4, xzr
.Ltmp131:
	.loc	7 725 2                         // kernel/platform_source/basicplatform/block/mas_bkops_core.c:725:2
	str	x8, [x19, #32]
.Ltmp132:
	//DEBUG_VALUE: INIT_LIST_HEAD:list <- $x9
	.file	184 "/mnt/disk/jenkins/ci/workspace/chipset_pipeline_release/opensource/component_code/vendor/huawei/extra/build/build_script/kirin_kernel_release" "kernel/include/linux/list.h"
	.loc	184 35 2 is_stmt 1              // kernel/include/linux/list.h:35:2
	str	x9, [x19, #40]
.Ltmp133:
	.loc	184 36 13                       // kernel/include/linux/list.h:36:13
	stp	x9, x10, [x19, #48]
.Ltmp134:
	.loc	7 725 2                         // kernel/platform_source/basicplatform/block/mas_bkops_core.c:725:2
	bl	init_timer_key
.Ltmp135:
	.loc	7 0 2 is_stmt 0                 // kernel/platform_source/basicplatform/block/mas_bkops_core.c:0:2
	mov	w8, #1000
	mov	w9, #3600
	mov	w10, #536870912
.Ltmp136:
	.loc	7 726 29 is_stmt 1              // kernel/platform_source/basicplatform/block/mas_bkops_core.c:726:29
	str	x8, [x19, #136]
	.loc	7 727 30                        // kernel/platform_source/basicplatform/block/mas_bkops_core.c:727:30
	str	x9, [x19, #208]
	.loc	7 728 33                        // kernel/platform_source/basicplatform/block/mas_bkops_core.c:728:33
	str	x10, [x19, #224]
	.loc	7 729 31                        // kernel/platform_source/basicplatform/block/mas_bkops_core.c:729:31
	str	x10, [x19, #240]
.Ltmp137:
.LBB4_2:
	//DEBUG_VALUE: mas_bkops_alloc:bkops <- $x19
	.loc	7 732 1                         // kernel/platform_source/basicplatform/block/mas_bkops_core.c:732:1
	mov	x0, x19
	ldr	x19, [sp, #16]                  // 8-byte Folded Reload
.Ltmp138:
	ldp	x29, x30, [sp], #32             // 16-byte Folded Reload
	hint	#29
	ret
.LBB4_3:
.Ltmp139:
	//DEBUG_VALUE: mas_bkops_alloc:bkops <- $x19
	.loc	7 721 3                         // kernel/platform_source/basicplatform/block/mas_bkops_core.c:721:3
	adrp	x0, .L.str.3
	add	x0, x0, :lo12:.L.str.3
	bl	printk
.Ltmp140:
	.loc	7 0 3 is_stmt 0                 // kernel/platform_source/basicplatform/block/mas_bkops_core.c:0:3
	b	.LBB4_2
.Ltmp141:
.Lfunc_end4:
	.size	mas_bkops_alloc, .Lfunc_end4-mas_bkops_alloc
	.cfi_endproc
                                        // -- End function
	.globl	mas_bkops_manual_gc_proc_show   // -- Begin function mas_bkops_manual_gc_proc_show
	.p2align	2
	.type	mas_bkops_manual_gc_proc_show,@function
mas_bkops_manual_gc_proc_show:          // @mas_bkops_manual_gc_proc_show
.Lfunc_begin5:
	.loc	7 735 0 is_stmt 1               // kernel/platform_source/basicplatform/block/mas_bkops_core.c:735:0
	.cfi_startproc
// %bb.0:
	//DEBUG_VALUE: mas_bkops_manual_gc_proc_show:m <- $x0
	//DEBUG_VALUE: mas_bkops_manual_gc_proc_show:v <- $x1
	hint	#25
	.cfi_negate_ra_state
	stp	x29, x30, [sp, #-16]!           // 16-byte Folded Spill
	mov	x29, sp
	.cfi_def_cfa w29, 16
	.cfi_offset w30, -8
	.cfi_offset w29, -16
.Ltmp142:
	.loc	7 736 24 prologue_end           // kernel/platform_source/basicplatform/block/mas_bkops_core.c:736:24
	adrp	x8, user_manual_gc
	ldrb	w2, [x8, :lo12:user_manual_gc]
	//DEBUG_VALUE: mas_bkops_manual_gc_proc_show:m <- $x0
	.loc	7 736 2 is_stmt 0               // kernel/platform_source/basicplatform/block/mas_bkops_core.c:736:2
	adrp	x1, .L.str.4
.Ltmp143:
	//DEBUG_VALUE: mas_bkops_manual_gc_proc_show:v <- [DW_OP_LLVM_entry_value 1] $x1
	add	x1, x1, :lo12:.L.str.4
	//DEBUG_VALUE: mas_bkops_manual_gc_proc_show:m <- $x0
	bl	seq_printf
.Ltmp144:
	//DEBUG_VALUE: mas_bkops_manual_gc_proc_show:m <- [DW_OP_LLVM_entry_value 1] $x0
	.loc	7 738 2 is_stmt 1               // kernel/platform_source/basicplatform/block/mas_bkops_core.c:738:2
	mov	w0, wzr
	ldp	x29, x30, [sp], #16             // 16-byte Folded Reload
	hint	#29
	ret
.Ltmp145:
.Lfunc_end5:
	.size	mas_bkops_manual_gc_proc_show, .Lfunc_end5-mas_bkops_manual_gc_proc_show
	.cfi_endproc
                                        // -- End function
	.globl	mas_bkops_manual_gc_proc_open   // -- Begin function mas_bkops_manual_gc_proc_open
	.p2align	2
	.type	mas_bkops_manual_gc_proc_open,@function
mas_bkops_manual_gc_proc_open:          // @mas_bkops_manual_gc_proc_open
.Lfunc_begin6:
	.loc	7 743 0                         // kernel/platform_source/basicplatform/block/mas_bkops_core.c:743:0
	.cfi_startproc
// %bb.0:
	//DEBUG_VALUE: mas_bkops_manual_gc_proc_open:p_inode <- $x0
	//DEBUG_VALUE: mas_bkops_manual_gc_proc_open:p_file <- $x1
	hint	#25
	.cfi_negate_ra_state
	stp	x29, x30, [sp, #-16]!           // 16-byte Folded Spill
	mov	x29, sp
	.cfi_def_cfa w29, 16
	.cfi_offset w30, -8
	.cfi_offset w29, -16
	mov	x0, x1
.Ltmp146:
	//DEBUG_VALUE: mas_bkops_manual_gc_proc_open:p_inode <- [DW_OP_LLVM_entry_value 1] $x0
	//DEBUG_VALUE: mas_bkops_manual_gc_proc_open:p_file <- $x0
	.loc	7 744 9 prologue_end            // kernel/platform_source/basicplatform/block/mas_bkops_core.c:744:9
	adrp	x1, __cfi_mas_bkops_manual_gc_proc_show
	add	x1, x1, :lo12:__cfi_mas_bkops_manual_gc_proc_show
	//DEBUG_VALUE: mas_bkops_manual_gc_proc_open:p_file <- $x0
	mov	x2, xzr
	bl	single_open
.Ltmp147:
	.loc	7 744 2 is_stmt 0               // kernel/platform_source/basicplatform/block/mas_bkops_core.c:744:2
	ldp	x29, x30, [sp], #16             // 16-byte Folded Reload
	hint	#29
	ret
.Ltmp148:
.Lfunc_end6:
	.size	mas_bkops_manual_gc_proc_open, .Lfunc_end6-mas_bkops_manual_gc_proc_open
	.cfi_endproc
                                        // -- End function
	.globl	mas_bkops_manual_gc_proc_write  // -- Begin function mas_bkops_manual_gc_proc_write
	.p2align	2
	.type	mas_bkops_manual_gc_proc_write,@function
mas_bkops_manual_gc_proc_write:         // @mas_bkops_manual_gc_proc_write
.Lfunc_begin7:
	.loc	7 750 0 is_stmt 1               // kernel/platform_source/basicplatform/block/mas_bkops_core.c:750:0
	.cfi_startproc
// %bb.0:
	//DEBUG_VALUE: mas_bkops_manual_gc_proc_write:p_file <- $x0
	//DEBUG_VALUE: mas_bkops_manual_gc_proc_write:userbuf <- $x1
	//DEBUG_VALUE: mas_bkops_manual_gc_proc_write:count <- $x2
	//DEBUG_VALUE: mas_bkops_manual_gc_proc_write:ppos <- $x3
	hint	#25
	.cfi_negate_ra_state
	stp	x29, x30, [sp, #-32]!           // 16-byte Folded Spill
	str	x19, [sp, #16]                  // 8-byte Folded Spill
	mov	x29, sp
	.cfi_def_cfa w29, 32
	.cfi_offset w19, -16
	.cfi_offset w30, -24
	.cfi_offset w29, -32
	mov	x0, #-22
.Ltmp149:
	//DEBUG_VALUE: mas_bkops_manual_gc_proc_write:p_file <- [DW_OP_LLVM_entry_value 1] $x0
	//DEBUG_VALUE: mas_bkops_manual_gc_proc_write:count <- $x2
	//DEBUG_VALUE: mas_bkops_manual_gc_proc_write:userbuf <- $x1
	.loc	7 753 13 prologue_end           // kernel/platform_source/basicplatform/block/mas_bkops_core.c:753:13
	cbz	x1, .LBB7_6
.Ltmp150:
// %bb.1:
	//DEBUG_VALUE: mas_bkops_manual_gc_proc_write:ppos <- $x3
	//DEBUG_VALUE: mas_bkops_manual_gc_proc_write:count <- $x2
	//DEBUG_VALUE: mas_bkops_manual_gc_proc_write:userbuf <- $x1
	//DEBUG_VALUE: mas_bkops_manual_gc_proc_write:p_file <- [DW_OP_LLVM_entry_value 1] $x0
	.loc	7 0 13 is_stmt 0                // kernel/platform_source/basicplatform/block/mas_bkops_core.c:0:13
	mov	x19, x2
.Ltmp151:
	//DEBUG_VALUE: mas_bkops_manual_gc_proc_write:count <- $x19
	.loc	7 753 13                        // kernel/platform_source/basicplatform/block/mas_bkops_core.c:753:13
	cbz	x2, .LBB7_6
.Ltmp152:
// %bb.2:
	//DEBUG_VALUE: mas_bkops_manual_gc_proc_write:count <- $x19
	//DEBUG_VALUE: mas_bkops_manual_gc_proc_write:ppos <- $x3
	//DEBUG_VALUE: mas_bkops_manual_gc_proc_write:userbuf <- $x1
	//DEBUG_VALUE: mas_bkops_manual_gc_proc_write:p_file <- [DW_OP_LLVM_entry_value 1] $x0
	//DEBUG_VALUE: mas_bkops_manual_gc_proc_write:buf <- [DW_OP_plus_uconst 28, DW_OP_deref] $fp
	//DEBUG_VALUE: copy_from_user:to <- [DW_OP_plus_uconst 28, DW_OP_stack_value] $fp
	//DEBUG_VALUE: copy_from_user:from <- $x1
	//DEBUG_VALUE: copy_from_user:n <- 1
	//DEBUG_VALUE: _copy_from_user:to <- [DW_OP_plus_uconst 28, DW_OP_stack_value] $fp
	//DEBUG_VALUE: _copy_from_user:from <- $x1
	//DEBUG_VALUE: _copy_from_user:n <- 1
	//DEBUG_VALUE: _copy_from_user:res <- 1
	//DEBUG_VALUE: __range_ok:addr <- $x1
	//DEBUG_VALUE: __range_ok:size <- 1
	.file	185 "/mnt/disk/jenkins/ci/workspace/chipset_pipeline_release/opensource/component_code/vendor/huawei/extra/build/build_script/kirin_kernel_release" "kernel/arch/arm64/include/asm/current.h"
	.loc	185 19 2 is_stmt 1              // kernel/arch/arm64/include/asm/current.h:19:2
	//APP
	mrs	x8, SP_EL0
	//NO_APP
.Ltmp153:
	//DEBUG_VALUE: get_current:sp_el0 <- $x8
	.file	186 "/mnt/disk/jenkins/ci/workspace/chipset_pipeline_release/opensource/component_code/vendor/huawei/extra/build/build_script/kirin_kernel_release" "kernel/arch/arm64/include/asm/uaccess.h"
	.loc	186 68 52                       // kernel/arch/arm64/include/asm/uaccess.h:68:52
	ldr	x9, [x8, #8]
.Ltmp154:
	//DEBUG_VALUE: __range_ok:limit <- $x9
	.loc	186 80 2                        // kernel/arch/arm64/include/asm/uaccess.h:80:2
	mov	x10, x1
	//APP
	adds	x10, x10, #1                    // =1
	csel	x9, xzr, x9, hi
	csinv	x10, x10, xzr, lo
	sbcs	xzr, x10, x9
	cset	x10, ls

	//NO_APP
.Ltmp155:
	//DEBUG_VALUE: __range_ok:ret <- $x10
	//DEBUG_VALUE: __range_ok:limit <- undef
	.file	187 "/mnt/disk/jenkins/ci/workspace/chipset_pipeline_release/opensource/component_code/vendor/huawei/extra/build/build_script/kirin_kernel_release" "kernel/include/linux/uaccess.h"
	.loc	187 157 6                       // kernel/include/linux/uaccess.h:157:6
	cbz	x10, .LBB7_8
.Ltmp156:
// %bb.3:
	//DEBUG_VALUE: mas_bkops_manual_gc_proc_write:count <- $x19
	//DEBUG_VALUE: mas_bkops_manual_gc_proc_write:ppos <- $x3
	//DEBUG_VALUE: _copy_from_user:from <- $x1
	//DEBUG_VALUE: copy_from_user:from <- $x1
	//DEBUG_VALUE: mas_bkops_manual_gc_proc_write:userbuf <- $x1
	//DEBUG_VALUE: _copy_from_user:to <- [DW_OP_plus_uconst 28, DW_OP_stack_value] $fp
	//DEBUG_VALUE: copy_from_user:to <- [DW_OP_plus_uconst 28, DW_OP_stack_value] $fp
	//DEBUG_VALUE: mas_bkops_manual_gc_proc_write:buf <- [DW_OP_plus_uconst 28, DW_OP_deref] $fp
	//DEBUG_VALUE: _copy_from_user:res <- 1
	//DEBUG_VALUE: _copy_from_user:n <- 1
	//DEBUG_VALUE: copy_from_user:n <- 1
	//DEBUG_VALUE: mas_bkops_manual_gc_proc_write:p_file <- [DW_OP_LLVM_entry_value 1] $x0
	.loc	186 277 2                       // kernel/arch/arm64/include/asm/uaccess.h:277:2
	//APP
.Ltmp157:
	nop
.Ltmp158:
	.section	.altinstructions,"a",@progbits
.Ltmp159:
	.word	.Ltmp157-.Ltmp159
.Ltmp161:
	.word	.Ltmp160-.Ltmp161
	.hword	10
	.byte	.Ltmp158-.Ltmp157
	.byte	.Ltmp162-.Ltmp160
	.text

	.text	1
.Ltmp160:
	.inst	0xd500409f

.Ltmp162:
.Ltmp163:
.org (.Ltmp163-(.Ltmp162-.Ltmp160))+(.Ltmp158-.Ltmp157), 0
.Ltmp164:
.org (.Ltmp164-(.Ltmp158-.Ltmp157))+(.Ltmp162-.Ltmp160), 0
	.text


	//NO_APP
.Ltmp165:
	//DEBUG_VALUE: get_current:sp_el0 <- $x8
	//DEBUG_VALUE: __uaccess_mask_ptr:ptr <- $x1
	.loc	186 294 43                      // kernel/arch/arm64/include/asm/uaccess.h:294:43
	ldr	x9, [x8, #8]
.Ltmp166:
	//DEBUG_VALUE: sign_extend64:shift <- 8
	//DEBUG_VALUE: sign_extend64:index <- 55
	//DEBUG_VALUE: sign_extend64:value <- $x1
	//DEBUG_VALUE: __addr <- $x1
	.file	188 "/mnt/disk/jenkins/ci/workspace/chipset_pipeline_release/opensource/component_code/vendor/huawei/extra/build/build_script/kirin_kernel_release" "kernel/include/linux/bitops.h"
	.loc	188 179 33                      // kernel/include/linux/bitops.h:179:33
	lsl	x8, x1, #8
.Ltmp167:
	.loc	186 295 9                       // kernel/arch/arm64/include/asm/uaccess.h:295:9
	and	x10, x1, x8, asr #8
.Ltmp168:
	//DEBUG_VALUE: __addr <- $x10
	.loc	186 290 2                       // kernel/arch/arm64/include/asm/uaccess.h:290:2
	//APP
	bics	xzr, x10, x9
	csel	x8, x1, xzr, eq

	//NO_APP
.Ltmp169:
	//DEBUG_VALUE: __uaccess_mask_ptr:safe_ptr <- $x8
	.loc	186 298 2                       // kernel/arch/arm64/include/asm/uaccess.h:298:2
	//APP
	csdb
	//NO_APP
.Ltmp170:
	.loc	187 159 9                       // kernel/include/linux/uaccess.h:159:9
	add	x0, x29, #28                    // =28
	mov	w2, #1
	mov	x1, x8
.Ltmp171:
	//DEBUG_VALUE: mas_bkops_manual_gc_proc_write:userbuf <- [DW_OP_LLVM_entry_value 1] $x1
	bl	__arch_copy_from_user
.Ltmp172:
	//DEBUG_VALUE: mas_bkops_manual_gc_proc_write:ppos <- [DW_OP_LLVM_entry_value 1] $x3
	//DEBUG_VALUE: __acfu_ret <- $x0
	//DEBUG_VALUE: _copy_from_user:res <- $x0
	.loc	186 272 2                       // kernel/arch/arm64/include/asm/uaccess.h:272:2
	//APP
.Ltmp173:
	nop
.Ltmp174:
	.section	.altinstructions,"a",@progbits
.Ltmp175:
	.word	.Ltmp173-.Ltmp175
.Ltmp177:
	.word	.Ltmp176-.Ltmp177
	.hword	10
	.byte	.Ltmp174-.Ltmp173
	.byte	.Ltmp178-.Ltmp176
	.text

	.text	1
.Ltmp176:
	.inst	0xd500419f

.Ltmp178:
.Ltmp179:
.org (.Ltmp179-(.Ltmp178-.Ltmp176))+(.Ltmp174-.Ltmp173), 0
.Ltmp180:
.org (.Ltmp180-(.Ltmp174-.Ltmp173))+(.Ltmp178-.Ltmp176), 0
	.text


	//NO_APP
.Ltmp181:
	.loc	187 161 6                       // kernel/include/linux/uaccess.h:161:6
	cbnz	x0, .LBB7_9
.Ltmp182:
// %bb.4:
	//DEBUG_VALUE: mas_bkops_manual_gc_proc_write:count <- $x19
	//DEBUG_VALUE: mas_bkops_manual_gc_proc_write:buf <- [DW_OP_plus_uconst 28, DW_OP_deref] $fp
	//DEBUG_VALUE: mas_bkops_manual_gc_proc_write:ppos <- [DW_OP_LLVM_entry_value 1] $x3
	//DEBUG_VALUE: mas_bkops_manual_gc_proc_write:userbuf <- [DW_OP_LLVM_entry_value 1] $x1
	//DEBUG_VALUE: mas_bkops_manual_gc_proc_write:p_file <- [DW_OP_LLVM_entry_value 1] $x0
	.loc	7 759 6                         // kernel/platform_source/basicplatform/block/mas_bkops_core.c:759:6
	ldrb	w8, [x29, #28]
.Ltmp183:
	//DEBUG_VALUE: mas_bkops_manual_gc_proc_write:buf <- $w8
	.loc	7 759 17 is_stmt 0              // kernel/platform_source/basicplatform/block/mas_bkops_core.c:759:17
	sub	w8, w8, #48                     // =48
.Ltmp184:
	cmp	w8, #2                          // =2
	b.hs	.LBB7_7
.Ltmp185:
// %bb.5:
	//DEBUG_VALUE: mas_bkops_manual_gc_proc_write:count <- $x19
	//DEBUG_VALUE: mas_bkops_manual_gc_proc_write:ppos <- [DW_OP_LLVM_entry_value 1] $x3
	//DEBUG_VALUE: mas_bkops_manual_gc_proc_write:userbuf <- [DW_OP_LLVM_entry_value 1] $x1
	//DEBUG_VALUE: mas_bkops_manual_gc_proc_write:p_file <- [DW_OP_LLVM_entry_value 1] $x0
	.loc	7 764 17 is_stmt 1              // kernel/platform_source/basicplatform/block/mas_bkops_core.c:764:17
	adrp	x9, user_manual_gc
	.loc	7 0 0 is_stmt 0                 // kernel/platform_source/basicplatform/block/mas_bkops_core.c:0:0
	mov	x0, x19
	.loc	7 764 17                        // kernel/platform_source/basicplatform/block/mas_bkops_core.c:764:17
	strb	w8, [x9, :lo12:user_manual_gc]
.Ltmp186:
	//DEBUG_VALUE: mas_bkops_manual_gc_proc_write:buf <- undef
.LBB7_6:
	//DEBUG_VALUE: mas_bkops_manual_gc_proc_write:p_file <- [DW_OP_LLVM_entry_value 1] $x0
	.loc	7 767 1 is_stmt 1               // kernel/platform_source/basicplatform/block/mas_bkops_core.c:767:1
	ldr	x19, [sp, #16]                  // 8-byte Folded Reload
	ldp	x29, x30, [sp], #32             // 16-byte Folded Reload
	hint	#29
	ret
.Ltmp187:
.LBB7_7:
	//DEBUG_VALUE: mas_bkops_manual_gc_proc_write:count <- $x19
	//DEBUG_VALUE: mas_bkops_manual_gc_proc_write:ppos <- [DW_OP_LLVM_entry_value 1] $x3
	//DEBUG_VALUE: mas_bkops_manual_gc_proc_write:userbuf <- [DW_OP_LLVM_entry_value 1] $x1
	//DEBUG_VALUE: mas_bkops_manual_gc_proc_write:p_file <- [DW_OP_LLVM_entry_value 1] $x0
	.loc	7 760 3                         // kernel/platform_source/basicplatform/block/mas_bkops_core.c:760:3
	adrp	x0, .L.str.5
	adrp	x1, .L__func__.mas_bkops_manual_gc_proc_write
	add	x0, x0, :lo12:.L.str.5
	add	x1, x1, :lo12:.L__func__.mas_bkops_manual_gc_proc_write
	mov	w2, #760
	bl	printk
.Ltmp188:
	.loc	7 0 3 is_stmt 0                 // kernel/platform_source/basicplatform/block/mas_bkops_core.c:0:3
	mov	x0, #-22
	b	.LBB7_6
.Ltmp189:
.LBB7_8:
	//DEBUG_VALUE: mas_bkops_manual_gc_proc_write:count <- $x19
	//DEBUG_VALUE: __range_ok:ret <- $x10
	//DEBUG_VALUE: get_current:sp_el0 <- $x8
	//DEBUG_VALUE: mas_bkops_manual_gc_proc_write:ppos <- $x3
	//DEBUG_VALUE: __range_ok:addr <- $x1
	//DEBUG_VALUE: _copy_from_user:from <- $x1
	//DEBUG_VALUE: copy_from_user:from <- $x1
	//DEBUG_VALUE: mas_bkops_manual_gc_proc_write:userbuf <- $x1
	//DEBUG_VALUE: _copy_from_user:to <- [DW_OP_plus_uconst 28, DW_OP_stack_value] $fp
	//DEBUG_VALUE: copy_from_user:to <- [DW_OP_plus_uconst 28, DW_OP_stack_value] $fp
	//DEBUG_VALUE: mas_bkops_manual_gc_proc_write:buf <- [DW_OP_plus_uconst 28, DW_OP_deref] $fp
	//DEBUG_VALUE: __range_ok:size <- 1
	//DEBUG_VALUE: _copy_from_user:res <- 1
	//DEBUG_VALUE: _copy_from_user:n <- 1
	//DEBUG_VALUE: copy_from_user:n <- 1
	//DEBUG_VALUE: mas_bkops_manual_gc_proc_write:p_file <- [DW_OP_LLVM_entry_value 1] $x0
	mov	w2, #1
	b	.LBB7_10
.Ltmp190:
.LBB7_9:
	//DEBUG_VALUE: mas_bkops_manual_gc_proc_write:count <- $x19
	//DEBUG_VALUE: _copy_from_user:res <- $x0
	//DEBUG_VALUE: __acfu_ret <- $x0
	//DEBUG_VALUE: _copy_from_user:to <- [DW_OP_plus_uconst 28, DW_OP_stack_value] $fp
	//DEBUG_VALUE: copy_from_user:to <- [DW_OP_plus_uconst 28, DW_OP_stack_value] $fp
	//DEBUG_VALUE: mas_bkops_manual_gc_proc_write:buf <- [DW_OP_plus_uconst 28, DW_OP_deref] $fp
	//DEBUG_VALUE: mas_bkops_manual_gc_proc_write:ppos <- [DW_OP_LLVM_entry_value 1] $x3
	//DEBUG_VALUE: mas_bkops_manual_gc_proc_write:userbuf <- [DW_OP_LLVM_entry_value 1] $x1
	//DEBUG_VALUE: sign_extend64:index <- 55
	//DEBUG_VALUE: sign_extend64:shift <- 8
	//DEBUG_VALUE: _copy_from_user:n <- 1
	//DEBUG_VALUE: copy_from_user:n <- 1
	//DEBUG_VALUE: mas_bkops_manual_gc_proc_write:p_file <- [DW_OP_LLVM_entry_value 1] $x0
	mov	x2, x0
	//DEBUG_VALUE: _copy_from_user:res <- $x2
	//DEBUG_VALUE: __acfu_ret <- $x2
.Ltmp191:
.LBB7_10:
	//DEBUG_VALUE: mas_bkops_manual_gc_proc_write:count <- $x19
	//DEBUG_VALUE: _copy_from_user:to <- [DW_OP_plus_uconst 28, DW_OP_stack_value] $fp
	//DEBUG_VALUE: copy_from_user:to <- [DW_OP_plus_uconst 28, DW_OP_stack_value] $fp
	//DEBUG_VALUE: mas_bkops_manual_gc_proc_write:buf <- [DW_OP_plus_uconst 28, DW_OP_deref] $fp
	//DEBUG_VALUE: _copy_from_user:n <- 1
	//DEBUG_VALUE: copy_from_user:n <- 1
	//DEBUG_VALUE: mas_bkops_manual_gc_proc_write:p_file <- [DW_OP_LLVM_entry_value 1] $x0
	//DEBUG_VALUE: copy_from_user:n <- $x2
	add	x8, x29, #28                    // =28
.Ltmp192:
	.loc	187 162 13 is_stmt 1            // kernel/include/linux/uaccess.h:162:13
	sub	x8, x8, x2
	add	x0, x8, #1                      // =1
	.loc	187 162 3 is_stmt 0             // kernel/include/linux/uaccess.h:162:3
	mov	w1, wzr
	bl	memset
.Ltmp193:
	.loc	187 0 3                         // kernel/include/linux/uaccess.h:0:3
	mov	x0, #-14
.Ltmp194:
	//DEBUG_VALUE: copy_from_user:n <- undef
	b	.LBB7_6
.Ltmp195:
.Lfunc_end7:
	.size	mas_bkops_manual_gc_proc_write, .Lfunc_end7-mas_bkops_manual_gc_proc_write
	.cfi_endproc
                                        // -- End function
	.globl	mas_bkops_status_proc_show      // -- Begin function mas_bkops_status_proc_show
	.p2align	2
	.type	mas_bkops_status_proc_show,@function
mas_bkops_status_proc_show:             // @mas_bkops_status_proc_show
.Lfunc_begin8:
	.loc	7 788 0 is_stmt 1               // kernel/platform_source/basicplatform/block/mas_bkops_core.c:788:0
	.cfi_startproc
// %bb.0:
	//DEBUG_VALUE: mas_bkops_status_proc_show:m <- $x0
	//DEBUG_VALUE: mas_bkops_status_proc_show:v <- $x1
	hint	#25
	.cfi_negate_ra_state
	stp	x29, x30, [sp, #-48]!           // 16-byte Folded Spill
	str	x21, [sp, #16]                  // 8-byte Folded Spill
	stp	x20, x19, [sp, #32]             // 16-byte Folded Spill
	mov	x29, sp
	.cfi_def_cfa w29, 48
	.cfi_offset w19, -8
	.cfi_offset w20, -16
	.cfi_offset w21, -32
	.cfi_offset w30, -40
	.cfi_offset w29, -48
.Ltmp196:
	.loc	7 789 6 prologue_end            // kernel/platform_source/basicplatform/block/mas_bkops_core.c:789:6
	str	wzr, [x29, #28]
	.loc	7 792 27                        // kernel/platform_source/basicplatform/block/mas_bkops_core.c:792:27
	ldr	x20, [x0, #136]
.Ltmp197:
	//DEBUG_VALUE: mas_bkops_query:ret <- 0
	//DEBUG_VALUE: mas_bkops_query:bkops_status <- [DW_OP_plus_uconst 28, DW_OP_stack_value] $fp
	//DEBUG_VALUE: mas_bkops_query:bkops <- $x20
	//DEBUG_VALUE: mas_bkops_status_proc_show:status <- [DW_OP_plus_uconst 28, DW_OP_deref] $fp
	.loc	7 0 27 is_stmt 0                // kernel/platform_source/basicplatform/block/mas_bkops_core.c:0:27
	mov	x19, x0
.Ltmp198:
	//DEBUG_VALUE: mas_bkops_status_proc_show:m <- $x19
	//DEBUG_VALUE: mas_bkops_status_proc_show:status <- 0
	//DEBUG_VALUE: mas_bkops_status_proc_show:m <- $x19
	.loc	7 105 2 is_stmt 1               // kernel/platform_source/basicplatform/block/mas_bkops_core.c:105:2
	adrp	x0, bkops_lock
	add	x0, x0, :lo12:bkops_lock
	.loc	7 98 41                         // kernel/platform_source/basicplatform/block/mas_bkops_core.c:98:41
	ldr	x21, [x20, #8]
.Ltmp199:
	//DEBUG_VALUE: mas_bkops_query:bkops_ops_p <- $x21
	.loc	7 105 2                         // kernel/platform_source/basicplatform/block/mas_bkops_core.c:105:2
	bl	mutex_lock
.Ltmp200:
	//DEBUG_VALUE: mas_bkops_status_proc_show:v <- [DW_OP_LLVM_entry_value 1] $x1
	.loc	7 106 7                         // kernel/platform_source/basicplatform/block/mas_bkops_core.c:106:7
	adrp	x8, bkops_enabled
	ldrb	w8, [x8, :lo12:bkops_enabled]
.Ltmp201:
	.loc	7 106 6 is_stmt 0               // kernel/platform_source/basicplatform/block/mas_bkops_core.c:106:6
	cmp	w8, #1                          // =1
	b.ne	.LBB8_2
.Ltmp202:
// %bb.1:
	//DEBUG_VALUE: mas_bkops_query:bkops_ops_p <- $x21
	//DEBUG_VALUE: mas_bkops_query:bkops <- $x20
	//DEBUG_VALUE: mas_bkops_status_proc_show:m <- $x19
	//DEBUG_VALUE: mas_bkops_query:bkops_status <- [DW_OP_plus_uconst 28, DW_OP_stack_value] $fp
	//DEBUG_VALUE: mas_bkops_status_proc_show:v <- [DW_OP_LLVM_entry_value 1] $x1
	//DEBUG_VALUE: mas_bkops_status_proc_show:status <- 0
	//DEBUG_VALUE: mas_bkops_query:ret <- 0
	//DEBUG_LABEL: mas_bkops_query:out
	.loc	7 139 2 is_stmt 1               // kernel/platform_source/basicplatform/block/mas_bkops_core.c:139:2
	adrp	x0, bkops_lock
	add	x0, x0, :lo12:bkops_lock
	bl	mutex_unlock
.Ltmp203:
	.loc	7 0 2 is_stmt 0                 // kernel/platform_source/basicplatform/block/mas_bkops_core.c:0:2
	b	.LBB8_6
.Ltmp204:
.LBB8_2:
	//DEBUG_VALUE: mas_bkops_query:bkops_ops_p <- $x21
	//DEBUG_VALUE: mas_bkops_query:bkops <- $x20
	//DEBUG_VALUE: mas_bkops_status_proc_show:m <- $x19
	//DEBUG_VALUE: mas_bkops_query:bkops_status <- [DW_OP_plus_uconst 28, DW_OP_stack_value] $fp
	//DEBUG_VALUE: mas_bkops_status_proc_show:v <- [DW_OP_LLVM_entry_value 1] $x1
	//DEBUG_VALUE: mas_bkops_status_proc_show:status <- 0
	//DEBUG_VALUE: mas_bkops_query:ret <- 0
	.loc	7 118 21 is_stmt 1              // kernel/platform_source/basicplatform/block/mas_bkops_core.c:118:21
	ldr	x8, [x21, #8]
	.loc	7 119 10                        // kernel/platform_source/basicplatform/block/mas_bkops_core.c:119:10
	ldr	x0, [x20, #16]
	.loc	7 118 8                         // kernel/platform_source/basicplatform/block/mas_bkops_core.c:118:8
	add	x1, x29, #28                    // =28
	blr	x8
.Ltmp205:
	.loc	7 120 6                         // kernel/platform_source/basicplatform/block/mas_bkops_core.c:120:6
	adrp	x8, user_manual_gc
	ldrb	w9, [x8, :lo12:user_manual_gc]
.Ltmp206:
	.loc	7 118 8                         // kernel/platform_source/basicplatform/block/mas_bkops_core.c:118:8
	mov	w20, w0
.Ltmp207:
	//DEBUG_VALUE: mas_bkops_status_proc_show:ret <- $w20
	//DEBUG_VALUE: mas_bkops_query:ret <- $w20
	.loc	7 120 21                        // kernel/platform_source/basicplatform/block/mas_bkops_core.c:120:21
	cbz	w9, .LBB8_5
.Ltmp208:
// %bb.3:
	//DEBUG_VALUE: mas_bkops_query:bkops_ops_p <- $x21
	//DEBUG_VALUE: mas_bkops_status_proc_show:m <- $x19
	//DEBUG_VALUE: mas_bkops_query:ret <- $w20
	//DEBUG_VALUE: mas_bkops_status_proc_show:ret <- $w20
	//DEBUG_VALUE: mas_bkops_query:bkops_status <- [DW_OP_plus_uconst 28, DW_OP_stack_value] $fp
	//DEBUG_VALUE: mas_bkops_status_proc_show:v <- [DW_OP_LLVM_entry_value 1] $x1
	//DEBUG_VALUE: mas_bkops_status_proc_show:status <- 0
	.loc	7 0 21 is_stmt 0                // kernel/platform_source/basicplatform/block/mas_bkops_core.c:0:21
	ldr	w9, [x29, #28]
	.loc	7 120 21                        // kernel/platform_source/basicplatform/block/mas_bkops_core.c:120:21
	cbnz	w9, .LBB8_5
.Ltmp209:
// %bb.4:
	//DEBUG_VALUE: mas_bkops_query:bkops_ops_p <- $x21
	//DEBUG_VALUE: mas_bkops_status_proc_show:m <- $x19
	//DEBUG_VALUE: mas_bkops_query:ret <- $w20
	//DEBUG_VALUE: mas_bkops_status_proc_show:ret <- $w20
	//DEBUG_VALUE: mas_bkops_query:bkops_status <- [DW_OP_plus_uconst 28, DW_OP_stack_value] $fp
	//DEBUG_VALUE: mas_bkops_status_proc_show:v <- [DW_OP_LLVM_entry_value 1] $x1
	//DEBUG_VALUE: mas_bkops_status_proc_show:status <- 0
	.loc	7 121 18 is_stmt 1              // kernel/platform_source/basicplatform/block/mas_bkops_core.c:121:18
	strb	wzr, [x8, :lo12:user_manual_gc]
.Ltmp210:
.LBB8_5:
	//DEBUG_VALUE: mas_bkops_query:bkops_ops_p <- $x21
	//DEBUG_VALUE: mas_bkops_status_proc_show:m <- $x19
	//DEBUG_VALUE: mas_bkops_query:ret <- $w20
	//DEBUG_VALUE: mas_bkops_status_proc_show:ret <- $w20
	//DEBUG_VALUE: mas_bkops_query:bkops_status <- [DW_OP_plus_uconst 28, DW_OP_stack_value] $fp
	//DEBUG_VALUE: mas_bkops_status_proc_show:v <- [DW_OP_LLVM_entry_value 1] $x1
	//DEBUG_VALUE: mas_bkops_status_proc_show:status <- 0
	//DEBUG_VALUE: mas_bkops_query:ret <- $w20
	//DEBUG_LABEL: mas_bkops_query:out
	.loc	7 139 2                         // kernel/platform_source/basicplatform/block/mas_bkops_core.c:139:2
	adrp	x0, bkops_lock
	add	x0, x0, :lo12:bkops_lock
	bl	mutex_unlock
.Ltmp211:
	//DEBUG_VALUE: mas_bkops_status_proc_show:ret <- $w20
	.loc	7 793 6                         // kernel/platform_source/basicplatform/block/mas_bkops_core.c:793:6
	cbnz	w20, .LBB8_8
.Ltmp212:
.LBB8_6:
	//DEBUG_VALUE: mas_bkops_status_proc_show:m <- $x19
	//DEBUG_VALUE: mas_bkops_status_proc_show:v <- [DW_OP_LLVM_entry_value 1] $x1
	//DEBUG_VALUE: mas_bkops_status_proc_show:status <- 0
	.loc	7 798 24                        // kernel/platform_source/basicplatform/block/mas_bkops_core.c:798:24
	ldr	w2, [x29, #28]
.Ltmp213:
	//DEBUG_VALUE: mas_bkops_status_proc_show:status <- $w2
	.loc	7 798 2 is_stmt 0               // kernel/platform_source/basicplatform/block/mas_bkops_core.c:798:2
	adrp	x1, .L.str.7
	add	x1, x1, :lo12:.L.str.7
	mov	x0, x19
	bl	seq_printf
.Ltmp214:
	.loc	7 0 0                           // kernel/platform_source/basicplatform/block/mas_bkops_core.c:0:0
	mov	w20, wzr
.Ltmp215:
.LBB8_7:
	//DEBUG_VALUE: mas_bkops_status_proc_show:m <- $x19
	//DEBUG_VALUE: mas_bkops_status_proc_show:v <- [DW_OP_LLVM_entry_value 1] $x1
	.loc	7 801 1 is_stmt 1               // kernel/platform_source/basicplatform/block/mas_bkops_core.c:801:1
	mov	w0, w20
	ldp	x20, x19, [sp, #32]             // 16-byte Folded Reload
.Ltmp216:
	ldr	x21, [sp, #16]                  // 8-byte Folded Reload
	ldp	x29, x30, [sp], #48             // 16-byte Folded Reload
	hint	#29
	ret
.Ltmp217:
.LBB8_8:
	//DEBUG_VALUE: mas_bkops_status_proc_show:m <- $x19
	//DEBUG_VALUE: mas_bkops_status_proc_show:ret <- $w20
	//DEBUG_VALUE: mas_bkops_status_proc_show:v <- [DW_OP_LLVM_entry_value 1] $x1
	//DEBUG_VALUE: mas_bkops_status_proc_show:status <- 0
	.loc	7 794 3                         // kernel/platform_source/basicplatform/block/mas_bkops_core.c:794:3
	adrp	x0, .L.str.6
	adrp	x1, .L__func__.mas_bkops_status_proc_show
	add	x0, x0, :lo12:.L.str.6
	add	x1, x1, :lo12:.L__func__.mas_bkops_status_proc_show
	mov	w2, w20
	bl	printk
.Ltmp218:
	.loc	7 0 3 is_stmt 0                 // kernel/platform_source/basicplatform/block/mas_bkops_core.c:0:3
	b	.LBB8_7
.Ltmp219:
.Lfunc_end8:
	.size	mas_bkops_status_proc_show, .Lfunc_end8-mas_bkops_status_proc_show
	.cfi_endproc
                                        // -- End function
	.globl	mas_bkops_status_proc_open      // -- Begin function mas_bkops_status_proc_open
	.p2align	2
	.type	mas_bkops_status_proc_open,@function
mas_bkops_status_proc_open:             // @mas_bkops_status_proc_open
.Lfunc_begin9:
	.loc	7 805 0 is_stmt 1               // kernel/platform_source/basicplatform/block/mas_bkops_core.c:805:0
	.cfi_startproc
// %bb.0:
	//DEBUG_VALUE: mas_bkops_status_proc_open:p_inode <- $x0
	//DEBUG_VALUE: mas_bkops_status_proc_open:p_file <- $x1
	hint	#25
	.cfi_negate_ra_state
	stp	x29, x30, [sp, #-32]!           // 16-byte Folded Spill
	str	x19, [sp, #16]                  // 8-byte Folded Spill
	mov	x29, sp
	.cfi_def_cfa w29, 32
	.cfi_offset w19, -16
	.cfi_offset w30, -24
	.cfi_offset w29, -32
	mov	x19, x1
.Ltmp220:
	//DEBUG_VALUE: mas_bkops_status_proc_open:p_file <- $x19
	//DEBUG_VALUE: mas_bkops_status_proc_open:p_file <- $x19
	//DEBUG_VALUE: mas_bkops_status_proc_open:p_inode <- $x0
	//DEBUG_VALUE: mas_bkops_status_proc_open:p_inode <- $x0
	.loc	7 807 37 prologue_end           // kernel/platform_source/basicplatform/block/mas_bkops_core.c:807:37
	bl	PDE_DATA
.Ltmp221:
	//DEBUG_VALUE: mas_bkops_status_proc_open:p_inode <- [DW_OP_LLVM_entry_value 1] $x0
	.loc	7 806 9                         // kernel/platform_source/basicplatform/block/mas_bkops_core.c:806:9
	adrp	x1, __cfi_mas_bkops_status_proc_show
	.loc	7 807 37                        // kernel/platform_source/basicplatform/block/mas_bkops_core.c:807:37
	mov	x2, x0
	.loc	7 806 9                         // kernel/platform_source/basicplatform/block/mas_bkops_core.c:806:9
	add	x1, x1, :lo12:__cfi_mas_bkops_status_proc_show
	mov	x0, x19
.Ltmp222:
	//DEBUG_VALUE: mas_bkops_status_proc_open:p_file <- $x0
	bl	single_open
.Ltmp223:
	.loc	7 806 2 is_stmt 0               // kernel/platform_source/basicplatform/block/mas_bkops_core.c:806:2
	ldr	x19, [sp, #16]                  // 8-byte Folded Reload
	ldp	x29, x30, [sp], #32             // 16-byte Folded Reload
	hint	#29
	ret
.Ltmp224:
.Lfunc_end9:
	.size	mas_bkops_status_proc_open, .Lfunc_end9-mas_bkops_status_proc_open
	.cfi_endproc
                                        // -- End function
	.globl	mas_bkops_enable                // -- Begin function mas_bkops_enable
	.p2align	2
	.type	mas_bkops_enable,@function
mas_bkops_enable:                       // @mas_bkops_enable
.Lfunc_begin10:
	.loc	7 843 0 is_stmt 1               // kernel/platform_source/basicplatform/block/mas_bkops_core.c:843:0
	.cfi_startproc
// %bb.0:
	//DEBUG_VALUE: mas_bkops_enable:q <- $x0
	//DEBUG_VALUE: mas_bkops_enable:bkops <- $x1
	//DEBUG_VALUE: mas_bkops_enable:pdir <- $x2
	hint	#25
	.cfi_negate_ra_state
	stp	x29, x30, [sp, #-80]!           // 16-byte Folded Spill
	str	x25, [sp, #16]                  // 8-byte Folded Spill
	stp	x24, x23, [sp, #32]             // 16-byte Folded Spill
	stp	x22, x21, [sp, #48]             // 16-byte Folded Spill
	stp	x20, x19, [sp, #64]             // 16-byte Folded Spill
	mov	x29, sp
	.cfi_def_cfa w29, 80
	.cfi_offset w19, -8
	.cfi_offset w20, -16
	.cfi_offset w21, -24
	.cfi_offset w22, -32
	.cfi_offset w23, -40
	.cfi_offset w24, -48
	.cfi_offset w25, -64
	.cfi_offset w30, -72
	.cfi_offset w29, -80
	mov	x21, x0
.Ltmp225:
	//DEBUG_VALUE: mas_bkops_enable:q <- $x21
	mov	w0, #-22
.Ltmp226:
	//DEBUG_VALUE: mas_bkops_enable:blk_lld <- 0
	//DEBUG_VALUE: mas_bkops_enable:event_node <- 0
	//DEBUG_VALUE: mas_bkops_enable:pdir <- $x2
	//DEBUG_VALUE: mas_bkops_enable:bkops <- $x1
	//DEBUG_VALUE: mas_bkops_enable:q <- $x21
	.loc	7 847 9 prologue_end            // kernel/platform_source/basicplatform/block/mas_bkops_core.c:847:9
	cbz	x21, .LBB10_17
.Ltmp227:
// %bb.1:
	//DEBUG_VALUE: mas_bkops_enable:q <- $x21
	//DEBUG_VALUE: mas_bkops_enable:pdir <- $x2
	//DEBUG_VALUE: mas_bkops_enable:bkops <- $x1
	//DEBUG_VALUE: mas_bkops_enable:event_node <- 0
	//DEBUG_VALUE: mas_bkops_enable:blk_lld <- 0
	//DEBUG_VALUE: mas_bkops_enable:pdir <- $x2
	.loc	7 0 9 is_stmt 0                 // kernel/platform_source/basicplatform/block/mas_bkops_core.c:0:9
	mov	x19, x1
.Ltmp228:
	//DEBUG_VALUE: mas_bkops_enable:bkops <- $x19
	.loc	7 847 9                         // kernel/platform_source/basicplatform/block/mas_bkops_core.c:847:9
	cbz	x1, .LBB10_17
.Ltmp229:
// %bb.2:
	//DEBUG_VALUE: mas_bkops_enable:q <- $x21
	//DEBUG_VALUE: mas_bkops_enable:bkops <- $x19
	//DEBUG_VALUE: mas_bkops_enable:pdir <- $x2
	//DEBUG_VALUE: mas_bkops_enable:event_node <- 0
	//DEBUG_VALUE: mas_bkops_enable:blk_lld <- 0
	.loc	7 0 9                           // kernel/platform_source/basicplatform/block/mas_bkops_core.c:0:9
	mov	x22, x2
.Ltmp230:
	//DEBUG_VALUE: mas_bkops_enable:pdir <- $x22
	.loc	7 847 9                         // kernel/platform_source/basicplatform/block/mas_bkops_core.c:847:9
	cbz	x2, .LBB10_17
.Ltmp231:
// %bb.3:
	//DEBUG_VALUE: mas_bkops_enable:pdir <- $x22
	//DEBUG_VALUE: mas_bkops_enable:q <- $x21
	//DEBUG_VALUE: mas_bkops_enable:bkops <- $x19
	//DEBUG_VALUE: mas_bkops_enable:event_node <- 0
	//DEBUG_VALUE: mas_bkops_enable:blk_lld <- 0
	//DEBUG_VALUE: mas_bkops_enable:event_node <- undef
	.loc	7 851 12 is_stmt 1              // kernel/platform_source/basicplatform/block/mas_bkops_core.c:851:12
	mov	x0, x21
	bl	mas_blk_get_lld
.Ltmp232:
	//DEBUG_VALUE: mas_bkops_enable:blk_lld <- $x0
	.loc	7 852 6                         // kernel/platform_source/basicplatform/block/mas_bkops_core.c:852:6
	ldrb	w8, [x0, #24]
	tbz	w8, #3, .LBB10_23
.Ltmp233:
// %bb.4:
	//DEBUG_VALUE: mas_bkops_enable:pdir <- $x22
	//DEBUG_VALUE: mas_bkops_enable:q <- $x21
	//DEBUG_VALUE: mas_bkops_enable:bkops <- $x19
	//DEBUG_VALUE: mas_bkops_enable:blk_lld <- $x0
	//DEBUG_VALUE: mas_bkops_enable:blk_lld <- $x0
	//DEBUG_VALUE: mas_bkops_enable:event_node <- undef
	.loc	7 857 13                        // kernel/platform_source/basicplatform/block/mas_bkops_core.c:857:13
	ldr	w8, [x19]
	.loc	7 857 40 is_stmt 0              // kernel/platform_source/basicplatform/block/mas_bkops_core.c:857:40
	sub	w8, w8, #1                      // =1
	cmp	w8, #3                          // =3
	b.hs	.LBB10_18
.Ltmp234:
// %bb.5:
	//DEBUG_VALUE: mas_bkops_enable:pdir <- $x22
	//DEBUG_VALUE: mas_bkops_enable:q <- $x21
	//DEBUG_VALUE: mas_bkops_enable:bkops <- $x19
	//DEBUG_VALUE: mas_bkops_enable:blk_lld <- $x0
	//DEBUG_VALUE: mas_bkops_enable:blk_lld <- $x0
	//DEBUG_VALUE: mas_bkops_enable:event_node <- undef
	.loc	7 863 14 is_stmt 1              // kernel/platform_source/basicplatform/block/mas_bkops_core.c:863:14
	ldr	x8, [x19, #8]
.Ltmp235:
	.loc	7 863 6 is_stmt 0               // kernel/platform_source/basicplatform/block/mas_bkops_core.c:863:6
	cbz	x8, .LBB10_19
.Ltmp236:
// %bb.6:
	//DEBUG_VALUE: mas_bkops_enable:pdir <- $x22
	//DEBUG_VALUE: mas_bkops_enable:q <- $x21
	//DEBUG_VALUE: mas_bkops_enable:bkops <- $x19
	//DEBUG_VALUE: mas_bkops_enable:blk_lld <- $x0
	.loc	7 688 6 is_stmt 1               // kernel/platform_source/basicplatform/block/mas_bkops_core.c:688:6
	adrp	x25, mas_bkops_inited
	ldrb	w8, [x25, :lo12:mas_bkops_inited]
.Ltmp237:
	.loc	7 0 0 is_stmt 0                 // kernel/platform_source/basicplatform/block/mas_bkops_core.c:0:0
	mov	x20, x0
.Ltmp238:
	//DEBUG_VALUE: mas_bkops_enable:blk_lld <- $x20
	//DEBUG_VALUE: mas_bkops_enable:blk_lld <- $x20
	//DEBUG_VALUE: mas_bkops_enable:event_node <- undef
	adrp	x24, bkops_workqueue_g
.Ltmp239:
	.loc	7 688 6                         // kernel/platform_source/basicplatform/block/mas_bkops_core.c:688:6
	tbnz	w8, #0, .LBB10_9
.Ltmp240:
// %bb.7:
	//DEBUG_VALUE: mas_bkops_enable:pdir <- $x22
	//DEBUG_VALUE: mas_bkops_enable:q <- $x21
	//DEBUG_VALUE: mas_bkops_enable:blk_lld <- $x20
	//DEBUG_VALUE: mas_bkops_enable:bkops <- $x19
	.loc	7 691 22 is_stmt 1              // kernel/platform_source/basicplatform/block/mas_bkops_core.c:691:22
	adrp	x0, .L.str.15
	add	x0, x0, :lo12:.L.str.15
	mov	w1, #24
	mov	w2, wzr
	bl	alloc_workqueue
.Ltmp241:
	.loc	7 691 20 is_stmt 0              // kernel/platform_source/basicplatform/block/mas_bkops_core.c:691:20
	str	x0, [x24, :lo12:bkops_workqueue_g]
	.loc	7 693 6 is_stmt 1               // kernel/platform_source/basicplatform/block/mas_bkops_core.c:693:6
	cbz	x0, .LBB10_21
.Ltmp242:
// %bb.8:
	//DEBUG_VALUE: mas_bkops_enable:pdir <- $x22
	//DEBUG_VALUE: mas_bkops_enable:q <- $x21
	//DEBUG_VALUE: mas_bkops_enable:blk_lld <- $x20
	//DEBUG_VALUE: mas_bkops_enable:bkops <- $x19
	.loc	7 694 3                         // kernel/platform_source/basicplatform/block/mas_bkops_core.c:694:3
	adrp	x0, bkops_pm_notifier
	add	x0, x0, :lo12:bkops_pm_notifier
	bl	register_pm_notifier
.Ltmp243:
	.loc	7 695 3                         // kernel/platform_source/basicplatform/block/mas_bkops_core.c:695:3
	adrp	x0, bkops_reboot_notifier
	add	x0, x0, :lo12:bkops_reboot_notifier
	bl	register_reboot_notifier
.Ltmp244:
	.loc	7 0 3 is_stmt 0                 // kernel/platform_source/basicplatform/block/mas_bkops_core.c:0:3
	mov	w8, #1
	.loc	7 696 20 is_stmt 1              // kernel/platform_source/basicplatform/block/mas_bkops_core.c:696:20
	strb	w8, [x25, :lo12:mas_bkops_inited]
.Ltmp245:
.LBB10_9:
	//DEBUG_VALUE: mas_bkops_enable:pdir <- $x22
	//DEBUG_VALUE: mas_bkops_enable:q <- $x21
	//DEBUG_VALUE: mas_bkops_enable:blk_lld <- $x20
	//DEBUG_VALUE: mas_bkops_enable:bkops <- $x19
	.loc	7 874 6                         // kernel/platform_source/basicplatform/block/mas_bkops_core.c:874:6
	mov	x0, x19
	mov	x1, x22
.Ltmp246:
	.loc	7 0 0 is_stmt 0                 // kernel/platform_source/basicplatform/block/mas_bkops_core.c:0:0
	add	x23, x19, #144                  // =144
.Ltmp247:
	//DEBUG_VALUE: mas_bkops_enable:event_node <- $x23
	.loc	7 874 6                         // kernel/platform_source/basicplatform/block/mas_bkops_core.c:874:6
	bl	mas_bkops_add_debugfs
.Ltmp248:
	.loc	7 874 6                         // kernel/platform_source/basicplatform/block/mas_bkops_core.c:874:6
	cbnz	w0, .LBB10_20
.Ltmp249:
.LBB10_10:
	//DEBUG_VALUE: mas_bkops_enable:event_node <- $x23
	//DEBUG_VALUE: mas_bkops_enable:pdir <- $x22
	//DEBUG_VALUE: mas_bkops_enable:q <- $x21
	//DEBUG_VALUE: mas_bkops_enable:blk_lld <- $x20
	//DEBUG_VALUE: mas_bkops_enable:bkops <- $x19
	.loc	7 878 2 is_stmt 1               // kernel/platform_source/basicplatform/block/mas_bkops_core.c:878:2
	adrp	x8, .Lstr
	add	x8, x8, :lo12:.Lstr
	ldr	x8, [x8]
	.loc	7 881 32                        // kernel/platform_source/basicplatform/block/mas_bkops_core.c:881:32
	adrp	x10, __cfi_bkops_io_busyidle_notify_handler
	mov	w9, #115
	add	x10, x10, :lo12:__cfi_bkops_io_busyidle_notify_handler
.Ltmp250:
	.loc	7 883 6                         // kernel/platform_source/basicplatform/block/mas_bkops_core.c:883:6
	mov	x0, x20
	mov	x1, x23
.Ltmp251:
	.loc	7 877 11                        // kernel/platform_source/basicplatform/block/mas_bkops_core.c:877:11
	str	x21, [x19, #24]
	.loc	7 878 2                         // kernel/platform_source/basicplatform/block/mas_bkops_core.c:878:2
	stur	xzr, [x23, #23]
	stp	x9, xzr, [x23, #8]
	str	x8, [x23]
	.loc	7 880 50                        // kernel/platform_source/basicplatform/block/mas_bkops_core.c:880:50
	strb	wzr, [x19, #175]
	.loc	7 881 32                        // kernel/platform_source/basicplatform/block/mas_bkops_core.c:881:32
	stp	x10, x19, [x19, #176]
.Ltmp252:
	.loc	7 883 6                         // kernel/platform_source/basicplatform/block/mas_bkops_core.c:883:6
	bl	blk_lld_busyidle_event_subscribe
.Ltmp253:
	.loc	7 883 6 is_stmt 0               // kernel/platform_source/basicplatform/block/mas_bkops_core.c:883:6
	cbz	w0, .LBB10_14
.Ltmp254:
// %bb.11:
	//DEBUG_VALUE: mas_bkops_enable:event_node <- $x23
	//DEBUG_VALUE: mas_bkops_enable:pdir <- $x22
	//DEBUG_VALUE: mas_bkops_enable:q <- $x21
	//DEBUG_VALUE: mas_bkops_enable:blk_lld <- $x20
	//DEBUG_VALUE: mas_bkops_enable:bkops <- $x19
	//DEBUG_LABEL: mas_bkops_enable:bkops_exit
	.loc	7 705 7 is_stmt 1               // kernel/platform_source/basicplatform/block/mas_bkops_core.c:705:7
	ldr	x8, [x24, :lo12:bkops_workqueue_g]
.Ltmp255:
	.loc	7 705 6 is_stmt 0               // kernel/platform_source/basicplatform/block/mas_bkops_core.c:705:6
	cbz	x8, .LBB10_13
.Ltmp256:
// %bb.12:
	//DEBUG_VALUE: mas_bkops_enable:event_node <- $x23
	//DEBUG_VALUE: mas_bkops_enable:pdir <- $x22
	//DEBUG_VALUE: mas_bkops_enable:q <- $x21
	//DEBUG_VALUE: mas_bkops_enable:blk_lld <- $x20
	//DEBUG_VALUE: mas_bkops_enable:bkops <- $x19
	.loc	7 709 2 is_stmt 1               // kernel/platform_source/basicplatform/block/mas_bkops_core.c:709:2
	adrp	x0, bkops_reboot_notifier
	add	x0, x0, :lo12:bkops_reboot_notifier
	.loc	7 708 19                        // kernel/platform_source/basicplatform/block/mas_bkops_core.c:708:19
	strb	wzr, [x25, :lo12:mas_bkops_inited]
	.loc	7 709 2                         // kernel/platform_source/basicplatform/block/mas_bkops_core.c:709:2
	bl	unregister_reboot_notifier
.Ltmp257:
	.loc	7 710 2                         // kernel/platform_source/basicplatform/block/mas_bkops_core.c:710:2
	adrp	x0, bkops_pm_notifier
	add	x0, x0, :lo12:bkops_pm_notifier
	bl	unregister_pm_notifier
.Ltmp258:
	.loc	7 711 20                        // kernel/platform_source/basicplatform/block/mas_bkops_core.c:711:20
	ldr	x0, [x24, :lo12:bkops_workqueue_g]
	.loc	7 711 2 is_stmt 0               // kernel/platform_source/basicplatform/block/mas_bkops_core.c:711:2
	bl	destroy_workqueue
.Ltmp259:
	.loc	7 712 20 is_stmt 1              // kernel/platform_source/basicplatform/block/mas_bkops_core.c:712:20
	str	xzr, [x24, :lo12:bkops_workqueue_g]
.Ltmp260:
.LBB10_13:
	//DEBUG_VALUE: mas_bkops_enable:pdir <- $x22
	//DEBUG_VALUE: mas_bkops_enable:q <- $x21
	//DEBUG_VALUE: mas_bkops_enable:bkops <- $x19
	.loc	7 0 20 is_stmt 0                // kernel/platform_source/basicplatform/block/mas_bkops_core.c:0:20
	mov	w0, #-22
	b	.LBB10_17
.Ltmp261:
.LBB10_14:
	//DEBUG_VALUE: mas_bkops_enable:event_node <- $x23
	//DEBUG_VALUE: mas_bkops_enable:pdir <- $x22
	//DEBUG_VALUE: mas_bkops_enable:q <- $x21
	//DEBUG_VALUE: mas_bkops_enable:blk_lld <- $x20
	//DEBUG_VALUE: mas_bkops_enable:bkops <- $x19
	//DEBUG_VALUE: mas_bkops_manual_gc_proc_init:bkops <- $x19
	//DEBUG_VALUE: mas_bkops_manual_gc_proc_init:dir <- 0
	.loc	7 830 8 is_stmt 1               // kernel/platform_source/basicplatform/block/mas_bkops_core.c:830:8
	adrp	x0, .L.str.16
	add	x0, x0, :lo12:.L.str.16
	mov	x1, xzr
	bl	proc_mkdir
.Ltmp262:
	//DEBUG_VALUE: mas_bkops_manual_gc_proc_init:dir <- $x0
	.loc	7 831 6                         // kernel/platform_source/basicplatform/block/mas_bkops_core.c:831:6
	cbz	x0, .LBB10_22
.Ltmp263:
// %bb.15:
	//DEBUG_VALUE: mas_bkops_enable:event_node <- $x23
	//DEBUG_VALUE: mas_bkops_enable:pdir <- $x22
	//DEBUG_VALUE: mas_bkops_enable:q <- $x21
	//DEBUG_VALUE: mas_bkops_enable:blk_lld <- $x20
	//DEBUG_VALUE: mas_bkops_manual_gc_proc_init:bkops <- $x19
	//DEBUG_VALUE: mas_bkops_enable:bkops <- $x19
	//DEBUG_VALUE: mas_bkops_manual_gc_proc_init:dir <- $x0
	.loc	7 0 0 is_stmt 0                 // kernel/platform_source/basicplatform/block/mas_bkops_core.c:0:0
	mov	x20, x0
.Ltmp264:
	//DEBUG_VALUE: mas_bkops_manual_gc_proc_init:dir <- $x20
	//DEBUG_VALUE: mas_bkops_manual_gc_proc_init:dir <- $x20
	.loc	7 836 2 is_stmt 1               // kernel/platform_source/basicplatform/block/mas_bkops_core.c:836:2
	adrp	x0, .L.str.18
	adrp	x3, mas_bkops_manual_gc_fops
	add	x0, x0, :lo12:.L.str.18
	add	x3, x3, :lo12:mas_bkops_manual_gc_fops
	mov	w1, #432
	mov	x2, x20
	bl	proc_create
.Ltmp265:
	.loc	7 837 2                         // kernel/platform_source/basicplatform/block/mas_bkops_core.c:837:2
	adrp	x0, .L.str.19
	adrp	x3, mas_bkops_status_fops
	add	x0, x0, :lo12:.L.str.19
	add	x3, x3, :lo12:mas_bkops_status_fops
	mov	w1, #288
	mov	x2, x20
	mov	x4, x19
	bl	proc_create_data
.Ltmp266:
.LBB10_16:
	//DEBUG_VALUE: mas_bkops_enable:event_node <- $x23
	//DEBUG_VALUE: mas_bkops_enable:pdir <- $x22
	//DEBUG_VALUE: mas_bkops_enable:q <- $x21
	//DEBUG_VALUE: mas_bkops_manual_gc_proc_init:bkops <- $x19
	//DEBUG_VALUE: mas_bkops_enable:bkops <- $x19
	.loc	7 0 0 is_stmt 0                 // kernel/platform_source/basicplatform/block/mas_bkops_core.c:0:0
	mov	w0, wzr
.Ltmp267:
.LBB10_17:
	//DEBUG_VALUE: mas_bkops_enable:q <- $x21
	.loc	7 893 1 is_stmt 1               // kernel/platform_source/basicplatform/block/mas_bkops_core.c:893:1
	ldp	x20, x19, [sp, #64]             // 16-byte Folded Reload
	ldp	x22, x21, [sp, #48]             // 16-byte Folded Reload
.Ltmp268:
	ldp	x24, x23, [sp, #32]             // 16-byte Folded Reload
	ldr	x25, [sp, #16]                  // 8-byte Folded Reload
	ldp	x29, x30, [sp], #80             // 16-byte Folded Reload
	hint	#29
	ret
.LBB10_18:
.Ltmp269:
	//DEBUG_VALUE: mas_bkops_enable:pdir <- $x22
	//DEBUG_VALUE: mas_bkops_enable:q <- $x21
	//DEBUG_VALUE: mas_bkops_enable:bkops <- $x19
	//DEBUG_VALUE: mas_bkops_enable:blk_lld <- $x0
	.loc	7 859 3                         // kernel/platform_source/basicplatform/block/mas_bkops_core.c:859:3
	adrp	x0, .L.str.9
.Ltmp270:
	add	x0, x0, :lo12:.L.str.9
.Ltmp271:
	.loc	7 0 0 is_stmt 0                 // kernel/platform_source/basicplatform/block/mas_bkops_core.c:0:0
	bl	printk
.Ltmp272:
	b	.LBB10_13
.Ltmp273:
.LBB10_19:
	//DEBUG_VALUE: mas_bkops_enable:pdir <- $x22
	//DEBUG_VALUE: mas_bkops_enable:q <- $x21
	//DEBUG_VALUE: mas_bkops_enable:bkops <- $x19
	//DEBUG_VALUE: mas_bkops_enable:blk_lld <- $x0
	.loc	7 864 3 is_stmt 1               // kernel/platform_source/basicplatform/block/mas_bkops_core.c:864:3
	adrp	x0, .L.str.10
.Ltmp274:
	add	x0, x0, :lo12:.L.str.10
.Ltmp275:
	.loc	7 0 0 is_stmt 0                 // kernel/platform_source/basicplatform/block/mas_bkops_core.c:0:0
	bl	printk
.Ltmp276:
	b	.LBB10_13
.Ltmp277:
.LBB10_20:
	//DEBUG_VALUE: mas_bkops_enable:event_node <- $x23
	//DEBUG_VALUE: mas_bkops_enable:pdir <- $x22
	//DEBUG_VALUE: mas_bkops_enable:q <- $x21
	//DEBUG_VALUE: mas_bkops_enable:blk_lld <- $x20
	//DEBUG_VALUE: mas_bkops_enable:bkops <- $x19
	.loc	7 875 3 is_stmt 1               // kernel/platform_source/basicplatform/block/mas_bkops_core.c:875:3
	adrp	x0, .L.str.12
	add	x0, x0, :lo12:.L.str.12
	bl	printk
.Ltmp278:
	.loc	7 0 3 is_stmt 0                 // kernel/platform_source/basicplatform/block/mas_bkops_core.c:0:3
	b	.LBB10_10
.Ltmp279:
.LBB10_21:
	//DEBUG_VALUE: mas_bkops_enable:pdir <- $x22
	//DEBUG_VALUE: mas_bkops_enable:q <- $x21
	//DEBUG_VALUE: mas_bkops_enable:blk_lld <- $x20
	//DEBUG_VALUE: mas_bkops_enable:bkops <- $x19
	.loc	7 869 3 is_stmt 1               // kernel/platform_source/basicplatform/block/mas_bkops_core.c:869:3
	adrp	x0, .L.str.11
	adrp	x1, .L__func__.mas_bkops_enable
	add	x0, x0, :lo12:.L.str.11
	add	x1, x1, :lo12:.L__func__.mas_bkops_enable
	mov	w2, #870
	bl	printk
.Ltmp280:
	.loc	7 0 3 is_stmt 0                 // kernel/platform_source/basicplatform/block/mas_bkops_core.c:0:3
	b	.LBB10_13
.Ltmp281:
.LBB10_22:
	//DEBUG_VALUE: mas_bkops_enable:event_node <- $x23
	//DEBUG_VALUE: mas_bkops_enable:pdir <- $x22
	//DEBUG_VALUE: mas_bkops_enable:q <- $x21
	//DEBUG_VALUE: mas_bkops_enable:blk_lld <- $x20
	//DEBUG_VALUE: mas_bkops_manual_gc_proc_init:bkops <- $x19
	//DEBUG_VALUE: mas_bkops_enable:bkops <- $x19
	//DEBUG_VALUE: mas_bkops_manual_gc_proc_init:dir <- $x0
	.loc	7 832 3 is_stmt 1               // kernel/platform_source/basicplatform/block/mas_bkops_core.c:832:3
	adrp	x0, .L.str.17
.Ltmp282:
	adrp	x1, .L__func__.mas_bkops_manual_gc_proc_init
	add	x0, x0, :lo12:.L.str.17
	add	x1, x1, :lo12:.L__func__.mas_bkops_manual_gc_proc_init
	mov	w2, #832
	bl	printk
.Ltmp283:
	.loc	7 0 3 is_stmt 0                 // kernel/platform_source/basicplatform/block/mas_bkops_core.c:0:3
	b	.LBB10_16
.Ltmp284:
.LBB10_23:
	//DEBUG_VALUE: mas_bkops_enable:pdir <- $x22
	//DEBUG_VALUE: mas_bkops_enable:q <- $x21
	//DEBUG_VALUE: mas_bkops_enable:bkops <- $x19
	//DEBUG_VALUE: mas_bkops_enable:blk_lld <- $x0
	.loc	7 853 3 is_stmt 1               // kernel/platform_source/basicplatform/block/mas_bkops_core.c:853:3
	adrp	x0, .L.str.8
.Ltmp285:
	add	x0, x0, :lo12:.L.str.8
.Ltmp286:
	.loc	7 0 0 is_stmt 0                 // kernel/platform_source/basicplatform/block/mas_bkops_core.c:0:0
	bl	printk
.Ltmp287:
	b	.LBB10_13
.Ltmp288:
.Lfunc_end10:
	.size	mas_bkops_enable, .Lfunc_end10-mas_bkops_enable
	.cfi_endproc
	.file	189 "/mnt/disk/jenkins/ci/workspace/chipset_pipeline_release/opensource/component_code/vendor/huawei/extra/build/build_script/kirin_kernel_release" "kernel/include/linux/suspend.h"
	.file	190 "/mnt/disk/jenkins/ci/workspace/chipset_pipeline_release/opensource/component_code/vendor/huawei/extra/build/build_script/kirin_kernel_release" "kernel/include/linux/reboot.h"
                                        // -- End function
	.type	.L.str,@object                  // @.str
	.section	.rodata.str1.1,"aMS",@progbits,1
.L.str:
	.asciz	"\0013[BKOPS]mas_bkops_query failed!\n"
	.size	.L.str, 34

	.type	.L.str.1,@object                // @.str.1
.L.str.1:
	.asciz	"\0013[BKOPS]mas_bkops_start failed!\n"
	.size	.L.str.1, 34

	.type	bkops_workqueue_g,@object       // @bkops_workqueue_g
	.local	bkops_workqueue_g
	.comm	bkops_workqueue_g,8,8
	.type	bkops_io_busyidle_notify_handler._rs,@object // @bkops_io_busyidle_notify_handler._rs
	.data
	.p2align	3
bkops_io_busyidle_notify_handler._rs:
	.zero	4
	.word	3735899821                      // 0xdead4ead
	.word	4294967295                      // 0xffffffff
	.zero	4
	.xword	-1
	.word	1250                            // 0x4e2
	.word	10                              // 0xa
	.word	0                               // 0x0
	.word	0                               // 0x0
	.xword	0                               // 0x0
	.xword	0                               // 0x0
	.size	bkops_io_busyidle_notify_handler._rs, 56

	.type	.L__func__.bkops_io_busyidle_notify_handler,@object // @__func__.bkops_io_busyidle_notify_handler
	.section	.rodata.str1.1,"aMS",@progbits,1
.L__func__.bkops_io_busyidle_notify_handler:
	.asciz	"bkops_io_busyidle_notify_handler"
	.size	.L__func__.bkops_io_busyidle_notify_handler, 33

	.type	.L.str.2,@object                // @.str.2
.L.str.2:
	.asciz	"\0013[BKOPS]%s unknown state: %d\n"
	.size	.L.str.2, 31

	.type	.L.str.3,@object                // @.str.3
.L.str.3:
	.asciz	"\0013[BKOPS]Failed to alloc bkops_func\n"
	.size	.L.str.3, 37

	.type	.L.str.4,@object                // @.str.4
.L.str.4:
	.asciz	"%d\n"
	.size	.L.str.4, 4

	.type	user_manual_gc,@object          // @user_manual_gc
	.local	user_manual_gc
	.comm	user_manual_gc,1,4
	.type	.L.str.5,@object                // @.str.5
.L.str.5:
	.asciz	"\0013[BKOPS]%s %d: input error.\n"
	.size	.L.str.5, 30

	.type	.L__func__.mas_bkops_manual_gc_proc_write,@object // @__func__.mas_bkops_manual_gc_proc_write
.L__func__.mas_bkops_manual_gc_proc_write:
	.asciz	"mas_bkops_manual_gc_proc_write"
	.size	.L__func__.mas_bkops_manual_gc_proc_write, 31

	.type	.L.str.6,@object                // @.str.6
.L.str.6:
	.asciz	"\0013[BKOPS]%s: mas_bkops_query failed, ret = %d!\n"
	.size	.L.str.6, 48

	.type	.L__func__.mas_bkops_status_proc_show,@object // @__func__.mas_bkops_status_proc_show
.L__func__.mas_bkops_status_proc_show:
	.asciz	"mas_bkops_status_proc_show"
	.size	.L__func__.mas_bkops_status_proc_show, 27

	.type	.L.str.7,@object                // @.str.7
.L.str.7:
	.asciz	"%u\n"
	.size	.L.str.7, 4

	.type	.L.str.8,@object                // @.str.8
.L.str.8:
	.asciz	"\0013[BKOPS]Busy Idle was not enabled!\n"
	.size	.L.str.8, 37

	.type	.L.str.9,@object                // @.str.9
.L.str.9:
	.asciz	"\0013[BKOPS]bkops dev type not specified!\n"
	.size	.L.str.9, 40

	.type	.L.str.10,@object               // @.str.10
.L.str.10:
	.asciz	"\0013[BKOPS]bkops_ops is NULL!\n"
	.size	.L.str.10, 29

	.type	.L.str.11,@object               // @.str.11
.L.str.11:
	.asciz	"\0013[BKOPS]%s %d mas_bkops_init failed!\n"
	.size	.L.str.11, 39

	.type	.L__func__.mas_bkops_enable,@object // @__func__.mas_bkops_enable
.L__func__.mas_bkops_enable:
	.asciz	"mas_bkops_enable"
	.size	.L__func__.mas_bkops_enable, 17

	.type	.L.str.12,@object               // @.str.12
.L.str.12:
	.asciz	"\0013[BKOPS]Failed to create mmc bkops debugfs!\n"
	.size	.L.str.12, 46

	.type	bkops_lock,@object              // @bkops_lock
	.data
	.p2align	3
bkops_lock:
	.zero	8
	.zero	4
	.word	3735899821                      // 0xdead4ead
	.word	4294967295                      // 0xffffffff
	.zero	4
	.xword	-1
	.zero	4
	.zero	4
	.xword	bkops_lock+40
	.xword	bkops_lock+40
	.size	bkops_lock, 56

	.type	bkops_enabled,@object           // @bkops_enabled
	.local	bkops_enabled
	.comm	bkops_enabled,1,1
	.type	mas_bkops_inited,@object        // @mas_bkops_inited
	.local	mas_bkops_inited
	.comm	mas_bkops_inited,1,4
	.type	.L.str.15,@object               // @.str.15
	.section	.rodata.str1.1,"aMS",@progbits,1
.L.str.15:
	.asciz	"bkops_workqueue"
	.size	.L.str.15, 16

	.type	bkops_pm_notifier,@object       // @bkops_pm_notifier
	.data
	.p2align	3
bkops_pm_notifier:
	.xword	__cfi_bkops_pm_callback
	.xword	0
	.word	0                               // 0x0
	.zero	4
	.size	bkops_pm_notifier, 24

	.type	bkops_reboot_notifier,@object   // @bkops_reboot_notifier
	.p2align	3
bkops_reboot_notifier:
	.xword	__cfi_bkops_notify_reboot
	.xword	0
	.word	2147483647                      // 0x7fffffff
	.zero	4
	.size	bkops_reboot_notifier, 24

	.type	.L.str.16,@object               // @.str.16
	.section	.rodata.str1.1,"aMS",@progbits,1
.L.str.16:
	.asciz	"block"
	.size	.L.str.16, 6

	.type	.L.str.17,@object               // @.str.17
.L.str.17:
	.asciz	"\0013[BKOPS]%s %d: proc mk error.\n"
	.size	.L.str.17, 32

	.type	.L__func__.mas_bkops_manual_gc_proc_init,@object // @__func__.mas_bkops_manual_gc_proc_init
.L__func__.mas_bkops_manual_gc_proc_init:
	.asciz	"mas_bkops_manual_gc_proc_init"
	.size	.L__func__.mas_bkops_manual_gc_proc_init, 30

	.type	.L.str.18,@object               // @.str.18
.L.str.18:
	.asciz	"manual_gc"
	.size	.L.str.18, 10

	.type	mas_bkops_manual_gc_fops,@object // @mas_bkops_manual_gc_fops
	.section	.rodata,"a",@progbits
	.p2align	3
mas_bkops_manual_gc_fops:
	.word	0                               // 0x0
	.zero	4
	.xword	__cfi_mas_bkops_manual_gc_proc_open
	.xword	seq_read
	.xword	0
	.xword	__cfi_mas_bkops_manual_gc_proc_write
	.xword	seq_lseek
	.xword	single_release
	.xword	0
	.xword	0
	.xword	0
	.xword	0
	.xword	0
	.size	mas_bkops_manual_gc_fops, 96

	.type	.L.str.19,@object               // @.str.19
	.section	.rodata.str1.1,"aMS",@progbits,1
.L.str.19:
	.asciz	"status"
	.size	.L.str.19, 7

	.type	mas_bkops_status_fops,@object   // @mas_bkops_status_fops
	.section	.rodata,"a",@progbits
	.p2align	3
mas_bkops_status_fops:
	.word	0                               // 0x0
	.zero	4
	.xword	__cfi_mas_bkops_status_proc_open
	.xword	seq_read
	.xword	0
	.xword	0
	.xword	seq_lseek
	.xword	single_release
	.xword	0
	.xword	0
	.xword	0
	.xword	0
	.xword	0
	.size	mas_bkops_status_fops, 96

	.type	.Lstr,@object                   // @str
.Lstr:
	.asciz	"mas_bkops\000\000\000\000\000\000\000\000\000\000\000\000\000\000\000\000\000\000\000\000\000\000\000"
	.size	.Lstr, 33
