	.text
	.file	"mas_blk_latency.c"
	.file	1 "/mnt/disk/jenkins/ci/workspace/chipset_pipeline_release/opensource/component_code/vendor/huawei/extra/build/build_script/kirin_kernel_release" "kernel/include/platform_include/basicplatform/linux/mas/mas_blk.h"
	.file	2 "/mnt/disk/jenkins/ci/workspace/chipset_pipeline_release/opensource/component_code/vendor/huawei/extra/build/build_script/kirin_kernel_release" "kernel/include/linux/blk_types.h"
	.file	3 "/mnt/disk/jenkins/ci/workspace/chipset_pipeline_release/opensource/component_code/vendor/huawei/extra/build/build_script/kirin_kernel_release" "kernel/include/linux/genhd.h"
	.file	4 "/mnt/disk/jenkins/ci/workspace/chipset_pipeline_release/opensource/component_code/vendor/huawei/extra/build/build_script/kirin_kernel_release" "kernel/include/linux/types.h"
	.file	5 "/mnt/disk/jenkins/ci/workspace/chipset_pipeline_release/opensource/component_code/vendor/huawei/extra/build/build_script/kirin_kernel_release" "kernel/include/uapi/asm-generic/int-ll64.h"
	.file	6 "/mnt/disk/jenkins/ci/workspace/chipset_pipeline_release/opensource/component_code/vendor/huawei/extra/build/build_script/kirin_kernel_release" "kernel/include/asm-generic/int-ll64.h"
	.file	7 "/mnt/disk/jenkins/ci/workspace/chipset_pipeline_release/opensource/component_code/vendor/huawei/extra/build/build_script/kirin_kernel_release" "kernel/include/linux/part_stat.h"
	.file	8 "/mnt/disk/jenkins/ci/workspace/chipset_pipeline_release/opensource/component_code/vendor/huawei/extra/build/build_script/kirin_kernel_release" "kernel/include/asm-generic/atomic-long.h"
	.file	9 "/mnt/disk/jenkins/ci/workspace/chipset_pipeline_release/opensource/component_code/vendor/huawei/extra/build/build_script/kirin_kernel_release" "kernel/include/asm-generic/local.h"
	.file	10 "/mnt/disk/jenkins/ci/workspace/chipset_pipeline_release/opensource/component_code/vendor/huawei/extra/build/build_script/kirin_kernel_release" "kernel/include/linux/percpu-refcount.h"
	.file	11 "/mnt/disk/jenkins/ci/workspace/chipset_pipeline_release/opensource/component_code/vendor/huawei/extra/build/build_script/kirin_kernel_release" "kernel/include/linux/kobject.h"
	.file	12 "/mnt/disk/jenkins/ci/workspace/chipset_pipeline_release/opensource/component_code/vendor/huawei/extra/build/build_script/kirin_kernel_release" "kernel/include/asm-generic/qspinlock_types.h"
	.file	13 "/mnt/disk/jenkins/ci/workspace/chipset_pipeline_release/opensource/component_code/vendor/huawei/extra/build/build_script/kirin_kernel_release" "kernel/include/linux/spinlock_types.h"
	.file	14 "/mnt/disk/jenkins/ci/workspace/chipset_pipeline_release/opensource/component_code/vendor/huawei/extra/build/build_script/kirin_kernel_release" "kernel/include/uapi/asm-generic/posix_types.h"
	.file	15 "/mnt/disk/jenkins/ci/workspace/chipset_pipeline_release/opensource/component_code/vendor/huawei/extra/build/build_script/kirin_kernel_release" "kernel/include/linux/sysfs.h"
	.file	16 "/mnt/disk/jenkins/ci/workspace/chipset_pipeline_release/opensource/component_code/vendor/huawei/extra/build/build_script/kirin_kernel_release" "kernel/include/linux/llist.h"
	.file	17 "/mnt/disk/jenkins/ci/workspace/chipset_pipeline_release/opensource/component_code/vendor/huawei/extra/build/build_script/kirin_kernel_release" "kernel/include/linux/fs.h"
	.file	18 "/mnt/disk/jenkins/ci/workspace/chipset_pipeline_release/opensource/component_code/vendor/huawei/extra/build/build_script/kirin_kernel_release" "kernel/include/linux/path.h"
	.file	19 "/mnt/disk/jenkins/ci/workspace/chipset_pipeline_release/opensource/component_code/vendor/huawei/extra/build/build_script/kirin_kernel_release" "kernel/include/linux/dcache.h"
	.file	20 "/mnt/disk/jenkins/ci/workspace/chipset_pipeline_release/opensource/component_code/vendor/huawei/extra/build/build_script/kirin_kernel_release" "kernel/include/linux/seqlock.h"
	.file	21 "/mnt/disk/jenkins/ci/workspace/chipset_pipeline_release/opensource/component_code/vendor/huawei/extra/build/build_script/kirin_kernel_release" "kernel/include/linux/list_bl.h"
	.file	22 "/mnt/disk/jenkins/ci/workspace/chipset_pipeline_release/opensource/component_code/vendor/huawei/extra/build/build_script/kirin_kernel_release" "kernel/include/linux/uidgid.h"
	.file	23 "/mnt/disk/jenkins/ci/workspace/chipset_pipeline_release/opensource/component_code/vendor/huawei/extra/build/build_script/kirin_kernel_release" "kernel/include/linux/delayed_call.h"
	.file	24 "/mnt/disk/jenkins/ci/workspace/chipset_pipeline_release/opensource/component_code/vendor/huawei/extra/build/build_script/kirin_kernel_release" "kernel/include/linux/time64.h"
	.file	25 "/mnt/disk/jenkins/ci/workspace/chipset_pipeline_release/opensource/component_code/vendor/huawei/extra/build/build_script/kirin_kernel_release" "kernel/include/linux/stat.h"
	.file	26 "/mnt/disk/jenkins/ci/workspace/chipset_pipeline_release/opensource/component_code/vendor/huawei/extra/build/build_script/kirin_kernel_release" "kernel/include/linux/module.h"
	.file	27 "/mnt/disk/jenkins/ci/workspace/chipset_pipeline_release/opensource/component_code/vendor/huawei/extra/build/build_script/kirin_kernel_release" "kernel/include/linux/completion.h"
	.file	28 "/mnt/disk/jenkins/ci/workspace/chipset_pipeline_release/opensource/component_code/vendor/huawei/extra/build/build_script/kirin_kernel_release" "kernel/include/linux/swait.h"
	.file	29 "/mnt/disk/jenkins/ci/workspace/chipset_pipeline_release/opensource/component_code/vendor/huawei/extra/build/build_script/kirin_kernel_release" "kernel/include/linux/export.h"
	.file	30 "/mnt/disk/jenkins/ci/workspace/chipset_pipeline_release/opensource/component_code/vendor/huawei/extra/build/build_script/kirin_kernel_release" "kernel/include/linux/mutex.h"
	.file	31 "/mnt/disk/jenkins/ci/workspace/chipset_pipeline_release/opensource/component_code/vendor/huawei/extra/build/build_script/kirin_kernel_release" "kernel/include/linux/osq_lock.h"
	.file	32 "/mnt/disk/jenkins/ci/workspace/chipset_pipeline_release/opensource/component_code/vendor/huawei/extra/build/build_script/kirin_kernel_release" "kernel/include/linux/moduleparam.h"
	.file	33 "/mnt/disk/jenkins/ci/workspace/chipset_pipeline_release/opensource/component_code/vendor/huawei/extra/build/build_script/kirin_kernel_release" "kernel/arch/arm64/include/asm/extable.h"
	.file	34 "/mnt/disk/jenkins/ci/workspace/chipset_pipeline_release/opensource/component_code/vendor/huawei/extra/build/build_script/kirin_kernel_release" "kernel/include/linux/rbtree.h"
	.file	35 "/mnt/disk/jenkins/ci/workspace/chipset_pipeline_release/opensource/component_code/vendor/huawei/extra/build/build_script/kirin_kernel_release" "kernel/include/linux/rbtree_latch.h"
	.file	36 "/mnt/disk/jenkins/ci/workspace/chipset_pipeline_release/opensource/component_code/vendor/huawei/extra/build/build_script/kirin_kernel_release" "kernel/arch/arm64/include/asm/module.h"
	.file	37 "/mnt/disk/jenkins/ci/workspace/chipset_pipeline_release/opensource/component_code/vendor/huawei/extra/build/build_script/kirin_kernel_release" "kernel/include/uapi/linux/types.h"
	.file	38 "/mnt/disk/jenkins/ci/workspace/chipset_pipeline_release/opensource/component_code/vendor/huawei/extra/build/build_script/kirin_kernel_release" "kernel/include/uapi/linux/elf.h"
	.file	39 "/mnt/disk/jenkins/ci/workspace/chipset_pipeline_release/opensource/component_code/vendor/huawei/extra/build/build_script/kirin_kernel_release" "kernel/include/asm-generic/bug.h"
	.file	40 "/mnt/disk/jenkins/ci/workspace/chipset_pipeline_release/opensource/component_code/vendor/huawei/extra/build/build_script/kirin_kernel_release" "kernel/include/linux/tracepoint-defs.h"
	.file	41 "/mnt/disk/jenkins/ci/workspace/chipset_pipeline_release/opensource/component_code/vendor/huawei/extra/build/build_script/kirin_kernel_release" "kernel/include/linux/srcutree.h"
	.file	42 "/mnt/disk/jenkins/ci/workspace/chipset_pipeline_release/opensource/component_code/vendor/huawei/extra/build/build_script/kirin_kernel_release" "kernel/include/linux/rcu_segcblist.h"
	.file	43 "/mnt/disk/jenkins/ci/workspace/chipset_pipeline_release/opensource/component_code/vendor/huawei/extra/build/build_script/kirin_kernel_release" "kernel/include/linux/timer.h"
	.file	44 "/mnt/disk/jenkins/ci/workspace/chipset_pipeline_release/opensource/component_code/vendor/huawei/extra/build/build_script/kirin_kernel_release" "kernel/include/linux/workqueue.h"
	.file	45 "/mnt/disk/jenkins/ci/workspace/chipset_pipeline_release/opensource/component_code/vendor/huawei/extra/build/build_script/kirin_kernel_release" "kernel/include/linux/tracepoint.h"
	.file	46 "/mnt/disk/jenkins/ci/workspace/chipset_pipeline_release/opensource/component_code/vendor/huawei/extra/build/build_script/kirin_kernel_release" "kernel/include/linux/lockdep_types.h"
	.file	47 "/mnt/disk/jenkins/ci/workspace/chipset_pipeline_release/opensource/component_code/vendor/huawei/extra/build/build_script/kirin_kernel_release" "kernel/include/linux/writeback.h"
	.file	48 "/mnt/disk/jenkins/ci/workspace/chipset_pipeline_release/opensource/component_code/vendor/huawei/extra/build/build_script/kirin_kernel_release" "kernel/include/linux/backing-dev-defs.h"
	.file	49 "/mnt/disk/jenkins/ci/workspace/chipset_pipeline_release/opensource/component_code/vendor/huawei/extra/build/build_script/kirin_kernel_release" "kernel/include/linux/refcount.h"
	.file	50 "/mnt/disk/jenkins/ci/workspace/chipset_pipeline_release/opensource/component_code/vendor/huawei/extra/build/build_script/kirin_kernel_release" "kernel/include/linux/kref.h"
	.file	51 "/mnt/disk/jenkins/ci/workspace/chipset_pipeline_release/opensource/component_code/vendor/huawei/extra/build/build_script/kirin_kernel_release" "kernel/include/linux/xarray.h"
	.file	52 "/mnt/disk/jenkins/ci/workspace/chipset_pipeline_release/opensource/component_code/vendor/huawei/extra/build/build_script/kirin_kernel_release" "kernel/include/linux/rwsem.h"
	.file	53 "/mnt/disk/jenkins/ci/workspace/chipset_pipeline_release/opensource/component_code/vendor/huawei/extra/build/build_script/kirin_kernel_release" "kernel/arch/arm64/include/asm/thread_info.h"
	.file	54 "/mnt/disk/jenkins/ci/workspace/chipset_pipeline_release/opensource/component_code/vendor/huawei/extra/build/build_script/kirin_kernel_release" "kernel/include/linux/sched.h"
	.file	55 "/mnt/disk/jenkins/ci/workspace/chipset_pipeline_release/opensource/component_code/vendor/huawei/extra/build/build_script/kirin_kernel_release" "kernel/include/linux/smp_types.h"
	.file	56 "/mnt/disk/jenkins/ci/workspace/chipset_pipeline_release/opensource/component_code/vendor/huawei/extra/build/build_script/kirin_kernel_release" "kernel/include/linux/timerqueue.h"
	.file	57 "/mnt/disk/jenkins/ci/workspace/chipset_pipeline_release/opensource/component_code/vendor/huawei/extra/build/build_script/kirin_kernel_release" "kernel/include/linux/ktime.h"
	.file	58 "/mnt/disk/jenkins/ci/workspace/chipset_pipeline_release/opensource/component_code/vendor/huawei/extra/build/build_script/kirin_kernel_release" "kernel/include/linux/hrtimer.h"
	.file	59 "/mnt/disk/jenkins/ci/workspace/chipset_pipeline_release/opensource/component_code/vendor/huawei/extra/build/build_script/kirin_kernel_release" "kernel/include/linux/cpumask.h"
	.file	60 "/mnt/disk/jenkins/ci/workspace/chipset_pipeline_release/opensource/component_code/vendor/huawei/extra/build/build_script/kirin_kernel_release" "kernel/include/linux/plist.h"
	.file	61 "/mnt/disk/jenkins/ci/workspace/chipset_pipeline_release/opensource/component_code/vendor/huawei/extra/build/build_script/kirin_kernel_release" "kernel/include/linux/mm_types.h"
	.file	62 "/mnt/disk/jenkins/ci/workspace/chipset_pipeline_release/opensource/component_code/vendor/huawei/extra/build/build_script/kirin_kernel_release" "kernel/arch/arm64/include/asm/pgtable-types.h"
	.file	63 "/mnt/disk/jenkins/ci/workspace/chipset_pipeline_release/opensource/component_code/vendor/huawei/extra/build/build_script/kirin_kernel_release" "kernel/include/linux/mm.h"
	.file	64 "/mnt/disk/jenkins/ci/workspace/chipset_pipeline_release/opensource/component_code/vendor/huawei/extra/build/build_script/kirin_kernel_release" "kernel/include/asm-generic/pgtable-nop4d.h"
	.file	65 "/mnt/disk/jenkins/ci/workspace/chipset_pipeline_release/opensource/component_code/vendor/huawei/extra/build/build_script/kirin_kernel_release" "kernel/include/asm-generic/pgtable-nopud.h"
	.file	66 "/mnt/disk/jenkins/ci/workspace/chipset_pipeline_release/opensource/component_code/vendor/huawei/extra/build/build_script/kirin_kernel_release" "kernel/include/linux/pagemap.h"
	.file	67 "/mnt/disk/jenkins/ci/workspace/chipset_pipeline_release/opensource/component_code/vendor/huawei/extra/build/build_script/kirin_kernel_release" "kernel/include/linux/wait.h"
	.file	68 "/mnt/disk/jenkins/ci/workspace/chipset_pipeline_release/opensource/component_code/vendor/huawei/extra/build/build_script/kirin_kernel_release" "kernel/include/linux/uio.h"
	.file	69 "/mnt/disk/jenkins/ci/workspace/chipset_pipeline_release/opensource/component_code/vendor/huawei/extra/build/build_script/kirin_kernel_release" "kernel/include/uapi/linux/uio.h"
	.file	70 "/mnt/disk/jenkins/ci/workspace/chipset_pipeline_release/opensource/component_code/vendor/huawei/extra/build/build_script/kirin_kernel_release" "kernel/include/linux/bvec.h"
	.file	71 "/mnt/disk/jenkins/ci/workspace/chipset_pipeline_release/opensource/component_code/vendor/huawei/extra/build/build_script/kirin_kernel_release" "kernel/include/linux/migrate_mode.h"
	.file	72 "/mnt/disk/jenkins/ci/workspace/chipset_pipeline_release/opensource/component_code/vendor/huawei/extra/build/build_script/kirin_kernel_release" "kernel/include/linux/mmzone.h"
	.file	73 "/mnt/disk/jenkins/ci/workspace/chipset_pipeline_release/opensource/component_code/vendor/huawei/extra/build/build_script/kirin_kernel_release" "kernel/include/linux/swap.h"
	.file	74 "/mnt/disk/jenkins/ci/workspace/chipset_pipeline_release/opensource/component_code/vendor/huawei/extra/build/build_script/kirin_kernel_release" "kernel/include/linux/errseq.h"
	.file	75 "/mnt/disk/jenkins/ci/workspace/chipset_pipeline_release/opensource/component_code/vendor/huawei/extra/build/build_script/kirin_kernel_release" "kernel/arch/arm64/include/asm/page.h"
	.file	76 "/mnt/disk/jenkins/ci/workspace/chipset_pipeline_release/opensource/component_code/vendor/huawei/extra/build/build_script/kirin_kernel_release" "kernel/include/linux/memremap.h"
	.file	77 "/mnt/disk/jenkins/ci/workspace/chipset_pipeline_release/opensource/component_code/vendor/huawei/extra/build/build_script/kirin_kernel_release" "kernel/include/linux/range.h"
	.file	78 "/mnt/disk/jenkins/ci/workspace/chipset_pipeline_release/opensource/component_code/vendor/huawei/extra/build/build_script/kirin_kernel_release" "kernel/include/linux/cgroup-defs.h"
	.file	79 "/mnt/disk/jenkins/ci/workspace/chipset_pipeline_release/opensource/component_code/vendor/huawei/extra/build/build_script/kirin_kernel_release" "kernel/include/linux/kernfs.h"
	.file	80 "/mnt/disk/jenkins/ci/workspace/chipset_pipeline_release/opensource/component_code/vendor/huawei/extra/build/build_script/kirin_kernel_release" "kernel/include/linux/idr.h"
	.file	81 "/mnt/disk/jenkins/ci/workspace/chipset_pipeline_release/opensource/component_code/vendor/huawei/extra/build/build_script/kirin_kernel_release" "kernel/include/linux/seq_file.h"
	.file	82 "/mnt/disk/jenkins/ci/workspace/chipset_pipeline_release/opensource/component_code/vendor/huawei/extra/build/build_script/kirin_kernel_release" "kernel/include/linux/poll.h"
	.file	83 "/mnt/disk/jenkins/ci/workspace/chipset_pipeline_release/opensource/component_code/vendor/huawei/extra/build/build_script/kirin_kernel_release" "kernel/include/linux/u64_stats_sync.h"
	.file	84 "/mnt/disk/jenkins/ci/workspace/chipset_pipeline_release/opensource/component_code/vendor/huawei/extra/build/build_script/kirin_kernel_release" "kernel/include/linux/sched/types.h"
	.file	85 "/mnt/disk/jenkins/ci/workspace/chipset_pipeline_release/opensource/component_code/vendor/huawei/extra/build/build_script/kirin_kernel_release" "kernel/include/linux/psi_types.h"
	.file	86 "/mnt/disk/jenkins/ci/workspace/chipset_pipeline_release/opensource/component_code/vendor/huawei/extra/build/build_script/kirin_kernel_release" "kernel/include/linux/bpf.h"
	.file	87 "/mnt/disk/jenkins/ci/workspace/chipset_pipeline_release/opensource/component_code/vendor/huawei/extra/build/build_script/kirin_kernel_release" "kernel/include/linux/bpf-cgroup.h"
	.file	88 "/mnt/disk/jenkins/ci/workspace/chipset_pipeline_release/opensource/component_code/vendor/huawei/extra/build/build_script/kirin_kernel_release" "kernel/include/uapi/linux/bpf.h"
	.file	89 "/mnt/disk/jenkins/ci/workspace/chipset_pipeline_release/opensource/component_code/vendor/huawei/extra/build/build_script/kirin_kernel_release" "kernel/include/linux/memcontrol.h"
	.file	90 "/mnt/disk/jenkins/ci/workspace/chipset_pipeline_release/opensource/component_code/vendor/huawei/extra/build/build_script/kirin_kernel_release" "kernel/include/linux/page_counter.h"
	.file	91 "/mnt/disk/jenkins/ci/workspace/chipset_pipeline_release/opensource/component_code/vendor/huawei/extra/build/build_script/kirin_kernel_release" "kernel/include/linux/vmpressure.h"
	.file	92 "/mnt/disk/jenkins/ci/workspace/chipset_pipeline_release/opensource/component_code/vendor/huawei/extra/build/build_script/kirin_kernel_release" "kernel/include/platform_include/basicplatform/linux/hp/memcg_policy.h"
	.file	93 "/mnt/disk/jenkins/ci/workspace/chipset_pipeline_release/opensource/component_code/vendor/huawei/extra/build/build_script/kirin_kernel_release" "kernel/include/linux/percpu_counter.h"
	.file	94 "/mnt/disk/jenkins/ci/workspace/chipset_pipeline_release/opensource/component_code/vendor/huawei/extra/build/build_script/kirin_kernel_release" "kernel/include/linux/flex_proportions.h"
	.file	95 "/mnt/disk/jenkins/ci/workspace/chipset_pipeline_release/opensource/component_code/vendor/huawei/extra/build/build_script/kirin_kernel_release" "kernel/include/asm-generic/qrwlock_types.h"
	.file	96 "/mnt/disk/jenkins/ci/workspace/chipset_pipeline_release/opensource/component_code/vendor/huawei/extra/build/build_script/kirin_kernel_release" "kernel/include/linux/rwlock_types.h"
	.file	97 "/mnt/disk/jenkins/ci/workspace/chipset_pipeline_release/opensource/component_code/vendor/huawei/extra/build/build_script/kirin_kernel_release" "kernel/include/linux/mm_types_task.h"
	.file	98 "/mnt/disk/jenkins/ci/workspace/chipset_pipeline_release/opensource/component_code/vendor/huawei/extra/build/build_script/kirin_kernel_release" "kernel/arch/arm64/include/asm/mmu.h"
	.file	99 "/mnt/disk/jenkins/ci/workspace/chipset_pipeline_release/opensource/component_code/vendor/huawei/extra/build/build_script/kirin_kernel_release" "kernel/include/linux/user_namespace.h"
	.file	100 "/mnt/disk/jenkins/ci/workspace/chipset_pipeline_release/opensource/component_code/vendor/huawei/extra/build/build_script/kirin_kernel_release" "kernel/include/linux/ns_common.h"
	.file	101 "/mnt/disk/jenkins/ci/workspace/chipset_pipeline_release/opensource/component_code/vendor/huawei/extra/build/build_script/kirin_kernel_release" "kernel/include/linux/key.h"
	.file	102 "/mnt/disk/jenkins/ci/workspace/chipset_pipeline_release/opensource/component_code/vendor/huawei/extra/build/build_script/kirin_kernel_release" "kernel/include/linux/assoc_array.h"
	.file	103 "/mnt/disk/jenkins/ci/workspace/chipset_pipeline_release/opensource/component_code/vendor/huawei/extra/build/build_script/kirin_kernel_release" "kernel/include/linux/sysctl.h"
	.file	104 "/mnt/disk/jenkins/ci/workspace/chipset_pipeline_release/opensource/component_code/vendor/huawei/extra/build/build_script/kirin_kernel_release" "kernel/include/linux/uprobes.h"
	.file	105 "/mnt/disk/jenkins/ci/workspace/chipset_pipeline_release/opensource/component_code/vendor/huawei/extra/build/build_script/kirin_kernel_release" "kernel/include/linux/xreclaimer_types.h"
	.file	106 "/mnt/disk/jenkins/ci/workspace/chipset_pipeline_release/opensource/component_code/vendor/huawei/extra/build/build_script/kirin_kernel_release" "kernel/include/linux/restart_block.h"
	.file	107 "/mnt/disk/jenkins/ci/workspace/chipset_pipeline_release/opensource/component_code/vendor/huawei/extra/build/build_script/kirin_kernel_release" "kernel/include/uapi/linux/time_types.h"
	.file	108 "/mnt/disk/jenkins/ci/workspace/chipset_pipeline_release/opensource/component_code/vendor/huawei/extra/build/build_script/kirin_kernel_release" "kernel/include/vdso/time32.h"
	.file	109 "/mnt/disk/jenkins/ci/workspace/chipset_pipeline_release/opensource/component_code/vendor/huawei/extra/build/build_script/kirin_kernel_release" "kernel/include/uapi/asm-generic/poll.h"
	.file	110 "/mnt/disk/jenkins/ci/workspace/chipset_pipeline_release/opensource/component_code/vendor/huawei/extra/build/build_script/kirin_kernel_release" "kernel/include/linux/pid.h"
	.file	111 "/mnt/disk/jenkins/ci/workspace/chipset_pipeline_release/opensource/component_code/vendor/huawei/extra/build/build_script/kirin_kernel_release" "kernel/include/linux/pid_namespace.h"
	.file	112 "/mnt/disk/jenkins/ci/workspace/chipset_pipeline_release/opensource/component_code/vendor/huawei/extra/build/build_script/kirin_kernel_release" "kernel/include/linux/posix-timers.h"
	.file	113 "/mnt/disk/jenkins/ci/workspace/chipset_pipeline_release/opensource/component_code/vendor/huawei/extra/build/build_script/kirin_kernel_release" "kernel/include/linux/cred.h"
	.file	114 "/mnt/disk/jenkins/ci/workspace/chipset_pipeline_release/opensource/component_code/vendor/huawei/extra/build/build_script/kirin_kernel_release" "kernel/include/linux/capability.h"
	.file	115 "/mnt/disk/jenkins/ci/workspace/chipset_pipeline_release/opensource/component_code/vendor/huawei/extra/build/build_script/kirin_kernel_release" "kernel/include/linux/sched/user.h"
	.file	116 "/mnt/disk/jenkins/ci/workspace/chipset_pipeline_release/opensource/component_code/vendor/huawei/extra/build/build_script/kirin_kernel_release" "kernel/include/linux/ratelimit_types.h"
	.file	117 "/mnt/disk/jenkins/ci/workspace/chipset_pipeline_release/opensource/component_code/vendor/huawei/extra/build/build_script/kirin_kernel_release" "kernel/include/linux/nsproxy.h"
	.file	118 "/mnt/disk/jenkins/ci/workspace/chipset_pipeline_release/opensource/component_code/vendor/huawei/extra/build/build_script/kirin_kernel_release" "kernel/include/linux/cgroup.h"
	.file	119 "/mnt/disk/jenkins/ci/workspace/chipset_pipeline_release/opensource/component_code/vendor/huawei/extra/build/build_script/kirin_kernel_release" "kernel/include/linux/sched/signal.h"
	.file	120 "/mnt/disk/jenkins/ci/workspace/chipset_pipeline_release/opensource/component_code/vendor/huawei/extra/build/build_script/kirin_kernel_release" "kernel/include/linux/signal_types.h"
	.file	121 "/mnt/disk/jenkins/ci/workspace/chipset_pipeline_release/opensource/component_code/vendor/huawei/extra/build/build_script/kirin_kernel_release" "kernel/include/uapi/asm-generic/signal.h"
	.file	122 "/mnt/disk/jenkins/ci/workspace/chipset_pipeline_release/opensource/component_code/vendor/huawei/extra/build/build_script/kirin_kernel_release" "kernel/include/linux/task_io_accounting.h"
	.file	123 "/mnt/disk/jenkins/ci/workspace/chipset_pipeline_release/opensource/component_code/vendor/huawei/extra/build/build_script/kirin_kernel_release" "kernel/include/uapi/linux/resource.h"
	.file	124 "/mnt/disk/jenkins/ci/workspace/chipset_pipeline_release/opensource/component_code/vendor/huawei/extra/build/build_script/kirin_kernel_release" "kernel/include/uapi/linux/taskstats.h"
	.file	125 "/mnt/disk/jenkins/ci/workspace/chipset_pipeline_release/opensource/component_code/vendor/huawei/extra/build/build_script/kirin_kernel_release" "kernel/include/uapi/asm-generic/signal-defs.h"
	.file	126 "/mnt/disk/jenkins/ci/workspace/chipset_pipeline_release/opensource/component_code/vendor/huawei/extra/build/build_script/kirin_kernel_release" "kernel/include/linux/seccomp.h"
	.file	127 "/mnt/disk/jenkins/ci/workspace/chipset_pipeline_release/opensource/component_code/vendor/huawei/extra/build/build_script/kirin_kernel_release" "kernel/include/linux/bio.h"
	.file	128 "/mnt/disk/jenkins/ci/workspace/chipset_pipeline_release/opensource/component_code/vendor/huawei/extra/build/build_script/kirin_kernel_release" "kernel/include/linux/blkdev.h"
	.file	129 "/mnt/disk/jenkins/ci/workspace/chipset_pipeline_release/opensource/component_code/vendor/huawei/extra/build/build_script/kirin_kernel_release" "kernel/include/linux/iocontext.h"
	.file	130 "/mnt/disk/jenkins/ci/workspace/chipset_pipeline_release/opensource/component_code/vendor/huawei/extra/build/build_script/kirin_kernel_release" "kernel/block/blk-mq.h"
	.file	131 "/mnt/disk/jenkins/ci/workspace/chipset_pipeline_release/opensource/component_code/vendor/huawei/extra/build/build_script/kirin_kernel_release" "kernel/include/linux/blk-mq.h"
	.file	132 "/mnt/disk/jenkins/ci/workspace/chipset_pipeline_release/opensource/component_code/vendor/huawei/extra/build/build_script/kirin_kernel_release" "kernel/block/blk.h"
	.file	133 "/mnt/disk/jenkins/ci/workspace/chipset_pipeline_release/opensource/component_code/vendor/huawei/extra/build/build_script/kirin_kernel_release" "kernel/include/linux/sbitmap.h"
	.file	134 "/mnt/disk/jenkins/ci/workspace/chipset_pipeline_release/opensource/component_code/vendor/huawei/extra/build/build_script/kirin_kernel_release" "kernel/block/blk-mq-tag.h"
	.file	135 "/mnt/disk/jenkins/ci/workspace/chipset_pipeline_release/opensource/component_code/vendor/huawei/extra/build/build_script/kirin_kernel_release" "kernel/include/linux/notifier.h"
	.file	136 "/mnt/disk/jenkins/ci/workspace/chipset_pipeline_release/opensource/component_code/vendor/huawei/extra/build/build_script/kirin_kernel_release" "kernel/include/linux/smp.h"
	.file	137 "/mnt/disk/jenkins/ci/workspace/chipset_pipeline_release/opensource/component_code/vendor/huawei/extra/build/build_script/kirin_kernel_release" "kernel/include/linux/elevator.h"
	.file	138 "/mnt/disk/jenkins/ci/workspace/chipset_pipeline_release/opensource/component_code/vendor/huawei/extra/build/build_script/kirin_kernel_release" "kernel/include/linux/pm.h"
	.file	139 "/mnt/disk/jenkins/ci/workspace/chipset_pipeline_release/opensource/component_code/vendor/huawei/extra/build/build_script/kirin_kernel_release" "kernel/block/blk-stat.h"
	.file	140 "/mnt/disk/jenkins/ci/workspace/chipset_pipeline_release/opensource/component_code/vendor/huawei/extra/build/build_script/kirin_kernel_release" "kernel/include/linux/blk-cgroup.h"
	.file	141 "/mnt/disk/jenkins/ci/workspace/chipset_pipeline_release/opensource/component_code/vendor/huawei/extra/build/build_script/kirin_kernel_release" "kernel/include/linux/bsg.h"
	.file	142 "/mnt/disk/jenkins/ci/workspace/chipset_pipeline_release/opensource/component_code/vendor/huawei/extra/build/build_script/kirin_kernel_release" "kernel/include/uapi/linux/bsg.h"
	.file	143 "/mnt/disk/jenkins/ci/workspace/chipset_pipeline_release/opensource/component_code/vendor/huawei/extra/build/build_script/kirin_kernel_release" "kernel/include/linux/mempool.h"
	.file	144 "/mnt/disk/jenkins/ci/workspace/chipset_pipeline_release/opensource/component_code/vendor/huawei/extra/build/build_script/kirin_kernel_release" "kernel/include/uapi/asm-generic/siginfo.h"
	.file	145 "/mnt/disk/jenkins/ci/workspace/chipset_pipeline_release/opensource/component_code/vendor/huawei/extra/build/build_script/kirin_kernel_release" "kernel/include/linux/nodemask.h"
	.file	146 "/mnt/disk/jenkins/ci/workspace/chipset_pipeline_release/opensource/component_code/vendor/huawei/extra/build/build_script/kirin_kernel_release" "kernel/include/asm-generic/compat.h"
	.file	147 "/mnt/disk/jenkins/ci/workspace/chipset_pipeline_release/opensource/component_code/vendor/huawei/extra/build/build_script/kirin_kernel_release" "kernel/include/linux/compat.h"
	.file	148 "/mnt/disk/jenkins/ci/workspace/chipset_pipeline_release/opensource/component_code/vendor/huawei/extra/build/build_script/kirin_kernel_release" "kernel/arch/arm64/include/asm/tlbbatch.h"
	.file	149 "/mnt/disk/jenkins/ci/workspace/chipset_pipeline_release/opensource/component_code/vendor/huawei/extra/build/build_script/kirin_kernel_release" "kernel/arch/arm64/include/asm/processor.h"
	.file	150 "/mnt/disk/jenkins/ci/workspace/chipset_pipeline_release/opensource/component_code/vendor/huawei/extra/build/build_script/kirin_kernel_release" "kernel/platform_source/basicplatform/block/mas_blk_latency.c"
	.file	151 "/mnt/disk/jenkins/ci/workspace/chipset_pipeline_release/opensource/component_code/vendor/huawei/extra/build/build_script/kirin_kernel_release" "kernel/arch/arm64/include/uapi/asm/ptrace.h"
	.file	152 "/mnt/disk/jenkins/ci/workspace/chipset_pipeline_release/opensource/component_code/vendor/huawei/extra/build/build_script/kirin_kernel_release" "kernel/include/linux/quota.h"
	.file	153 "/mnt/disk/jenkins/ci/workspace/chipset_pipeline_release/opensource/component_code/vendor/huawei/extra/build/build_script/kirin_kernel_release" "kernel/include/linux/projid.h"
	.file	154 "/mnt/disk/jenkins/ci/workspace/chipset_pipeline_release/opensource/component_code/vendor/huawei/extra/build/build_script/kirin_kernel_release" "kernel/include/linux/shrinker.h"
	.file	155 "/mnt/disk/jenkins/ci/workspace/chipset_pipeline_release/opensource/component_code/vendor/huawei/extra/build/build_script/kirin_kernel_release" "kernel/include/linux/rcu_sync.h"
	.file	156 "/mnt/disk/jenkins/ci/workspace/chipset_pipeline_release/opensource/component_code/vendor/huawei/extra/build/build_script/kirin_kernel_release" "kernel/include/linux/percpu-rwsem.h"
	.file	157 "/mnt/disk/jenkins/ci/workspace/chipset_pipeline_release/opensource/component_code/vendor/huawei/extra/build/build_script/kirin_kernel_release" "kernel/include/linux/rcuwait.h"
	.file	158 "/mnt/disk/jenkins/ci/workspace/chipset_pipeline_release/opensource/component_code/vendor/huawei/extra/build/build_script/kirin_kernel_release" "kernel/include/linux/uuid.h"
	.file	159 "/mnt/disk/jenkins/ci/workspace/chipset_pipeline_release/opensource/component_code/vendor/huawei/extra/build/build_script/kirin_kernel_release" "kernel/include/linux/list_lru.h"
	.file	160 "/mnt/disk/jenkins/ci/workspace/chipset_pipeline_release/opensource/component_code/vendor/huawei/extra/build/build_script/kirin_kernel_release" "kernel/include/linux/nfs_fs_i.h"
	.file	161 "/mnt/disk/jenkins/ci/workspace/chipset_pipeline_release/opensource/component_code/vendor/huawei/extra/build/build_script/kirin_kernel_release" "kernel/include/linux/lockref.h"
	.file	162 "/mnt/disk/jenkins/ci/workspace/chipset_pipeline_release/opensource/component_code/vendor/huawei/extra/build/build_script/kirin_kernel_release" "kernel/include/linux/kobject_ns.h"
	.file	163 "/mnt/disk/jenkins/ci/workspace/chipset_pipeline_release/opensource/component_code/vendor/huawei/extra/build/build_script/kirin_kernel_release" "kernel/include/linux/device.h"
	.file	164 "/mnt/disk/jenkins/ci/workspace/chipset_pipeline_release/opensource/component_code/vendor/huawei/extra/build/build_script/kirin_kernel_release" "kernel/include/linux/device/bus.h"
	.file	165 "/mnt/disk/jenkins/ci/workspace/chipset_pipeline_release/opensource/component_code/vendor/huawei/extra/build/build_script/kirin_kernel_release" "kernel/include/linux/device/driver.h"
	.file	166 "/mnt/disk/jenkins/ci/workspace/chipset_pipeline_release/opensource/component_code/vendor/huawei/extra/build/build_script/kirin_kernel_release" "kernel/include/linux/pm_wakeup.h"
	.file	167 "/mnt/disk/jenkins/ci/workspace/chipset_pipeline_release/opensource/component_code/vendor/huawei/extra/build/build_script/kirin_kernel_release" "kernel/include/linux/energy_model.h"
	.file	168 "/mnt/disk/jenkins/ci/workspace/chipset_pipeline_release/opensource/component_code/vendor/huawei/extra/build/build_script/kirin_kernel_release" "kernel/arch/arm64/include/asm/device.h"
	.file	169 "/mnt/disk/jenkins/ci/workspace/chipset_pipeline_release/opensource/component_code/vendor/huawei/extra/build/build_script/kirin_kernel_release" "kernel/include/linux/fwnode.h"
	.file	170 "/mnt/disk/jenkins/ci/workspace/chipset_pipeline_release/opensource/component_code/vendor/huawei/extra/build/build_script/kirin_kernel_release" "kernel/include/linux/device/class.h"
	.file	171 "/mnt/disk/jenkins/ci/workspace/chipset_pipeline_release/opensource/component_code/vendor/huawei/extra/build/build_script/kirin_kernel_release" "kernel/include/uapi/linux/blkzoned.h"
	.file	172 "/mnt/disk/jenkins/ci/workspace/chipset_pipeline_release/opensource/component_code/vendor/huawei/extra/build/build_script/kirin_kernel_release" "kernel/include/platform_include/basicplatform/linux/mas/dsm_block.h"
	.file	173 "/mnt/disk/jenkins/ci/workspace/chipset_pipeline_release/opensource/component_code/vendor/huawei/extra/build/build_script/kirin_kernel_release" "kernel/include/linux/stddef.h"
	.p2align	2                               // -- Begin function mas_blk_latency_bio_submit_func
	.type	mas_blk_latency_bio_submit_func,@function
mas_blk_latency_bio_submit_func:        // @mas_blk_latency_bio_submit_func
.Lfunc_begin0:
	.loc	150 190 0                       // kernel/platform_source/basicplatform/block/mas_blk_latency.c:190:0
	.cfi_sections .debug_frame
	.cfi_startproc
// %bb.0:
	//DEBUG_VALUE: mas_blk_latency_bio_submit_func:bio <- $x0
	//DEBUG_VALUE: mas_blk_latency_bio_submit_func:bio <- $x0
	stp	x29, x30, [sp, #-80]!           // 16-byte Folded Spill
	str	x25, [sp, #16]                  // 8-byte Folded Spill
	stp	x24, x23, [sp, #32]             // 16-byte Folded Spill
	stp	x22, x21, [sp, #48]             // 16-byte Folded Spill
	stp	x20, x19, [sp, #64]             // 16-byte Folded Spill
	mov	x29, sp
	.cfi_def_cfa w29, 80
	.cfi_offset w19, -8
	.cfi_offset w20, -16
	.cfi_offset w21, -24
	.cfi_offset w22, -32
	.cfi_offset w23, -40
	.cfi_offset w24, -48
	.cfi_offset w25, -64
	.cfi_offset w30, -72
	.cfi_offset w29, -80
.Ltmp0:
	//DEBUG_VALUE: mas_blk_latency_bio_submit_func:q <- 0
	.loc	150 194 12 prologue_end         // kernel/platform_source/basicplatform/block/mas_blk_latency.c:194:12
	ldr	x8, [x0, #8]
.Ltmp1:
	.loc	150 194 6 is_stmt 0             // kernel/platform_source/basicplatform/block/mas_blk_latency.c:194:6
	cbz	x8, .LBB0_17
.Ltmp2:
// %bb.1:
	//DEBUG_VALUE: mas_blk_latency_bio_submit_func:bio <- $x0
	//DEBUG_VALUE: mas_blk_latency_bio_submit_func:q <- 0
	//DEBUG_VALUE: mas_blk_latency_bio_submit_func:bio <- $x0
	.loc	150 197 20 is_stmt 1            // kernel/platform_source/basicplatform/block/mas_blk_latency.c:197:20
	ldr	x21, [x8, #1056]
.Ltmp3:
	//DEBUG_VALUE: mas_blk_latency_bio_submit_func:q <- $x21
	.loc	150 198 6                       // kernel/platform_source/basicplatform/block/mas_blk_latency.c:198:6
	cbz	x21, .LBB0_17
.Ltmp4:
// %bb.2:
	//DEBUG_VALUE: mas_blk_latency_bio_submit_func:q <- $x21
	//DEBUG_VALUE: mas_blk_latency_bio_submit_func:bio <- $x0
	//DEBUG_VALUE: mas_blk_latency_bio_submit_func:bio <- $x0
	ldr	w8, [x21, #1324]
.Ltmp5:
	.loc	150 198 6 is_stmt 0             // kernel/platform_source/basicplatform/block/mas_blk_latency.c:198:6
	cbz	w8, .LBB0_17
.Ltmp6:
// %bb.3:
	//DEBUG_VALUE: mas_blk_latency_bio_submit_func:q <- $x21
	//DEBUG_VALUE: mas_blk_latency_bio_submit_func:bio <- $x0
	.loc	150 201 6 is_stmt 1             // kernel/platform_source/basicplatform/block/mas_blk_latency.c:201:6
	ldrb	w8, [x0, #145]
	mov	x19, x0
.Ltmp7:
	//DEBUG_VALUE: mas_blk_latency_bio_submit_func:bio <- $x19
	//DEBUG_VALUE: mas_blk_latency_bio_submit_func:bio <- $x19
	.loc	150 201 6 is_stmt 0             // kernel/platform_source/basicplatform/block/mas_blk_latency.c:201:6
	cmp	w8, #76                         // =76
	b.eq	.LBB0_16
.Ltmp8:
// %bb.4:
	//DEBUG_VALUE: mas_blk_latency_bio_submit_func:q <- $x21
	//DEBUG_VALUE: mas_blk_latency_bio_submit_func:bio <- $x19
	.loc	150 166 2 is_stmt 1             // kernel/platform_source/basicplatform/block/mas_blk_latency.c:166:2
	add	x20, x19, #208                  // =208
	adrp	x1, __mas_blk_latency_check_timer_expire
	mov	w8, #1
.Ltmp9:
	//DEBUG_VALUE: mas_blk_setup_latency_tiemr:mas_bio <- [DW_OP_plus_uconst 96, DW_OP_stack_value] $x19
	//DEBUG_VALUE: mas_blk_setup_latency_tiemr:q <- $x21
	//DEBUG_VALUE: mas_blk_setup_latency_tiemr:bio <- $x19
	add	x1, x1, :lo12:__mas_blk_latency_check_timer_expire
	mov	x0, x20
	mov	w2, wzr
	mov	x3, xzr
	mov	x4, xzr
	.loc	150 165 33                      // kernel/platform_source/basicplatform/block/mas_blk_latency.c:165:33
	str	w8, [x19, #256]
	.loc	150 166 2                       // kernel/platform_source/basicplatform/block/mas_blk_latency.c:166:2
	bl	init_timer_key
.Ltmp10:
	.loc	150 170 3                       // kernel/platform_source/basicplatform/block/mas_blk_latency.c:170:3
	adrp	x8, jiffies
	ldr	x22, [x8, :lo12:jiffies]
.Ltmp11:
	//DEBUG_VALUE: mas_blk_bio_is_hp:bio <- $x19
	//DEBUG_VALUE: bio_timeout_threshold:q <- $x21
	//DEBUG_VALUE: bio_timeout_threshold:bio <- $x19
	.loc	150 130 15                      // kernel/platform_source/basicplatform/block/mas_blk_latency.c:130:15
	ldr	x8, [x19, #88]
	.loc	150 130 26 is_stmt 0            // kernel/platform_source/basicplatform/block/mas_blk_latency.c:130:26
	tst	x8, #0x18
.Ltmp12:
	.loc	150 145 6 is_stmt 1             // kernel/platform_source/basicplatform/block/mas_blk_latency.c:145:6
	b.eq	.LBB0_6
.Ltmp13:
// %bb.5:
	//DEBUG_VALUE: bio_timeout_threshold:q <- $x21
	//DEBUG_VALUE: mas_blk_setup_latency_tiemr:q <- $x21
	//DEBUG_VALUE: mas_blk_latency_bio_submit_func:q <- $x21
	//DEBUG_VALUE: bio_timeout_threshold:bio <- $x19
	//DEBUG_VALUE: mas_blk_setup_latency_tiemr:bio <- $x19
	//DEBUG_VALUE: mas_blk_setup_latency_tiemr:mas_bio <- [DW_OP_plus_uconst 96, DW_OP_stack_value] $x19
	//DEBUG_VALUE: mas_blk_latency_bio_submit_func:bio <- $x19
	//DEBUG_VALUE: hp_bio_timueout_threshold:bio <- $x19
	.loc	150 136 9                       // kernel/platform_source/basicplatform/block/mas_blk_latency.c:136:9
	tst	x8, #0x8
	mov	w8, #100
	mov	w9, #500
	csel	w0, w9, w8, eq
	b	.LBB0_9
.Ltmp14:
.LBB0_6:
	//DEBUG_VALUE: bio_timeout_threshold:q <- $x21
	//DEBUG_VALUE: mas_blk_setup_latency_tiemr:q <- $x21
	//DEBUG_VALUE: mas_blk_latency_bio_submit_func:q <- $x21
	//DEBUG_VALUE: bio_timeout_threshold:bio <- $x19
	//DEBUG_VALUE: mas_blk_setup_latency_tiemr:bio <- $x19
	//DEBUG_VALUE: mas_blk_setup_latency_tiemr:mas_bio <- [DW_OP_plus_uconst 96, DW_OP_stack_value] $x19
	//DEBUG_VALUE: mas_blk_latency_bio_submit_func:bio <- $x19
	//DEBUG_VALUE: mas_blk_bio_is_cp:bio <- $x19
	.loc	1 318 15                        // kernel/include/platform_include/basicplatform/linux/mas/mas_blk.h:318:15
	ldr	w8, [x19, #24]
	mov	w9, #4096
	movk	w9, #32, lsl #16
	.loc	1 318 22 is_stmt 0              // kernel/include/platform_include/basicplatform/linux/mas/mas_blk.h:318:22
	tst	w8, w9
.Ltmp15:
	.loc	150 150 6 is_stmt 1             // kernel/platform_source/basicplatform/block/mas_blk_latency.c:150:6
	b.eq	.LBB0_8
.Ltmp16:
// %bb.7:
	//DEBUG_VALUE: bio_timeout_threshold:q <- $x21
	//DEBUG_VALUE: mas_blk_setup_latency_tiemr:q <- $x21
	//DEBUG_VALUE: mas_blk_latency_bio_submit_func:q <- $x21
	//DEBUG_VALUE: mas_blk_bio_is_cp:bio <- $x19
	//DEBUG_VALUE: bio_timeout_threshold:bio <- $x19
	//DEBUG_VALUE: mas_blk_setup_latency_tiemr:bio <- $x19
	//DEBUG_VALUE: mas_blk_setup_latency_tiemr:mas_bio <- [DW_OP_plus_uconst 96, DW_OP_stack_value] $x19
	//DEBUG_VALUE: mas_blk_latency_bio_submit_func:bio <- $x19
	.loc	150 0 6 is_stmt 0               // kernel/platform_source/basicplatform/block/mas_blk_latency.c:0:6
	mov	w0, #1000
	b	.LBB0_9
.Ltmp17:
.LBB0_8:
	//DEBUG_VALUE: bio_timeout_threshold:q <- $x21
	//DEBUG_VALUE: mas_blk_setup_latency_tiemr:q <- $x21
	//DEBUG_VALUE: mas_blk_latency_bio_submit_func:q <- $x21
	//DEBUG_VALUE: bio_timeout_threshold:bio <- $x19
	//DEBUG_VALUE: mas_blk_setup_latency_tiemr:bio <- $x19
	//DEBUG_VALUE: mas_blk_setup_latency_tiemr:mas_bio <- [DW_OP_plus_uconst 96, DW_OP_stack_value] $x19
	//DEBUG_VALUE: mas_blk_latency_bio_submit_func:bio <- $x19
	.loc	150 154 22 is_stmt 1            // kernel/platform_source/basicplatform/block/mas_blk_latency.c:154:22
	ldr	w0, [x21, #1328]
.Ltmp18:
.LBB0_9:
	//DEBUG_VALUE: mas_blk_setup_latency_tiemr:q <- $x21
	//DEBUG_VALUE: mas_blk_latency_bio_submit_func:q <- $x21
	//DEBUG_VALUE: mas_blk_setup_latency_tiemr:bio <- $x19
	//DEBUG_VALUE: mas_blk_setup_latency_tiemr:mas_bio <- [DW_OP_plus_uconst 96, DW_OP_stack_value] $x19
	//DEBUG_VALUE: mas_blk_latency_bio_submit_func:bio <- $x19
	//DEBUG_VALUE: msecs_to_jiffies:m <- $w0
	.file	174 "/mnt/disk/jenkins/ci/workspace/chipset_pipeline_release/opensource/component_code/vendor/huawei/extra/build/build_script/kirin_kernel_release" "kernel/include/linux/jiffies.h"
	.loc	174 370 10                      // kernel/include/linux/jiffies.h:370:10
	bl	__msecs_to_jiffies
.Ltmp19:
	.loc	127 224 16                      // kernel/include/linux/bio.h:224:16
	ldrh	w8, [x19, #28]
.Ltmp20:
	.loc	150 170 11                      // kernel/platform_source/basicplatform/block/mas_blk_latency.c:170:11
	add	x9, x0, x22
	.loc	150 169 40                      // kernel/platform_source/basicplatform/block/mas_blk_latency.c:169:40
	str	x9, [x19, #224]
.Ltmp21:
	//DEBUG_VALUE: bio_get:bio <- $x19
	.file	175 "/mnt/disk/jenkins/ci/workspace/chipset_pipeline_release/opensource/component_code/vendor/huawei/extra/build/build_script/kirin_kernel_release" "kernel/arch/arm64/include/asm/atomic_ll_sc.h"
	.loc	175 111 1                       // kernel/arch/arm64/include/asm/atomic_ll_sc.h:111:1
	add	x10, x19, #332                  // =332
.Ltmp22:
	.loc	127 224 16                      // kernel/include/linux/bio.h:224:16
	orr	w8, w8, #0x40
	strh	w8, [x19, #28]
	.loc	127 225 2                       // kernel/include/linux/bio.h:225:2
	//APP
	dmb	ish
	//NO_APP
.Ltmp23:
	//DEBUG_VALUE: __ll_sc_atomic_add:v <- [DW_OP_plus_uconst 332, DW_OP_stack_value] $x19
	//DEBUG_VALUE: __ll_sc_atomic_add:i <- 1
	//DEBUG_VALUE: arch_atomic_add:v <- [DW_OP_plus_uconst 332, DW_OP_stack_value] $x19
	//DEBUG_VALUE: arch_atomic_add:i <- 1
	//DEBUG_VALUE: arch_atomic_inc:v <- [DW_OP_plus_uconst 332, DW_OP_stack_value] $x19
	//DEBUG_VALUE: atomic_inc:v <- [DW_OP_plus_uconst 332, DW_OP_stack_value] $x19
	.loc	175 111 1                       // kernel/arch/arm64/include/asm/atomic_ll_sc.h:111:1
	//APP
	// atomic_add
	prfm	pstl1strm, [x10]
.Ltmp24:
	ldxr	w8, [x10]
	add	w8, w8, #1                      // =1
	stxr	w9, w8, [x10]
	cbnz	w9, .Ltmp24

	//NO_APP
.Ltmp25:
	//DEBUG_VALUE: __ll_sc_atomic_add:tmp <- undef
	//DEBUG_VALUE: __ll_sc_atomic_add:result <- undef
	.loc	150 173 14                      // kernel/platform_source/basicplatform/block/mas_blk_latency.c:173:14
	adrp	x23, cpu_number
.Ltmp26:
	.file	176 "/mnt/disk/jenkins/ci/workspace/chipset_pipeline_release/opensource/component_code/vendor/huawei/extra/build/build_script/kirin_kernel_release" "kernel/arch/arm64/include/asm/percpu.h"
	.loc	176 39 2                        // kernel/arch/arm64/include/asm/percpu.h:39:2
	//APP
.Ltmp27:
	mrs	x8, TPIDR_EL1
.Ltmp28:
	.section	.altinstructions,"a",@progbits
.Ltmp29:
	.word	.Ltmp27-.Ltmp29
.Ltmp31:
	.word	.Ltmp30-.Ltmp31
	.hword	11
	.byte	.Ltmp28-.Ltmp27
	.byte	.Ltmp32-.Ltmp30
	.text

	.text	1
.Ltmp30:
	mrs	x8, TPIDR_EL2
.Ltmp32:
.Ltmp33:
.org (.Ltmp33-(.Ltmp32-.Ltmp30))+(.Ltmp28-.Ltmp27), 0
.Ltmp34:
.org (.Ltmp34-(.Ltmp28-.Ltmp27))+(.Ltmp32-.Ltmp30), 0
	.text


	//NO_APP
.Ltmp35:
	//DEBUG_VALUE: __kern_my_cpu_offset:off <- $x8
	.loc	150 173 14                      // kernel/platform_source/basicplatform/block/mas_blk_latency.c:173:14
	add	x23, x23, :lo12:cpu_number
.Ltmp36:
	//DEBUG_VALUE: __ptr <- $x23
	.file	177 "/mnt/disk/jenkins/ci/workspace/chipset_pipeline_release/opensource/component_code/vendor/huawei/extra/build/build_script/kirin_kernel_release" "kernel/include/linux/bitmap.h"
	.loc	177 401 23                      // kernel/include/linux/bitmap.h:401:23
	adrp	x24, __cpu_possible_mask
.Ltmp37:
	.loc	150 173 14                      // kernel/platform_source/basicplatform/block/mas_blk_latency.c:173:14
	ldr	w8, [x8, x23]
.Ltmp38:
	.loc	177 401 23                      // kernel/include/linux/bitmap.h:401:23
	ldrb	w0, [x24, :lo12:__cpu_possible_mask]
.Ltmp39:
	//DEBUG_VALUE: __arch_hweight64:w <- [DW_OP_constu 255, DW_OP_and, DW_OP_stack_value] undef
	//DEBUG_VALUE: hweight_long:w <- [DW_OP_constu 255, DW_OP_and, DW_OP_stack_value] $x0
	//DEBUG_VALUE: cpumask_weight:srcp <- undef
	.loc	150 173 37                      // kernel/platform_source/basicplatform/block/mas_blk_latency.c:173:37
	add	w21, w8, #1                     // =1
.Ltmp40:
	//DEBUG_VALUE: bitmap_weight:nbits <- 8
	//DEBUG_VALUE: hweight_long:w <- [DW_OP_constu 255, DW_OP_and, DW_OP_stack_value] undef
	.file	178 "/mnt/disk/jenkins/ci/workspace/chipset_pipeline_release/opensource/component_code/vendor/huawei/extra/build/build_script/kirin_kernel_release" "kernel/include/asm-generic/bitops/arch_hweight.h"
	.loc	178 24 9                        // kernel/include/asm-generic/bitops/arch_hweight.h:24:9
	bl	__sw_hweight64
.Ltmp41:
	.loc	150 173 42                      // kernel/platform_source/basicplatform/block/mas_blk_latency.c:173:42
	udiv	w8, w21, w0
	msub	w21, w8, w0, w21
.Ltmp42:
	//DEBUG_VALUE: test_bit:nr <- undef
	//DEBUG_VALUE: cpumask_test_cpu:cpu <- undef
	//DEBUG_VALUE: mas_blk_setup_latency_tiemr:next_cpu <- undef
	.file	179 "/mnt/disk/jenkins/ci/workspace/chipset_pipeline_release/opensource/component_code/vendor/huawei/extra/build/build_script/kirin_kernel_release" "kernel/include/asm-generic/bitops/non-atomic.h"
	.loc	179 106 21                      // kernel/include/asm-generic/bitops/non-atomic.h:106:21
	add	w8, w21, #63                    // =63
	cmp	w21, #0                         // =0
	csel	w8, w8, w21, lt
	.loc	179 106 16 is_stmt 0            // kernel/include/asm-generic/bitops/non-atomic.h:106:16
	adrp	x9, __cpu_online_mask
	.loc	179 106 21                      // kernel/include/asm-generic/bitops/non-atomic.h:106:21
	asr	w8, w8, #6
	.loc	179 106 16                      // kernel/include/asm-generic/bitops/non-atomic.h:106:16
	add	x9, x9, :lo12:__cpu_online_mask
.Ltmp43:
	//DEBUG_VALUE: cpumask_test_cpu:cpumask <- $x9
	ldr	x8, [x9, w8, sxtw #3]
.Ltmp44:
	.loc	150 174 6 is_stmt 1             // kernel/platform_source/basicplatform/block/mas_blk_latency.c:174:6
	lsr	x8, x8, x21
	tbnz	w8, #0, .LBB0_13
.Ltmp45:
// %bb.10:
	//DEBUG_VALUE: __ptr <- $x23
	//DEBUG_VALUE: atomic_inc:v <- [DW_OP_plus_uconst 332, DW_OP_stack_value] $x19
	//DEBUG_VALUE: arch_atomic_inc:v <- [DW_OP_plus_uconst 332, DW_OP_stack_value] $x19
	//DEBUG_VALUE: arch_atomic_add:v <- [DW_OP_plus_uconst 332, DW_OP_stack_value] $x19
	//DEBUG_VALUE: __ll_sc_atomic_add:v <- [DW_OP_plus_uconst 332, DW_OP_stack_value] $x19
	//DEBUG_VALUE: bio_get:bio <- $x19
	//DEBUG_VALUE: mas_blk_setup_latency_tiemr:bio <- $x19
	//DEBUG_VALUE: mas_blk_setup_latency_tiemr:mas_bio <- [DW_OP_plus_uconst 96, DW_OP_stack_value] $x19
	//DEBUG_VALUE: mas_blk_latency_bio_submit_func:bio <- $x19
	//DEBUG_VALUE: cpumask_test_cpu:cpumask <- $x9
	//DEBUG_VALUE: bitmap_weight:nbits <- 8
	//DEBUG_VALUE: arch_atomic_add:i <- 1
	//DEBUG_VALUE: __ll_sc_atomic_add:i <- 1
	.loc	150 0 6 is_stmt 0               // kernel/platform_source/basicplatform/block/mas_blk_latency.c:0:6
	adrp	x22, __cpu_online_mask
	mov	w21, #-1
	add	x22, x22, :lo12:__cpu_online_mask
	adrp	x25, nr_cpu_ids
.Ltmp46:
.LBB0_11:                               // =>This Inner Loop Header: Depth=1
	//DEBUG_VALUE: mas_blk_setup_latency_tiemr:bio <- $x19
	//DEBUG_VALUE: mas_blk_setup_latency_tiemr:mas_bio <- [DW_OP_plus_uconst 96, DW_OP_stack_value] $x19
	//DEBUG_VALUE: mas_blk_latency_bio_submit_func:bio <- $x19
	//DEBUG_VALUE: mas_blk_setup_latency_tiemr:target_cpu <- $w21
	.loc	150 177 3 is_stmt 1             // kernel/platform_source/basicplatform/block/mas_blk_latency.c:177:3
	mov	w0, w21
	mov	x1, x22
	bl	cpumask_next
.Ltmp47:
	ldr	w8, [x25, :lo12:nr_cpu_ids]
	mov	w21, w0
.Ltmp48:
	//DEBUG_VALUE: mas_blk_setup_latency_tiemr:target_cpu <- $w21
	.loc	150 177 3 is_stmt 0             // kernel/platform_source/basicplatform/block/mas_blk_latency.c:177:3
	cmp	w0, w8
	b.hs	.LBB0_13
.Ltmp49:
// %bb.12:                              //   in Loop: Header=BB0_11 Depth=1
	//DEBUG_VALUE: mas_blk_setup_latency_tiemr:bio <- $x19
	//DEBUG_VALUE: mas_blk_setup_latency_tiemr:mas_bio <- [DW_OP_plus_uconst 96, DW_OP_stack_value] $x19
	//DEBUG_VALUE: mas_blk_latency_bio_submit_func:bio <- $x19
	//DEBUG_VALUE: mas_blk_setup_latency_tiemr:target_cpu <- $w21
	.loc	176 39 2 is_stmt 1              // kernel/arch/arm64/include/asm/percpu.h:39:2
	//APP
.Ltmp50:
	mrs	x8, TPIDR_EL1
.Ltmp51:
	.section	.altinstructions,"a",@progbits
.Ltmp52:
	.word	.Ltmp50-.Ltmp52
.Ltmp54:
	.word	.Ltmp53-.Ltmp54
	.hword	11
	.byte	.Ltmp51-.Ltmp50
	.byte	.Ltmp55-.Ltmp53
	.text

	.text	1
.Ltmp53:
	mrs	x8, TPIDR_EL2
.Ltmp55:
.Ltmp56:
.org (.Ltmp56-(.Ltmp55-.Ltmp53))+(.Ltmp51-.Ltmp50), 0
.Ltmp57:
.org (.Ltmp57-(.Ltmp51-.Ltmp50))+(.Ltmp55-.Ltmp53), 0
	.text


	//NO_APP
.Ltmp58:
	//DEBUG_VALUE: __ptr <- $x23
	//DEBUG_VALUE: __kern_my_cpu_offset:off <- $x8
	.loc	150 178 22                      // kernel/platform_source/basicplatform/block/mas_blk_latency.c:178:22
	ldr	w8, [x8, x23]
.Ltmp59:
	.loc	150 178 8 is_stmt 0             // kernel/platform_source/basicplatform/block/mas_blk_latency.c:178:8
	cmp	w21, w8
	b.eq	.LBB0_11
.Ltmp60:
.LBB0_13:
	//DEBUG_VALUE: mas_blk_setup_latency_tiemr:bio <- $x19
	//DEBUG_VALUE: mas_blk_setup_latency_tiemr:mas_bio <- [DW_OP_plus_uconst 96, DW_OP_stack_value] $x19
	//DEBUG_VALUE: mas_blk_latency_bio_submit_func:bio <- $x19
	//DEBUG_VALUE: mas_blk_setup_latency_tiemr:target_cpu <- $w21
	//DEBUG_VALUE: bitmap_weight:nbits <- 8
	//DEBUG_VALUE: hweight_long:w <- [DW_OP_constu 255, DW_OP_and, DW_OP_stack_value] undef
	.loc	177 401 23 is_stmt 1            // kernel/include/linux/bitmap.h:401:23
	ldrb	w0, [x24, :lo12:__cpu_possible_mask]
.Ltmp61:
	//DEBUG_VALUE: __arch_hweight64:w <- [DW_OP_constu 255, DW_OP_and, DW_OP_stack_value] undef
	//DEBUG_VALUE: cpumask_weight:srcp <- undef
	//DEBUG_VALUE: hweight_long:w <- [DW_OP_constu 255, DW_OP_and, DW_OP_stack_value] $x0
	.loc	178 24 9                        // kernel/include/asm-generic/bitops/arch_hweight.h:24:9
	bl	__sw_hweight64
.Ltmp62:
	.loc	150 180 6                       // kernel/platform_source/basicplatform/block/mas_blk_latency.c:180:6
	cmp	w21, w0
	b.lo	.LBB0_15
.Ltmp63:
// %bb.14:
	//DEBUG_VALUE: mas_blk_setup_latency_tiemr:bio <- $x19
	//DEBUG_VALUE: mas_blk_setup_latency_tiemr:mas_bio <- [DW_OP_plus_uconst 96, DW_OP_stack_value] $x19
	//DEBUG_VALUE: mas_blk_latency_bio_submit_func:bio <- $x19
	//DEBUG_VALUE: mas_blk_setup_latency_tiemr:target_cpu <- $w21
	.loc	176 39 2                        // kernel/arch/arm64/include/asm/percpu.h:39:2
	//APP
.Ltmp64:
	mrs	x8, TPIDR_EL1
.Ltmp65:
	.section	.altinstructions,"a",@progbits
.Ltmp66:
	.word	.Ltmp64-.Ltmp66
.Ltmp68:
	.word	.Ltmp67-.Ltmp68
	.hword	11
	.byte	.Ltmp65-.Ltmp64
	.byte	.Ltmp69-.Ltmp67
	.text

	.text	1
.Ltmp67:
	mrs	x8, TPIDR_EL2
.Ltmp69:
.Ltmp70:
.org (.Ltmp70-(.Ltmp69-.Ltmp67))+(.Ltmp65-.Ltmp64), 0
.Ltmp71:
.org (.Ltmp71-(.Ltmp65-.Ltmp64))+(.Ltmp69-.Ltmp67), 0
	.text


	//NO_APP
.Ltmp72:
	//DEBUG_VALUE: __ptr <- $x23
	//DEBUG_VALUE: __kern_my_cpu_offset:off <- $x8
	.loc	150 181 16                      // kernel/platform_source/basicplatform/block/mas_blk_latency.c:181:16
	ldr	w21, [x8, x23]
.Ltmp73:
	//DEBUG_VALUE: mas_blk_setup_latency_tiemr:target_cpu <- $w21
.LBB0_15:
	//DEBUG_VALUE: mas_blk_setup_latency_tiemr:bio <- $x19
	//DEBUG_VALUE: mas_blk_setup_latency_tiemr:mas_bio <- [DW_OP_plus_uconst 96, DW_OP_stack_value] $x19
	//DEBUG_VALUE: mas_blk_latency_bio_submit_func:bio <- $x19
	//DEBUG_VALUE: mas_blk_setup_latency_tiemr:target_cpu <- $w21
	//DEBUG_VALUE: mas_blk_setup_latency_tiemr:mas_bio <- [DW_OP_plus_uconst 96, DW_OP_stack_value] $x19
	//DEBUG_VALUE: mas_blk_setup_latency_tiemr:target_cpu <- $w21
	.loc	150 182 2                       // kernel/platform_source/basicplatform/block/mas_blk_latency.c:182:2
	mov	x0, x20
	mov	w1, w21
	bl	add_timer_on
.Ltmp74:
	.file	180 "/mnt/disk/jenkins/ci/workspace/chipset_pipeline_release/opensource/component_code/vendor/huawei/extra/build/build_script/kirin_kernel_release" "kernel/arch/arm64/include/asm/current.h"
	.loc	180 19 2                        // kernel/arch/arm64/include/asm/current.h:19:2
	//APP
	mrs	x8, SP_EL0
	//NO_APP
.Ltmp75:
	//DEBUG_VALUE: get_current:sp_el0 <- $x8
	//DEBUG_VALUE: get_current:sp_el0 <- $x8
	//DEBUG_VALUE: get_current:sp_el0 <- $x8
	//DEBUG_VALUE: get_current:sp_el0 <- $x8
	.loc	150 183 25                      // kernel/platform_source/basicplatform/block/mas_blk_latency.c:183:25
	str	x8, [x19, #112]
	.loc	150 184 31                      // kernel/platform_source/basicplatform/block/mas_blk_latency.c:184:31
	ldr	w9, [x8, #1904]
	.loc	150 184 20 is_stmt 0            // kernel/platform_source/basicplatform/block/mas_blk_latency.c:184:20
	str	w9, [x19, #120]
	.loc	150 185 32 is_stmt 1            // kernel/platform_source/basicplatform/block/mas_blk_latency.c:185:32
	ldr	w9, [x8, #1908]
	.loc	150 185 21 is_stmt 0            // kernel/platform_source/basicplatform/block/mas_blk_latency.c:185:21
	str	w9, [x19, #124]
	.loc	150 186 2 is_stmt 1             // kernel/platform_source/basicplatform/block/mas_blk_latency.c:186:2
	ldr	x9, [x8, #2408]
	ldr	x8, [x8, #2400]
.Ltmp76:
	stp	x8, x9, [x19, #128]
.Ltmp77:
.LBB0_16:
	//DEBUG_VALUE: mas_blk_latency_bio_submit_func:bio <- $x19
	.loc	150 0 2 is_stmt 0               // kernel/platform_source/basicplatform/block/mas_blk_latency.c:0:2
	mov	w8, #76
	.loc	150 205 22 is_stmt 1            // kernel/platform_source/basicplatform/block/mas_blk_latency.c:205:22
	str	xzr, [x19, #104]
.Ltmp78:
	//DEBUG_VALUE: mas_blk_latency_bio_submit_func:i <- 0
	.loc	150 207 35                      // kernel/platform_source/basicplatform/block/mas_blk_latency.c:207:35
	stp	xzr, xzr, [x19, #152]
	stp	xzr, xzr, [x19, #168]
	stp	xzr, xzr, [x19, #184]
.Ltmp79:
	.loc	150 204 26                      // kernel/platform_source/basicplatform/block/mas_blk_latency.c:204:26
	strb	w8, [x19, #145]
.Ltmp80:
	.loc	150 207 35                      // kernel/platform_source/basicplatform/block/mas_blk_latency.c:207:35
	str	xzr, [x19, #200]
.Ltmp81:
	//DEBUG_VALUE: mas_blk_latency_bio_submit_func:i <- [DW_OP_plus_uconst 1, DW_OP_stack_value] undef
.LBB0_17:
	.loc	150 216 1                       // kernel/platform_source/basicplatform/block/mas_blk_latency.c:216:1
	ldp	x20, x19, [sp, #64]             // 16-byte Folded Reload
	ldp	x22, x21, [sp, #48]             // 16-byte Folded Reload
	ldp	x24, x23, [sp, #32]             // 16-byte Folded Reload
	ldr	x25, [sp, #16]                  // 8-byte Folded Reload
	ldp	x29, x30, [sp], #80             // 16-byte Folded Reload
	ret
.Ltmp82:
.Lfunc_end0:
	.size	mas_blk_latency_bio_submit_func, .Lfunc_end0-mas_blk_latency_bio_submit_func
	.cfi_endproc
	.file	181 "/mnt/disk/jenkins/ci/workspace/chipset_pipeline_release/opensource/component_code/vendor/huawei/extra/build/build_script/kirin_kernel_release" "kernel/arch/arm64/include/asm/atomic.h"
	.file	182 "/mnt/disk/jenkins/ci/workspace/chipset_pipeline_release/opensource/component_code/vendor/huawei/extra/build/build_script/kirin_kernel_release" "kernel/include/linux/atomic-arch-fallback.h"
	.file	183 "/mnt/disk/jenkins/ci/workspace/chipset_pipeline_release/opensource/component_code/vendor/huawei/extra/build/build_script/kirin_kernel_release" "kernel/include/asm-generic/atomic-instrumented.h"
	.file	184 "/mnt/disk/jenkins/ci/workspace/chipset_pipeline_release/opensource/component_code/vendor/huawei/extra/build/build_script/kirin_kernel_release" "kernel/include/linux/bitops.h"
                                        // -- End function
	.p2align	2                               // -- Begin function mas_blk_latency_bio_endio_func
	.type	mas_blk_latency_bio_endio_func,@function
mas_blk_latency_bio_endio_func:         // @mas_blk_latency_bio_endio_func
.Lfunc_begin1:
	.loc	150 248 0                       // kernel/platform_source/basicplatform/block/mas_blk_latency.c:248:0
	.cfi_startproc
// %bb.0:
	//DEBUG_VALUE: mas_blk_latency_bio_endio_func:bio <- $x0
	stp	x29, x30, [sp, #-64]!           // 16-byte Folded Spill
	str	x23, [sp, #16]                  // 8-byte Folded Spill
	stp	x22, x21, [sp, #32]             // 16-byte Folded Spill
	stp	x20, x19, [sp, #48]             // 16-byte Folded Spill
	mov	x29, sp
	.cfi_def_cfa w29, 64
	.cfi_offset w19, -8
	.cfi_offset w20, -16
	.cfi_offset w21, -24
	.cfi_offset w22, -32
	.cfi_offset w23, -48
	.cfi_offset w30, -56
	.cfi_offset w29, -64
.Ltmp83:
	.loc	180 19 2 prologue_end           // kernel/arch/arm64/include/asm/current.h:19:2
	//APP
	mrs	x8, SP_EL0
	//NO_APP
.Ltmp84:
	//DEBUG_VALUE: get_current:sp_el0 <- $x8
	.file	185 "/mnt/disk/jenkins/ci/workspace/chipset_pipeline_release/opensource/component_code/vendor/huawei/extra/build/build_script/kirin_kernel_release" "kernel/arch/arm64/include/asm/preempt.h"
	.loc	185 33 9                        // kernel/arch/arm64/include/asm/preempt.h:33:9
	ldr	w8, [x8, #16]
.Ltmp85:
	.loc	150 251 41                      // kernel/platform_source/basicplatform/block/mas_blk_latency.c:251:41
	ldr	x20, [x0, #96]
.Ltmp86:
	//DEBUG_VALUE: mas_blk_latency_bio_endio_func:q <- $x20
	.loc	150 0 41 is_stmt 0              // kernel/platform_source/basicplatform/block/mas_blk_latency.c:0:41
	mov	w9, #1000
	mov	x19, x0
.Ltmp87:
	//DEBUG_VALUE: mas_blk_latency_bio_endio_func:bio <- $x19
	//DEBUG_VALUE: mas_blk_latency_bio_endio_func:bio <- $x19
	.loc	150 250 39 is_stmt 1            // kernel/platform_source/basicplatform/block/mas_blk_latency.c:250:39
	tst	w8, #0xffff00
	mov	w8, #34464
	movk	w8, #1, lsl #16
	csel	x22, x8, x9, eq
.Ltmp88:
	//DEBUG_VALUE: mas_blk_latency_bio_endio_func:timeout <- $x22
	.loc	150 253 8                       // kernel/platform_source/basicplatform/block/mas_blk_latency.c:253:8
	cbz	x20, .LBB1_8
.Ltmp89:
// %bb.1:
	//DEBUG_VALUE: mas_blk_latency_bio_endio_func:timeout <- $x22
	//DEBUG_VALUE: mas_blk_latency_bio_endio_func:q <- $x20
	//DEBUG_VALUE: mas_blk_latency_bio_endio_func:bio <- $x19
	//DEBUG_VALUE: mas_blk_bio_timeout:bio <- $x19
	//DEBUG_VALUE: mas_blk_bio_timeout:q <- $x20
	.loc	150 221 21                      // kernel/platform_source/basicplatform/block/mas_blk_latency.c:221:21
	bl	ktime_get
.Ltmp90:
	.loc	150 130 15                      // kernel/platform_source/basicplatform/block/mas_blk_latency.c:130:15
	ldr	x9, [x19, #88]
.Ltmp91:
	.loc	150 223 4                       // kernel/platform_source/basicplatform/block/mas_blk_latency.c:223:4
	ldr	x8, [x19, #152]
.Ltmp92:
	//DEBUG_VALUE: mas_blk_bio_is_hp:bio <- $x19
	//DEBUG_VALUE: bio_timeout_threshold:q <- $x20
	//DEBUG_VALUE: bio_timeout_threshold:bio <- $x19
	.loc	150 130 26                      // kernel/platform_source/basicplatform/block/mas_blk_latency.c:130:26
	tst	x9, #0x18
.Ltmp93:
	//DEBUG_VALUE: bio_timeout_threshold:bio <- $x19
	//DEBUG_VALUE: bio_timeout_threshold:q <- $x20
	.loc	150 145 6                       // kernel/platform_source/basicplatform/block/mas_blk_latency.c:145:6
	b.eq	.LBB1_3
.Ltmp94:
// %bb.2:
	//DEBUG_VALUE: mas_blk_latency_bio_endio_func:timeout <- $x22
	//DEBUG_VALUE: bio_timeout_threshold:q <- $x20
	//DEBUG_VALUE: mas_blk_bio_timeout:q <- $x20
	//DEBUG_VALUE: mas_blk_latency_bio_endio_func:q <- $x20
	//DEBUG_VALUE: bio_timeout_threshold:bio <- $x19
	//DEBUG_VALUE: mas_blk_bio_timeout:bio <- $x19
	//DEBUG_VALUE: mas_blk_latency_bio_endio_func:bio <- $x19
	//DEBUG_VALUE: hp_bio_timueout_threshold:bio <- $x19
	.loc	150 136 9                       // kernel/platform_source/basicplatform/block/mas_blk_latency.c:136:9
	tst	x9, #0x8
	mov	w9, #100
	mov	w10, #500
	csel	x9, x10, x9, eq
	b	.LBB1_6
.Ltmp95:
.LBB1_3:
	//DEBUG_VALUE: mas_blk_latency_bio_endio_func:timeout <- $x22
	//DEBUG_VALUE: bio_timeout_threshold:q <- $x20
	//DEBUG_VALUE: mas_blk_bio_timeout:q <- $x20
	//DEBUG_VALUE: mas_blk_latency_bio_endio_func:q <- $x20
	//DEBUG_VALUE: bio_timeout_threshold:bio <- $x19
	//DEBUG_VALUE: mas_blk_bio_timeout:bio <- $x19
	//DEBUG_VALUE: mas_blk_latency_bio_endio_func:bio <- $x19
	//DEBUG_VALUE: mas_blk_bio_is_cp:bio <- $x19
	.loc	1 318 15                        // kernel/include/platform_include/basicplatform/linux/mas/mas_blk.h:318:15
	ldr	w9, [x19, #24]
	mov	w10, #4096
	movk	w10, #32, lsl #16
	.loc	1 318 22 is_stmt 0              // kernel/include/platform_include/basicplatform/linux/mas/mas_blk.h:318:22
	tst	w9, w10
.Ltmp96:
	.loc	150 150 6 is_stmt 1             // kernel/platform_source/basicplatform/block/mas_blk_latency.c:150:6
	b.eq	.LBB1_5
.Ltmp97:
// %bb.4:
	//DEBUG_VALUE: mas_blk_latency_bio_endio_func:timeout <- $x22
	//DEBUG_VALUE: bio_timeout_threshold:q <- $x20
	//DEBUG_VALUE: mas_blk_bio_timeout:q <- $x20
	//DEBUG_VALUE: mas_blk_latency_bio_endio_func:q <- $x20
	//DEBUG_VALUE: mas_blk_bio_is_cp:bio <- $x19
	//DEBUG_VALUE: bio_timeout_threshold:bio <- $x19
	//DEBUG_VALUE: mas_blk_bio_timeout:bio <- $x19
	//DEBUG_VALUE: mas_blk_latency_bio_endio_func:bio <- $x19
	.loc	150 0 6 is_stmt 0               // kernel/platform_source/basicplatform/block/mas_blk_latency.c:0:6
	mov	w9, #1000
	b	.LBB1_6
.Ltmp98:
.LBB1_5:
	//DEBUG_VALUE: mas_blk_latency_bio_endio_func:timeout <- $x22
	//DEBUG_VALUE: bio_timeout_threshold:q <- $x20
	//DEBUG_VALUE: mas_blk_bio_timeout:q <- $x20
	//DEBUG_VALUE: mas_blk_latency_bio_endio_func:q <- $x20
	//DEBUG_VALUE: bio_timeout_threshold:bio <- $x19
	//DEBUG_VALUE: mas_blk_bio_timeout:bio <- $x19
	//DEBUG_VALUE: mas_blk_latency_bio_endio_func:bio <- $x19
	.loc	150 154 22 is_stmt 1            // kernel/platform_source/basicplatform/block/mas_blk_latency.c:154:22
	ldr	w9, [x20, #1328]
.Ltmp99:
.LBB1_6:
	//DEBUG_VALUE: mas_blk_latency_bio_endio_func:timeout <- $x22
	//DEBUG_VALUE: mas_blk_bio_timeout:q <- $x20
	//DEBUG_VALUE: mas_blk_latency_bio_endio_func:q <- $x20
	//DEBUG_VALUE: mas_blk_bio_timeout:bio <- $x19
	//DEBUG_VALUE: mas_blk_latency_bio_endio_func:bio <- $x19
	.loc	150 0 22 is_stmt 0              // kernel/platform_source/basicplatform/block/mas_blk_latency.c:0:22
	mov	w10, #16960
	movk	w10, #15, lsl #16
.Ltmp100:
	//DEBUG_VALUE: ktime_add_ms:msec <- $x9
	//DEBUG_VALUE: ktime_add_ms:kt <- $x8
	.loc	57 186 9 is_stmt 1              // kernel/include/linux/ktime.h:186:9
	madd	x8, x9, x10, x8
.Ltmp101:
	//DEBUG_VALUE: ktime_compare:cmp1 <- $x0
	//DEBUG_VALUE: ktime_after:cmp1 <- $x0
	//DEBUG_VALUE: ktime_compare:cmp2 <- undef
	//DEBUG_VALUE: ktime_after:cmp2 <- undef
	.loc	150 253 11                      // kernel/platform_source/basicplatform/block/mas_blk_latency.c:253:11
	cmp	x0, x8
	b.le	.LBB1_8
.Ltmp102:
// %bb.7:
	//DEBUG_VALUE: mas_blk_latency_bio_endio_func:timeout <- $x22
	//DEBUG_VALUE: mas_blk_latency_bio_endio_func:q <- $x20
	//DEBUG_VALUE: mas_blk_latency_bio_endio_func:bio <- $x19
	adrp	x0, latency_endbio_ratelmt_state
	adrp	x1, .L.str.52
	add	x0, x0, :lo12:latency_endbio_ratelmt_state
	add	x1, x1, :lo12:.L.str.52
	bl	___ratelimit
.Ltmp103:
	.loc	150 253 6 is_stmt 0             // kernel/platform_source/basicplatform/block/mas_blk_latency.c:253:6
	cbnz	w0, .LBB1_17
.Ltmp104:
.LBB1_8:
	//DEBUG_VALUE: mas_blk_latency_bio_endio_func:timeout <- $x22
	//DEBUG_VALUE: mas_blk_latency_bio_endio_func:q <- $x20
	//DEBUG_VALUE: mas_blk_latency_bio_endio_func:bio <- $x19
	.loc	150 259 6 is_stmt 1             // kernel/platform_source/basicplatform/block/mas_blk_latency.c:259:6
	add	x0, x19, #208                   // =208
.Ltmp105:
	.loc	150 257 26                      // kernel/platform_source/basicplatform/block/mas_blk_latency.c:257:26
	strb	wzr, [x19, #145]
.Ltmp106:
	.loc	150 259 6                       // kernel/platform_source/basicplatform/block/mas_blk_latency.c:259:6
	bl	del_timer
.Ltmp107:
	.loc	150 259 6 is_stmt 0             // kernel/platform_source/basicplatform/block/mas_blk_latency.c:259:6
	cbz	w0, .LBB1_11
.Ltmp108:
// %bb.9:
	//DEBUG_VALUE: mas_blk_latency_bio_endio_func:timeout <- $x22
	//DEBUG_VALUE: mas_blk_latency_bio_endio_func:q <- $x20
	//DEBUG_VALUE: mas_blk_latency_bio_endio_func:bio <- $x19
	.loc	150 260 3 is_stmt 1             // kernel/platform_source/basicplatform/block/mas_blk_latency.c:260:3
	mov	x0, x19
	bl	bio_put
.Ltmp109:
.LBB1_10:
	//DEBUG_VALUE: mas_blk_latency_bio_endio_func:q <- $x20
	//DEBUG_VALUE: mas_blk_latency_bio_endio_func:bio <- $x19
	.loc	150 270 37                      // kernel/platform_source/basicplatform/block/mas_blk_latency.c:270:37
	str	wzr, [x19, #256]
	.loc	150 272 22                      // kernel/platform_source/basicplatform/block/mas_blk_latency.c:272:22
	str	xzr, [x19, #104]
	.loc	150 273 1                       // kernel/platform_source/basicplatform/block/mas_blk_latency.c:273:1
	ldp	x20, x19, [sp, #48]             // 16-byte Folded Reload
.Ltmp110:
	//DEBUG_VALUE: mas_blk_latency_bio_endio_func:bio <- [DW_OP_LLVM_entry_value 1] $x0
	ldp	x22, x21, [sp, #32]             // 16-byte Folded Reload
	ldr	x23, [sp, #16]                  // 8-byte Folded Reload
	ldp	x29, x30, [sp], #64             // 16-byte Folded Reload
	ret
.Ltmp111:
.LBB1_11:
	//DEBUG_VALUE: mas_blk_latency_bio_endio_func:timeout <- $x22
	//DEBUG_VALUE: mas_blk_latency_bio_endio_func:q <- $x20
	//DEBUG_VALUE: mas_blk_latency_bio_endio_func:bio <- $x19
	//DEBUG_VALUE: mas_blk_latency_bio_endio_func:timeout <- $x22
	.loc	150 262 23                      // kernel/platform_source/basicplatform/block/mas_blk_latency.c:262:23
	ldr	w8, [x19, #256]
	.loc	150 262 45 is_stmt 0            // kernel/platform_source/basicplatform/block/mas_blk_latency.c:262:45
	cbz	w8, .LBB1_10
.Ltmp112:
.LBB1_12:                               // =>This Inner Loop Header: Depth=1
	//DEBUG_VALUE: mas_blk_latency_bio_endio_func:timeout <- $x22
	//DEBUG_VALUE: mas_blk_latency_bio_endio_func:q <- $x20
	//DEBUG_VALUE: mas_blk_latency_bio_endio_func:bio <- $x19
	//DEBUG_VALUE: mas_blk_latency_bio_endio_func:timeout <- [DW_OP_constu 1, DW_OP_minus, DW_OP_stack_value] $x22
	.loc	150 262 3                       // kernel/platform_source/basicplatform/block/mas_blk_latency.c:262:3
	cbz	x22, .LBB1_10
.Ltmp113:
// %bb.13:                              //   in Loop: Header=BB1_12 Depth=1
	//DEBUG_VALUE: mas_blk_latency_bio_endio_func:timeout <- [DW_OP_constu 1, DW_OP_minus, DW_OP_stack_value] $x22
	//DEBUG_VALUE: mas_blk_latency_bio_endio_func:q <- $x20
	//DEBUG_VALUE: mas_blk_latency_bio_endio_func:bio <- $x19
	.loc	150 263 4 is_stmt 1             // kernel/platform_source/basicplatform/block/mas_blk_latency.c:263:4
	mov	w0, #42950
.Ltmp114:
	.loc	150 262 55                      // kernel/platform_source/basicplatform/block/mas_blk_latency.c:262:55
	sub	x22, x22, #1                    // =1
.Ltmp115:
	//DEBUG_VALUE: mas_blk_latency_bio_endio_func:timeout <- $x22
	.loc	150 263 4                       // kernel/platform_source/basicplatform/block/mas_blk_latency.c:263:4
	bl	__const_udelay
.Ltmp116:
	.loc	150 262 23                      // kernel/platform_source/basicplatform/block/mas_blk_latency.c:262:23
	ldr	w8, [x19, #256]
	.loc	150 262 45 is_stmt 0            // kernel/platform_source/basicplatform/block/mas_blk_latency.c:262:45
	cbnz	w8, .LBB1_12
.Ltmp117:
// %bb.14:
	//DEBUG_VALUE: mas_blk_latency_bio_endio_func:timeout <- $x22
	//DEBUG_VALUE: mas_blk_latency_bio_endio_func:q <- $x20
	//DEBUG_VALUE: mas_blk_latency_bio_endio_func:bio <- $x19
	//DEBUG_VALUE: mas_blk_latency_bio_endio_func:timeout <- undef
	.loc	150 265 26 is_stmt 1            // kernel/platform_source/basicplatform/block/mas_blk_latency.c:265:26
	cbnz	x22, .LBB1_10
.Ltmp118:
// %bb.15:
	//DEBUG_VALUE: mas_blk_latency_bio_endio_func:q <- $x20
	//DEBUG_VALUE: mas_blk_latency_bio_endio_func:bio <- $x19
	.loc	150 266 4                       // kernel/platform_source/basicplatform/block/mas_blk_latency.c:266:4
	adrp	x0, latency_endbio_ratelmt_state
	adrp	x1, .L.str.53
	add	x0, x0, :lo12:latency_endbio_ratelmt_state
	add	x1, x1, :lo12:.L.str.53
	bl	___ratelimit
.Ltmp119:
	.loc	150 265 7                       // kernel/platform_source/basicplatform/block/mas_blk_latency.c:265:7
	cbz	w0, .LBB1_10
.Ltmp120:
// %bb.16:
	//DEBUG_VALUE: mas_blk_latency_bio_endio_func:q <- $x20
	//DEBUG_VALUE: mas_blk_latency_bio_endio_func:bio <- $x19
	.loc	150 268 4                       // kernel/platform_source/basicplatform/block/mas_blk_latency.c:268:4
	bl	dump_stack
.Ltmp121:
	.loc	150 0 4 is_stmt 0               // kernel/platform_source/basicplatform/block/mas_blk_latency.c:0:4
	b	.LBB1_10
.Ltmp122:
.LBB1_17:
	//DEBUG_VALUE: mas_blk_latency_bio_endio_func:timeout <- $x22
	//DEBUG_VALUE: mas_blk_latency_bio_endio_func:q <- $x20
	//DEBUG_VALUE: mas_blk_latency_bio_endio_func:bio <- $x19
	//DEBUG_VALUE: mas_blk_dump_timeouted_bio:bio <- $x19
	//DEBUG_VALUE: mas_blk_dump_timeouted_bio:q <- $x20
	.loc	150 230 28 is_stmt 1            // kernel/platform_source/basicplatform/block/mas_blk_latency.c:230:28
	mov	x0, x20
	bl	mas_blk_get_lld
.Ltmp123:
	.loc	150 231 33                      // kernel/platform_source/basicplatform/block/mas_blk_latency.c:231:33
	ldr	x23, [x20, #1440]
.Ltmp124:
	//DEBUG_VALUE: mas_blk_dump_timeouted_bio:ops <- $x23
	.loc	150 230 28                      // kernel/platform_source/basicplatform/block/mas_blk_latency.c:230:28
	mov	x21, x0
.Ltmp125:
	//DEBUG_VALUE: mas_blk_dump_timeouted_bio:lld <- $x21
	.loc	150 233 2                       // kernel/platform_source/basicplatform/block/mas_blk_latency.c:233:2
	mov	x0, x19
	mov	w1, wzr
	bl	mas_blk_dump_bio
.Ltmp126:
	.loc	150 234 2                       // kernel/platform_source/basicplatform/block/mas_blk_latency.c:234:2
	mov	x0, x20
	mov	w1, wzr
	bl	mas_blk_dump_queue_status
.Ltmp127:
	//DEBUG_VALUE: mas_blk_dump_fs:bio <- $x19
	.loc	1 573 11                        // kernel/include/platform_include/basicplatform/linux/mas/mas_blk.h:573:11
	ldr	x8, [x19, #304]
.Ltmp128:
	.loc	1 573 6 is_stmt 0               // kernel/include/platform_include/basicplatform/linux/mas/mas_blk.h:573:6
	cbz	x8, .LBB1_19
.Ltmp129:
// %bb.18:
	//DEBUG_VALUE: mas_blk_dump_timeouted_bio:ops <- $x23
	//DEBUG_VALUE: mas_blk_latency_bio_endio_func:timeout <- $x22
	//DEBUG_VALUE: mas_blk_dump_timeouted_bio:lld <- $x21
	//DEBUG_VALUE: mas_blk_dump_timeouted_bio:q <- $x20
	//DEBUG_VALUE: mas_blk_latency_bio_endio_func:q <- $x20
	//DEBUG_VALUE: mas_blk_dump_fs:bio <- $x19
	//DEBUG_VALUE: mas_blk_dump_timeouted_bio:bio <- $x19
	//DEBUG_VALUE: mas_blk_latency_bio_endio_func:bio <- $x19
	.loc	1 574 3 is_stmt 1               // kernel/include/platform_include/basicplatform/linux/mas/mas_blk.h:574:3
	blr	x8
.Ltmp130:
.LBB1_19:
	//DEBUG_VALUE: mas_blk_dump_timeouted_bio:ops <- $x23
	//DEBUG_VALUE: mas_blk_latency_bio_endio_func:timeout <- $x22
	//DEBUG_VALUE: mas_blk_dump_timeouted_bio:lld <- $x21
	//DEBUG_VALUE: mas_blk_dump_timeouted_bio:q <- $x20
	//DEBUG_VALUE: mas_blk_latency_bio_endio_func:q <- $x20
	//DEBUG_VALUE: mas_blk_dump_timeouted_bio:bio <- $x19
	//DEBUG_VALUE: mas_blk_latency_bio_endio_func:bio <- $x19
	.loc	150 237 11                      // kernel/platform_source/basicplatform/block/mas_blk_latency.c:237:11
	ldr	x8, [x21, #40]
.Ltmp131:
	.loc	150 237 6 is_stmt 0             // kernel/platform_source/basicplatform/block/mas_blk_latency.c:237:6
	cbz	x8, .LBB1_21
.Ltmp132:
// %bb.20:
	//DEBUG_VALUE: mas_blk_dump_timeouted_bio:ops <- $x23
	//DEBUG_VALUE: mas_blk_latency_bio_endio_func:timeout <- $x22
	//DEBUG_VALUE: mas_blk_dump_timeouted_bio:lld <- $x21
	//DEBUG_VALUE: mas_blk_dump_timeouted_bio:q <- $x20
	//DEBUG_VALUE: mas_blk_latency_bio_endio_func:q <- $x20
	//DEBUG_VALUE: mas_blk_dump_timeouted_bio:bio <- $x19
	//DEBUG_VALUE: mas_blk_latency_bio_endio_func:bio <- $x19
	.loc	150 238 3 is_stmt 1             // kernel/platform_source/basicplatform/block/mas_blk_latency.c:238:3
	mov	x0, x20
	mov	w1, wzr
	blr	x8
.Ltmp133:
.LBB1_21:
	//DEBUG_VALUE: mas_blk_dump_timeouted_bio:ops <- $x23
	//DEBUG_VALUE: mas_blk_latency_bio_endio_func:timeout <- $x22
	//DEBUG_VALUE: mas_blk_dump_timeouted_bio:lld <- $x21
	//DEBUG_VALUE: mas_blk_dump_timeouted_bio:q <- $x20
	//DEBUG_VALUE: mas_blk_latency_bio_endio_func:q <- $x20
	//DEBUG_VALUE: mas_blk_dump_timeouted_bio:bio <- $x19
	//DEBUG_VALUE: mas_blk_latency_bio_endio_func:bio <- $x19
	.loc	150 239 10                      // kernel/platform_source/basicplatform/block/mas_blk_latency.c:239:10
	cbz	x23, .LBB1_8
.Ltmp134:
// %bb.22:
	//DEBUG_VALUE: mas_blk_dump_timeouted_bio:ops <- $x23
	//DEBUG_VALUE: mas_blk_latency_bio_endio_func:timeout <- $x22
	//DEBUG_VALUE: mas_blk_dump_timeouted_bio:lld <- $x21
	//DEBUG_VALUE: mas_blk_dump_timeouted_bio:q <- $x20
	//DEBUG_VALUE: mas_blk_latency_bio_endio_func:q <- $x20
	//DEBUG_VALUE: mas_blk_dump_timeouted_bio:bio <- $x19
	//DEBUG_VALUE: mas_blk_latency_bio_endio_func:bio <- $x19
	.loc	150 239 18 is_stmt 0            // kernel/platform_source/basicplatform/block/mas_blk_latency.c:239:18
	ldr	x8, [x23, #168]
.Ltmp135:
	.loc	150 239 6                       // kernel/platform_source/basicplatform/block/mas_blk_latency.c:239:6
	cbz	x8, .LBB1_8
.Ltmp136:
// %bb.23:
	//DEBUG_VALUE: mas_blk_dump_timeouted_bio:ops <- $x23
	//DEBUG_VALUE: mas_blk_latency_bio_endio_func:timeout <- $x22
	//DEBUG_VALUE: mas_blk_dump_timeouted_bio:lld <- $x21
	//DEBUG_VALUE: mas_blk_dump_timeouted_bio:q <- $x20
	//DEBUG_VALUE: mas_blk_latency_bio_endio_func:q <- $x20
	//DEBUG_VALUE: mas_blk_dump_timeouted_bio:bio <- $x19
	//DEBUG_VALUE: mas_blk_latency_bio_endio_func:bio <- $x19
	.loc	150 240 3 is_stmt 1             // kernel/platform_source/basicplatform/block/mas_blk_latency.c:240:3
	mov	x0, x20
	mov	w1, wzr
	blr	x8
.Ltmp137:
	.loc	150 0 3 is_stmt 0               // kernel/platform_source/basicplatform/block/mas_blk_latency.c:0:3
	b	.LBB1_8
.Ltmp138:
.Lfunc_end1:
	.size	mas_blk_latency_bio_endio_func, .Lfunc_end1-mas_blk_latency_bio_endio_func
	.cfi_endproc
	.file	186 "/mnt/disk/jenkins/ci/workspace/chipset_pipeline_release/opensource/component_code/vendor/huawei/extra/build/build_script/kirin_kernel_release" "kernel/include/linux/timekeeping.h"
	.file	187 "/mnt/disk/jenkins/ci/workspace/chipset_pipeline_release/opensource/component_code/vendor/huawei/extra/build/build_script/kirin_kernel_release" "kernel/include/linux/printk.h"
                                        // -- End function
	.p2align	2                               // -- Begin function mas_blk_latency_req_init_func
	.type	mas_blk_latency_req_init_func,@function
mas_blk_latency_req_init_func:          // @mas_blk_latency_req_init_func
.Lfunc_begin2:
	.loc	150 276 0 is_stmt 1             // kernel/platform_source/basicplatform/block/mas_blk_latency.c:276:0
	.cfi_startproc
// %bb.0:
	//DEBUG_VALUE: mas_blk_latency_req_init_func:req <- $x0
	stp	x29, x30, [sp, #-32]!           // 16-byte Folded Spill
	str	x19, [sp, #16]                  // 8-byte Folded Spill
	mov	x29, sp
	.cfi_def_cfa w29, 32
	.cfi_offset w19, -16
	.cfi_offset w30, -24
	.cfi_offset w29, -32
.Ltmp139:
	//DEBUG_VALUE: mas_blk_latency_req_init_func:mas_req <- [DW_OP_plus_uconst 208, DW_OP_stack_value] $x0
	.loc	150 280 6 prologue_end          // kernel/platform_source/basicplatform/block/mas_blk_latency.c:280:6
	ldr	x8, [x0]
	mov	x19, x0
.Ltmp140:
	//DEBUG_VALUE: mas_blk_latency_req_init_func:req <- $x19
	//DEBUG_VALUE: mas_blk_latency_req_init_func:mas_req <- [DW_OP_plus_uconst 208, DW_OP_stack_value] $x19
	//DEBUG_VALUE: mas_blk_latency_req_init_func:req <- $x19
	cbz	x8, .LBB2_4
.Ltmp141:
// %bb.1:
	//DEBUG_VALUE: mas_blk_latency_req_init_func:mas_req <- [DW_OP_plus_uconst 208, DW_OP_stack_value] $x19
	//DEBUG_VALUE: mas_blk_latency_req_init_func:req <- $x19
	ldr	w8, [x8, #1324]
.Ltmp142:
	.loc	150 280 6 is_stmt 0             // kernel/platform_source/basicplatform/block/mas_blk_latency.c:280:6
	cbz	w8, .LBB2_4
.Ltmp143:
// %bb.2:
	//DEBUG_VALUE: mas_blk_latency_req_init_func:mas_req <- [DW_OP_plus_uconst 208, DW_OP_stack_value] $x19
	//DEBUG_VALUE: mas_blk_latency_req_init_func:req <- $x19
	.loc	150 0 6                         // kernel/platform_source/basicplatform/block/mas_blk_latency.c:0:6
	mov	w8, #76
.Ltmp144:
	.loc	150 282 3 is_stmt 1             // kernel/platform_source/basicplatform/block/mas_blk_latency.c:282:3
	add	x0, x19, #280                   // =280
.Ltmp145:
	.loc	150 283 32                      // kernel/platform_source/basicplatform/block/mas_blk_latency.c:283:32
	mov	w2, #320
	mov	w1, wzr
.Ltmp146:
	.loc	150 281 23                      // kernel/platform_source/basicplatform/block/mas_blk_latency.c:281:23
	strb	w8, [x19, #248]
.Ltmp147:
	//DEBUG_VALUE: mas_blk_latency_req_init_func:i <- 0
	.loc	150 283 32                      // kernel/platform_source/basicplatform/block/mas_blk_latency.c:283:32
	bl	memset
.Ltmp148:
	//DEBUG_VALUE: mas_blk_latency_req_init_func:i <- [DW_OP_plus_uconst 1, DW_OP_stack_value] undef
	.loc	180 19 2                        // kernel/arch/arm64/include/asm/current.h:19:2
	//APP
	mrs	x8, SP_EL0
	//NO_APP
.Ltmp149:
	//DEBUG_VALUE: get_current:sp_el0 <- $x8
	//DEBUG_VALUE: get_current:sp_el0 <- $x8
	//DEBUG_VALUE: get_current:sp_el0 <- $x8
	//DEBUG_VALUE: get_current:sp_el0 <- $x8
	.loc	150 284 26                      // kernel/platform_source/basicplatform/block/mas_blk_latency.c:284:26
	str	x8, [x19, #208]
	.loc	150 285 32                      // kernel/platform_source/basicplatform/block/mas_blk_latency.c:285:32
	ldr	w9, [x8, #1904]
	.loc	150 285 21 is_stmt 0            // kernel/platform_source/basicplatform/block/mas_blk_latency.c:285:21
	str	w9, [x19, #216]
	.loc	150 286 33 is_stmt 1            // kernel/platform_source/basicplatform/block/mas_blk_latency.c:286:33
	ldr	w9, [x8, #1908]
	.loc	150 286 22 is_stmt 0            // kernel/platform_source/basicplatform/block/mas_blk_latency.c:286:22
	str	w9, [x19, #220]
	.loc	150 287 3 is_stmt 1             // kernel/platform_source/basicplatform/block/mas_blk_latency.c:287:3
	ldr	x9, [x8, #2408]
	ldr	x8, [x8, #2400]
.Ltmp150:
	stp	x8, x9, [x19, #224]
.Ltmp151:
.LBB2_3:
	//DEBUG_VALUE: mas_blk_latency_req_init_func:mas_req <- [DW_OP_plus_uconst 208, DW_OP_stack_value] $x19
	//DEBUG_VALUE: mas_blk_latency_req_init_func:req <- $x19
	.loc	150 292 1                       // kernel/platform_source/basicplatform/block/mas_blk_latency.c:292:1
	ldr	x19, [sp, #16]                  // 8-byte Folded Reload
.Ltmp152:
	ldp	x29, x30, [sp], #32             // 16-byte Folded Reload
	ret
.LBB2_4:
.Ltmp153:
	//DEBUG_VALUE: mas_blk_latency_req_init_func:mas_req <- [DW_OP_plus_uconst 208, DW_OP_stack_value] $x19
	//DEBUG_VALUE: mas_blk_latency_req_init_func:req <- $x19
	.loc	150 290 23                      // kernel/platform_source/basicplatform/block/mas_blk_latency.c:290:23
	strb	wzr, [x19, #248]
	b	.LBB2_3
.Ltmp154:
.Lfunc_end2:
	.size	mas_blk_latency_req_init_func, .Lfunc_end2-mas_blk_latency_req_init_func
	.cfi_endproc
                                        // -- End function
	.p2align	2                               // -- Begin function mas_blk_latency_req_free_func
	.type	mas_blk_latency_req_free_func,@function
mas_blk_latency_req_free_func:          // @mas_blk_latency_req_free_func
.Lfunc_begin3:
	.loc	150 295 0                       // kernel/platform_source/basicplatform/block/mas_blk_latency.c:295:0
	.cfi_startproc
// %bb.0:
	//DEBUG_VALUE: mas_blk_latency_req_free_func:req <- $x0
	//DEBUG_VALUE: mas_blk_latency_req_free_func:req <- $x0
	.loc	150 298 14 prologue_end         // kernel/platform_source/basicplatform/block/mas_blk_latency.c:298:14
	ldr	x8, [x0, #56]
	.loc	150 296 26                      // kernel/platform_source/basicplatform/block/mas_blk_latency.c:296:26
	strb	wzr, [x0, #248]
	.loc	150 297 29                      // kernel/platform_source/basicplatform/block/mas_blk_latency.c:297:29
	str	xzr, [x0, #208]
	.loc	150 298 2                       // kernel/platform_source/basicplatform/block/mas_blk_latency.c:298:2
	cbz	x8, .LBB3_2
.Ltmp155:
.LBB3_1:                                // =>This Inner Loop Header: Depth=1
	//DEBUG_VALUE: mas_blk_latency_req_free_func:req <- $x0
	//DEBUG_VALUE: bio <- $x8
	.loc	150 301 23                      // kernel/platform_source/basicplatform/block/mas_blk_latency.c:301:23
	str	xzr, [x8, #104]
	.loc	150 302 19                      // kernel/platform_source/basicplatform/block/mas_blk_latency.c:302:19
	ldr	x8, [x8]
.Ltmp156:
	.loc	150 302 12 is_stmt 0            // kernel/platform_source/basicplatform/block/mas_blk_latency.c:302:12
	str	x8, [x0, #56]
.Ltmp157:
	.loc	150 298 2 is_stmt 1             // kernel/platform_source/basicplatform/block/mas_blk_latency.c:298:2
	cbnz	x8, .LBB3_1
.Ltmp158:
.LBB3_2:
	//DEBUG_VALUE: mas_blk_latency_req_free_func:req <- $x0
	.loc	150 304 1                       // kernel/platform_source/basicplatform/block/mas_blk_latency.c:304:1
	ret
.Ltmp159:
.Lfunc_end3:
	.size	mas_blk_latency_req_free_func, .Lfunc_end3-mas_blk_latency_req_free_func
	.cfi_endproc
                                        // -- End function
	.globl	mas_blk_latency_check_timer_expire // -- Begin function mas_blk_latency_check_timer_expire
	.p2align	2
	.type	mas_blk_latency_check_timer_expire,@function
mas_blk_latency_check_timer_expire:     // @mas_blk_latency_check_timer_expire
.Lfunc_begin4:
	.loc	150 312 0                       // kernel/platform_source/basicplatform/block/mas_blk_latency.c:312:0
	.cfi_startproc
// %bb.0:
	//DEBUG_VALUE: mas_blk_latency_check_timer_expire:bio <- $x0
	stp	x29, x30, [sp, #-48]!           // 16-byte Folded Spill
	stp	x22, x21, [sp, #16]             // 16-byte Folded Spill
	stp	x20, x19, [sp, #32]             // 16-byte Folded Spill
	mov	x29, sp
	.cfi_def_cfa w29, 48
	.cfi_offset w19, -8
	.cfi_offset w20, -16
	.cfi_offset w21, -24
	.cfi_offset w22, -32
	.cfi_offset w30, -40
	.cfi_offset w29, -48
	mov	x19, x0
.Ltmp160:
	//DEBUG_VALUE: mas_blk_latency_check_timer_expire:bio <- $x19
	//DEBUG_VALUE: mas_blk_latency_check_timer_expire:lld <- 0
	//DEBUG_VALUE: mas_blk_latency_check_timer_expire:q <- 0
	//DEBUG_VALUE: mas_blk_latency_check_timer_expire:bio <- $x19
	.file	188 "/mnt/disk/jenkins/ci/workspace/chipset_pipeline_release/opensource/component_code/vendor/huawei/extra/build/build_script/kirin_kernel_release" "kernel/include/linux/spinlock.h"
	.loc	188 354 2 prologue_end          // kernel/include/linux/spinlock.h:354:2
	adrp	x0, latency_log_protect_lock
	add	x0, x0, :lo12:latency_log_protect_lock
.Ltmp161:
	//DEBUG_VALUE: spin_lock:lock <- $x0
	bl	_raw_spin_lock
.Ltmp162:
	.loc	150 317 6                       // kernel/platform_source/basicplatform/block/mas_blk_latency.c:317:6
	ldrb	w3, [x19, #145]
.Ltmp163:
	.loc	150 317 6 is_stmt 0             // kernel/platform_source/basicplatform/block/mas_blk_latency.c:317:6
	cmp	w3, #76                         // =76
	b.ne	.LBB4_13
.Ltmp164:
// %bb.1:
	//DEBUG_VALUE: mas_blk_latency_check_timer_expire:bio <- $x19
	//DEBUG_VALUE: mas_blk_latency_check_timer_expire:q <- 0
	//DEBUG_VALUE: mas_blk_latency_check_timer_expire:lld <- 0
	.loc	150 323 12 is_stmt 1            // kernel/platform_source/basicplatform/block/mas_blk_latency.c:323:12
	ldr	x8, [x19, #8]
	.loc	150 323 20 is_stmt 0            // kernel/platform_source/basicplatform/block/mas_blk_latency.c:323:20
	cbz	x8, .LBB4_11
.Ltmp165:
// %bb.2:
	//DEBUG_VALUE: mas_blk_latency_check_timer_expire:bio <- $x19
	//DEBUG_VALUE: mas_blk_latency_check_timer_expire:q <- 0
	//DEBUG_VALUE: mas_blk_latency_check_timer_expire:lld <- 0
	.loc	150 323 38                      // kernel/platform_source/basicplatform/block/mas_blk_latency.c:323:38
	ldr	x20, [x8, #1056]
.Ltmp166:
	.loc	150 323 6                       // kernel/platform_source/basicplatform/block/mas_blk_latency.c:323:6
	cbz	x20, .LBB4_11
.Ltmp167:
// %bb.3:
	//DEBUG_VALUE: mas_blk_latency_check_timer_expire:bio <- $x19
	//DEBUG_VALUE: mas_blk_latency_check_timer_expire:q <- 0
	//DEBUG_VALUE: mas_blk_latency_check_timer_expire:lld <- 0
	//DEBUG_VALUE: mas_blk_latency_check_timer_expire:q <- $x20
	.loc	150 329 8 is_stmt 1             // kernel/platform_source/basicplatform/block/mas_blk_latency.c:329:8
	mov	x0, x20
	bl	mas_blk_get_lld
.Ltmp168:
	//DEBUG_VALUE: mas_blk_latency_check_timer_expire:lld <- undef
	.loc	150 331 7                       // kernel/platform_source/basicplatform/block/mas_blk_latency.c:331:7
	adrp	x0, latency_log_ratelmt_state
	adrp	x1, .L.str.49
	add	x0, x0, :lo12:latency_log_ratelmt_state
	add	x1, x1, :lo12:.L.str.49
	bl	___ratelimit
.Ltmp169:
	.loc	150 331 6 is_stmt 0             // kernel/platform_source/basicplatform/block/mas_blk_latency.c:331:6
	cbz	w0, .LBB4_12
.Ltmp170:
// %bb.4:
	//DEBUG_VALUE: mas_blk_latency_check_timer_expire:q <- $x20
	//DEBUG_VALUE: mas_blk_latency_check_timer_expire:bio <- $x19
	//DEBUG_VALUE: mas_blk_bio_is_cp:bio <- $x19
	.loc	1 318 15 is_stmt 1              // kernel/include/platform_include/basicplatform/linux/mas/mas_blk.h:318:15
	ldr	w8, [x19, #24]
	mov	w9, #4096
	movk	w9, #32, lsl #16
	.loc	1 318 9 is_stmt 0               // kernel/include/platform_include/basicplatform/linux/mas/mas_blk.h:318:9
	tst	w8, w9
	cset	w0, eq
.Ltmp171:
	.loc	150 0 0                         // kernel/platform_source/basicplatform/block/mas_blk_latency.c:0:0
	bl	dsm_block_record
.Ltmp172:
	//DEBUG_VALUE: mas_blk_dump_timeouted_bio:q <- $x20
	//DEBUG_VALUE: mas_blk_dump_timeouted_bio:bio <- $x19
	.loc	150 230 28 is_stmt 1            // kernel/platform_source/basicplatform/block/mas_blk_latency.c:230:28
	mov	x0, x20
	bl	mas_blk_get_lld
.Ltmp173:
	.loc	150 231 33                      // kernel/platform_source/basicplatform/block/mas_blk_latency.c:231:33
	ldr	x22, [x20, #1440]
.Ltmp174:
	//DEBUG_VALUE: mas_blk_dump_timeouted_bio:ops <- $x22
	.loc	150 230 28                      // kernel/platform_source/basicplatform/block/mas_blk_latency.c:230:28
	mov	x21, x0
.Ltmp175:
	//DEBUG_VALUE: mas_blk_dump_timeouted_bio:lld <- $x21
	.loc	150 233 2                       // kernel/platform_source/basicplatform/block/mas_blk_latency.c:233:2
	mov	x0, x19
	mov	w1, wzr
	bl	mas_blk_dump_bio
.Ltmp176:
	.loc	150 234 2                       // kernel/platform_source/basicplatform/block/mas_blk_latency.c:234:2
	mov	x0, x20
	mov	w1, wzr
	bl	mas_blk_dump_queue_status
.Ltmp177:
	//DEBUG_VALUE: mas_blk_dump_fs:bio <- $x19
	.loc	1 573 11                        // kernel/include/platform_include/basicplatform/linux/mas/mas_blk.h:573:11
	ldr	x8, [x19, #304]
.Ltmp178:
	.loc	1 573 6 is_stmt 0               // kernel/include/platform_include/basicplatform/linux/mas/mas_blk.h:573:6
	cbz	x8, .LBB4_6
.Ltmp179:
// %bb.5:
	//DEBUG_VALUE: mas_blk_dump_timeouted_bio:ops <- $x22
	//DEBUG_VALUE: mas_blk_dump_timeouted_bio:lld <- $x21
	//DEBUG_VALUE: mas_blk_dump_timeouted_bio:q <- $x20
	//DEBUG_VALUE: mas_blk_latency_check_timer_expire:q <- $x20
	//DEBUG_VALUE: mas_blk_dump_fs:bio <- $x19
	//DEBUG_VALUE: mas_blk_dump_timeouted_bio:bio <- $x19
	//DEBUG_VALUE: mas_blk_latency_check_timer_expire:bio <- $x19
	.loc	1 574 3 is_stmt 1               // kernel/include/platform_include/basicplatform/linux/mas/mas_blk.h:574:3
	blr	x8
.Ltmp180:
.LBB4_6:
	//DEBUG_VALUE: mas_blk_dump_timeouted_bio:ops <- $x22
	//DEBUG_VALUE: mas_blk_dump_timeouted_bio:lld <- $x21
	//DEBUG_VALUE: mas_blk_dump_timeouted_bio:q <- $x20
	//DEBUG_VALUE: mas_blk_latency_check_timer_expire:q <- $x20
	//DEBUG_VALUE: mas_blk_dump_timeouted_bio:bio <- $x19
	//DEBUG_VALUE: mas_blk_latency_check_timer_expire:bio <- $x19
	.loc	150 237 11                      // kernel/platform_source/basicplatform/block/mas_blk_latency.c:237:11
	ldr	x8, [x21, #40]
.Ltmp181:
	.loc	150 237 6 is_stmt 0             // kernel/platform_source/basicplatform/block/mas_blk_latency.c:237:6
	cbz	x8, .LBB4_8
.Ltmp182:
// %bb.7:
	//DEBUG_VALUE: mas_blk_dump_timeouted_bio:ops <- $x22
	//DEBUG_VALUE: mas_blk_dump_timeouted_bio:lld <- $x21
	//DEBUG_VALUE: mas_blk_dump_timeouted_bio:q <- $x20
	//DEBUG_VALUE: mas_blk_latency_check_timer_expire:q <- $x20
	//DEBUG_VALUE: mas_blk_dump_timeouted_bio:bio <- $x19
	//DEBUG_VALUE: mas_blk_latency_check_timer_expire:bio <- $x19
	.loc	150 238 3 is_stmt 1             // kernel/platform_source/basicplatform/block/mas_blk_latency.c:238:3
	mov	x0, x20
	mov	w1, wzr
	blr	x8
.Ltmp183:
.LBB4_8:
	//DEBUG_VALUE: mas_blk_dump_timeouted_bio:ops <- $x22
	//DEBUG_VALUE: mas_blk_dump_timeouted_bio:lld <- $x21
	//DEBUG_VALUE: mas_blk_dump_timeouted_bio:q <- $x20
	//DEBUG_VALUE: mas_blk_latency_check_timer_expire:q <- $x20
	//DEBUG_VALUE: mas_blk_dump_timeouted_bio:bio <- $x19
	//DEBUG_VALUE: mas_blk_latency_check_timer_expire:bio <- $x19
	.loc	150 239 10                      // kernel/platform_source/basicplatform/block/mas_blk_latency.c:239:10
	cbz	x22, .LBB4_12
.Ltmp184:
// %bb.9:
	//DEBUG_VALUE: mas_blk_dump_timeouted_bio:ops <- $x22
	//DEBUG_VALUE: mas_blk_dump_timeouted_bio:lld <- $x21
	//DEBUG_VALUE: mas_blk_dump_timeouted_bio:q <- $x20
	//DEBUG_VALUE: mas_blk_latency_check_timer_expire:q <- $x20
	//DEBUG_VALUE: mas_blk_dump_timeouted_bio:bio <- $x19
	//DEBUG_VALUE: mas_blk_latency_check_timer_expire:bio <- $x19
	.loc	150 239 18 is_stmt 0            // kernel/platform_source/basicplatform/block/mas_blk_latency.c:239:18
	ldr	x8, [x22, #168]
.Ltmp185:
	.loc	150 239 6                       // kernel/platform_source/basicplatform/block/mas_blk_latency.c:239:6
	cbz	x8, .LBB4_12
.Ltmp186:
// %bb.10:
	//DEBUG_VALUE: mas_blk_dump_timeouted_bio:ops <- $x22
	//DEBUG_VALUE: mas_blk_dump_timeouted_bio:lld <- $x21
	//DEBUG_VALUE: mas_blk_dump_timeouted_bio:q <- $x20
	//DEBUG_VALUE: mas_blk_latency_check_timer_expire:q <- $x20
	//DEBUG_VALUE: mas_blk_dump_timeouted_bio:bio <- $x19
	//DEBUG_VALUE: mas_blk_latency_check_timer_expire:bio <- $x19
	.loc	150 240 3 is_stmt 1             // kernel/platform_source/basicplatform/block/mas_blk_latency.c:240:3
	mov	x0, x20
	mov	w1, wzr
	blr	x8
.Ltmp187:
	.loc	150 0 3 is_stmt 0               // kernel/platform_source/basicplatform/block/mas_blk_latency.c:0:3
	b	.LBB4_12
.Ltmp188:
.LBB4_11:
	//DEBUG_VALUE: mas_blk_latency_check_timer_expire:bio <- $x19
	//DEBUG_VALUE: mas_blk_latency_check_timer_expire:q <- 0
	//DEBUG_VALUE: mas_blk_latency_check_timer_expire:lld <- 0
	.loc	150 324 3 is_stmt 1             // kernel/platform_source/basicplatform/block/mas_blk_latency.c:324:3
	adrp	x0, .L.str.48
	adrp	x1, .L__func__.mas_blk_latency_check_timer_expire
	add	x0, x0, :lo12:.L.str.48
	add	x1, x1, :lo12:.L__func__.mas_blk_latency_check_timer_expire
	mov	w2, #324
	bl	printk
.Ltmp189:
.LBB4_12:
	//DEBUG_VALUE: mas_blk_latency_check_timer_expire:bio <- $x19
	//DEBUG_LABEL: mas_blk_latency_check_timer_expire:put_bio
	.loc	188 394 2                       // kernel/include/linux/spinlock.h:394:2
	adrp	x0, latency_log_protect_lock
	add	x0, x0, :lo12:latency_log_protect_lock
.Ltmp190:
	//DEBUG_VALUE: spin_unlock:lock <- $x0
	bl	_raw_spin_unlock
.Ltmp191:
	.loc	150 347 2                       // kernel/platform_source/basicplatform/block/mas_blk_latency.c:347:2
	mov	x0, x19
	.loc	150 346 37                      // kernel/platform_source/basicplatform/block/mas_blk_latency.c:346:37
	str	wzr, [x19, #256]
	.loc	150 347 2                       // kernel/platform_source/basicplatform/block/mas_blk_latency.c:347:2
	bl	bio_put
.Ltmp192:
	.loc	150 348 1                       // kernel/platform_source/basicplatform/block/mas_blk_latency.c:348:1
	ldp	x20, x19, [sp, #32]             // 16-byte Folded Reload
.Ltmp193:
	ldp	x22, x21, [sp, #16]             // 16-byte Folded Reload
	ldp	x29, x30, [sp], #48             // 16-byte Folded Reload
	ret
.LBB4_13:
.Ltmp194:
	//DEBUG_VALUE: mas_blk_latency_check_timer_expire:bio <- $x19
	//DEBUG_VALUE: mas_blk_latency_check_timer_expire:q <- 0
	//DEBUG_VALUE: mas_blk_latency_check_timer_expire:lld <- 0
	.loc	150 318 3                       // kernel/platform_source/basicplatform/block/mas_blk_latency.c:318:3
	adrp	x0, .L.str.47
	adrp	x1, .L__func__.mas_blk_latency_check_timer_expire
	add	x0, x0, :lo12:.L.str.47
	add	x1, x1, :lo12:.L__func__.mas_blk_latency_check_timer_expire
	mov	w2, #319
	bl	printk
.Ltmp195:
	.loc	150 0 3 is_stmt 0               // kernel/platform_source/basicplatform/block/mas_blk_latency.c:0:3
	b	.LBB4_12
.Ltmp196:
.Lfunc_end4:
	.size	mas_blk_latency_check_timer_expire, .Lfunc_end4-mas_blk_latency_check_timer_expire
	.cfi_endproc
	.file	189 "/mnt/disk/jenkins/ci/workspace/chipset_pipeline_release/opensource/component_code/vendor/huawei/extra/build/build_script/kirin_kernel_release" "kernel/include/linux/spinlock_api_smp.h"
                                        // -- End function
	.globl	mas_blk_latency_bio_check       // -- Begin function mas_blk_latency_bio_check
	.p2align	2
	.type	mas_blk_latency_bio_check,@function
mas_blk_latency_bio_check:              // @mas_blk_latency_bio_check
.Lfunc_begin5:
	.loc	150 355 0 is_stmt 1             // kernel/platform_source/basicplatform/block/mas_blk_latency.c:355:0
	.cfi_startproc
// %bb.0:
	//DEBUG_VALUE: mas_blk_latency_bio_check:bio <- $x0
	//DEBUG_VALUE: mas_blk_latency_bio_check:bio_stage <- $w1
	stp	x29, x30, [sp, #-32]!           // 16-byte Folded Spill
	stp	x20, x19, [sp, #16]             // 16-byte Folded Spill
	mov	x29, sp
	.cfi_def_cfa w29, 32
	.cfi_offset w19, -8
	.cfi_offset w20, -16
	.cfi_offset w30, -24
	.cfi_offset w29, -32
	mov	x19, x0
.Ltmp197:
	//DEBUG_VALUE: mas_blk_latency_bio_check:bio <- $x19
	//DEBUG_VALUE: mas_blk_latency_bio_check:bio_stage <- $w1
	//DEBUG_VALUE: mas_blk_latency_bio_check:bio <- $x19
	.loc	150 356 6 prologue_end          // kernel/platform_source/basicplatform/block/mas_blk_latency.c:356:6
	cbz	w1, .LBB5_3
.Ltmp198:
// %bb.1:
	//DEBUG_VALUE: mas_blk_latency_bio_check:bio <- $x19
	//DEBUG_VALUE: mas_blk_latency_bio_check:bio_stage <- $w1
	ldrb	w8, [x19, #145]
.Ltmp199:
	.loc	150 356 6 is_stmt 0             // kernel/platform_source/basicplatform/block/mas_blk_latency.c:356:6
	cmp	w8, #76                         // =76
	b.ne	.LBB5_6
.Ltmp200:
// %bb.2:
	//DEBUG_VALUE: mas_blk_latency_bio_check:bio <- $x19
	//DEBUG_VALUE: mas_blk_latency_bio_check:bio_stage <- $w1
	.loc	150 360 6 is_stmt 1             // kernel/platform_source/basicplatform/block/mas_blk_latency.c:360:6
	cmp	w1, #1                          // =1
.Ltmp201:
	.loc	150 360 6 is_stmt 0             // kernel/platform_source/basicplatform/block/mas_blk_latency.c:360:6
	mov	w20, w1
.Ltmp202:
	//DEBUG_VALUE: mas_blk_latency_bio_check:bio_stage <- $w20
	.loc	150 360 6                       // kernel/platform_source/basicplatform/block/mas_blk_latency.c:360:6
	b.ls	.LBB5_4
	b	.LBB5_5
.Ltmp203:
.LBB5_3:
	//DEBUG_VALUE: mas_blk_latency_bio_check:bio <- $x19
	//DEBUG_VALUE: mas_blk_latency_bio_check:bio_stage <- $w1
	.loc	150 0 6                         // kernel/platform_source/basicplatform/block/mas_blk_latency.c:0:6
	mov	x20, xzr
.Ltmp204:
.LBB5_4:
	//DEBUG_VALUE: mas_blk_latency_bio_check:bio <- $x19
	.loc	150 360 31                      // kernel/platform_source/basicplatform/block/mas_blk_latency.c:360:31
	adrp	x8, bio_stage_cfg
	add	x8, x8, :lo12:bio_stage_cfg
	add	x8, x8, x20, lsl #4
	ldr	x8, [x8, #8]
	.loc	150 361 3 is_stmt 1             // kernel/platform_source/basicplatform/block/mas_blk_latency.c:361:3
	mov	x0, x19
	blr	x8
.Ltmp205:
.LBB5_5:
	//DEBUG_VALUE: mas_blk_latency_bio_check:bio <- $x19
	.loc	150 363 44                      // kernel/platform_source/basicplatform/block/mas_blk_latency.c:363:44
	bl	ktime_get
.Ltmp206:
	.loc	150 363 2 is_stmt 0             // kernel/platform_source/basicplatform/block/mas_blk_latency.c:363:2
	add	x8, x19, x20, lsl #3
	.loc	150 363 42                      // kernel/platform_source/basicplatform/block/mas_blk_latency.c:363:42
	str	x0, [x8, #152]
.Ltmp207:
.LBB5_6:
	//DEBUG_VALUE: mas_blk_latency_bio_check:bio <- $x19
	.loc	150 364 1 is_stmt 1             // kernel/platform_source/basicplatform/block/mas_blk_latency.c:364:1
	ldp	x20, x19, [sp, #16]             // 16-byte Folded Reload
.Ltmp208:
	ldp	x29, x30, [sp], #32             // 16-byte Folded Reload
	ret
.Ltmp209:
.Lfunc_end5:
	.size	mas_blk_latency_bio_check, .Lfunc_end5-mas_blk_latency_bio_check
	.cfi_endproc
                                        // -- End function
	.globl	mas_blk_latency_req_check       // -- Begin function mas_blk_latency_req_check
	.p2align	2
	.type	mas_blk_latency_req_check,@function
mas_blk_latency_req_check:              // @mas_blk_latency_req_check
.Lfunc_begin6:
	.loc	150 398 0                       // kernel/platform_source/basicplatform/block/mas_blk_latency.c:398:0
	.cfi_startproc
// %bb.0:
	//DEBUG_VALUE: mas_blk_latency_req_check:req <- $x0
	//DEBUG_VALUE: mas_blk_latency_req_check:req_stage <- $w1
	stp	x29, x30, [sp, #-32]!           // 16-byte Folded Spill
	stp	x20, x19, [sp, #16]             // 16-byte Folded Spill
	mov	x29, sp
	.cfi_def_cfa w29, 32
	.cfi_offset w19, -8
	.cfi_offset w20, -16
	.cfi_offset w30, -24
	.cfi_offset w29, -32
	mov	x19, x0
.Ltmp210:
	//DEBUG_VALUE: mas_blk_latency_req_check:req <- $x19
	//DEBUG_VALUE: mas_blk_latency_req_check:req_stage <- $w1
	//DEBUG_VALUE: mas_blk_latency_req_check:req <- $x19
	.loc	150 399 6 prologue_end          // kernel/platform_source/basicplatform/block/mas_blk_latency.c:399:6
	cbz	w1, .LBB6_4
.Ltmp211:
// %bb.1:
	//DEBUG_VALUE: mas_blk_latency_req_check:req <- $x19
	//DEBUG_VALUE: mas_blk_latency_req_check:req_stage <- $w1
	ldrb	w8, [x19, #248]
.Ltmp212:
	.loc	150 399 6 is_stmt 0             // kernel/platform_source/basicplatform/block/mas_blk_latency.c:399:6
	cmp	w8, #76                         // =76
	b.ne	.LBB6_8
.Ltmp213:
// %bb.2:
	//DEBUG_VALUE: mas_blk_latency_req_check:req <- $x19
	//DEBUG_VALUE: mas_blk_latency_req_check:req_stage <- $w1
	.loc	150 403 6 is_stmt 1             // kernel/platform_source/basicplatform/block/mas_blk_latency.c:403:6
	cmp	w1, #39                         // =39
	b.ne	.LBB6_6
.Ltmp214:
// %bb.3:
	//DEBUG_VALUE: mas_blk_latency_req_check:req <- $x19
	//DEBUG_VALUE: mas_blk_latency_req_check:req_stage <- $w1
	.loc	150 0 6 is_stmt 0               // kernel/platform_source/basicplatform/block/mas_blk_latency.c:0:6
	mov	w20, #39
	b	.LBB6_5
.Ltmp215:
.LBB6_4:
	//DEBUG_VALUE: mas_blk_latency_req_check:req <- $x19
	//DEBUG_VALUE: mas_blk_latency_req_check:req_stage <- $w1
	mov	x20, xzr
.Ltmp216:
.LBB6_5:
	//DEBUG_VALUE: mas_blk_latency_req_check:req <- $x19
	//DEBUG_VALUE: mas_blk_latency_req_check:req_stage <- $w1
	.loc	150 403 6                       // kernel/platform_source/basicplatform/block/mas_blk_latency.c:403:6
	adrp	x8, req_stage_cfg
	add	x8, x8, :lo12:req_stage_cfg
	add	x8, x8, x20, lsl #4
	ldr	x8, [x8, #8]
	.loc	150 404 3 is_stmt 1             // kernel/platform_source/basicplatform/block/mas_blk_latency.c:404:3
	mov	x0, x19
	blr	x8
.Ltmp217:
	//DEBUG_VALUE: mas_blk_latency_req_check:req_stage <- [DW_OP_LLVM_entry_value 1] $w1
	.loc	150 0 3 is_stmt 0               // kernel/platform_source/basicplatform/block/mas_blk_latency.c:0:3
	b	.LBB6_7
.Ltmp218:
.LBB6_6:
	//DEBUG_VALUE: mas_blk_latency_req_check:req <- $x19
	//DEBUG_VALUE: mas_blk_latency_req_check:req_stage <- $w1
	mov	w20, w1
.Ltmp219:
	//DEBUG_VALUE: mas_blk_latency_req_check:req_stage <- $w20
.LBB6_7:
	//DEBUG_VALUE: mas_blk_latency_req_check:req <- $x19
	.loc	150 406 44 is_stmt 1            // kernel/platform_source/basicplatform/block/mas_blk_latency.c:406:44
	bl	ktime_get
.Ltmp220:
	.loc	150 406 2 is_stmt 0             // kernel/platform_source/basicplatform/block/mas_blk_latency.c:406:2
	add	x8, x19, x20, lsl #3
	.loc	150 406 42                      // kernel/platform_source/basicplatform/block/mas_blk_latency.c:406:42
	str	x0, [x8, #280]
.Ltmp221:
.LBB6_8:
	//DEBUG_VALUE: mas_blk_latency_req_check:req <- $x19
	.loc	150 407 1 is_stmt 1             // kernel/platform_source/basicplatform/block/mas_blk_latency.c:407:1
	ldp	x20, x19, [sp, #16]             // 16-byte Folded Reload
.Ltmp222:
	ldp	x29, x30, [sp], #32             // 16-byte Folded Reload
	ret
.Ltmp223:
.Lfunc_end6:
	.size	mas_blk_latency_req_check, .Lfunc_end6-mas_blk_latency_req_check
	.cfi_endproc
                                        // -- End function
	.globl	mas_blk_latency_for_merge       // -- Begin function mas_blk_latency_for_merge
	.p2align	2
	.type	mas_blk_latency_for_merge,@function
mas_blk_latency_for_merge:              // @mas_blk_latency_for_merge
.Lfunc_begin7:
	.loc	150 414 0                       // kernel/platform_source/basicplatform/block/mas_blk_latency.c:414:0
	.cfi_startproc
// %bb.0:
	//DEBUG_VALUE: mas_blk_latency_for_merge:req <- $x0
	//DEBUG_VALUE: mas_blk_latency_for_merge:next <- $x1
	//DEBUG_VALUE: mas_blk_latency_for_merge:next <- $x1
	.loc	150 0 0 prologue_end            // kernel/platform_source/basicplatform/block/mas_blk_latency.c:0:0
	ldr	x8, [x1, #56]
.Ltmp224:
	//DEBUG_VALUE: mas_blk_latency_for_merge:bio <- undef
	//DEBUG_VALUE: mas_blk_latency_for_merge:bio <- $x8
	//DEBUG_VALUE: mas_blk_latency_for_merge:req <- $x0
	.loc	150 418 2                       // kernel/platform_source/basicplatform/block/mas_blk_latency.c:418:2
	cbz	x8, .LBB7_2
.Ltmp225:
.LBB7_1:                                // =>This Inner Loop Header: Depth=1
	//DEBUG_VALUE: mas_blk_latency_for_merge:bio <- $x8
	//DEBUG_VALUE: mas_blk_latency_for_merge:next <- $x1
	//DEBUG_VALUE: mas_blk_latency_for_merge:req <- $x0
	.loc	150 419 23                      // kernel/platform_source/basicplatform/block/mas_blk_latency.c:419:23
	str	x0, [x8, #104]
.Ltmp226:
	//DEBUG_VALUE: mas_blk_latency_for_merge:bio <- undef
	.loc	150 0 0 is_stmt 0               // kernel/platform_source/basicplatform/block/mas_blk_latency.c:0:0
	ldr	x8, [x8]
.Ltmp227:
	//DEBUG_VALUE: mas_blk_latency_for_merge:bio <- $x8
	.loc	150 418 2 is_stmt 1             // kernel/platform_source/basicplatform/block/mas_blk_latency.c:418:2
	cbnz	x8, .LBB7_1
.Ltmp228:
.LBB7_2:
	//DEBUG_VALUE: mas_blk_latency_for_merge:bio <- $x8
	//DEBUG_VALUE: mas_blk_latency_for_merge:next <- $x1
	//DEBUG_VALUE: mas_blk_latency_for_merge:req <- $x0
	.loc	150 422 1                       // kernel/platform_source/basicplatform/block/mas_blk_latency.c:422:1
	ret
.Ltmp229:
.Lfunc_end7:
	.size	mas_blk_latency_for_merge, .Lfunc_end7-mas_blk_latency_for_merge
	.cfi_endproc
                                        // -- End function
	.globl	mas_blk_queue_latency_init      // -- Begin function mas_blk_queue_latency_init
	.p2align	2
	.type	mas_blk_queue_latency_init,@function
mas_blk_queue_latency_init:             // @mas_blk_queue_latency_init
.Lfunc_begin8:
	.loc	150 425 0                       // kernel/platform_source/basicplatform/block/mas_blk_latency.c:425:0
	.cfi_startproc
// %bb.0:
	//DEBUG_VALUE: mas_blk_queue_latency_init:q <- $x0
	stp	x29, x30, [sp, #-32]!           // 16-byte Folded Spill
	str	x19, [sp, #16]                  // 8-byte Folded Spill
	mov	x29, sp
	.cfi_def_cfa w29, 32
	.cfi_offset w19, -16
	.cfi_offset w30, -24
	.cfi_offset w29, -32
	mov	x19, x0
.Ltmp230:
	//DEBUG_VALUE: mas_blk_queue_latency_init:q <- $x19
	.loc	150 426 32 prologue_end         // kernel/platform_source/basicplatform/block/mas_blk_latency.c:426:32
	bl	mas_blk_get_lld
.Ltmp231:
	//DEBUG_VALUE: mas_blk_queue_latency_init:blk_lld <- $x0
	.loc	150 428 16                      // kernel/platform_source/basicplatform/block/mas_blk_latency.c:428:16
	ldr	w8, [x0, #48]
.Ltmp232:
	.loc	150 428 6 is_stmt 0             // kernel/platform_source/basicplatform/block/mas_blk_latency.c:428:6
	cbnz	w8, .LBB8_2
.Ltmp233:
// %bb.1:
	//DEBUG_VALUE: mas_blk_queue_latency_init:q <- $x19
	//DEBUG_VALUE: mas_blk_queue_latency_init:blk_lld <- $x0
	.loc	150 0 6                         // kernel/platform_source/basicplatform/block/mas_blk_latency.c:0:6
	mov	w8, #2000
.Ltmp234:
	.loc	150 429 41 is_stmt 1            // kernel/platform_source/basicplatform/block/mas_blk_latency.c:429:41
	str	w8, [x0, #48]
.Ltmp235:
.LBB8_2:
	//DEBUG_VALUE: mas_blk_queue_latency_init:q <- $x19
	//DEBUG_VALUE: mas_blk_queue_latency_init:blk_lld <- $x0
	.loc	150 430 37                      // kernel/platform_source/basicplatform/block/mas_blk_latency.c:430:37
	str	w8, [x19, #1328]
	.loc	150 433 12                      // kernel/platform_source/basicplatform/block/mas_blk_latency.c:433:12
	ldr	w8, [x0, #24]
	.loc	150 433 3 is_stmt 0             // kernel/platform_source/basicplatform/block/mas_blk_latency.c:433:3
	ubfx	w8, w8, #1, #1
	.loc	150 432 33 is_stmt 1            // kernel/platform_source/basicplatform/block/mas_blk_latency.c:432:33
	str	w8, [x19, #1324]
	.loc	150 434 1                       // kernel/platform_source/basicplatform/block/mas_blk_latency.c:434:1
	ldr	x19, [sp, #16]                  // 8-byte Folded Reload
.Ltmp236:
	//DEBUG_VALUE: mas_blk_queue_latency_init:q <- [DW_OP_LLVM_entry_value 1] $x0
	ldp	x29, x30, [sp], #32             // 16-byte Folded Reload
	ret
.Ltmp237:
.Lfunc_end8:
	.size	mas_blk_queue_latency_init, .Lfunc_end8-mas_blk_queue_latency_init
	.cfi_endproc
                                        // -- End function
	.section	.init.text,"ax",@progbits
	.globl	mas_blk_latency_init            // -- Begin function mas_blk_latency_init
	.p2align	2
	.type	mas_blk_latency_init,@function
mas_blk_latency_init:                   // @mas_blk_latency_init
.Lfunc_begin9:
	.loc	150 437 0                       // kernel/platform_source/basicplatform/block/mas_blk_latency.c:437:0
	.cfi_startproc
// %bb.0:
	stp	x29, x30, [sp, #-16]!           // 16-byte Folded Spill
	mov	x29, sp
	.cfi_def_cfa w29, 16
	.cfi_offset w30, -8
	.cfi_offset w29, -16
.Ltmp238:
	.loc	150 438 2 prologue_end          // kernel/platform_source/basicplatform/block/mas_blk_latency.c:438:2
	adrp	x0, latency_log_protect_lock
	adrp	x1, .L.str.50
	adrp	x2, mas_blk_latency_init.__key
	add	x0, x0, :lo12:latency_log_protect_lock
	add	x1, x1, :lo12:.L.str.50
	add	x2, x2, :lo12:mas_blk_latency_init.__key
	mov	w3, #2
	bl	__raw_spin_lock_init
.Ltmp239:
	.loc	150 439 1                       // kernel/platform_source/basicplatform/block/mas_blk_latency.c:439:1
	ldp	x29, x30, [sp], #16             // 16-byte Folded Reload
	ret
.Ltmp240:
.Lfunc_end9:
	.size	mas_blk_latency_init, .Lfunc_end9-mas_blk_latency_init
	.cfi_endproc
                                        // -- End function
	.text
	.globl	blk_mq_tagset_latency_warning_set // -- Begin function blk_mq_tagset_latency_warning_set
	.p2align	2
	.type	blk_mq_tagset_latency_warning_set,@function
blk_mq_tagset_latency_warning_set:      // @blk_mq_tagset_latency_warning_set
.Lfunc_begin10:
	.loc	150 447 0                       // kernel/platform_source/basicplatform/block/mas_blk_latency.c:447:0
	.cfi_startproc
// %bb.0:
	//DEBUG_VALUE: blk_mq_tagset_latency_warning_set:tag_set <- $x0
	//DEBUG_VALUE: blk_mq_tagset_latency_warning_set:tag_set <- $x0
	//DEBUG_VALUE: blk_mq_tagset_latency_warning_set:warning_threshold_ms <- $w1
	//DEBUG_VALUE: blk_mq_tagset_latency_warning_set:warning_threshold_ms <- $w1
	.loc	150 448 29 prologue_end         // kernel/platform_source/basicplatform/block/mas_blk_latency.c:448:29
	ldr	x8, [x0, #88]
	.loc	150 449 51                      // kernel/platform_source/basicplatform/block/mas_blk_latency.c:449:51
	cmp	w1, #0                          // =0
	mov	w9, #2000
	csel	w9, w9, w1, eq
	.loc	150 448 29                      // kernel/platform_source/basicplatform/block/mas_blk_latency.c:448:29
	orr	x8, x8, #0x2
	str	x8, [x0, #88]
	.loc	150 449 49                      // kernel/platform_source/basicplatform/block/mas_blk_latency.c:449:49
	str	w9, [x0, #112]
	.loc	150 452 1                       // kernel/platform_source/basicplatform/block/mas_blk_latency.c:452:1
	ret
.Ltmp241:
.Lfunc_end10:
	.size	blk_mq_tagset_latency_warning_set, .Lfunc_end10-blk_mq_tagset_latency_warning_set
	.cfi_endproc
                                        // -- End function
	.globl	blk_queue_latency_warning_set   // -- Begin function blk_queue_latency_warning_set
	.p2align	2
	.type	blk_queue_latency_warning_set,@function
blk_queue_latency_warning_set:          // @blk_queue_latency_warning_set
.Lfunc_begin11:
	.loc	150 460 0                       // kernel/platform_source/basicplatform/block/mas_blk_latency.c:460:0
	.cfi_startproc
// %bb.0:
	//DEBUG_VALUE: blk_queue_latency_warning_set:q <- $x0
	//DEBUG_VALUE: blk_queue_latency_warning_set:warning_threshold_ms <- $w1
	stp	x29, x30, [sp, #-32]!           // 16-byte Folded Spill
	stp	x20, x19, [sp, #16]             // 16-byte Folded Spill
	mov	x29, sp
	.cfi_def_cfa w29, 32
	.cfi_offset w19, -8
	.cfi_offset w20, -16
	.cfi_offset w30, -24
	.cfi_offset w29, -32
	mov	w19, w1
.Ltmp242:
	//DEBUG_VALUE: blk_queue_latency_warning_set:warning_threshold_ms <- $w19
	mov	x20, x0
	//DEBUG_VALUE: blk_queue_latency_warning_set:warning_threshold_ms <- $w19
.Ltmp243:
	//DEBUG_VALUE: blk_queue_latency_warning_set:q <- $x20
	.loc	150 461 32 prologue_end         // kernel/platform_source/basicplatform/block/mas_blk_latency.c:461:32
	bl	mas_blk_get_lld
.Ltmp244:
	//DEBUG_VALUE: blk_queue_latency_warning_set:blk_lld <- $x0
	.loc	150 463 20                      // kernel/platform_source/basicplatform/block/mas_blk_latency.c:463:20
	ldr	x8, [x0, #24]
	.loc	150 465 3                       // kernel/platform_source/basicplatform/block/mas_blk_latency.c:465:3
	cmp	w19, #0                         // =0
	mov	w9, #2000
	mov	w10, #1
	csel	w9, w9, w19, eq
	.loc	150 463 20                      // kernel/platform_source/basicplatform/block/mas_blk_latency.c:463:20
	orr	x8, x8, #0x2
	.loc	150 464 40                      // kernel/platform_source/basicplatform/block/mas_blk_latency.c:464:40
	str	w9, [x0, #48]
	.loc	150 463 20                      // kernel/platform_source/basicplatform/block/mas_blk_latency.c:463:20
	str	x8, [x0, #24]
	.loc	150 467 37                      // kernel/platform_source/basicplatform/block/mas_blk_latency.c:467:37
	str	w9, [x20, #1328]
	.loc	150 469 33                      // kernel/platform_source/basicplatform/block/mas_blk_latency.c:469:33
	str	w10, [x20, #1324]
	.loc	150 470 1                       // kernel/platform_source/basicplatform/block/mas_blk_latency.c:470:1
	ldp	x20, x19, [sp, #16]             // 16-byte Folded Reload
.Ltmp245:
	ldp	x29, x30, [sp], #32             // 16-byte Folded Reload
	ret
.Ltmp246:
.Lfunc_end11:
	.size	blk_queue_latency_warning_set, .Lfunc_end11-blk_queue_latency_warning_set
	.cfi_endproc
                                        // -- End function
	.globl	mas_queue_io_latency_warning_threshold_store // -- Begin function mas_queue_io_latency_warning_threshold_store
	.p2align	2
	.type	mas_queue_io_latency_warning_threshold_store,@function
mas_queue_io_latency_warning_threshold_store: // @mas_queue_io_latency_warning_threshold_store
.Lfunc_begin12:
	.loc	150 502 0                       // kernel/platform_source/basicplatform/block/mas_blk_latency.c:502:0
	.cfi_startproc
// %bb.0:
	//DEBUG_VALUE: mas_queue_io_latency_warning_threshold_store:q <- $x0
	//DEBUG_VALUE: mas_queue_io_latency_warning_threshold_store:page <- $x1
	//DEBUG_VALUE: mas_queue_io_latency_warning_threshold_store:count <- $x2
	sub	sp, sp, #64                     // =64
	stp	x29, x30, [sp, #16]             // 16-byte Folded Spill
	stp	x22, x21, [sp, #32]             // 16-byte Folded Spill
	stp	x20, x19, [sp, #48]             // 16-byte Folded Spill
	add	x29, sp, #16                    // =16
	.cfi_def_cfa w29, 48
	.cfi_offset w19, -8
	.cfi_offset w20, -16
	.cfi_offset w21, -24
	.cfi_offset w22, -32
	.cfi_offset w30, -40
	.cfi_offset w29, -48
	mov	x20, x0
.Ltmp247:
	//DEBUG_VALUE: mas_queue_io_latency_warning_threshold_store:q <- $x20
	//DEBUG_VALUE: mas_queue_io_latency_warning_threshold_store:val <- [DW_OP_plus_uconst 8, DW_OP_deref] $sp
	//DEBUG_VALUE: mas_queue_io_latency_warning_threshold_store:count <- $x19
	//DEBUG_VALUE: mas_queue_io_latency_warning_threshold_store:page <- $x1
	//DEBUG_VALUE: mas_queue_io_latency_warning_threshold_store:q <- $x20
	.loc	150 506 8 prologue_end          // kernel/platform_source/basicplatform/block/mas_blk_latency.c:506:8
	add	x0, sp, #8                      // =8
	//DEBUG_VALUE: mas_queue_io_latency_warning_threshold_store:page <- $x1
	mov	x19, x2
.Ltmp248:
	bl	queue_var_store
.Ltmp249:
	//DEBUG_VALUE: mas_queue_io_latency_warning_threshold_store:page <- [DW_OP_LLVM_entry_value 1] $x1
	//DEBUG_VALUE: mas_queue_io_latency_warning_threshold_store:ret <- $x0
	.loc	150 507 6                       // kernel/platform_source/basicplatform/block/mas_blk_latency.c:507:6
	tbz	x0, #63, .LBB12_2
.Ltmp250:
.LBB12_1:
	//DEBUG_VALUE: mas_queue_io_latency_warning_threshold_store:q <- $x20
	//DEBUG_VALUE: mas_queue_io_latency_warning_threshold_store:page <- [DW_OP_LLVM_entry_value 1] $x1
	.loc	150 516 2                       // kernel/platform_source/basicplatform/block/mas_blk_latency.c:516:2
	mov	x0, x19
	ldp	x20, x19, [sp, #48]             // 16-byte Folded Reload
.Ltmp251:
	ldp	x22, x21, [sp, #32]             // 16-byte Folded Reload
	ldp	x29, x30, [sp, #16]             // 16-byte Folded Reload
	add	sp, sp, #64                     // =64
	ret
.Ltmp252:
.LBB12_2:
	//DEBUG_VALUE: mas_queue_io_latency_warning_threshold_store:q <- $x20
	//DEBUG_VALUE: mas_queue_io_latency_warning_threshold_store:ret <- $x0
	//DEBUG_VALUE: mas_queue_io_latency_warning_threshold_store:val <- [DW_OP_plus_uconst 8, DW_OP_deref] $sp
	//DEBUG_VALUE: mas_queue_io_latency_warning_threshold_store:page <- [DW_OP_LLVM_entry_value 1] $x1
	.loc	150 508 3                       // kernel/platform_source/basicplatform/block/mas_blk_latency.c:508:3
	ldr	x2, [sp, #8]
.Ltmp253:
	//DEBUG_VALUE: mas_queue_io_latency_warning_threshold_store:val <- $x2
	adrp	x0, .L.str.51
.Ltmp254:
	adrp	x1, .L__func__.mas_queue_io_latency_warning_threshold_store
	add	x0, x0, :lo12:.L.str.51
	add	x1, x1, :lo12:.L__func__.mas_queue_io_latency_warning_threshold_store
	bl	printk
.Ltmp255:
	.loc	150 511 31                      // kernel/platform_source/basicplatform/block/mas_blk_latency.c:511:31
	ldr	x21, [sp, #8]
.Ltmp256:
	//DEBUG_VALUE: mas_queue_io_latency_warning_threshold_store:val <- $x21
	.loc	150 475 32                      // kernel/platform_source/basicplatform/block/mas_blk_latency.c:475:32
	mov	x0, x20
.Ltmp257:
	.loc	150 511 31                      // kernel/platform_source/basicplatform/block/mas_blk_latency.c:511:31
	cmp	x21, #0                         // =0
	cset	w22, ne
.Ltmp258:
	//DEBUG_VALUE: mas_blk_queue_io_latency_check_enable:q <- $x20
	//DEBUG_VALUE: mas_blk_queue_io_latency_check_enable:enable <- $w22
	.loc	150 475 32                      // kernel/platform_source/basicplatform/block/mas_blk_latency.c:475:32
	bl	mas_blk_get_lld
.Ltmp259:
	.loc	150 477 19                      // kernel/platform_source/basicplatform/block/mas_blk_latency.c:477:19
	ldr	w8, [x20, #1324]
.Ltmp260:
	.loc	150 477 6 is_stmt 0             // kernel/platform_source/basicplatform/block/mas_blk_latency.c:477:6
	cmp	w8, w22
.Ltmp261:
	//DEBUG_VALUE: mas_blk_queue_io_latency_check_enable:blk_lld <- $x0
	b.eq	.LBB12_4
.Ltmp262:
// %bb.3:
	//DEBUG_VALUE: mas_queue_io_latency_warning_threshold_store:val <- $x21
	//DEBUG_VALUE: mas_blk_queue_io_latency_check_enable:q <- $x20
	//DEBUG_VALUE: mas_queue_io_latency_warning_threshold_store:q <- $x20
	//DEBUG_VALUE: mas_blk_queue_io_latency_check_enable:blk_lld <- $x0
	//DEBUG_VALUE: mas_blk_queue_io_latency_check_enable:enable <- $w22
	//DEBUG_VALUE: mas_queue_io_latency_warning_threshold_store:page <- [DW_OP_LLVM_entry_value 1] $x1
	.loc	150 480 33 is_stmt 1            // kernel/platform_source/basicplatform/block/mas_blk_latency.c:480:33
	str	w22, [x20, #1324]
.Ltmp263:
	.loc	150 0 0 is_stmt 0               // kernel/platform_source/basicplatform/block/mas_blk_latency.c:0:0
	ldr	x8, [x0, #24]
.Ltmp264:
	.loc	150 511 31 is_stmt 1            // kernel/platform_source/basicplatform/block/mas_blk_latency.c:511:31
	cmp	x21, #0                         // =0
	cset	w9, ne
.Ltmp265:
	.loc	150 481 6                       // kernel/platform_source/basicplatform/block/mas_blk_latency.c:481:6
	bfi	x8, x9, #1, #1
.Ltmp266:
	.loc	150 0 0 is_stmt 0               // kernel/platform_source/basicplatform/block/mas_blk_latency.c:0:0
	str	x8, [x0, #24]
.Ltmp267:
.LBB12_4:
	//DEBUG_VALUE: mas_queue_io_latency_warning_threshold_store:val <- $x21
	//DEBUG_VALUE: mas_queue_io_latency_warning_threshold_store:q <- $x20
	//DEBUG_VALUE: mas_queue_io_latency_warning_threshold_store:page <- [DW_OP_LLVM_entry_value 1] $x1
	.loc	150 513 31 is_stmt 1            // kernel/platform_source/basicplatform/block/mas_blk_latency.c:513:31
	ldr	w21, [sp, #8]
.Ltmp268:
	//DEBUG_VALUE: mas_blk_queue_io_latency_warning_threshold:warning_threshold_ms <- $w21
	//DEBUG_VALUE: mas_blk_queue_io_latency_warning_threshold:q <- $x20
	//DEBUG_VALUE: mas_queue_io_latency_warning_threshold_store:val <- undef
	.loc	150 490 32                      // kernel/platform_source/basicplatform/block/mas_blk_latency.c:490:32
	mov	x0, x20
	bl	mas_blk_get_lld
.Ltmp269:
	//DEBUG_VALUE: mas_blk_queue_io_latency_warning_threshold:blk_lld <- $x0
	.loc	150 493 3                       // kernel/platform_source/basicplatform/block/mas_blk_latency.c:493:3
	cmp	w21, #0                         // =0
	mov	w8, #2000
	csel	w8, w8, w21, eq
	.loc	150 492 40                      // kernel/platform_source/basicplatform/block/mas_blk_latency.c:492:40
	str	w8, [x0, #48]
	.loc	150 495 37                      // kernel/platform_source/basicplatform/block/mas_blk_latency.c:495:37
	str	w8, [x20, #1328]
	b	.LBB12_1
.Ltmp270:
.Lfunc_end12:
	.size	mas_queue_io_latency_warning_threshold_store, .Lfunc_end12-mas_queue_io_latency_warning_threshold_store
	.cfi_endproc
                                        // -- End function
	.type	.L.str,@object                  // @.str
	.section	.rodata.str1.1,"aMS",@progbits,1
.L.str:
	.asciz	"BIO_SUBMIT"
	.size	.L.str, 11

	.type	.L.str.1,@object                // @.str.1
.L.str.1:
	.asciz	"BIO_END"
	.size	.L.str.1, 8

	.type	.L.str.2,@object                // @.str.2
.L.str.2:
	.asciz	"BIO_ENTER"
	.size	.L.str.2, 10

	.type	.L.str.3,@object                // @.str.3
.L.str.3:
	.asciz	"BIO_MAKE_REQ"
	.size	.L.str.3, 13

	.type	.L.str.4,@object                // @.str.4
.L.str.4:
	.asciz	"BIO_WBT_BE"
	.size	.L.str.4, 11

	.type	.L.str.5,@object                // @.str.5
.L.str.5:
	.asciz	"BIO_WBT_DONE"
	.size	.L.str.5, 13

	.type	.L.str.6,@object                // @.str.6
.L.str.6:
	.asciz	"BIO_TAG_START"
	.size	.L.str.6, 14

	.type	bio_stage_cfg,@object           // @bio_stage_cfg
	.section	.rodata,"a",@progbits
	.globl	bio_stage_cfg
	.p2align	3
bio_stage_cfg:
	.xword	.L.str
	.xword	mas_blk_latency_bio_submit_func
	.xword	.L.str.1
	.xword	mas_blk_latency_bio_endio_func
	.xword	.L.str.2
	.xword	0
	.xword	.L.str.3
	.xword	0
	.xword	.L.str.4
	.xword	0
	.xword	.L.str.5
	.xword	0
	.xword	.L.str.6
	.xword	0
	.size	bio_stage_cfg, 112

	.type	.L.str.7,@object                // @.str.7
	.section	.rodata.str1.1,"aMS",@progbits,1
.L.str.7:
	.asciz	"REQ_INIT"
	.size	.L.str.7, 9

	.type	.L.str.8,@object                // @.str.8
.L.str.8:
	.asciz	"FSEQ_PREFLUSH"
	.size	.L.str.8, 14

	.type	.L.str.9,@object                // @.str.9
.L.str.9:
	.asciz	"FSEQ_DATA"
	.size	.L.str.9, 10

	.type	.L.str.10,@object               // @.str.10
.L.str.10:
	.asciz	"FSEQ_POSTFLUSH"
	.size	.L.str.10, 15

	.type	.L.str.11,@object               // @.str.11
.L.str.11:
	.asciz	"FSEQ_DONE"
	.size	.L.str.11, 10

	.type	.L.str.12,@object               // @.str.12
.L.str.12:
	.asciz	"REQ_RQ_START"
	.size	.L.str.12, 13

	.type	.L.str.13,@object               // @.str.13
.L.str.13:
	.asciz	"REQ_ADDTO_PLUGLIST"
	.size	.L.str.13, 19

	.type	.L.str.14,@object               // @.str.14
.L.str.14:
	.asciz	"REQ_FLUSH_PLUGLIST"
	.size	.L.str.14, 19

	.type	.L.str.15,@object               // @.str.15
.L.str.15:
	.asciz	"REQ_ADDTO_SYNC_LIST"
	.size	.L.str.15, 20

	.type	.L.str.16,@object               // @.str.16
.L.str.16:
	.asciz	"REQ_ADDTO_ASYNC_LIST"
	.size	.L.str.16, 21

	.type	.L.str.17,@object               // @.str.17
.L.str.17:
	.asciz	"REQ_QUEUE_ERR"
	.size	.L.str.17, 14

	.type	.L.str.18,@object               // @.str.18
.L.str.18:
	.asciz	"REQ_QUEUE_RQ"
	.size	.L.str.18, 13

	.type	.L.str.19,@object               // @.str.19
.L.str.19:
	.asciz	"REQ_SCSI_OUT"
	.size	.L.str.19, 13

	.type	.L.str.20,@object               // @.str.20
.L.str.20:
	.asciz	"REQ_SCSI_TARGET"
	.size	.L.str.20, 16

	.type	.L.str.21,@object               // @.str.21
.L.str.21:
	.asciz	"REQ_SCSI_HOST"
	.size	.L.str.21, 14

	.type	.L.str.22,@object               // @.str.22
.L.str.22:
	.asciz	"REQ_SCSI_RECOVERY"
	.size	.L.str.22, 18

	.type	.L.str.23,@object               // @.str.23
.L.str.23:
	.asciz	"REQ_SCSI_HBB"
	.size	.L.str.23, 13

	.type	.L.str.24,@object               // @.str.24
.L.str.24:
	.asciz	"REQ_SCSI_CAN"
	.size	.L.str.24, 13

	.type	.L.str.25,@object               // @.str.25
.L.str.25:
	.asciz	"REQ_SCSI_SELF_BLOCKED"
	.size	.L.str.25, 22

	.type	.L.str.26,@object               // @.str.26
.L.str.26:
	.asciz	"REQ_HOLD_START"
	.size	.L.str.26, 15

	.type	.L.str.27,@object               // @.str.27
.L.str.27:
	.asciz	"REQ_HOLD_FAIL"
	.size	.L.str.27, 14

	.type	.L.str.28,@object               // @.str.28
.L.str.28:
	.asciz	"REQ_HOLD_SUCCESS"
	.size	.L.str.28, 17

	.type	.L.str.29,@object               // @.str.29
.L.str.29:
	.asciz	"REQ_SQ_REQUEUE"
	.size	.L.str.29, 15

	.type	.L.str.30,@object               // @.str.30
.L.str.30:
	.asciz	"REQ_IRQ_DONE"
	.size	.L.str.30, 13

	.type	.L.str.31,@object               // @.str.31
.L.str.31:
	.asciz	"REQ_IRQ_DONE_UNISTORE"
	.size	.L.str.31, 22

	.type	.L.str.32,@object               // @.str.32
.L.str.32:
	.asciz	"REQ_IRQ_INSERT"
	.size	.L.str.32, 15

	.type	.L.str.33,@object               // @.str.33
.L.str.33:
	.asciz	"REQ_IRQ_FINISH_REQUEUE"
	.size	.L.str.33, 23

	.type	.L.str.34,@object               // @.str.34
.L.str.34:
	.asciz	"REQ_IRQ_EH_ADD"
	.size	.L.str.34, 15

	.type	.L.str.35,@object               // @.str.35
.L.str.35:
	.asciz	"REQ_EH_INC"
	.size	.L.str.35, 11

	.type	.L.str.36,@object               // @.str.36
.L.str.36:
	.asciz	"REQ_EH_STU"
	.size	.L.str.36, 11

	.type	.L.str.37,@object               // @.str.37
.L.str.37:
	.asciz	"REQ_EH_DEVICE"
	.size	.L.str.37, 14

	.type	.L.str.38,@object               // @.str.38
.L.str.38:
	.asciz	"REQ_EH_TARGET"
	.size	.L.str.38, 14

	.type	.L.str.39,@object               // @.str.39
.L.str.39:
	.asciz	"REQ_EH_BUS"
	.size	.L.str.39, 11

	.type	.L.str.40,@object               // @.str.40
.L.str.40:
	.asciz	"REQ_EH_HOST"
	.size	.L.str.40, 12

	.type	.L.str.41,@object               // @.str.41
.L.str.41:
	.asciz	"REQ_EH_OFFLINE"
	.size	.L.str.41, 15

	.type	.L.str.42,@object               // @.str.42
.L.str.42:
	.asciz	"REQ_EH_FLUSH"
	.size	.L.str.42, 13

	.type	.L.str.43,@object               // @.str.43
.L.str.43:
	.asciz	"REQ_UFS_EH_START"
	.size	.L.str.43, 17

	.type	.L.str.44,@object               // @.str.44
.L.str.44:
	.asciz	"REQ_UFS_EH_END"
	.size	.L.str.44, 15

	.type	.L.str.45,@object               // @.str.45
.L.str.45:
	.asciz	"REQ_RQ_UPDATE"
	.size	.L.str.45, 14

	.type	.L.str.46,@object               // @.str.46
.L.str.46:
	.asciz	"REQ_RQ_FREE"
	.size	.L.str.46, 12

	.type	req_stage_cfg,@object           // @req_stage_cfg
	.section	.rodata,"a",@progbits
	.globl	req_stage_cfg
	.p2align	3
req_stage_cfg:
	.xword	.L.str.7
	.xword	mas_blk_latency_req_init_func
	.xword	.L.str.8
	.xword	0
	.xword	.L.str.9
	.xword	0
	.xword	.L.str.10
	.xword	0
	.xword	.L.str.11
	.xword	0
	.xword	.L.str.12
	.xword	0
	.xword	.L.str.13
	.xword	0
	.xword	.L.str.14
	.xword	0
	.xword	.L.str.15
	.xword	0
	.xword	.L.str.16
	.xword	0
	.xword	.L.str.17
	.xword	0
	.xword	.L.str.18
	.xword	0
	.xword	.L.str.19
	.xword	0
	.xword	.L.str.20
	.xword	0
	.xword	.L.str.21
	.xword	0
	.xword	.L.str.22
	.xword	0
	.xword	.L.str.23
	.xword	0
	.xword	.L.str.24
	.xword	0
	.xword	.L.str.25
	.xword	0
	.xword	.L.str.26
	.xword	0
	.xword	.L.str.27
	.xword	0
	.xword	.L.str.28
	.xword	0
	.xword	.L.str.29
	.xword	0
	.xword	.L.str.30
	.xword	0
	.xword	.L.str.31
	.xword	0
	.xword	.L.str.32
	.xword	0
	.xword	.L.str.33
	.xword	0
	.xword	.L.str.34
	.xword	0
	.xword	.L.str.35
	.xword	0
	.xword	.L.str.36
	.xword	0
	.xword	.L.str.37
	.xword	0
	.xword	.L.str.38
	.xword	0
	.xword	.L.str.39
	.xword	0
	.xword	.L.str.40
	.xword	0
	.xword	.L.str.41
	.xword	0
	.xword	.L.str.42
	.xword	0
	.xword	.L.str.43
	.xword	0
	.xword	.L.str.44
	.xword	0
	.xword	.L.str.45
	.xword	0
	.xword	.L.str.46
	.xword	mas_blk_latency_req_free_func
	.size	req_stage_cfg, 640

	.type	latency_log_protect_lock,@object // @latency_log_protect_lock
	.local	latency_log_protect_lock
	.comm	latency_log_protect_lock,24,8
	.type	.L.str.47,@object               // @.str.47
	.section	.rodata.str1.1,"aMS",@progbits,1
.L.str.47:
	.asciz	"\0013[BLK-IO]%s %d Invalid fs_io_flag: 0x%x\n"
	.size	.L.str.47, 42

	.type	.L__func__.mas_blk_latency_check_timer_expire,@object // @__func__.mas_blk_latency_check_timer_expire
.L__func__.mas_blk_latency_check_timer_expire:
	.asciz	"mas_blk_latency_check_timer_expire"
	.size	.L__func__.mas_blk_latency_check_timer_expire, 35

	.type	.L.str.48,@object               // @.str.48
.L.str.48:
	.asciz	"\0013[BLK-IO]%s %d Invalid request queue !\n"
	.size	.L.str.48, 41

	.type	latency_log_ratelmt_state,@object // @latency_log_ratelmt_state
	.data
	.p2align	3
latency_log_ratelmt_state:
	.zero	4
	.word	3735899821                      // 0xdead4ead
	.word	4294967295                      // 0xffffffff
	.zero	4
	.xword	-1
	.word	750                             // 0x2ee
	.word	5                               // 0x5
	.word	0                               // 0x0
	.word	0                               // 0x0
	.xword	0                               // 0x0
	.xword	0                               // 0x0
	.size	latency_log_ratelmt_state, 56

	.type	.L.str.49,@object               // @.str.49
	.section	.rodata.str1.1,"aMS",@progbits,1
.L.str.49:
	.asciz	"io latency"
	.size	.L.str.49, 11

	.type	mas_blk_latency_init.__key,@object // @mas_blk_latency_init.__key
	.local	mas_blk_latency_init.__key
	.comm	mas_blk_latency_init.__key,1,1
	.type	.L.str.50,@object               // @.str.50
.L.str.50:
	.asciz	"&latency_log_protect_lock"
	.size	.L.str.50, 26

	.type	.L.str.51,@object               // @.str.51
.L.str.51:
	.asciz	"\0013[BLK-IO]%s: io latency warning threshold is set to %lu\n"
	.size	.L.str.51, 58

	.type	.L__func__.mas_queue_io_latency_warning_threshold_store,@object // @__func__.mas_queue_io_latency_warning_threshold_store
.L__func__.mas_queue_io_latency_warning_threshold_store:
	.asciz	"mas_queue_io_latency_warning_threshold_store"
	.size	.L__func__.mas_queue_io_latency_warning_threshold_store, 45

	.type	latency_endbio_ratelmt_state,@object // @latency_endbio_ratelmt_state
	.data
	.p2align	3
latency_endbio_ratelmt_state:
	.zero	4
	.word	3735899821                      // 0xdead4ead
	.word	4294967295                      // 0xffffffff
	.zero	4
	.xword	-1
	.word	1250                            // 0x4e2
	.word	10                              // 0xa
	.word	0                               // 0x0
	.word	0                               // 0x0
	.xword	0                               // 0x0
	.xword	0                               // 0x0
	.size	latency_endbio_ratelmt_state, 56

	.type	.L.str.52,@object               // @.str.52
	.section	.rodata.str1.1,"aMS",@progbits,1
.L.str.52:
	.asciz	"bio timeout"
	.size	.L.str.52, 12

	.type	.L.str.53,@object               // @.str.53
.L.str.53:
	.asciz	"Failed to wait io latency timer"
	.size	.L.str.53, 32
