	.text
	.section	.note.gnu.property,"a",@note
	.p2align	3
	.word	4
	.word	16
	.word	5
	.asciz	"GNU"
	.word	3221225472
	.word	4
	.word	3
	.word	0
.Lsec_end0:
	.text
	.file	"mas_blk_core.c"
	.file	1 "/mnt/disk/jenkins/ci/workspace/chipset_pipeline_release/opensource/component_code/vendor/huawei/extra/build/build_script/kirin_kernel_release" "kernel/include/linux/lockdep_types.h"
	.file	2 "/mnt/disk/jenkins/ci/workspace/chipset_pipeline_release/opensource/component_code/vendor/huawei/extra/build/build_script/kirin_kernel_release" "kernel/platform_source/basicplatform/block/mas_blk_core.c"
	.file	3 "/mnt/disk/jenkins/ci/workspace/chipset_pipeline_release/opensource/component_code/vendor/huawei/extra/build/build_script/kirin_kernel_release" "kernel/include/linux/blkdev.h"
	.file	4 "/mnt/disk/jenkins/ci/workspace/chipset_pipeline_release/opensource/component_code/vendor/huawei/extra/build/build_script/kirin_kernel_release" "kernel/include/platform_include/basicplatform/linux/mas/mas_blk.h"
	.file	5 "/mnt/disk/jenkins/ci/workspace/chipset_pipeline_release/opensource/component_code/vendor/huawei/extra/build/build_script/kirin_kernel_release" "kernel/include/linux/module.h"
	.file	6 "/mnt/disk/jenkins/ci/workspace/chipset_pipeline_release/opensource/component_code/vendor/huawei/extra/build/build_script/kirin_kernel_release" "kernel/include/linux/quota.h"
	.file	7 "/mnt/disk/jenkins/ci/workspace/chipset_pipeline_release/opensource/component_code/vendor/huawei/extra/build/build_script/kirin_kernel_release" "kernel/include/linux/hrtimer.h"
	.file	8 "/mnt/disk/jenkins/ci/workspace/chipset_pipeline_release/opensource/component_code/vendor/huawei/extra/build/build_script/kirin_kernel_release" "kernel/include/linux/mm.h"
	.file	9 "/mnt/disk/jenkins/ci/workspace/chipset_pipeline_release/opensource/component_code/vendor/huawei/extra/build/build_script/kirin_kernel_release" "kernel/include/linux/restart_block.h"
	.file	10 "/mnt/disk/jenkins/ci/workspace/chipset_pipeline_release/opensource/component_code/vendor/huawei/extra/build/build_script/kirin_kernel_release" "kernel/include/linux/device/driver.h"
	.file	11 "/mnt/disk/jenkins/ci/workspace/chipset_pipeline_release/opensource/component_code/vendor/huawei/extra/build/build_script/kirin_kernel_release" "kernel/include/linux/device.h"
	.file	12 "/mnt/disk/jenkins/ci/workspace/chipset_pipeline_release/opensource/component_code/vendor/huawei/extra/build/build_script/kirin_kernel_release" "kernel/include/linux/pm.h"
	.file	13 "/mnt/disk/jenkins/ci/workspace/chipset_pipeline_release/opensource/component_code/vendor/huawei/extra/build/build_script/kirin_kernel_release" "kernel/include/linux/kobject_ns.h"
	.file	14 "/mnt/disk/jenkins/ci/workspace/chipset_pipeline_release/opensource/component_code/vendor/huawei/extra/build/build_script/kirin_kernel_release" "kernel/include/linux/backing-dev-defs.h"
	.file	15 "/mnt/disk/jenkins/ci/workspace/chipset_pipeline_release/opensource/component_code/vendor/huawei/extra/build/build_script/kirin_kernel_release" "kernel/include/linux/migrate_mode.h"
	.file	16 "/mnt/disk/jenkins/ci/workspace/chipset_pipeline_release/opensource/component_code/vendor/huawei/extra/build/build_script/kirin_kernel_release" "kernel/include/linux/memremap.h"
	.file	17 "/mnt/disk/jenkins/ci/workspace/chipset_pipeline_release/opensource/component_code/vendor/huawei/extra/build/build_script/kirin_kernel_release" "kernel/include/linux/fs.h"
	.file	18 "/mnt/disk/jenkins/ci/workspace/chipset_pipeline_release/opensource/component_code/vendor/huawei/extra/build/build_script/kirin_kernel_release" "kernel/include/linux/pid.h"
	.file	19 "/mnt/disk/jenkins/ci/workspace/chipset_pipeline_release/opensource/component_code/vendor/huawei/extra/build/build_script/kirin_kernel_release" "kernel/include/linux/elevator.h"
	.file	20 "/mnt/disk/jenkins/ci/workspace/chipset_pipeline_release/opensource/component_code/vendor/huawei/extra/build/build_script/kirin_kernel_release" "kernel/include/linux/stddef.h"
	.file	21 "/mnt/disk/jenkins/ci/workspace/chipset_pipeline_release/opensource/component_code/vendor/huawei/extra/build/build_script/kirin_kernel_release" "kernel/include/linux/blk_types.h"
	.file	22 "/mnt/disk/jenkins/ci/workspace/chipset_pipeline_release/opensource/component_code/vendor/huawei/extra/build/build_script/kirin_kernel_release" "kernel/include/linux/types.h"
	.file	23 "/mnt/disk/jenkins/ci/workspace/chipset_pipeline_release/opensource/component_code/vendor/huawei/extra/build/build_script/kirin_kernel_release" "kernel/include/asm-generic/qspinlock_types.h"
	.file	24 "/mnt/disk/jenkins/ci/workspace/chipset_pipeline_release/opensource/component_code/vendor/huawei/extra/build/build_script/kirin_kernel_release" "kernel/include/uapi/asm-generic/int-ll64.h"
	.file	25 "/mnt/disk/jenkins/ci/workspace/chipset_pipeline_release/opensource/component_code/vendor/huawei/extra/build/build_script/kirin_kernel_release" "kernel/include/asm-generic/int-ll64.h"
	.file	26 "/mnt/disk/jenkins/ci/workspace/chipset_pipeline_release/opensource/component_code/vendor/huawei/extra/build/build_script/kirin_kernel_release" "kernel/include/linux/spinlock_types.h"
	.file	27 "/mnt/disk/jenkins/ci/workspace/chipset_pipeline_release/opensource/component_code/vendor/huawei/extra/build/build_script/kirin_kernel_release" "kernel/block/blk-mq.h"
	.file	28 "/mnt/disk/jenkins/ci/workspace/chipset_pipeline_release/opensource/component_code/vendor/huawei/extra/build/build_script/kirin_kernel_release" "kernel/include/linux/blk-mq.h"
	.file	29 "/mnt/disk/jenkins/ci/workspace/chipset_pipeline_release/opensource/component_code/vendor/huawei/extra/build/build_script/kirin_kernel_release" "kernel/include/asm-generic/atomic-long.h"
	.file	30 "/mnt/disk/jenkins/ci/workspace/chipset_pipeline_release/opensource/component_code/vendor/huawei/extra/build/build_script/kirin_kernel_release" "kernel/include/linux/workqueue.h"
	.file	31 "/mnt/disk/jenkins/ci/workspace/chipset_pipeline_release/opensource/component_code/vendor/huawei/extra/build/build_script/kirin_kernel_release" "kernel/include/linux/timer.h"
	.file	32 "/mnt/disk/jenkins/ci/workspace/chipset_pipeline_release/opensource/component_code/vendor/huawei/extra/build/build_script/kirin_kernel_release" "kernel/include/linux/cpumask.h"
	.file	33 "/mnt/disk/jenkins/ci/workspace/chipset_pipeline_release/opensource/component_code/vendor/huawei/extra/build/build_script/kirin_kernel_release" "kernel/block/blk.h"
	.file	34 "/mnt/disk/jenkins/ci/workspace/chipset_pipeline_release/opensource/component_code/vendor/huawei/extra/build/build_script/kirin_kernel_release" "kernel/include/linux/sbitmap.h"
	.file	35 "/mnt/disk/jenkins/ci/workspace/chipset_pipeline_release/opensource/component_code/vendor/huawei/extra/build/build_script/kirin_kernel_release" "kernel/include/linux/wait.h"
	.file	36 "/mnt/disk/jenkins/ci/workspace/chipset_pipeline_release/opensource/component_code/vendor/huawei/extra/build/build_script/kirin_kernel_release" "kernel/block/blk-mq-tag.h"
	.file	37 "/mnt/disk/jenkins/ci/workspace/chipset_pipeline_release/opensource/component_code/vendor/huawei/extra/build/build_script/kirin_kernel_release" "kernel/include/linux/rwsem.h"
	.file	38 "/mnt/disk/jenkins/ci/workspace/chipset_pipeline_release/opensource/component_code/vendor/huawei/extra/build/build_script/kirin_kernel_release" "kernel/include/linux/osq_lock.h"
	.file	39 "/mnt/disk/jenkins/ci/workspace/chipset_pipeline_release/opensource/component_code/vendor/huawei/extra/build/build_script/kirin_kernel_release" "kernel/arch/arm64/include/asm/thread_info.h"
	.file	40 "/mnt/disk/jenkins/ci/workspace/chipset_pipeline_release/opensource/component_code/vendor/huawei/extra/build/build_script/kirin_kernel_release" "kernel/include/linux/sched.h"
	.file	41 "/mnt/disk/jenkins/ci/workspace/chipset_pipeline_release/opensource/component_code/vendor/huawei/extra/build/build_script/kirin_kernel_release" "kernel/include/linux/refcount.h"
	.file	42 "/mnt/disk/jenkins/ci/workspace/chipset_pipeline_release/opensource/component_code/vendor/huawei/extra/build/build_script/kirin_kernel_release" "kernel/include/uapi/asm-generic/posix_types.h"
	.file	43 "/mnt/disk/jenkins/ci/workspace/chipset_pipeline_release/opensource/component_code/vendor/huawei/extra/build/build_script/kirin_kernel_release" "kernel/include/linux/llist.h"
	.file	44 "/mnt/disk/jenkins/ci/workspace/chipset_pipeline_release/opensource/component_code/vendor/huawei/extra/build/build_script/kirin_kernel_release" "kernel/include/linux/smp_types.h"
	.file	45 "/mnt/disk/jenkins/ci/workspace/chipset_pipeline_release/opensource/component_code/vendor/huawei/extra/build/build_script/kirin_kernel_release" "kernel/include/linux/rbtree.h"
	.file	46 "/mnt/disk/jenkins/ci/workspace/chipset_pipeline_release/opensource/component_code/vendor/huawei/extra/build/build_script/kirin_kernel_release" "kernel/include/linux/timerqueue.h"
	.file	47 "/mnt/disk/jenkins/ci/workspace/chipset_pipeline_release/opensource/component_code/vendor/huawei/extra/build/build_script/kirin_kernel_release" "kernel/include/linux/ktime.h"
	.file	48 "/mnt/disk/jenkins/ci/workspace/chipset_pipeline_release/opensource/component_code/vendor/huawei/extra/build/build_script/kirin_kernel_release" "kernel/include/linux/seqlock.h"
	.file	49 "/mnt/disk/jenkins/ci/workspace/chipset_pipeline_release/opensource/component_code/vendor/huawei/extra/build/build_script/kirin_kernel_release" "kernel/include/linux/plist.h"
	.file	50 "/mnt/disk/jenkins/ci/workspace/chipset_pipeline_release/opensource/component_code/vendor/huawei/extra/build/build_script/kirin_kernel_release" "kernel/include/linux/mm_types.h"
	.file	51 "/mnt/disk/jenkins/ci/workspace/chipset_pipeline_release/opensource/component_code/vendor/huawei/extra/build/build_script/kirin_kernel_release" "kernel/arch/arm64/include/asm/pgtable-types.h"
	.file	52 "/mnt/disk/jenkins/ci/workspace/chipset_pipeline_release/opensource/component_code/vendor/huawei/extra/build/build_script/kirin_kernel_release" "kernel/include/asm-generic/pgtable-nop4d.h"
	.file	53 "/mnt/disk/jenkins/ci/workspace/chipset_pipeline_release/opensource/component_code/vendor/huawei/extra/build/build_script/kirin_kernel_release" "kernel/include/asm-generic/pgtable-nopud.h"
	.file	54 "/mnt/disk/jenkins/ci/workspace/chipset_pipeline_release/opensource/component_code/vendor/huawei/extra/build/build_script/kirin_kernel_release" "kernel/include/linux/uidgid.h"
	.file	55 "/mnt/disk/jenkins/ci/workspace/chipset_pipeline_release/opensource/component_code/vendor/huawei/extra/build/build_script/kirin_kernel_release" "kernel/include/linux/dcache.h"
	.file	56 "/mnt/disk/jenkins/ci/workspace/chipset_pipeline_release/opensource/component_code/vendor/huawei/extra/build/build_script/kirin_kernel_release" "kernel/include/linux/list_bl.h"
	.file	57 "/mnt/disk/jenkins/ci/workspace/chipset_pipeline_release/opensource/component_code/vendor/huawei/extra/build/build_script/kirin_kernel_release" "kernel/include/linux/lockref.h"
	.file	58 "/mnt/disk/jenkins/ci/workspace/chipset_pipeline_release/opensource/component_code/vendor/huawei/extra/build/build_script/kirin_kernel_release" "kernel/include/linux/path.h"
	.file	59 "/mnt/disk/jenkins/ci/workspace/chipset_pipeline_release/opensource/component_code/vendor/huawei/extra/build/build_script/kirin_kernel_release" "kernel/include/linux/kobject.h"
	.file	60 "/mnt/disk/jenkins/ci/workspace/chipset_pipeline_release/opensource/component_code/vendor/huawei/extra/build/build_script/kirin_kernel_release" "kernel/include/linux/sysfs.h"
	.file	61 "/mnt/disk/jenkins/ci/workspace/chipset_pipeline_release/opensource/component_code/vendor/huawei/extra/build/build_script/kirin_kernel_release" "kernel/include/linux/pagemap.h"
	.file	62 "/mnt/disk/jenkins/ci/workspace/chipset_pipeline_release/opensource/component_code/vendor/huawei/extra/build/build_script/kirin_kernel_release" "kernel/include/linux/uio.h"
	.file	63 "/mnt/disk/jenkins/ci/workspace/chipset_pipeline_release/opensource/component_code/vendor/huawei/extra/build/build_script/kirin_kernel_release" "kernel/include/uapi/linux/uio.h"
	.file	64 "/mnt/disk/jenkins/ci/workspace/chipset_pipeline_release/opensource/component_code/vendor/huawei/extra/build/build_script/kirin_kernel_release" "kernel/include/linux/bvec.h"
	.file	65 "/mnt/disk/jenkins/ci/workspace/chipset_pipeline_release/opensource/component_code/vendor/huawei/extra/build/build_script/kirin_kernel_release" "kernel/include/uapi/linux/types.h"
	.file	66 "/mnt/disk/jenkins/ci/workspace/chipset_pipeline_release/opensource/component_code/vendor/huawei/extra/build/build_script/kirin_kernel_release" "kernel/include/linux/poll.h"
	.file	67 "/mnt/disk/jenkins/ci/workspace/chipset_pipeline_release/opensource/component_code/vendor/huawei/extra/build/build_script/kirin_kernel_release" "kernel/include/asm-generic/qrwlock_types.h"
	.file	68 "/mnt/disk/jenkins/ci/workspace/chipset_pipeline_release/opensource/component_code/vendor/huawei/extra/build/build_script/kirin_kernel_release" "kernel/include/linux/rwlock_types.h"
	.file	69 "/mnt/disk/jenkins/ci/workspace/chipset_pipeline_release/opensource/component_code/vendor/huawei/extra/build/build_script/kirin_kernel_release" "kernel/include/linux/nfs_fs_i.h"
	.file	70 "/mnt/disk/jenkins/ci/workspace/chipset_pipeline_release/opensource/component_code/vendor/huawei/extra/build/build_script/kirin_kernel_release" "kernel/include/linux/mutex.h"
	.file	71 "/mnt/disk/jenkins/ci/workspace/chipset_pipeline_release/opensource/component_code/vendor/huawei/extra/build/build_script/kirin_kernel_release" "kernel/include/linux/kref.h"
	.file	72 "/mnt/disk/jenkins/ci/workspace/chipset_pipeline_release/opensource/component_code/vendor/huawei/extra/build/build_script/kirin_kernel_release" "kernel/include/linux/pid_namespace.h"
	.file	73 "/mnt/disk/jenkins/ci/workspace/chipset_pipeline_release/opensource/component_code/vendor/huawei/extra/build/build_script/kirin_kernel_release" "kernel/include/linux/xarray.h"
	.file	74 "/mnt/disk/jenkins/ci/workspace/chipset_pipeline_release/opensource/component_code/vendor/huawei/extra/build/build_script/kirin_kernel_release" "kernel/include/linux/idr.h"
	.file	75 "/mnt/disk/jenkins/ci/workspace/chipset_pipeline_release/opensource/component_code/vendor/huawei/extra/build/build_script/kirin_kernel_release" "kernel/include/linux/ns_common.h"
	.file	76 "/mnt/disk/jenkins/ci/workspace/chipset_pipeline_release/opensource/component_code/vendor/huawei/extra/build/build_script/kirin_kernel_release" "kernel/include/linux/cred.h"
	.file	77 "/mnt/disk/jenkins/ci/workspace/chipset_pipeline_release/opensource/component_code/vendor/huawei/extra/build/build_script/kirin_kernel_release" "kernel/include/linux/capability.h"
	.file	78 "/mnt/disk/jenkins/ci/workspace/chipset_pipeline_release/opensource/component_code/vendor/huawei/extra/build/build_script/kirin_kernel_release" "kernel/include/linux/key.h"
	.file	79 "/mnt/disk/jenkins/ci/workspace/chipset_pipeline_release/opensource/component_code/vendor/huawei/extra/build/build_script/kirin_kernel_release" "kernel/include/linux/time64.h"
	.file	80 "/mnt/disk/jenkins/ci/workspace/chipset_pipeline_release/opensource/component_code/vendor/huawei/extra/build/build_script/kirin_kernel_release" "kernel/include/linux/assoc_array.h"
	.file	81 "/mnt/disk/jenkins/ci/workspace/chipset_pipeline_release/opensource/component_code/vendor/huawei/extra/build/build_script/kirin_kernel_release" "kernel/include/linux/sched/user.h"
	.file	82 "/mnt/disk/jenkins/ci/workspace/chipset_pipeline_release/opensource/component_code/vendor/huawei/extra/build/build_script/kirin_kernel_release" "kernel/include/linux/ratelimit_types.h"
	.file	83 "/mnt/disk/jenkins/ci/workspace/chipset_pipeline_release/opensource/component_code/vendor/huawei/extra/build/build_script/kirin_kernel_release" "kernel/include/linux/errseq.h"
	.file	84 "/mnt/disk/jenkins/ci/workspace/chipset_pipeline_release/opensource/component_code/vendor/huawei/extra/build/build_script/kirin_kernel_release" "kernel/include/linux/kernfs.h"
	.file	85 "/mnt/disk/jenkins/ci/workspace/chipset_pipeline_release/opensource/component_code/vendor/huawei/extra/build/build_script/kirin_kernel_release" "kernel/include/linux/completion.h"
	.file	86 "/mnt/disk/jenkins/ci/workspace/chipset_pipeline_release/opensource/component_code/vendor/huawei/extra/build/build_script/kirin_kernel_release" "kernel/include/linux/swait.h"
	.file	87 "/mnt/disk/jenkins/ci/workspace/chipset_pipeline_release/opensource/component_code/vendor/huawei/extra/build/build_script/kirin_kernel_release" "kernel/include/linux/export.h"
	.file	88 "/mnt/disk/jenkins/ci/workspace/chipset_pipeline_release/opensource/component_code/vendor/huawei/extra/build/build_script/kirin_kernel_release" "kernel/include/linux/moduleparam.h"
	.file	89 "/mnt/disk/jenkins/ci/workspace/chipset_pipeline_release/opensource/component_code/vendor/huawei/extra/build/build_script/kirin_kernel_release" "kernel/arch/arm64/include/asm/extable.h"
	.file	90 "/mnt/disk/jenkins/ci/workspace/chipset_pipeline_release/opensource/component_code/vendor/huawei/extra/build/build_script/kirin_kernel_release" "kernel/include/linux/rbtree_latch.h"
	.file	91 "/mnt/disk/jenkins/ci/workspace/chipset_pipeline_release/opensource/component_code/vendor/huawei/extra/build/build_script/kirin_kernel_release" "kernel/arch/arm64/include/asm/module.h"
	.file	92 "/mnt/disk/jenkins/ci/workspace/chipset_pipeline_release/opensource/component_code/vendor/huawei/extra/build/build_script/kirin_kernel_release" "kernel/include/uapi/linux/elf.h"
	.file	93 "/mnt/disk/jenkins/ci/workspace/chipset_pipeline_release/opensource/component_code/vendor/huawei/extra/build/build_script/kirin_kernel_release" "kernel/include/asm-generic/bug.h"
	.file	94 "/mnt/disk/jenkins/ci/workspace/chipset_pipeline_release/opensource/component_code/vendor/huawei/extra/build/build_script/kirin_kernel_release" "kernel/include/linux/tracepoint-defs.h"
	.file	95 "/mnt/disk/jenkins/ci/workspace/chipset_pipeline_release/opensource/component_code/vendor/huawei/extra/build/build_script/kirin_kernel_release" "kernel/include/linux/srcutree.h"
	.file	96 "/mnt/disk/jenkins/ci/workspace/chipset_pipeline_release/opensource/component_code/vendor/huawei/extra/build/build_script/kirin_kernel_release" "kernel/include/linux/rcu_segcblist.h"
	.file	97 "/mnt/disk/jenkins/ci/workspace/chipset_pipeline_release/opensource/component_code/vendor/huawei/extra/build/build_script/kirin_kernel_release" "kernel/include/linux/tracepoint.h"
	.file	98 "/mnt/disk/jenkins/ci/workspace/chipset_pipeline_release/opensource/component_code/vendor/huawei/extra/build/build_script/kirin_kernel_release" "kernel/include/linux/projid.h"
	.file	99 "/mnt/disk/jenkins/ci/workspace/chipset_pipeline_release/opensource/component_code/vendor/huawei/extra/build/build_script/kirin_kernel_release" "kernel/include/linux/shrinker.h"
	.file	100 "/mnt/disk/jenkins/ci/workspace/chipset_pipeline_release/opensource/component_code/vendor/huawei/extra/build/build_script/kirin_kernel_release" "kernel/include/linux/genhd.h"
	.file	101 "/mnt/disk/jenkins/ci/workspace/chipset_pipeline_release/opensource/component_code/vendor/huawei/extra/build/build_script/kirin_kernel_release" "kernel/include/linux/part_stat.h"
	.file	102 "/mnt/disk/jenkins/ci/workspace/chipset_pipeline_release/opensource/component_code/vendor/huawei/extra/build/build_script/kirin_kernel_release" "kernel/include/asm-generic/local.h"
	.file	103 "/mnt/disk/jenkins/ci/workspace/chipset_pipeline_release/opensource/component_code/vendor/huawei/extra/build/build_script/kirin_kernel_release" "kernel/include/linux/percpu-refcount.h"
	.file	104 "/mnt/disk/jenkins/ci/workspace/chipset_pipeline_release/opensource/component_code/vendor/huawei/extra/build/build_script/kirin_kernel_release" "kernel/include/linux/device/bus.h"
	.file	105 "/mnt/disk/jenkins/ci/workspace/chipset_pipeline_release/opensource/component_code/vendor/huawei/extra/build/build_script/kirin_kernel_release" "kernel/include/linux/pm_wakeup.h"
	.file	106 "/mnt/disk/jenkins/ci/workspace/chipset_pipeline_release/opensource/component_code/vendor/huawei/extra/build/build_script/kirin_kernel_release" "kernel/include/linux/energy_model.h"
	.file	107 "/mnt/disk/jenkins/ci/workspace/chipset_pipeline_release/opensource/component_code/vendor/huawei/extra/build/build_script/kirin_kernel_release" "kernel/arch/arm64/include/asm/device.h"
	.file	108 "/mnt/disk/jenkins/ci/workspace/chipset_pipeline_release/opensource/component_code/vendor/huawei/extra/build/build_script/kirin_kernel_release" "kernel/include/linux/fwnode.h"
	.file	109 "/mnt/disk/jenkins/ci/workspace/chipset_pipeline_release/opensource/component_code/vendor/huawei/extra/build/build_script/kirin_kernel_release" "kernel/include/linux/device/class.h"
	.file	110 "/mnt/disk/jenkins/ci/workspace/chipset_pipeline_release/opensource/component_code/vendor/huawei/extra/build/build_script/kirin_kernel_release" "kernel/include/uapi/linux/time_types.h"
	.file	111 "/mnt/disk/jenkins/ci/workspace/chipset_pipeline_release/opensource/component_code/vendor/huawei/extra/build/build_script/kirin_kernel_release" "kernel/include/linux/bio.h"
	.file	112 "/mnt/disk/jenkins/ci/workspace/chipset_pipeline_release/opensource/component_code/vendor/huawei/extra/build/build_script/kirin_kernel_release" "kernel/include/linux/mempool.h"
	.file	113 "/mnt/disk/jenkins/ci/workspace/chipset_pipeline_release/opensource/component_code/vendor/huawei/extra/build/build_script/kirin_kernel_release" "kernel/include/uapi/linux/blkzoned.h"
	.file	114 "/mnt/disk/jenkins/ci/workspace/chipset_pipeline_release/opensource/component_code/vendor/huawei/extra/build/build_script/kirin_kernel_release" "kernel/include/linux/percpu_counter.h"
	.file	115 "/mnt/disk/jenkins/ci/workspace/chipset_pipeline_release/opensource/component_code/vendor/huawei/extra/build/build_script/kirin_kernel_release" "kernel/include/linux/flex_proportions.h"
	.file	116 "/mnt/disk/jenkins/ci/workspace/chipset_pipeline_release/opensource/component_code/vendor/huawei/extra/build/build_script/kirin_kernel_release" "kernel/include/linux/rcu_sync.h"
	.file	117 "/mnt/disk/jenkins/ci/workspace/chipset_pipeline_release/opensource/component_code/vendor/huawei/extra/build/build_script/kirin_kernel_release" "kernel/include/linux/percpu-rwsem.h"
	.file	118 "/mnt/disk/jenkins/ci/workspace/chipset_pipeline_release/opensource/component_code/vendor/huawei/extra/build/build_script/kirin_kernel_release" "kernel/include/linux/rcuwait.h"
	.file	119 "/mnt/disk/jenkins/ci/workspace/chipset_pipeline_release/opensource/component_code/vendor/huawei/extra/build/build_script/kirin_kernel_release" "kernel/include/linux/uuid.h"
	.file	120 "/mnt/disk/jenkins/ci/workspace/chipset_pipeline_release/opensource/component_code/vendor/huawei/extra/build/build_script/kirin_kernel_release" "kernel/include/linux/list_lru.h"
	.file	121 "/mnt/disk/jenkins/ci/workspace/chipset_pipeline_release/opensource/component_code/vendor/huawei/extra/build/build_script/kirin_kernel_release" "kernel/include/linux/delayed_call.h"
	.file	122 "/mnt/disk/jenkins/ci/workspace/chipset_pipeline_release/opensource/component_code/vendor/huawei/extra/build/build_script/kirin_kernel_release" "kernel/include/linux/stat.h"
	.file	123 "/mnt/disk/jenkins/ci/workspace/chipset_pipeline_release/opensource/component_code/vendor/huawei/extra/build/build_script/kirin_kernel_release" "kernel/include/linux/mmzone.h"
	.file	124 "/mnt/disk/jenkins/ci/workspace/chipset_pipeline_release/opensource/component_code/vendor/huawei/extra/build/build_script/kirin_kernel_release" "kernel/arch/arm64/include/asm/page.h"
	.file	125 "/mnt/disk/jenkins/ci/workspace/chipset_pipeline_release/opensource/component_code/vendor/huawei/extra/build/build_script/kirin_kernel_release" "kernel/include/linux/range.h"
	.file	126 "/mnt/disk/jenkins/ci/workspace/chipset_pipeline_release/opensource/component_code/vendor/huawei/extra/build/build_script/kirin_kernel_release" "kernel/include/linux/mm_types_task.h"
	.file	127 "/mnt/disk/jenkins/ci/workspace/chipset_pipeline_release/opensource/component_code/vendor/huawei/extra/build/build_script/kirin_kernel_release" "kernel/arch/arm64/include/asm/mmu.h"
	.file	128 "/mnt/disk/jenkins/ci/workspace/chipset_pipeline_release/opensource/component_code/vendor/huawei/extra/build/build_script/kirin_kernel_release" "kernel/include/linux/uprobes.h"
	.file	129 "/mnt/disk/jenkins/ci/workspace/chipset_pipeline_release/opensource/component_code/vendor/huawei/extra/build/build_script/kirin_kernel_release" "kernel/include/linux/xreclaimer_types.h"
	.file	130 "/mnt/disk/jenkins/ci/workspace/chipset_pipeline_release/opensource/component_code/vendor/huawei/extra/build/build_script/kirin_kernel_release" "kernel/include/vdso/time32.h"
	.file	131 "/mnt/disk/jenkins/ci/workspace/chipset_pipeline_release/opensource/component_code/vendor/huawei/extra/build/build_script/kirin_kernel_release" "kernel/include/uapi/asm-generic/poll.h"
	.file	132 "/mnt/disk/jenkins/ci/workspace/chipset_pipeline_release/opensource/component_code/vendor/huawei/extra/build/build_script/kirin_kernel_release" "kernel/include/linux/posix-timers.h"
	.file	133 "/mnt/disk/jenkins/ci/workspace/chipset_pipeline_release/opensource/component_code/vendor/huawei/extra/build/build_script/kirin_kernel_release" "kernel/include/linux/nsproxy.h"
	.file	134 "/mnt/disk/jenkins/ci/workspace/chipset_pipeline_release/opensource/component_code/vendor/huawei/extra/build/build_script/kirin_kernel_release" "kernel/include/linux/sched/signal.h"
	.file	135 "/mnt/disk/jenkins/ci/workspace/chipset_pipeline_release/opensource/component_code/vendor/huawei/extra/build/build_script/kirin_kernel_release" "kernel/include/linux/signal_types.h"
	.file	136 "/mnt/disk/jenkins/ci/workspace/chipset_pipeline_release/opensource/component_code/vendor/huawei/extra/build/build_script/kirin_kernel_release" "kernel/include/uapi/asm-generic/signal.h"
	.file	137 "/mnt/disk/jenkins/ci/workspace/chipset_pipeline_release/opensource/component_code/vendor/huawei/extra/build/build_script/kirin_kernel_release" "kernel/include/linux/task_io_accounting.h"
	.file	138 "/mnt/disk/jenkins/ci/workspace/chipset_pipeline_release/opensource/component_code/vendor/huawei/extra/build/build_script/kirin_kernel_release" "kernel/include/uapi/linux/resource.h"
	.file	139 "/mnt/disk/jenkins/ci/workspace/chipset_pipeline_release/opensource/component_code/vendor/huawei/extra/build/build_script/kirin_kernel_release" "kernel/include/uapi/asm-generic/signal-defs.h"
	.file	140 "/mnt/disk/jenkins/ci/workspace/chipset_pipeline_release/opensource/component_code/vendor/huawei/extra/build/build_script/kirin_kernel_release" "kernel/include/linux/seccomp.h"
	.file	141 "/mnt/disk/jenkins/ci/workspace/chipset_pipeline_release/opensource/component_code/vendor/huawei/extra/build/build_script/kirin_kernel_release" "kernel/include/linux/iocontext.h"
	.file	142 "/mnt/disk/jenkins/ci/workspace/chipset_pipeline_release/opensource/component_code/vendor/huawei/extra/build/build_script/kirin_kernel_release" "kernel/include/uapi/asm-generic/siginfo.h"
	.file	143 "/mnt/disk/jenkins/ci/workspace/chipset_pipeline_release/opensource/component_code/vendor/huawei/extra/build/build_script/kirin_kernel_release" "kernel/include/linux/nodemask.h"
	.file	144 "/mnt/disk/jenkins/ci/workspace/chipset_pipeline_release/opensource/component_code/vendor/huawei/extra/build/build_script/kirin_kernel_release" "kernel/include/asm-generic/compat.h"
	.file	145 "/mnt/disk/jenkins/ci/workspace/chipset_pipeline_release/opensource/component_code/vendor/huawei/extra/build/build_script/kirin_kernel_release" "kernel/include/linux/compat.h"
	.file	146 "/mnt/disk/jenkins/ci/workspace/chipset_pipeline_release/opensource/component_code/vendor/huawei/extra/build/build_script/kirin_kernel_release" "kernel/arch/arm64/include/asm/tlbbatch.h"
	.file	147 "/mnt/disk/jenkins/ci/workspace/chipset_pipeline_release/opensource/component_code/vendor/huawei/extra/build/build_script/kirin_kernel_release" "kernel/arch/arm64/include/asm/processor.h"
	.file	148 "/mnt/disk/jenkins/ci/workspace/chipset_pipeline_release/opensource/component_code/vendor/huawei/extra/build/build_script/kirin_kernel_release" "kernel/arch/arm64/include/uapi/asm/ptrace.h"
	.file	149 "/mnt/disk/jenkins/ci/workspace/chipset_pipeline_release/opensource/component_code/vendor/huawei/extra/build/build_script/kirin_kernel_release" "kernel/arch/arm64/include/asm/pointer_auth.h"
	.file	150 "/mnt/disk/jenkins/ci/workspace/chipset_pipeline_release/opensource/component_code/vendor/huawei/extra/build/build_script/kirin_kernel_release" "kernel/include/linux/notifier.h"
	.file	151 "/mnt/disk/jenkins/ci/workspace/chipset_pipeline_release/opensource/component_code/vendor/huawei/extra/build/build_script/kirin_kernel_release" "kernel/include/linux/smp.h"
	.file	152 "/mnt/disk/jenkins/ci/workspace/chipset_pipeline_release/opensource/component_code/vendor/huawei/extra/build/build_script/kirin_kernel_release" "kernel/block/blk-stat.h"
	.file	153 "/mnt/disk/jenkins/ci/workspace/chipset_pipeline_release/opensource/component_code/vendor/huawei/extra/build/build_script/kirin_kernel_release" "kernel/include/linux/bsg.h"
	.file	154 "/mnt/disk/jenkins/ci/workspace/chipset_pipeline_release/opensource/component_code/vendor/huawei/extra/build/build_script/kirin_kernel_release" "kernel/include/uapi/linux/bsg.h"
	.globl	mas_blk_get_lld                 // -- Begin function mas_blk_get_lld
	.p2align	2
	.type	mas_blk_get_lld,@function
mas_blk_get_lld:                        // @mas_blk_get_lld
.Lfunc_begin0:
	.loc	2 42 0                          // kernel/platform_source/basicplatform/block/mas_blk_core.c:42:0
	.cfi_sections .debug_frame
	.cfi_startproc
// %bb.0:
	.loc	2 43 6 prologue_end             // kernel/platform_source/basicplatform/block/mas_blk_core.c:43:6
	hint	#34
.Ltmp0:
	//DEBUG_VALUE: mas_blk_get_lld:q <- $x0
	//DEBUG_VALUE: mas_blk_get_lld:q <- $x0
	ldr	x8, [x0, #48]
.Ltmp1:
	.loc	2 43 6 is_stmt 0                // kernel/platform_source/basicplatform/block/mas_blk_core.c:43:6
	cbz	x8, .LBB0_2
.Ltmp2:
// %bb.1:
	//DEBUG_VALUE: mas_blk_get_lld:q <- $x0
	.loc	2 44 14 is_stmt 1               // kernel/platform_source/basicplatform/block/mas_blk_core.c:44:14
	ldr	x8, [x0, #2552]
	.loc	2 44 11 is_stmt 0               // kernel/platform_source/basicplatform/block/mas_blk_core.c:44:11
	add	x9, x0, #1448                   // =1448
	add	x10, x8, #64                    // =64
	cmp	x8, #0                          // =0
	csel	x0, x9, x10, eq
.Ltmp3:
	//DEBUG_VALUE: mas_blk_get_lld:q <- [DW_OP_LLVM_entry_value 1] $x0
	.loc	2 50 1 is_stmt 1                // kernel/platform_source/basicplatform/block/mas_blk_core.c:50:1
	ret
.Ltmp4:
.LBB0_2:
	//DEBUG_VALUE: mas_blk_get_lld:q <- $x0
	.loc	2 46 13                         // kernel/platform_source/basicplatform/block/mas_blk_core.c:46:13
	add	x0, x0, #1448                   // =1448
.Ltmp5:
	//DEBUG_VALUE: mas_blk_get_lld:q <- [DW_OP_LLVM_entry_value 1] $x0
	.loc	2 50 1                          // kernel/platform_source/basicplatform/block/mas_blk_core.c:50:1
	ret
.Ltmp6:
.Lfunc_end0:
	.size	mas_blk_get_lld, .Lfunc_end0-mas_blk_get_lld
	.cfi_endproc
                                        // -- End function
	.globl	mas_blk_get_queue_by_lld        // -- Begin function mas_blk_get_queue_by_lld
	.p2align	2
	.type	mas_blk_get_queue_by_lld,@function
mas_blk_get_queue_by_lld:               // @mas_blk_get_queue_by_lld
.Lfunc_begin1:
	.loc	2 53 0                          // kernel/platform_source/basicplatform/block/mas_blk_core.c:53:0
	.cfi_startproc
// %bb.0:
	.loc	2 58 15 prologue_end            // kernel/platform_source/basicplatform/block/mas_blk_core.c:58:15
	hint	#34
.Ltmp7:
	//DEBUG_VALUE: mas_blk_get_queue_by_lld:lld <- $x0
	//DEBUG_VALUE: mas_blk_get_queue_by_lld:lld <- $x0
	//DEBUG_VALUE: mas_blk_get_queue_by_lld:tag_set <- 0
	ldr	w8, [x0, #4]
	.loc	2 58 2 is_stmt 0                // kernel/platform_source/basicplatform/block/mas_blk_core.c:58:2
	cmp	w8, #2                          // =2
	b.eq	.LBB1_3
.Ltmp8:
// %bb.1:
	//DEBUG_VALUE: mas_blk_get_queue_by_lld:lld <- $x0
	//DEBUG_VALUE: mas_blk_get_queue_by_lld:tag_set <- 0
	cbnz	w8, .LBB1_4
.Ltmp9:
// %bb.2:
	//DEBUG_VALUE: mas_blk_get_queue_by_lld:lld <- $x0
	//DEBUG_VALUE: mas_blk_get_queue_by_lld:tag_set <- 0
	.loc	2 60 40 is_stmt 1               // kernel/platform_source/basicplatform/block/mas_blk_core.c:60:40
	ldr	x0, [x0, #8]
.Ltmp10:
	//DEBUG_VALUE: mas_blk_get_queue_by_lld:lld <- [DW_OP_LLVM_entry_value 1] $x0
	.loc	2 76 1                          // kernel/platform_source/basicplatform/block/mas_blk_core.c:76:1
	ret
.Ltmp11:
.LBB1_3:
	//DEBUG_VALUE: mas_blk_get_queue_by_lld:lld <- $x0
	//DEBUG_VALUE: mas_blk_get_queue_by_lld:tag_set <- 0
	.loc	2 68 44                         // kernel/platform_source/basicplatform/block/mas_blk_core.c:68:44
	ldr	x8, [x0, #8]
.Ltmp12:
	//DEBUG_VALUE: mas_blk_get_queue_by_lld:tag_set <- $x8
	.loc	2 69 10                         // kernel/platform_source/basicplatform/block/mas_blk_core.c:69:10
	ldr	x8, [x8, #880]
.Ltmp13:
	//DEBUG_VALUE: __mptr <- $x8
	sub	x0, x8, #2560                   // =2560
.Ltmp14:
	//DEBUG_VALUE: mas_blk_get_queue_by_lld:lld <- [DW_OP_LLVM_entry_value 1] $x0
	.loc	2 76 1                          // kernel/platform_source/basicplatform/block/mas_blk_core.c:76:1
	ret
.Ltmp15:
.LBB1_4:
	//DEBUG_VALUE: mas_blk_get_queue_by_lld:lld <- $x0
	//DEBUG_VALUE: mas_blk_get_queue_by_lld:tag_set <- 0
	.loc	2 0 0 is_stmt 0                 // kernel/platform_source/basicplatform/block/mas_blk_core.c:0:0
	mov	x0, xzr
.Ltmp16:
	//DEBUG_VALUE: mas_blk_get_queue_by_lld:lld <- [DW_OP_LLVM_entry_value 1] $x0
	.loc	2 76 1                          // kernel/platform_source/basicplatform/block/mas_blk_core.c:76:1
	ret
.Ltmp17:
.Lfunc_end1:
	.size	mas_blk_get_queue_by_lld, .Lfunc_end1-mas_blk_get_queue_by_lld
	.cfi_endproc
                                        // -- End function
	.globl	blk_dio_ck                      // -- Begin function blk_dio_ck
	.p2align	2
	.type	blk_dio_ck,@function
blk_dio_ck:                             // @blk_dio_ck
.Lfunc_begin2:
	.loc	2 133 0 is_stmt 1               // kernel/platform_source/basicplatform/block/mas_blk_core.c:133:0
	.cfi_startproc
// %bb.0:
	//DEBUG_VALUE: blk_dio_ck:target_disk <- $x0
	//DEBUG_VALUE: blk_dio_ck:dio_start <- $x1
	//DEBUG_VALUE: blk_dio_ck:dio_op <- $w2
	//DEBUG_VALUE: blk_dio_ck:dio_page_count <- $w3
	//DEBUG_VALUE: blk_dio_ck:dio_page_count <- $w3
	//DEBUG_VALUE: blk_dio_ck:dio_op <- $w2
	//DEBUG_VALUE: blk_dio_ck:dio_start <- $x1
	//DEBUG_VALUE: blk_dio_ck:target_disk <- $x0
	hint	#25
	.cfi_negate_ra_state
	stp	x29, x30, [sp, #-48]!           // 16-byte Folded Spill
	str	x21, [sp, #16]                  // 8-byte Folded Spill
	stp	x20, x19, [sp, #32]             // 16-byte Folded Spill
	mov	x29, sp
	.cfi_def_cfa w29, 48
	.cfi_offset w19, -8
	.cfi_offset w20, -16
	.cfi_offset w21, -32
	.cfi_offset w30, -40
	.cfi_offset w29, -48
.Ltmp18:
	.loc	2 134 6 prologue_end            // kernel/platform_source/basicplatform/block/mas_blk_core.c:134:6
	cbz	x0, .LBB2_12
.Ltmp19:
// %bb.1:
	//DEBUG_VALUE: blk_dio_ck:dio_start <- $x1
	//DEBUG_VALUE: blk_dio_ck:target_disk <- $x0
	//DEBUG_VALUE: blk_dio_ck:dio_page_count <- $w3
	//DEBUG_VALUE: blk_dio_ck:dio_op <- $w2
	//DEBUG_VALUE: blk_dio_ck:dio_page_count <- $w3
	//DEBUG_VALUE: blk_dio_ck:dio_start <- $x1
	ldr	x8, [x0, #1064]
.Ltmp20:
	.loc	2 134 6 is_stmt 0               // kernel/platform_source/basicplatform/block/mas_blk_core.c:134:6
	cbz	x8, .LBB2_12
.Ltmp21:
// %bb.2:
	//DEBUG_VALUE: blk_dio_ck:dio_start <- $x1
	//DEBUG_VALUE: blk_dio_ck:target_disk <- $x0
	//DEBUG_VALUE: blk_dio_ck:dio_page_count <- $w3
	//DEBUG_VALUE: blk_dio_ck:dio_op <- $w2
	.loc	2 0 6                           // kernel/platform_source/basicplatform/block/mas_blk_core.c:0:6
	mov	w19, w3
.Ltmp22:
	//DEBUG_VALUE: blk_dio_ck:dio_page_count <- $w19
	//DEBUG_VALUE: blk_dio_ck:dio_page_count <- $w19
	mov	x20, x1
.Ltmp23:
	//DEBUG_VALUE: blk_dio_ck:dio_start <- $x20
	//DEBUG_VALUE: blk_dio_ck:dio_start <- $x20
	.loc	2 137 6 is_stmt 1               // kernel/platform_source/basicplatform/block/mas_blk_core.c:137:6
	cmp	w2, #1                          // =1
	b.eq	.LBB2_7
.Ltmp24:
// %bb.3:
	//DEBUG_VALUE: blk_dio_ck:dio_start <- $x20
	//DEBUG_VALUE: blk_dio_ck:target_disk <- $x0
	//DEBUG_VALUE: blk_dio_ck:dio_page_count <- $w19
	//DEBUG_VALUE: blk_dio_ck:dio_op <- $w2
	cbnz	w2, .LBB2_12
.Ltmp25:
// %bb.4:
	//DEBUG_VALUE: blk_dio_ck:dio_start <- $x20
	//DEBUG_VALUE: blk_dio_ck:target_disk <- $x0
	//DEBUG_VALUE: blk_dio_ck:dio_page_count <- $w19
	//DEBUG_VALUE: blk_dio_ck:dio_op <- $w2
	//DEBUG_VALUE: mas_blk_get_lld:q <- $x8
	.loc	2 43 6                          // kernel/platform_source/basicplatform/block/mas_blk_core.c:43:6
	ldr	x9, [x8, #48]
.Ltmp26:
	.loc	2 43 6 is_stmt 0                // kernel/platform_source/basicplatform/block/mas_blk_core.c:43:6
	cbz	x9, .LBB2_13
.Ltmp27:
// %bb.5:
	//DEBUG_VALUE: blk_dio_ck:dio_start <- $x20
	//DEBUG_VALUE: mas_blk_get_lld:q <- $x8
	//DEBUG_VALUE: blk_dio_ck:target_disk <- $x0
	//DEBUG_VALUE: blk_dio_ck:dio_page_count <- $w19
	//DEBUG_VALUE: blk_dio_ck:dio_op <- $w2
	.loc	2 44 14 is_stmt 1               // kernel/platform_source/basicplatform/block/mas_blk_core.c:44:14
	ldr	x9, [x8, #2552]
	.loc	2 44 11 is_stmt 0               // kernel/platform_source/basicplatform/block/mas_blk_core.c:44:11
	add	x8, x8, #1448                   // =1448
.Ltmp28:
	add	x10, x9, #64                    // =64
	cmp	x9, #0                          // =0
	csel	x8, x8, x10, eq
.Ltmp29:
.LBB2_6:
	//DEBUG_VALUE: blk_dio_ck:dio_start <- $x20
	//DEBUG_VALUE: blk_dio_ck:target_disk <- $x0
	//DEBUG_VALUE: blk_dio_ck:dio_page_count <- $w19
	//DEBUG_VALUE: blk_dio_ck:dio_op <- $w2
	.loc	2 138 54 is_stmt 1              // kernel/platform_source/basicplatform/block/mas_blk_core.c:138:54
	ldrsw	x21, [x8, #552]
.Ltmp30:
	//DEBUG_VALUE: blk_dio_do_vl:rate <- 3906
	//DEBUG_VALUE: blk_dio_do_vl:dio_page_count <- $w19
	//DEBUG_VALUE: blk_dio_do_vl:dio_start <- $x20
	//DEBUG_VALUE: blk_dio_do_vl:target_v <- $w21
	.loc	2 116 6                         // kernel/platform_source/basicplatform/block/mas_blk_core.c:116:6
	cbnz	w21, .LBB2_9
	b	.LBB2_12
.Ltmp31:
.LBB2_7:
	//DEBUG_VALUE: blk_dio_ck:dio_start <- $x20
	//DEBUG_VALUE: blk_dio_ck:target_disk <- $x0
	//DEBUG_VALUE: blk_dio_ck:dio_page_count <- $w19
	//DEBUG_VALUE: blk_dio_ck:dio_op <- $w2
	//DEBUG_VALUE: mas_blk_get_lld:q <- $x8
	.loc	2 43 6                          // kernel/platform_source/basicplatform/block/mas_blk_core.c:43:6
	ldr	x9, [x8, #48]
.Ltmp32:
	.loc	2 43 6 is_stmt 0                // kernel/platform_source/basicplatform/block/mas_blk_core.c:43:6
	cbz	x9, .LBB2_14
.Ltmp33:
// %bb.8:
	//DEBUG_VALUE: blk_dio_ck:dio_start <- $x20
	//DEBUG_VALUE: mas_blk_get_lld:q <- $x8
	//DEBUG_VALUE: blk_dio_ck:target_disk <- $x0
	//DEBUG_VALUE: blk_dio_ck:dio_page_count <- $w19
	//DEBUG_VALUE: blk_dio_ck:dio_op <- $w2
	.loc	2 44 14 is_stmt 1               // kernel/platform_source/basicplatform/block/mas_blk_core.c:44:14
	ldr	x9, [x8, #2552]
	.loc	2 44 11 is_stmt 0               // kernel/platform_source/basicplatform/block/mas_blk_core.c:44:11
	add	x8, x8, #1448                   // =1448
.Ltmp34:
	add	x10, x9, #64                    // =64
	cmp	x9, #0                          // =0
	csel	x8, x8, x10, eq
.Ltmp35:
	.loc	2 141 54 is_stmt 1              // kernel/platform_source/basicplatform/block/mas_blk_core.c:141:54
	ldrsw	x21, [x8, #556]
.Ltmp36:
	//DEBUG_VALUE: blk_dio_do_vl:rate <- 3906
	//DEBUG_VALUE: blk_dio_do_vl:dio_page_count <- $w19
	//DEBUG_VALUE: blk_dio_do_vl:dio_start <- $x20
	//DEBUG_VALUE: blk_dio_do_vl:target_v <- $w21
	.loc	2 116 6                         // kernel/platform_source/basicplatform/block/mas_blk_core.c:116:6
	cbz	w21, .LBB2_12
.Ltmp37:
.LBB2_9:
	//DEBUG_VALUE: blk_dio_ck:dio_start <- $x20
	//DEBUG_VALUE: blk_dio_ck:target_disk <- $x0
	//DEBUG_VALUE: blk_dio_ck:dio_page_count <- $w19
	//DEBUG_VALUE: blk_dio_ck:dio_op <- $w2
	//DEBUG_VALUE: blk_dio_do_vl:target_lat <- undef
	.loc	2 0 0 is_stmt 0                 // kernel/platform_source/basicplatform/block/mas_blk_core.c:0:0
	bl	ktime_get
.Ltmp38:
	//DEBUG_VALUE: blk_dio_ck:target_disk <- [DW_OP_LLVM_entry_value 1] $x0
	//DEBUG_VALUE: blk_dio_ck:dio_op <- [DW_OP_LLVM_entry_value 1] $w2
	//DEBUG_VALUE: ktime_us_delta:earlier <- $x20
	//DEBUG_VALUE: ktime_us_delta:later <- $x0
	sub	x8, x0, x20
.Ltmp39:
	//DEBUG_VALUE: ktime_divns:div <- 1000
	//DEBUG_VALUE: blk_dio_do_vl:real_lat <- [DW_OP_constu 1000, DW_OP_div, DW_OP_stack_value] $x8
	//DEBUG_VALUE: ktime_divns:kt <- $x8
	//DEBUG_VALUE: ktime_to_us:kt <- $x8
	cmn	x8, #999                        // =999
	b.lt	.LBB2_12
.Ltmp40:
// %bb.10:
	//DEBUG_VALUE: ktime_us_delta:earlier <- $x20
	//DEBUG_VALUE: blk_dio_ck:dio_start <- $x20
	//DEBUG_VALUE: ktime_to_us:kt <- $x8
	//DEBUG_VALUE: ktime_divns:kt <- $x8
	//DEBUG_VALUE: blk_dio_do_vl:real_lat <- [DW_OP_constu 1000, DW_OP_div, DW_OP_stack_value] $x8
	//DEBUG_VALUE: ktime_us_delta:later <- $x0
	//DEBUG_VALUE: blk_dio_ck:dio_page_count <- $w19
	//DEBUG_VALUE: ktime_divns:div <- 1000
	//DEBUG_VALUE: blk_dio_ck:target_disk <- [DW_OP_LLVM_entry_value 1] $x0
	//DEBUG_VALUE: blk_dio_ck:dio_op <- [DW_OP_LLVM_entry_value 1] $w2
	mov	x9, #2097
	movk	x9, #7340, lsl #16
	movk	x9, #25690, lsl #32
	movk	x9, #57147, lsl #48
	mov	w10, #3906
	smulh	x8, x8, x9
.Ltmp41:
	smull	x9, w19, w10
	asr	x10, x8, #7
	add	x8, x10, x8, lsr #63
	//DEBUG_VALUE: blk_dio_do_vl:real_lat <- [DW_OP_constu 1000, DW_OP_div, DW_OP_stack_value] undef
	sdiv	x9, x9, x21
	//DEBUG_VALUE: blk_dio_do_vl:target_lat <- $x9
	add	x0, x9, x8
.Ltmp42:
	//DEBUG_VALUE: blk_dio_do_vl:target_lat <- $x0
	cmp	x0, #1                          // =1
	b.lt	.LBB2_12
.Ltmp43:
// %bb.11:
	//DEBUG_VALUE: ktime_us_delta:earlier <- $x20
	//DEBUG_VALUE: blk_dio_ck:dio_start <- $x20
	//DEBUG_VALUE: blk_dio_do_vl:target_lat <- $x0
	//DEBUG_VALUE: blk_dio_ck:dio_page_count <- $w19
	//DEBUG_VALUE: ktime_divns:div <- 1000
	//DEBUG_VALUE: blk_dio_ck:target_disk <- [DW_OP_LLVM_entry_value 1] $x0
	//DEBUG_VALUE: blk_dio_ck:dio_op <- [DW_OP_LLVM_entry_value 1] $w2
	bl	__udelay
.Ltmp44:
.LBB2_12:
	.loc	2 143 1 is_stmt 1               // kernel/platform_source/basicplatform/block/mas_blk_core.c:143:1
	ldp	x20, x19, [sp, #32]             // 16-byte Folded Reload
	ldr	x21, [sp, #16]                  // 8-byte Folded Reload
	ldp	x29, x30, [sp], #48             // 16-byte Folded Reload
	hint	#29
	ret
.LBB2_13:
.Ltmp45:
	//DEBUG_VALUE: blk_dio_ck:dio_start <- $x20
	//DEBUG_VALUE: mas_blk_get_lld:q <- $x8
	//DEBUG_VALUE: blk_dio_ck:target_disk <- $x0
	//DEBUG_VALUE: blk_dio_ck:dio_page_count <- $w19
	//DEBUG_VALUE: blk_dio_ck:dio_op <- $w2
	.loc	2 46 13                         // kernel/platform_source/basicplatform/block/mas_blk_core.c:46:13
	add	x8, x8, #1448                   // =1448
.Ltmp46:
	.loc	2 0 13 is_stmt 0                // kernel/platform_source/basicplatform/block/mas_blk_core.c:0:13
	b	.LBB2_6
.Ltmp47:
.LBB2_14:
	//DEBUG_VALUE: blk_dio_ck:dio_start <- $x20
	//DEBUG_VALUE: mas_blk_get_lld:q <- $x8
	//DEBUG_VALUE: blk_dio_ck:target_disk <- $x0
	//DEBUG_VALUE: blk_dio_ck:dio_page_count <- $w19
	//DEBUG_VALUE: blk_dio_ck:dio_op <- $w2
	.loc	2 46 13                         // kernel/platform_source/basicplatform/block/mas_blk_core.c:46:13
	add	x8, x8, #1448                   // =1448
.Ltmp48:
	.loc	2 141 54 is_stmt 1              // kernel/platform_source/basicplatform/block/mas_blk_core.c:141:54
	ldrsw	x21, [x8, #556]
.Ltmp49:
	//DEBUG_VALUE: blk_dio_do_vl:rate <- 3906
	//DEBUG_VALUE: blk_dio_do_vl:dio_page_count <- $w19
	//DEBUG_VALUE: blk_dio_do_vl:dio_start <- $x20
	//DEBUG_VALUE: blk_dio_do_vl:target_v <- $w21
	.loc	2 116 6                         // kernel/platform_source/basicplatform/block/mas_blk_core.c:116:6
	cbnz	w21, .LBB2_9
	b	.LBB2_12
.Ltmp50:
.Lfunc_end2:
	.size	blk_dio_ck, .Lfunc_end2-blk_dio_ck
	.cfi_endproc
	.file	155 "/mnt/disk/jenkins/ci/workspace/chipset_pipeline_release/opensource/component_code/vendor/huawei/extra/build/build_script/kirin_kernel_release" "kernel/include/linux/timekeeping.h"
                                        // -- End function
	.globl	blk_mq_tagset_vl_setup          // -- Begin function blk_mq_tagset_vl_setup
	.p2align	2
	.type	blk_mq_tagset_vl_setup,@function
blk_mq_tagset_vl_setup:                 // @blk_mq_tagset_vl_setup
.Lfunc_begin3:
	.loc	2 147 0                         // kernel/platform_source/basicplatform/block/mas_blk_core.c:147:0
	.cfi_startproc
// %bb.0:
	.loc	2 151 6 prologue_end            // kernel/platform_source/basicplatform/block/mas_blk_core.c:151:6
	hint	#34
.Ltmp51:
	//DEBUG_VALUE: blk_mq_tagset_vl_setup:tag_set <- $x0
	//DEBUG_VALUE: blk_mq_tagset_vl_setup:tag_set <- $x0
	//DEBUG_VALUE: blk_mq_tagset_vl_setup:device_capacity <- $x1
	//DEBUG_VALUE: blk_mq_tagset_vl_setup:device_capacity <- $x1
	lsr	x8, x1, #28
	mov	w9, #500
	mov	w10, #300
	cmp	x8, #0                          // =0
	csel	w8, w10, w9, eq
.Ltmp52:
	//DEBUG_VALUE: blk_mq_tagset_vl_setup:sqr_bw <- 0
	//DEBUG_VALUE: blk_mq_tagset_vl_setup:sqw_bw <- $w8
	.loc	2 158 26                        // kernel/platform_source/basicplatform/block/mas_blk_core.c:158:26
	str	wzr, [x0, #616]
	.loc	2 159 26                        // kernel/platform_source/basicplatform/block/mas_blk_core.c:159:26
	str	w8, [x0, #620]
	.loc	2 160 1                         // kernel/platform_source/basicplatform/block/mas_blk_core.c:160:1
	ret
.Ltmp53:
.Lfunc_end3:
	.size	blk_mq_tagset_vl_setup, .Lfunc_end3-blk_mq_tagset_vl_setup
	.cfi_endproc
                                        // -- End function
	.globl	blk_mq_tagset_vl_setup_ufs_3_1  // -- Begin function blk_mq_tagset_vl_setup_ufs_3_1
	.p2align	2
	.type	blk_mq_tagset_vl_setup_ufs_3_1,@function
blk_mq_tagset_vl_setup_ufs_3_1:         // @blk_mq_tagset_vl_setup_ufs_3_1
.Lfunc_begin4:
	.loc	2 164 0                         // kernel/platform_source/basicplatform/block/mas_blk_core.c:164:0
	.cfi_startproc
// %bb.0:
	.loc	2 168 6 prologue_end            // kernel/platform_source/basicplatform/block/mas_blk_core.c:168:6
	hint	#34
.Ltmp54:
	//DEBUG_VALUE: blk_mq_tagset_vl_setup_ufs_3_1:tag_set <- $x0
	//DEBUG_VALUE: blk_mq_tagset_vl_setup_ufs_3_1:tag_set <- $x0
	//DEBUG_VALUE: blk_mq_tagset_vl_setup_ufs_3_1:device_capacity <- $x1
	//DEBUG_VALUE: blk_mq_tagset_vl_setup_ufs_3_1:device_capacity <- $x1
	//DEBUG_VALUE: blk_mq_tagset_vl_setup_ufs_3_1:sqw_bw <- 0
	//DEBUG_VALUE: blk_mq_tagset_vl_setup_ufs_3_1:sqr_bw <- 0
	cbz	x0, .LBB4_2
.Ltmp55:
// %bb.1:
	//DEBUG_VALUE: blk_mq_tagset_vl_setup_ufs_3_1:device_capacity <- $x1
	//DEBUG_VALUE: blk_mq_tagset_vl_setup_ufs_3_1:tag_set <- $x0
	//DEBUG_VALUE: blk_mq_tagset_vl_setup_ufs_3_1:sqr_bw <- 0
	//DEBUG_VALUE: blk_mq_tagset_vl_setup_ufs_3_1:sqw_bw <- 0
	.loc	2 0 6 is_stmt 0                 // kernel/platform_source/basicplatform/block/mas_blk_core.c:0:6
	mov	w8, #1
	movk	w8, #8192, lsl #16
	mov	w9, #995
	mov	w10, #1800
	.loc	2 171 6 is_stmt 1               // kernel/platform_source/basicplatform/block/mas_blk_core.c:171:6
	cmp	x1, x8
	csel	w8, w9, wzr, lo
	csel	w9, w10, wzr, lo
.Ltmp56:
	//DEBUG_VALUE: blk_mq_tagset_vl_setup_ufs_3_1:sqr_bw <- $w9
	//DEBUG_VALUE: blk_mq_tagset_vl_setup_ufs_3_1:sqw_bw <- $w8
	.loc	2 175 26                        // kernel/platform_source/basicplatform/block/mas_blk_core.c:175:26
	str	w9, [x0, #616]
	.loc	2 176 26                        // kernel/platform_source/basicplatform/block/mas_blk_core.c:176:26
	str	w8, [x0, #620]
.Ltmp57:
.LBB4_2:
	//DEBUG_VALUE: blk_mq_tagset_vl_setup_ufs_3_1:device_capacity <- $x1
	//DEBUG_VALUE: blk_mq_tagset_vl_setup_ufs_3_1:tag_set <- $x0
	.loc	2 177 1                         // kernel/platform_source/basicplatform/block/mas_blk_core.c:177:1
	ret
.Ltmp58:
.Lfunc_end4:
	.size	blk_mq_tagset_vl_setup_ufs_3_1, .Lfunc_end4-blk_mq_tagset_vl_setup_ufs_3_1
	.cfi_endproc
                                        // -- End function
	.globl	mas_blk_queue_usr_ctrl_set      // -- Begin function mas_blk_queue_usr_ctrl_set
	.p2align	2
	.type	mas_blk_queue_usr_ctrl_set,@function
mas_blk_queue_usr_ctrl_set:             // @mas_blk_queue_usr_ctrl_set
.Lfunc_begin5:
	.loc	2 207 0                         // kernel/platform_source/basicplatform/block/mas_blk_core.c:207:0
	.cfi_startproc
// %bb.0:
	//DEBUG_VALUE: mas_blk_queue_usr_ctrl_set:q <- $x0
	//DEBUG_VALUE: mas_blk_queue_usr_ctrl_set:q <- $x0
	hint	#25
	.cfi_negate_ra_state
	stp	x29, x30, [sp, #-16]!           // 16-byte Folded Spill
	mov	x29, sp
	.cfi_def_cfa w29, 16
	.cfi_offset w30, -8
	.cfi_offset w29, -16
.Ltmp59:
	.loc	2 208 19 prologue_end           // kernel/platform_source/basicplatform/block/mas_blk_core.c:208:19
	ldr	x8, [x0, #1192]
	mov	w9, #28570
	movk	w9, #4, lsl #16
.Ltmp60:
	.loc	2 208 6 is_stmt 0               // kernel/platform_source/basicplatform/block/mas_blk_core.c:208:6
	cmp	x8, x9
	b.ne	.LBB5_2
.Ltmp61:
// %bb.1:
	//DEBUG_VALUE: mas_blk_queue_usr_ctrl_set:q <- $x0
	.loc	2 0 6                           // kernel/platform_source/basicplatform/block/mas_blk_core.c:0:6
	mov	w8, #100
.Ltmp62:
	.loc	2 209 21 is_stmt 1              // kernel/platform_source/basicplatform/block/mas_blk_core.c:209:21
	str	x8, [x0, #1376]
	.loc	2 211 4                         // kernel/platform_source/basicplatform/block/mas_blk_core.c:211:4
	adrp	x8, jiffies
	ldr	x8, [x8, :lo12:jiffies]
	mov	w9, #48032
	movk	w9, #13, lsl #16
	.loc	2 210 27                        // kernel/platform_source/basicplatform/block/mas_blk_core.c:210:27
	add	x0, x0, #1384                   // =1384
.Ltmp63:
	//DEBUG_VALUE: mas_blk_queue_usr_ctrl_set:q <- [DW_OP_LLVM_entry_value 1] $x0
	.loc	2 211 12                        // kernel/platform_source/basicplatform/block/mas_blk_core.c:211:12
	add	x1, x8, x9
	.loc	2 210 3                         // kernel/platform_source/basicplatform/block/mas_blk_core.c:210:3
	bl	mod_timer
.Ltmp64:
	.loc	2 0 3 is_stmt 0                 // kernel/platform_source/basicplatform/block/mas_blk_core.c:0:3
	b	.LBB5_3
.Ltmp65:
.LBB5_2:
	//DEBUG_VALUE: mas_blk_queue_usr_ctrl_set:q <- $x0
	.loc	2 214 21 is_stmt 1              // kernel/platform_source/basicplatform/block/mas_blk_core.c:214:21
	str	xzr, [x0, #1376]
	.loc	2 215 32                        // kernel/platform_source/basicplatform/block/mas_blk_core.c:215:32
	add	x0, x0, #1384                   // =1384
.Ltmp66:
	//DEBUG_VALUE: mas_blk_queue_usr_ctrl_set:q <- [DW_OP_LLVM_entry_value 1] $x0
	.loc	2 215 3 is_stmt 0               // kernel/platform_source/basicplatform/block/mas_blk_core.c:215:3
	bl	del_timer_sync
.Ltmp67:
.LBB5_3:
	//DEBUG_VALUE: mas_blk_queue_usr_ctrl_set:q <- [DW_OP_LLVM_entry_value 1] $x0
	.loc	2 217 1 is_stmt 1               // kernel/platform_source/basicplatform/block/mas_blk_core.c:217:1
	ldp	x29, x30, [sp], #16             // 16-byte Folded Reload
	hint	#29
	ret
.Ltmp68:
.Lfunc_end5:
	.size	mas_blk_queue_usr_ctrl_set, .Lfunc_end5-mas_blk_queue_usr_ctrl_set
	.cfi_endproc
                                        // -- End function
	.globl	mas_blk_queue_usr_ctrl_recovery_timer_expire // -- Begin function mas_blk_queue_usr_ctrl_recovery_timer_expire
	.p2align	2
	.type	mas_blk_queue_usr_ctrl_recovery_timer_expire,@function
mas_blk_queue_usr_ctrl_recovery_timer_expire: // @mas_blk_queue_usr_ctrl_recovery_timer_expire
.Lfunc_begin6:
	.loc	2 220 0                         // kernel/platform_source/basicplatform/block/mas_blk_core.c:220:0
	.cfi_startproc
// %bb.0:
	.loc	2 223 26 prologue_end           // kernel/platform_source/basicplatform/block/mas_blk_core.c:223:26
	hint	#34
.Ltmp69:
	//DEBUG_VALUE: mas_blk_queue_usr_ctrl_recovery_timer_expire:data <- $x0
	//DEBUG_VALUE: mas_blk_queue_usr_ctrl_recovery_timer_expire:data <- $x0
	//DEBUG_VALUE: mas_blk_queue_usr_ctrl_recovery_timer_expire:q <- $x0
	str	xzr, [x0, #1192]
	.loc	2 224 20                        // kernel/platform_source/basicplatform/block/mas_blk_core.c:224:20
	str	xzr, [x0, #1376]
	.loc	2 225 1                         // kernel/platform_source/basicplatform/block/mas_blk_core.c:225:1
	ret
.Ltmp70:
.Lfunc_end6:
	.size	mas_blk_queue_usr_ctrl_recovery_timer_expire, .Lfunc_end6-mas_blk_queue_usr_ctrl_recovery_timer_expire
	.cfi_endproc
                                        // -- End function
	.globl	mas_blk_bio_clone_fast          // -- Begin function mas_blk_bio_clone_fast
	.p2align	2
	.type	mas_blk_bio_clone_fast,@function
mas_blk_bio_clone_fast:                 // @mas_blk_bio_clone_fast
.Lfunc_begin7:
	.loc	2 251 0                         // kernel/platform_source/basicplatform/block/mas_blk_core.c:251:0
	.cfi_startproc
// %bb.0:
	.loc	2 252 29 prologue_end           // kernel/platform_source/basicplatform/block/mas_blk_core.c:252:29
	hint	#34
.Ltmp71:
	//DEBUG_VALUE: mas_blk_bio_clone_fast:bio <- $x0
	//DEBUG_VALUE: mas_blk_bio_clone_fast:bio_src <- $x1
	//DEBUG_VALUE: mas_blk_bio_clone_fast:bio_src <- $x1
	ldr	x8, [x1, #72]
	//DEBUG_VALUE: mas_blk_bio_clone_fast:bio <- $x0
	.loc	2 252 18 is_stmt 0              // kernel/platform_source/basicplatform/block/mas_blk_core.c:252:18
	str	x8, [x0, #72]
	.loc	2 261 1 is_stmt 1               // kernel/platform_source/basicplatform/block/mas_blk_core.c:261:1
	ret
.Ltmp72:
.Lfunc_end7:
	.size	mas_blk_bio_clone_fast, .Lfunc_end7-mas_blk_bio_clone_fast
	.cfi_endproc
                                        // -- End function
	.globl	mas_blk_set_data_flag           // -- Begin function mas_blk_set_data_flag
	.p2align	2
	.type	mas_blk_set_data_flag,@function
mas_blk_set_data_flag:                  // @mas_blk_set_data_flag
.Lfunc_begin8:
	.loc	2 265 0                         // kernel/platform_source/basicplatform/block/mas_blk_core.c:265:0
	.cfi_startproc
// %bb.0:
	.loc	2 266 18 prologue_end           // kernel/platform_source/basicplatform/block/mas_blk_core.c:266:18
	hint	#34
.Ltmp73:
	//DEBUG_VALUE: mas_blk_set_data_flag:q <- $x0
	//DEBUG_VALUE: mas_blk_set_data_flag:data <- $x1
	//DEBUG_VALUE: mas_blk_set_data_flag:data <- $x1
	//DEBUG_VALUE: mas_blk_set_data_flag:op <- $w2
	//DEBUG_VALUE: mas_blk_set_data_flag:op <- $w2
	mov	w8, w2
	.loc	2 266 16 is_stmt 0              // kernel/platform_source/basicplatform/block/mas_blk_core.c:266:16
	str	x8, [x1, #8]
	.loc	2 267 1 is_stmt 1               // kernel/platform_source/basicplatform/block/mas_blk_core.c:267:1
	ret
.Ltmp74:
.Lfunc_end8:
	.size	mas_blk_set_data_flag, .Lfunc_end8-mas_blk_set_data_flag
	.cfi_endproc
                                        // -- End function
	.globl	mas_blk_bio_queue_split         // -- Begin function mas_blk_bio_queue_split
	.p2align	2
	.type	mas_blk_bio_queue_split,@function
mas_blk_bio_queue_split:                // @mas_blk_bio_queue_split
.Lfunc_begin9:
	.loc	2 274 0                         // kernel/platform_source/basicplatform/block/mas_blk_core.c:274:0
	.cfi_startproc
// %bb.0:
	//DEBUG_VALUE: mas_blk_bio_queue_split:q <- $x0
	//DEBUG_VALUE: mas_blk_bio_queue_split:bio <- $x1
	//DEBUG_VALUE: mas_blk_bio_queue_split:split <- $x2
	hint	#25
	.cfi_negate_ra_state
	stp	x29, x30, [sp, #-32]!           // 16-byte Folded Spill
	stp	x20, x19, [sp, #16]             // 16-byte Folded Spill
	mov	x29, sp
	.cfi_def_cfa w29, 32
	.cfi_offset w19, -8
	.cfi_offset w20, -16
	.cfi_offset w30, -24
	.cfi_offset w29, -32
.Ltmp75:
	.loc	2 275 35 prologue_end           // kernel/platform_source/basicplatform/block/mas_blk_core.c:275:35
	ldr	x8, [x1]
	mov	x20, x0
.Ltmp76:
	//DEBUG_VALUE: mas_blk_bio_queue_split:q <- $x20
	//DEBUG_VALUE: mas_blk_bio_queue_split:q <- $x20
	.loc	2 0 35 is_stmt 0                // kernel/platform_source/basicplatform/block/mas_blk_core.c:0:35
	mov	x19, x2
.Ltmp77:
	//DEBUG_VALUE: mas_blk_bio_queue_split:split <- $x19
	//DEBUG_VALUE: mas_blk_bio_queue_split:split <- $x19
	//DEBUG_VALUE: mas_blk_bio_queue_split:bio <- $x1
	.loc	2 275 2                         // kernel/platform_source/basicplatform/block/mas_blk_core.c:275:2
	mov	x0, x8
	bl	mas_blk_busyidle_check_bio_endio
.Ltmp78:
	//DEBUG_VALUE: mas_blk_bio_queue_split:bio <- [DW_OP_LLVM_entry_value 1] $x1
	.loc	2 276 2 is_stmt 1               // kernel/platform_source/basicplatform/block/mas_blk_core.c:276:2
	mov	x0, x20
.Ltmp79:
	//DEBUG_VALUE: mas_blk_bio_queue_split:q <- $x0
	mov	x1, x19
.Ltmp80:
	//DEBUG_VALUE: mas_blk_bio_queue_split:split <- $x1
	bl	mas_blk_busyidle_check_bio
.Ltmp81:
	//DEBUG_VALUE: mas_blk_bio_queue_split:q <- [DW_OP_LLVM_entry_value 1] $x0
	.loc	2 277 1                         // kernel/platform_source/basicplatform/block/mas_blk_core.c:277:1
	ldp	x20, x19, [sp, #16]             // 16-byte Folded Reload
	ldp	x29, x30, [sp], #32             // 16-byte Folded Reload
	hint	#29
	ret
.Ltmp82:
.Lfunc_end9:
	.size	mas_blk_bio_queue_split, .Lfunc_end9-mas_blk_bio_queue_split
	.cfi_endproc
                                        // -- End function
	.globl	mas_blk_bio_merge_allow         // -- Begin function mas_blk_bio_merge_allow
	.p2align	2
	.type	mas_blk_bio_merge_allow,@function
mas_blk_bio_merge_allow:                // @mas_blk_bio_merge_allow
.Lfunc_begin10:
	.loc	2 283 0                         // kernel/platform_source/basicplatform/block/mas_blk_core.c:283:0
	.cfi_startproc
// %bb.0:
	.loc	2 285 8 prologue_end            // kernel/platform_source/basicplatform/block/mas_blk_core.c:285:8
	hint	#34
.Ltmp83:
	//DEBUG_VALUE: mas_blk_bio_merge_allow:rq <- $x0
	//DEBUG_VALUE: mas_blk_bio_merge_allow:rq <- $x0
	//DEBUG_VALUE: mas_blk_bio_merge_allow:bio <- $x1
	//DEBUG_VALUE: mas_blk_bio_merge_allow:bio <- $x1
	ldr	w8, [x0, #232]
	.loc	2 285 30 is_stmt 0              // kernel/platform_source/basicplatform/block/mas_blk_core.c:285:30
	ldr	w9, [x1, #336]
	.loc	2 285 19                        // kernel/platform_source/basicplatform/block/mas_blk_core.c:285:19
	eor	w8, w9, w8, lsr #3
	tst	w8, #0x1
	cset	w0, eq
.Ltmp84:
	//DEBUG_VALUE: mas_blk_bio_merge_allow:rq <- [DW_OP_LLVM_entry_value 1] $x0
	.loc	2 289 1 is_stmt 1               // kernel/platform_source/basicplatform/block/mas_blk_core.c:289:1
	ret
.Ltmp85:
.Lfunc_end10:
	.size	mas_blk_bio_merge_allow, .Lfunc_end10-mas_blk_bio_merge_allow
	.cfi_endproc
                                        // -- End function
	.globl	mas_blk_bio_merge_done          // -- Begin function mas_blk_bio_merge_done
	.p2align	2
	.type	mas_blk_bio_merge_done,@function
mas_blk_bio_merge_done:                 // @mas_blk_bio_merge_done
.Lfunc_begin11:
	.loc	2 297 0                         // kernel/platform_source/basicplatform/block/mas_blk_core.c:297:0
	.cfi_startproc
// %bb.0:
	//DEBUG_VALUE: mas_blk_bio_merge_done:q <- $x0
	//DEBUG_VALUE: mas_blk_bio_merge_done:req <- $x1
	//DEBUG_VALUE: mas_blk_bio_merge_done:next <- $x2
	hint	#25
	.cfi_negate_ra_state
	stp	x29, x30, [sp, #-16]!           // 16-byte Folded Spill
	mov	x29, sp
	.cfi_def_cfa w29, 16
	.cfi_offset w30, -8
	.cfi_offset w29, -16
	mov	x0, x1
.Ltmp86:
	//DEBUG_VALUE: mas_blk_bio_merge_done:q <- [DW_OP_LLVM_entry_value 1] $x0
	//DEBUG_VALUE: mas_blk_bio_merge_done:next <- $x2
	//DEBUG_VALUE: mas_blk_bio_merge_done:req <- $x0
	//DEBUG_VALUE: mas_blk_bio_merge_done:req <- $x0
	.loc	2 298 2 prologue_end            // kernel/platform_source/basicplatform/block/mas_blk_core.c:298:2
	mov	x1, x2
.Ltmp87:
	//DEBUG_VALUE: mas_blk_bio_merge_done:next <- $x1
	bl	mas_blk_latency_for_merge
.Ltmp88:
	.loc	2 299 1                         // kernel/platform_source/basicplatform/block/mas_blk_core.c:299:1
	ldp	x29, x30, [sp], #16             // 16-byte Folded Reload
	hint	#29
	ret
.Ltmp89:
.Lfunc_end11:
	.size	mas_blk_bio_merge_done, .Lfunc_end11-mas_blk_bio_merge_done
	.cfi_endproc
                                        // -- End function
	.globl	mas_blk_account_io_completion   // -- Begin function mas_blk_account_io_completion
	.p2align	2
	.type	mas_blk_account_io_completion,@function
mas_blk_account_io_completion:          // @mas_blk_account_io_completion
.Lfunc_begin12:
	.loc	2 306 0                         // kernel/platform_source/basicplatform/block/mas_blk_core.c:306:0
	.cfi_startproc
// %bb.0:
	.loc	2 309 6 prologue_end            // kernel/platform_source/basicplatform/block/mas_blk_core.c:309:6
	hint	#34
.Ltmp90:
	//DEBUG_VALUE: mas_blk_account_io_completion:req <- $x0
	//DEBUG_VALUE: mas_blk_account_io_completion:req <- $x0
	//DEBUG_VALUE: mas_blk_account_io_completion:bytes <- $w1
	//DEBUG_VALUE: mas_blk_account_io_completion:bytes <- $w1
	//DEBUG_VALUE: mas_blk_account_io_completion:lld <- 0
	cbz	x0, .LBB12_7
.Ltmp91:
// %bb.1:
	//DEBUG_VALUE: mas_blk_account_io_completion:req <- $x0
	//DEBUG_VALUE: mas_blk_account_io_completion:bytes <- $w1
	//DEBUG_VALUE: mas_blk_account_io_completion:lld <- 0
	.loc	2 312 29                        // kernel/platform_source/basicplatform/block/mas_blk_core.c:312:29
	ldr	x8, [x0]
.Ltmp92:
	//DEBUG_VALUE: mas_blk_get_lld:q <- $x8
	.loc	2 43 6                          // kernel/platform_source/basicplatform/block/mas_blk_core.c:43:6
	ldr	x9, [x8, #48]
.Ltmp93:
	.loc	2 43 6 is_stmt 0                // kernel/platform_source/basicplatform/block/mas_blk_core.c:43:6
	cbz	x9, .LBB12_9
.Ltmp94:
// %bb.2:
	//DEBUG_VALUE: mas_blk_get_lld:q <- $x8
	//DEBUG_VALUE: mas_blk_account_io_completion:req <- $x0
	//DEBUG_VALUE: mas_blk_account_io_completion:bytes <- $w1
	//DEBUG_VALUE: mas_blk_account_io_completion:lld <- 0
	.loc	2 44 14 is_stmt 1               // kernel/platform_source/basicplatform/block/mas_blk_core.c:44:14
	ldr	x9, [x8, #2552]
	.loc	2 44 11 is_stmt 0               // kernel/platform_source/basicplatform/block/mas_blk_core.c:44:11
	add	x8, x8, #1448                   // =1448
.Ltmp95:
	add	x10, x9, #64                    // =64
	cmp	x9, #0                          // =0
	csel	x8, x8, x10, eq
.Ltmp96:
.LBB12_3:
	//DEBUG_VALUE: mas_blk_account_io_completion:req <- $x0
	//DEBUG_VALUE: mas_blk_account_io_completion:bytes <- $w1
	//DEBUG_VALUE: mas_blk_account_io_completion:lld <- 0
	//DEBUG_VALUE: mas_blk_account_io_completion:lld <- $x8
	.loc	2 314 7 is_stmt 1               // kernel/platform_source/basicplatform/block/mas_blk_core.c:314:7
	ldrb	w9, [x0, #24]
.Ltmp97:
	.loc	2 314 7 is_stmt 0               // kernel/platform_source/basicplatform/block/mas_blk_core.c:314:7
	cmp	w9, #3                          // =3
	b.ne	.LBB12_5
.Ltmp98:
// %bb.4:
	//DEBUG_VALUE: mas_blk_account_io_completion:lld <- $x8
	//DEBUG_VALUE: mas_blk_account_io_completion:req <- $x0
	//DEBUG_VALUE: mas_blk_account_io_completion:bytes <- $w1
	.loc	2 315 21 is_stmt 1              // kernel/platform_source/basicplatform/block/mas_blk_core.c:315:21
	ldr	x9, [x8, #448]
	add	x9, x9, w1, uxtw
	str	x9, [x8, #448]
.Ltmp99:
	.loc	2 317 7                         // kernel/platform_source/basicplatform/block/mas_blk_core.c:317:7
	ldrb	w9, [x0, #24]
.Ltmp100:
.LBB12_5:
	//DEBUG_VALUE: mas_blk_account_io_completion:lld <- $x8
	//DEBUG_VALUE: mas_blk_account_io_completion:req <- $x0
	//DEBUG_VALUE: mas_blk_account_io_completion:bytes <- $w1
	.loc	2 317 7 is_stmt 0               // kernel/platform_source/basicplatform/block/mas_blk_core.c:317:7
	cmp	w9, #1                          // =1
	b.ne	.LBB12_8
.Ltmp101:
// %bb.6:
	//DEBUG_VALUE: mas_blk_account_io_completion:lld <- $x8
	//DEBUG_VALUE: mas_blk_account_io_completion:req <- $x0
	//DEBUG_VALUE: mas_blk_account_io_completion:bytes <- $w1
	.loc	2 318 19 is_stmt 1              // kernel/platform_source/basicplatform/block/mas_blk_core.c:318:19
	ldr	x9, [x8, #440]
.Ltmp102:
	.loc	2 0 0 is_stmt 0                 // kernel/platform_source/basicplatform/block/mas_blk_core.c:0:0
	mov	w0, wzr
.Ltmp103:
	//DEBUG_VALUE: mas_blk_account_io_completion:req <- [DW_OP_LLVM_entry_value 1] $x0
	.loc	2 318 19                        // kernel/platform_source/basicplatform/block/mas_blk_core.c:318:19
	add	x9, x9, w1, uxtw
	str	x9, [x8, #440]
.Ltmp104:
	.loc	2 322 1 is_stmt 1               // kernel/platform_source/basicplatform/block/mas_blk_core.c:322:1
	ret
.Ltmp105:
.LBB12_7:
	//DEBUG_VALUE: mas_blk_account_io_completion:req <- $x0
	//DEBUG_VALUE: mas_blk_account_io_completion:bytes <- $w1
	//DEBUG_VALUE: mas_blk_account_io_completion:lld <- 0
	.loc	2 0 1 is_stmt 0                 // kernel/platform_source/basicplatform/block/mas_blk_core.c:0:1
	mov	w0, #-1
.Ltmp106:
	//DEBUG_VALUE: mas_blk_account_io_completion:req <- [DW_OP_LLVM_entry_value 1] $x0
	.loc	2 322 1                         // kernel/platform_source/basicplatform/block/mas_blk_core.c:322:1
	ret
.Ltmp107:
.LBB12_8:
	//DEBUG_VALUE: mas_blk_account_io_completion:lld <- $x8
	//DEBUG_VALUE: mas_blk_account_io_completion:req <- $x0
	//DEBUG_VALUE: mas_blk_account_io_completion:bytes <- $w1
	.loc	2 0 0                           // kernel/platform_source/basicplatform/block/mas_blk_core.c:0:0
	mov	w0, wzr
.Ltmp108:
	//DEBUG_VALUE: mas_blk_account_io_completion:req <- [DW_OP_LLVM_entry_value 1] $x0
	.loc	2 322 1                         // kernel/platform_source/basicplatform/block/mas_blk_core.c:322:1
	ret
.Ltmp109:
.LBB12_9:
	//DEBUG_VALUE: mas_blk_get_lld:q <- $x8
	//DEBUG_VALUE: mas_blk_account_io_completion:req <- $x0
	//DEBUG_VALUE: mas_blk_account_io_completion:bytes <- $w1
	//DEBUG_VALUE: mas_blk_account_io_completion:lld <- 0
	.loc	2 46 13 is_stmt 1               // kernel/platform_source/basicplatform/block/mas_blk_core.c:46:13
	add	x8, x8, #1448                   // =1448
.Ltmp110:
	.loc	2 0 13 is_stmt 0                // kernel/platform_source/basicplatform/block/mas_blk_core.c:0:13
	b	.LBB12_3
.Ltmp111:
.Lfunc_end12:
	.size	mas_blk_account_io_completion, .Lfunc_end12-mas_blk_account_io_completion
	.cfi_endproc
                                        // -- End function
	.globl	mas_blk_generic_make_request_check // -- Begin function mas_blk_generic_make_request_check
	.p2align	2
	.type	mas_blk_generic_make_request_check,@function
mas_blk_generic_make_request_check:     // @mas_blk_generic_make_request_check
.Lfunc_begin13:
	.loc	2 415 0 is_stmt 1               // kernel/platform_source/basicplatform/block/mas_blk_core.c:415:0
	.cfi_startproc
// %bb.0:
	//DEBUG_VALUE: mas_blk_generic_make_request_check:bio <- $x0
	hint	#25
	.cfi_negate_ra_state
	stp	x29, x30, [sp, #-32]!           // 16-byte Folded Spill
	stp	x20, x19, [sp, #16]             // 16-byte Folded Spill
	mov	x29, sp
	.cfi_def_cfa w29, 32
	.cfi_offset w19, -8
	.cfi_offset w20, -16
	.cfi_offset w30, -24
	.cfi_offset w29, -32
.Ltmp112:
	.loc	2 416 33 prologue_end           // kernel/platform_source/basicplatform/block/mas_blk_core.c:416:33
	ldr	x8, [x0, #8]
	.loc	2 439 2                         // kernel/platform_source/basicplatform/block/mas_blk_core.c:439:2
	mov	w1, wzr
	mov	x19, x0
.Ltmp113:
	//DEBUG_VALUE: mas_blk_generic_make_request_check:bio <- $x19
	.loc	2 416 42                        // kernel/platform_source/basicplatform/block/mas_blk_core.c:416:42
	ldr	x20, [x8, #1064]
.Ltmp114:
	//DEBUG_VALUE: mas_blk_generic_make_request_check:q <- $x20
	.loc	2 439 2                         // kernel/platform_source/basicplatform/block/mas_blk_core.c:439:2
	bl	mas_blk_latency_bio_check
.Ltmp115:
	.loc	2 440 6                         // kernel/platform_source/basicplatform/block/mas_blk_core.c:440:6
	mov	x0, x20
	mov	x1, x19
	bl	mas_blk_flush_async_dispatch
.Ltmp116:
	.loc	2 440 6 is_stmt 0               // kernel/platform_source/basicplatform/block/mas_blk_core.c:440:6
	tbnz	w0, #0, .LBB13_3
.Ltmp117:
// %bb.1:
	//DEBUG_VALUE: mas_blk_generic_make_request_check:q <- $x20
	//DEBUG_VALUE: mas_blk_generic_make_request_check:bio <- $x19
	.loc	2 445 2 is_stmt 1               // kernel/platform_source/basicplatform/block/mas_blk_core.c:445:2
	mov	x0, x20
	mov	x1, x19
	bl	mas_blk_busyidle_check_bio
.Ltmp118:
	.loc	2 0 0 is_stmt 0                 // kernel/platform_source/basicplatform/block/mas_blk_core.c:0:0
	mov	w0, wzr
.Ltmp119:
.LBB13_2:
	//DEBUG_VALUE: mas_blk_generic_make_request_check:q <- $x20
	//DEBUG_VALUE: mas_blk_generic_make_request_check:bio <- $x19
	.loc	2 448 1 is_stmt 1               // kernel/platform_source/basicplatform/block/mas_blk_core.c:448:1
	ldp	x20, x19, [sp, #16]             // 16-byte Folded Reload
.Ltmp120:
	//DEBUG_VALUE: mas_blk_generic_make_request_check:bio <- [DW_OP_LLVM_entry_value 1] $x0
	ldp	x29, x30, [sp], #32             // 16-byte Folded Reload
	hint	#29
	ret
.Ltmp121:
.LBB13_3:
	//DEBUG_VALUE: mas_blk_generic_make_request_check:q <- $x20
	//DEBUG_VALUE: mas_blk_generic_make_request_check:bio <- $x19
	.loc	2 442 3                         // kernel/platform_source/basicplatform/block/mas_blk_core.c:442:3
	mov	x0, x19
	.loc	2 441 18                        // kernel/platform_source/basicplatform/block/mas_blk_core.c:441:18
	strb	wzr, [x19, #26]
	.loc	2 442 3                         // kernel/platform_source/basicplatform/block/mas_blk_core.c:442:3
	bl	bio_endio
.Ltmp122:
	.loc	2 0 3 is_stmt 0                 // kernel/platform_source/basicplatform/block/mas_blk_core.c:0:3
	mov	w0, #1
	b	.LBB13_2
.Ltmp123:
.Lfunc_end13:
	.size	mas_blk_generic_make_request_check, .Lfunc_end13-mas_blk_generic_make_request_check
	.cfi_endproc
                                        // -- End function
	.globl	mas_blk_generic_make_request    // -- Begin function mas_blk_generic_make_request
	.p2align	2
	.type	mas_blk_generic_make_request,@function
mas_blk_generic_make_request:           // @mas_blk_generic_make_request
.Lfunc_begin14:
	.loc	2 454 0 is_stmt 1               // kernel/platform_source/basicplatform/block/mas_blk_core.c:454:0
	.cfi_startproc
// %bb.0:
	//DEBUG_VALUE: mas_blk_generic_make_request:bio <- $x0
	//DEBUG_VALUE: mas_blk_generic_make_request:bio <- $x0
	hint	#25
	.cfi_negate_ra_state
	stp	x29, x30, [sp, #-16]!           // 16-byte Folded Spill
	mov	x29, sp
	.cfi_def_cfa w29, 16
	.cfi_offset w30, -8
	.cfi_offset w29, -16
.Ltmp124:
	.loc	2 455 2 prologue_end            // kernel/platform_source/basicplatform/block/mas_blk_core.c:455:2
	mov	w1, #3
	//DEBUG_VALUE: mas_blk_generic_make_request:bio <- $x0
	bl	mas_blk_latency_bio_check
.Ltmp125:
	//DEBUG_VALUE: mas_blk_generic_make_request:bio <- [DW_OP_LLVM_entry_value 1] $x0
	.loc	2 457 1                         // kernel/platform_source/basicplatform/block/mas_blk_core.c:457:1
	ldp	x29, x30, [sp], #16             // 16-byte Folded Reload
	hint	#29
	ret
.Ltmp126:
.Lfunc_end14:
	.size	mas_blk_generic_make_request, .Lfunc_end14-mas_blk_generic_make_request
	.cfi_endproc
                                        // -- End function
	.globl	mas_blk_start_plug              // -- Begin function mas_blk_start_plug
	.p2align	2
	.type	mas_blk_start_plug,@function
mas_blk_start_plug:                     // @mas_blk_start_plug
.Lfunc_begin15:
	.loc	2 463 0                         // kernel/platform_source/basicplatform/block/mas_blk_core.c:463:0
	.cfi_startproc
// %bb.0:
	.loc	2 464 24 prologue_end           // kernel/platform_source/basicplatform/block/mas_blk_core.c:464:24
	hint	#34
.Ltmp127:
	//DEBUG_VALUE: mas_blk_start_plug:plug <- $x0
	//DEBUG_VALUE: mas_blk_start_plug:plug <- $x0
	add	x8, x0, #40                     // =40
.Ltmp128:
	//DEBUG_VALUE: INIT_LIST_HEAD:list <- $x8
	.file	156 "/mnt/disk/jenkins/ci/workspace/chipset_pipeline_release/opensource/component_code/vendor/huawei/extra/build/build_script/kirin_kernel_release" "kernel/include/linux/list.h"
	.loc	156 35 2                        // kernel/include/linux/list.h:35:2
	str	x8, [x0, #40]
.Ltmp129:
	.loc	156 36 13                       // kernel/include/linux/list.h:36:13
	stp	x8, xzr, [x0, #48]
.Ltmp130:
	.loc	2 466 1                         // kernel/platform_source/basicplatform/block/mas_blk_core.c:466:1
	ret
.Ltmp131:
.Lfunc_end15:
	.size	mas_blk_start_plug, .Lfunc_end15-mas_blk_start_plug
	.cfi_endproc
                                        // -- End function
	.globl	mas_blk_flush_plug_list         // -- Begin function mas_blk_flush_plug_list
	.p2align	2
	.type	mas_blk_flush_plug_list,@function
mas_blk_flush_plug_list:                // @mas_blk_flush_plug_list
.Lfunc_begin16:
	.loc	2 472 0                         // kernel/platform_source/basicplatform/block/mas_blk_core.c:472:0
	.cfi_startproc
// %bb.0:
	//DEBUG_VALUE: mas_blk_flush_plug_list:plug <- $x0
	//DEBUG_VALUE: mas_blk_flush_plug_list:plug <- $x0
	//DEBUG_VALUE: mas_blk_flush_plug_list:from_schedule <- [DW_OP_LLVM_convert 1 7, DW_OP_LLVM_convert 8 7, DW_OP_stack_value] $w1
	//DEBUG_VALUE: mas_blk_flush_plug_list:from_schedule <- [DW_OP_LLVM_convert 1 7, DW_OP_LLVM_convert 8 7, DW_OP_stack_value] undef
	hint	#25
	.cfi_negate_ra_state
	stp	x29, x30, [sp, #-16]!           // 16-byte Folded Spill
	mov	x29, sp
	.cfi_def_cfa w29, 16
	.cfi_offset w30, -8
	.cfi_offset w29, -16
.Ltmp132:
	.loc	156 282 9 prologue_end          // kernel/include/linux/list.h:282:9
	mov	x8, x0
	ldr	x9, [x8, #40]!
.Ltmp133:
	//DEBUG_VALUE: list_empty:head <- $x8
	.loc	2 473 6                         // kernel/platform_source/basicplatform/block/mas_blk_core.c:473:6
	cmp	x9, x8
.Ltmp134:
	//DEBUG_VALUE: mas_blk_flush_plug_list:from_schedule <- [DW_OP_LLVM_convert 1 7, DW_OP_LLVM_convert 8 7, DW_OP_stack_value] $w1
	b.eq	.LBB16_3
.Ltmp135:
// %bb.1:
	//DEBUG_VALUE: mas_blk_flush_plug_list:plug <- $x0
	//DEBUG_VALUE: mas_blk_flush_plug_list:from_schedule <- [DW_OP_LLVM_convert 1 7, DW_OP_LLVM_convert 8 7, DW_OP_stack_value] $w1
	ldr	x8, [x0, #56]
.Ltmp136:
	.loc	2 473 6 is_stmt 0               // kernel/platform_source/basicplatform/block/mas_blk_core.c:473:6
	cbz	x8, .LBB16_3
.Ltmp137:
// %bb.2:
	//DEBUG_VALUE: mas_blk_flush_plug_list:plug <- $x0
	//DEBUG_VALUE: mas_blk_flush_plug_list:from_schedule <- [DW_OP_LLVM_convert 1 7, DW_OP_LLVM_convert 8 7, DW_OP_stack_value] $w1
	.loc	2 475 3 is_stmt 1               // kernel/platform_source/basicplatform/block/mas_blk_core.c:475:3
	and	w1, w1, #0x1
.Ltmp138:
	blr	x8
.Ltmp139:
	//DEBUG_VALUE: mas_blk_flush_plug_list:plug <- [DW_OP_LLVM_entry_value 1] $x0
.LBB16_3:
	.loc	2 477 1                         // kernel/platform_source/basicplatform/block/mas_blk_core.c:477:1
	ldp	x29, x30, [sp], #16             // 16-byte Folded Reload
	hint	#29
	ret
.Ltmp140:
.Lfunc_end16:
	.size	mas_blk_flush_plug_list, .Lfunc_end16-mas_blk_flush_plug_list
	.cfi_endproc
                                        // -- End function
	.globl	mas_blk_bio_endio               // -- Begin function mas_blk_bio_endio
	.p2align	2
	.type	mas_blk_bio_endio,@function
mas_blk_bio_endio:                      // @mas_blk_bio_endio
.Lfunc_begin17:
	.loc	2 483 0                         // kernel/platform_source/basicplatform/block/mas_blk_core.c:483:0
	.cfi_startproc
// %bb.0:
	//DEBUG_VALUE: mas_blk_bio_endio:bio <- $x0
	hint	#25
	.cfi_negate_ra_state
	stp	x29, x30, [sp, #-32]!           // 16-byte Folded Spill
	str	x19, [sp, #16]                  // 8-byte Folded Spill
	mov	x29, sp
	.cfi_def_cfa w29, 32
	.cfi_offset w19, -16
	.cfi_offset w30, -24
	.cfi_offset w29, -32
	mov	x19, x0
.Ltmp141:
	//DEBUG_VALUE: mas_blk_bio_endio:bio <- $x19
	.loc	2 484 2 prologue_end            // kernel/platform_source/basicplatform/block/mas_blk_core.c:484:2
	bl	mas_blk_busyidle_check_bio_endio
.Ltmp142:
	.loc	2 485 2                         // kernel/platform_source/basicplatform/block/mas_blk_core.c:485:2
	mov	w1, #1
	mov	x0, x19
	bl	mas_blk_latency_bio_check
.Ltmp143:
	.loc	2 486 1                         // kernel/platform_source/basicplatform/block/mas_blk_core.c:486:1
	ldr	x19, [sp, #16]                  // 8-byte Folded Reload
.Ltmp144:
	//DEBUG_VALUE: mas_blk_bio_endio:bio <- [DW_OP_LLVM_entry_value 1] $x0
	ldp	x29, x30, [sp], #32             // 16-byte Folded Reload
	hint	#29
	ret
.Ltmp145:
.Lfunc_end17:
	.size	mas_blk_bio_endio, .Lfunc_end17-mas_blk_bio_endio
	.cfi_endproc
                                        // -- End function
	.globl	mas_blk_bio_free                // -- Begin function mas_blk_bio_free
	.p2align	2
	.type	mas_blk_bio_free,@function
mas_blk_bio_free:                       // @mas_blk_bio_free
.Lfunc_begin18:
	.loc	2 492 0                         // kernel/platform_source/basicplatform/block/mas_blk_core.c:492:0
	.cfi_startproc
// %bb.0:
	//DEBUG_VALUE: mas_blk_bio_free:bio <- $x0
	//DEBUG_VALUE: mas_blk_bio_free:bio <- $x0
	hint	#25
	.cfi_negate_ra_state
	stp	x29, x30, [sp, #-16]!           // 16-byte Folded Spill
	mov	x29, sp
	.cfi_def_cfa w29, 16
	.cfi_offset w30, -8
	.cfi_offset w29, -16
.Ltmp146:
	.loc	2 493 6 prologue_end            // kernel/platform_source/basicplatform/block/mas_blk_core.c:493:6
	ldrb	w8, [x0, #128]
.Ltmp147:
	.loc	2 493 6 is_stmt 0               // kernel/platform_source/basicplatform/block/mas_blk_core.c:493:6
	tbnz	w8, #0, .LBB18_2
.Ltmp148:
.LBB18_1:
	.loc	2 502 1 is_stmt 1               // kernel/platform_source/basicplatform/block/mas_blk_core.c:502:1
	ldp	x29, x30, [sp], #16             // 16-byte Folded Reload
	hint	#29
	ret
.LBB18_2:
.Ltmp149:
	//DEBUG_VALUE: mas_blk_bio_free:bio <- $x0
	.loc	2 499 3                         // kernel/platform_source/basicplatform/block/mas_blk_core.c:499:3
	bl	mas_blk_busyidle_check_bio_endio
.Ltmp150:
	//DEBUG_VALUE: mas_blk_bio_free:bio <- [DW_OP_LLVM_entry_value 1] $x0
	.loc	2 0 3 is_stmt 0                 // kernel/platform_source/basicplatform/block/mas_blk_core.c:0:3
	b	.LBB18_1
.Ltmp151:
.Lfunc_end18:
	.size	mas_blk_bio_free, .Lfunc_end18-mas_blk_bio_free
	.cfi_endproc
                                        // -- End function
	.globl	mas_blk_request_init_from_bio   // -- Begin function mas_blk_request_init_from_bio
	.p2align	2
	.type	mas_blk_request_init_from_bio,@function
mas_blk_request_init_from_bio:          // @mas_blk_request_init_from_bio
.Lfunc_begin19:
	.loc	2 508 0 is_stmt 1               // kernel/platform_source/basicplatform/block/mas_blk_core.c:508:0
	.cfi_startproc
// %bb.0:
	//DEBUG_VALUE: mas_blk_request_init_from_bio:req <- $x0
	//DEBUG_VALUE: mas_blk_request_init_from_bio:bio <- $x1
	hint	#25
	.cfi_negate_ra_state
	stp	x29, x30, [sp, #-32]!           // 16-byte Folded Spill
	stp	x20, x19, [sp, #16]             // 16-byte Folded Spill
	mov	x29, sp
	.cfi_def_cfa w29, 32
	.cfi_offset w19, -8
	.cfi_offset w20, -16
	.cfi_offset w30, -24
	.cfi_offset w29, -32
	mov	x20, x1
.Ltmp152:
	//DEBUG_VALUE: mas_blk_request_init_from_bio:bio <- $x20
	.loc	2 509 2 prologue_end            // kernel/platform_source/basicplatform/block/mas_blk_core.c:509:2
	mov	w1, wzr
	mov	x19, x0
	//DEBUG_VALUE: mas_blk_request_init_from_bio:bio <- $x20
.Ltmp153:
	//DEBUG_VALUE: mas_blk_request_init_from_bio:req <- $x19
	bl	mas_blk_latency_req_check
.Ltmp154:
	.loc	2 510 30                        // kernel/platform_source/basicplatform/block/mas_blk_core.c:510:30
	str	wzr, [x19, #244]
	.loc	2 517 6                         // kernel/platform_source/basicplatform/block/mas_blk_core.c:517:6
	ldrb	w8, [x20, #336]
	.loc	2 514 22                        // kernel/platform_source/basicplatform/block/mas_blk_core.c:514:22
	str	x19, [x20, #88]
	.loc	2 517 6                         // kernel/platform_source/basicplatform/block/mas_blk_core.c:517:6
	tbz	w8, #0, .LBB19_2
.Ltmp155:
// %bb.1:
	//DEBUG_VALUE: mas_blk_request_init_from_bio:bio <- $x20
	//DEBUG_VALUE: mas_blk_request_init_from_bio:req <- $x19
	.loc	2 518 33                        // kernel/platform_source/basicplatform/block/mas_blk_core.c:518:33
	ldr	x8, [x19, #232]
	orr	x8, x8, #0x8
	str	x8, [x19, #232]
.Ltmp156:
.LBB19_2:
	//DEBUG_VALUE: mas_blk_request_init_from_bio:bio <- $x20
	//DEBUG_VALUE: mas_blk_request_init_from_bio:req <- $x19
	.loc	2 524 1                         // kernel/platform_source/basicplatform/block/mas_blk_core.c:524:1
	ldp	x20, x19, [sp, #16]             // 16-byte Folded Reload
.Ltmp157:
	ldp	x29, x30, [sp], #32             // 16-byte Folded Reload
	hint	#29
	ret
.Ltmp158:
.Lfunc_end19:
	.size	mas_blk_request_init_from_bio, .Lfunc_end19-mas_blk_request_init_from_bio
	.cfi_endproc
                                        // -- End function
	.globl	mas_blk_insert_cloned_request   // -- Begin function mas_blk_insert_cloned_request
	.p2align	2
	.type	mas_blk_insert_cloned_request,@function
mas_blk_insert_cloned_request:          // @mas_blk_insert_cloned_request
.Lfunc_begin20:
	.loc	2 532 0                         // kernel/platform_source/basicplatform/block/mas_blk_core.c:532:0
	.cfi_startproc
// %bb.0:
	//DEBUG_VALUE: mas_blk_insert_cloned_request:q <- $x0
	//DEBUG_VALUE: mas_blk_insert_cloned_request:q <- $x0
	//DEBUG_VALUE: mas_blk_insert_cloned_request:rq <- $x1
	//DEBUG_VALUE: mas_blk_insert_cloned_request:rq <- $x1
	//DEBUG_VALUE: mas_blk_insert_cloned_request:rq <- $x1
	//DEBUG_VALUE: mas_blk_insert_cloned_request:q <- $x0
	hint	#25
	.cfi_negate_ra_state
	stp	x29, x30, [sp, #-16]!           // 16-byte Folded Spill
	mov	x29, sp
	.cfi_def_cfa w29, 16
	.cfi_offset w30, -8
	.cfi_offset w29, -16
.Ltmp159:
	.loc	2 533 2 prologue_end            // kernel/platform_source/basicplatform/block/mas_blk_core.c:533:2
	bl	mas_blk_busyidle_check_request_bio
.Ltmp160:
	//DEBUG_VALUE: mas_blk_insert_cloned_request:rq <- [DW_OP_LLVM_entry_value 1] $x1
	//DEBUG_VALUE: mas_blk_insert_cloned_request:q <- [DW_OP_LLVM_entry_value 1] $x0
	.loc	2 534 1                         // kernel/platform_source/basicplatform/block/mas_blk_core.c:534:1
	ldp	x29, x30, [sp], #16             // 16-byte Folded Reload
	hint	#29
	ret
.Ltmp161:
.Lfunc_end20:
	.size	mas_blk_insert_cloned_request, .Lfunc_end20-mas_blk_insert_cloned_request
	.cfi_endproc
                                        // -- End function
	.globl	mas_blk_request_execute_nowait  // -- Begin function mas_blk_request_execute_nowait
	.p2align	2
	.type	mas_blk_request_execute_nowait,@function
mas_blk_request_execute_nowait:         // @mas_blk_request_execute_nowait
.Lfunc_begin21:
	.loc	2 542 0                         // kernel/platform_source/basicplatform/block/mas_blk_core.c:542:0
	.cfi_startproc
// %bb.0:
	//DEBUG_VALUE: mas_blk_request_execute_nowait:q <- $x0
	//DEBUG_VALUE: mas_blk_request_execute_nowait:q <- $x0
	//DEBUG_VALUE: mas_blk_request_execute_nowait:rq <- $x1
	//DEBUG_VALUE: mas_blk_request_execute_nowait:rq <- $x1
	//DEBUG_VALUE: mas_blk_request_execute_nowait:done <- $x2
	//DEBUG_VALUE: mas_blk_request_execute_nowait:done <- $x2
	//DEBUG_VALUE: mas_blk_request_execute_nowait:done <- $x2
	//DEBUG_VALUE: mas_blk_request_execute_nowait:rq <- $x1
	//DEBUG_VALUE: mas_blk_request_execute_nowait:q <- $x0
	hint	#25
	.cfi_negate_ra_state
	stp	x29, x30, [sp, #-16]!           // 16-byte Folded Spill
	mov	x29, sp
	.cfi_def_cfa w29, 16
	.cfi_offset w30, -8
	.cfi_offset w29, -16
.Ltmp162:
	.loc	2 543 2 prologue_end            // kernel/platform_source/basicplatform/block/mas_blk_core.c:543:2
	bl	mas_blk_busyidle_check_execute_request
.Ltmp163:
	//DEBUG_VALUE: mas_blk_request_execute_nowait:done <- [DW_OP_LLVM_entry_value 1] $x2
	//DEBUG_VALUE: mas_blk_request_execute_nowait:rq <- [DW_OP_LLVM_entry_value 1] $x1
	//DEBUG_VALUE: mas_blk_request_execute_nowait:q <- [DW_OP_LLVM_entry_value 1] $x0
	.loc	2 544 1                         // kernel/platform_source/basicplatform/block/mas_blk_core.c:544:1
	ldp	x29, x30, [sp], #16             // 16-byte Folded Reload
	hint	#29
	ret
.Ltmp164:
.Lfunc_end21:
	.size	mas_blk_request_execute_nowait, .Lfunc_end21-mas_blk_request_execute_nowait
	.cfi_endproc
                                        // -- End function
	.globl	mas_blk_mq_rq_ctx_init          // -- Begin function mas_blk_mq_rq_ctx_init
	.p2align	2
	.type	mas_blk_mq_rq_ctx_init,@function
mas_blk_mq_rq_ctx_init:                 // @mas_blk_mq_rq_ctx_init
.Lfunc_begin22:
	.loc	2 551 0                         // kernel/platform_source/basicplatform/block/mas_blk_core.c:551:0
	.cfi_startproc
// %bb.0:
	//DEBUG_VALUE: mas_blk_mq_rq_ctx_init:q <- $x0
	//DEBUG_VALUE: mas_blk_mq_rq_ctx_init:q <- $x0
	//DEBUG_VALUE: mas_blk_mq_rq_ctx_init:ctx <- $x1
	//DEBUG_VALUE: mas_blk_mq_rq_ctx_init:rq <- $x2
	//DEBUG_VALUE: mas_blk_mq_rq_ctx_init:rq <- $x2
	hint	#25
	.cfi_negate_ra_state
	stp	x29, x30, [sp, #-16]!           // 16-byte Folded Spill
	mov	x29, sp
	.cfi_def_cfa w29, 16
	.cfi_offset w30, -8
	.cfi_offset w29, -16
.Ltmp165:
	.loc	2 552 9 prologue_end            // kernel/platform_source/basicplatform/block/mas_blk_core.c:552:9
	ldr	x8, [x0, #1440]
	//DEBUG_VALUE: mas_blk_mq_rq_ctx_init:ctx <- $x1
	.loc	2 552 23 is_stmt 0              // kernel/platform_source/basicplatform/block/mas_blk_core.c:552:23
	cbz	x8, .LBB22_3
.Ltmp166:
// %bb.1:
	//DEBUG_VALUE: mas_blk_mq_rq_ctx_init:rq <- $x2
	//DEBUG_VALUE: mas_blk_mq_rq_ctx_init:ctx <- $x1
	//DEBUG_VALUE: mas_blk_mq_rq_ctx_init:q <- $x0
	.loc	2 552 44                        // kernel/platform_source/basicplatform/block/mas_blk_core.c:552:44
	ldr	x8, [x8, #32]
.Ltmp167:
	.loc	2 552 6                         // kernel/platform_source/basicplatform/block/mas_blk_core.c:552:6
	cbz	x8, .LBB22_3
.Ltmp168:
// %bb.2:
	//DEBUG_VALUE: mas_blk_mq_rq_ctx_init:rq <- $x2
	//DEBUG_VALUE: mas_blk_mq_rq_ctx_init:ctx <- $x1
	//DEBUG_VALUE: mas_blk_mq_rq_ctx_init:q <- $x0
	.loc	2 553 3 is_stmt 1               // kernel/platform_source/basicplatform/block/mas_blk_core.c:553:3
	blr	x8
.Ltmp169:
	//DEBUG_VALUE: mas_blk_mq_rq_ctx_init:rq <- [DW_OP_LLVM_entry_value 1] $x2
	//DEBUG_VALUE: mas_blk_mq_rq_ctx_init:ctx <- [DW_OP_LLVM_entry_value 1] $x1
	//DEBUG_VALUE: mas_blk_mq_rq_ctx_init:q <- [DW_OP_LLVM_entry_value 1] $x0
.LBB22_3:
	.loc	2 554 1                         // kernel/platform_source/basicplatform/block/mas_blk_core.c:554:1
	ldp	x29, x30, [sp], #16             // 16-byte Folded Reload
	hint	#29
	ret
.Ltmp170:
.Lfunc_end22:
	.size	mas_blk_mq_rq_ctx_init, .Lfunc_end22-mas_blk_mq_rq_ctx_init
	.cfi_endproc
                                        // -- End function
	.globl	mas_blk_mq_request_start        // -- Begin function mas_blk_mq_request_start
	.p2align	2
	.type	mas_blk_mq_request_start,@function
mas_blk_mq_request_start:               // @mas_blk_mq_request_start
.Lfunc_begin23:
	.loc	2 560 0                         // kernel/platform_source/basicplatform/block/mas_blk_core.c:560:0
	.cfi_startproc
// %bb.0:
	//DEBUG_VALUE: mas_blk_mq_request_start:req <- $x0
	hint	#25
	.cfi_negate_ra_state
	stp	x29, x30, [sp, #-32]!           // 16-byte Folded Spill
	str	x19, [sp, #16]                  // 8-byte Folded Spill
	mov	x29, sp
	.cfi_def_cfa w29, 32
	.cfi_offset w19, -16
	.cfi_offset w30, -24
	.cfi_offset w29, -32
.Ltmp171:
	.loc	2 561 2 prologue_end            // kernel/platform_source/basicplatform/block/mas_blk_core.c:561:2
	mov	w1, #5
	mov	x19, x0
.Ltmp172:
	//DEBUG_VALUE: mas_blk_mq_request_start:req <- $x19
	bl	mas_blk_latency_req_check
.Ltmp173:
	.loc	2 562 6                         // kernel/platform_source/basicplatform/block/mas_blk_core.c:562:6
	ldr	x8, [x19]
	mov	w10, #28570
	movk	w10, #4, lsl #16
	ldr	x9, [x8, #1192]
.Ltmp174:
	.loc	2 562 6 is_stmt 0               // kernel/platform_source/basicplatform/block/mas_blk_core.c:562:6
	cmp	x9, x10
	b.eq	.LBB23_2
.Ltmp175:
.LBB23_1:
	//DEBUG_VALUE: mas_blk_mq_request_start:req <- $x19
	.loc	2 565 1 is_stmt 1               // kernel/platform_source/basicplatform/block/mas_blk_core.c:565:1
	ldr	x19, [sp, #16]                  // 8-byte Folded Reload
.Ltmp176:
	//DEBUG_VALUE: mas_blk_mq_request_start:req <- [DW_OP_LLVM_entry_value 1] $x0
	ldp	x29, x30, [sp], #32             // 16-byte Folded Reload
	hint	#29
	ret
.Ltmp177:
.LBB23_2:
	//DEBUG_VALUE: mas_blk_mq_request_start:req <- $x19
	//DEBUG_VALUE: mas_blk_io_speed_adj_func:req <- $x19
	//DEBUG_VALUE: blk_rq_is_passthrough:rq <- $x19
	//DEBUG_VALUE: blk_rq_is_scsi:rq <- $x19
	.loc	3 438 24                        // kernel/include/linux/blkdev.h:438:24
	ldr	w9, [x19, #24]
.Ltmp178:
	//DEBUG_VALUE: blk_op_is_scsi:op <- [DW_OP_constu 255, DW_OP_and, DW_OP_stack_value] undef
	.loc	3 428 30                        // kernel/include/linux/blkdev.h:428:30
	and	w10, w9, #0xfc
.Ltmp179:
	.loc	2 182 51                        // kernel/platform_source/basicplatform/block/mas_blk_core.c:182:51
	cmp	w10, #32                        // =32
	b.eq	.LBB23_1
.Ltmp180:
// %bb.3:
	//DEBUG_VALUE: mas_blk_io_speed_adj_func:req <- $x19
	//DEBUG_VALUE: mas_blk_mq_request_start:req <- $x19
	//DEBUG_VALUE: blk_op_is_scsi:op <- [DW_OP_constu 255, DW_OP_and, DW_OP_stack_value] undef
	.loc	2 182 60 is_stmt 0              // kernel/platform_source/basicplatform/block/mas_blk_core.c:182:60
	ldr	w10, [x19, #40]
.Ltmp181:
	.loc	2 182 6                         // kernel/platform_source/basicplatform/block/mas_blk_core.c:182:6
	cbz	w10, .LBB23_1
.Ltmp182:
// %bb.4:
	//DEBUG_VALUE: mas_blk_io_speed_adj_func:req <- $x19
	//DEBUG_VALUE: mas_blk_mq_request_start:req <- $x19
	.loc	2 0 0                           // kernel/platform_source/basicplatform/block/mas_blk_core.c:0:0
	and	w9, w9, #0xff
	//DEBUG_VALUE: blk_op_is_scsi:op <- [DW_OP_constu 255, DW_OP_and, DW_OP_stack_value] $w9
	.loc	2 185 6 is_stmt 1               // kernel/platform_source/basicplatform/block/mas_blk_core.c:185:6
	cmp	w9, #1                          // =1
	b.ne	.LBB23_11
.Ltmp183:
// %bb.5:
	//DEBUG_VALUE: mas_blk_io_speed_adj_func:req <- $x19
	//DEBUG_VALUE: mas_blk_mq_request_start:req <- $x19
	.loc	2 186 30                        // kernel/platform_source/basicplatform/block/mas_blk_core.c:186:30
	cmp	w10, #32, lsl #12               // =131072
	b.hi	.LBB23_8
.Ltmp184:
// %bb.6:
	//DEBUG_VALUE: mas_blk_io_speed_adj_func:req <- $x19
	//DEBUG_VALUE: mas_blk_mq_request_start:req <- $x19
	.loc	2 0 0 is_stmt 0                 // kernel/platform_source/basicplatform/block/mas_blk_core.c:0:0
	ldr	x0, [x8, #1376]
	.loc	2 186 30                        // kernel/platform_source/basicplatform/block/mas_blk_core.c:186:30
	cbz	x0, .LBB23_8
.Ltmp185:
// %bb.7:
	//DEBUG_VALUE: mas_blk_io_speed_adj_func:req <- $x19
	//DEBUG_VALUE: mas_blk_mq_request_start:req <- $x19
	.loc	2 188 4 is_stmt 1               // kernel/platform_source/basicplatform/block/mas_blk_core.c:188:4
	bl	__udelay
.Ltmp186:
.LBB23_8:
	//DEBUG_VALUE: mas_blk_io_speed_adj_func:req <- $x19
	//DEBUG_VALUE: mas_blk_mq_request_start:req <- $x19
	.loc	2 189 12                        // kernel/platform_source/basicplatform/block/mas_blk_core.c:189:12
	ldr	x8, [x19]
	.loc	2 189 25 is_stmt 0              // kernel/platform_source/basicplatform/block/mas_blk_core.c:189:25
	ldr	x0, [x8, #1360]
	.loc	2 189 30                        // kernel/platform_source/basicplatform/block/mas_blk_core.c:189:30
	cbz	x0, .LBB23_11
.Ltmp187:
// %bb.9:
	//DEBUG_VALUE: mas_blk_io_speed_adj_func:req <- $x19
	//DEBUG_VALUE: mas_blk_mq_request_start:req <- $x19
	.loc	2 190 10 is_stmt 1              // kernel/platform_source/basicplatform/block/mas_blk_core.c:190:10
	ldr	w8, [x19, #40]
.Ltmp188:
	.loc	2 189 7                         // kernel/platform_source/basicplatform/block/mas_blk_core.c:189:7
	cmp	w8, #32, lsl #12                // =131072
	b.ls	.LBB23_11
.Ltmp189:
// %bb.10:
	//DEBUG_VALUE: mas_blk_io_speed_adj_func:req <- $x19
	//DEBUG_VALUE: mas_blk_mq_request_start:req <- $x19
	.loc	2 191 4                         // kernel/platform_source/basicplatform/block/mas_blk_core.c:191:4
	bl	__udelay
.Ltmp190:
.LBB23_11:
	//DEBUG_VALUE: mas_blk_io_speed_adj_func:req <- $x19
	//DEBUG_VALUE: mas_blk_mq_request_start:req <- $x19
	.loc	2 193 6                         // kernel/platform_source/basicplatform/block/mas_blk_core.c:193:6
	ldrb	w8, [x19, #24]
	cbnz	w8, .LBB23_1
.Ltmp191:
// %bb.12:
	//DEBUG_VALUE: mas_blk_io_speed_adj_func:req <- $x19
	//DEBUG_VALUE: mas_blk_mq_request_start:req <- $x19
	.loc	2 194 12                        // kernel/platform_source/basicplatform/block/mas_blk_core.c:194:12
	ldr	x8, [x19]
	.loc	2 194 25 is_stmt 0              // kernel/platform_source/basicplatform/block/mas_blk_core.c:194:25
	ldr	x0, [x8, #1368]
	.loc	2 194 30                        // kernel/platform_source/basicplatform/block/mas_blk_core.c:194:30
	cbz	x0, .LBB23_15
.Ltmp192:
// %bb.13:
	//DEBUG_VALUE: mas_blk_io_speed_adj_func:req <- $x19
	//DEBUG_VALUE: mas_blk_mq_request_start:req <- $x19
	.loc	2 195 10 is_stmt 1              // kernel/platform_source/basicplatform/block/mas_blk_core.c:195:10
	ldr	w8, [x19, #40]
.Ltmp193:
	.loc	2 194 7                         // kernel/platform_source/basicplatform/block/mas_blk_core.c:194:7
	cmp	w8, #32, lsl #12                // =131072
	b.hi	.LBB23_15
.Ltmp194:
// %bb.14:
	//DEBUG_VALUE: mas_blk_io_speed_adj_func:req <- $x19
	//DEBUG_VALUE: mas_blk_mq_request_start:req <- $x19
	.loc	2 196 4                         // kernel/platform_source/basicplatform/block/mas_blk_core.c:196:4
	bl	__udelay
.Ltmp195:
.LBB23_15:
	//DEBUG_VALUE: mas_blk_io_speed_adj_func:req <- $x19
	//DEBUG_VALUE: mas_blk_mq_request_start:req <- $x19
	.loc	2 197 12                        // kernel/platform_source/basicplatform/block/mas_blk_core.c:197:12
	ldr	x8, [x19]
	.loc	2 197 25 is_stmt 0              // kernel/platform_source/basicplatform/block/mas_blk_core.c:197:25
	ldr	x0, [x8, #1352]
	.loc	2 197 30                        // kernel/platform_source/basicplatform/block/mas_blk_core.c:197:30
	cbz	x0, .LBB23_1
.Ltmp196:
// %bb.16:
	//DEBUG_VALUE: mas_blk_io_speed_adj_func:req <- $x19
	//DEBUG_VALUE: mas_blk_mq_request_start:req <- $x19
	.loc	2 198 10 is_stmt 1              // kernel/platform_source/basicplatform/block/mas_blk_core.c:198:10
	ldr	w8, [x19, #40]
.Ltmp197:
	.loc	2 197 7                         // kernel/platform_source/basicplatform/block/mas_blk_core.c:197:7
	cmp	w8, #32, lsl #12                // =131072
	b.ls	.LBB23_1
.Ltmp198:
// %bb.17:
	//DEBUG_VALUE: mas_blk_io_speed_adj_func:req <- $x19
	//DEBUG_VALUE: mas_blk_mq_request_start:req <- $x19
	.loc	2 199 4                         // kernel/platform_source/basicplatform/block/mas_blk_core.c:199:4
	bl	__udelay
.Ltmp199:
	.loc	2 0 4 is_stmt 0                 // kernel/platform_source/basicplatform/block/mas_blk_core.c:0:4
	b	.LBB23_1
.Ltmp200:
.Lfunc_end23:
	.size	mas_blk_mq_request_start, .Lfunc_end23-mas_blk_mq_request_start
	.cfi_endproc
                                        // -- End function
	.globl	mas_blk_request_start           // -- Begin function mas_blk_request_start
	.p2align	2
	.type	mas_blk_request_start,@function
mas_blk_request_start:                  // @mas_blk_request_start
.Lfunc_begin24:
	.loc	2 571 0 is_stmt 1               // kernel/platform_source/basicplatform/block/mas_blk_core.c:571:0
	.cfi_startproc
// %bb.0:
	//DEBUG_VALUE: mas_blk_request_start:req <- $x0
	//DEBUG_VALUE: mas_blk_request_start:req <- $x0
	hint	#25
	.cfi_negate_ra_state
	stp	x29, x30, [sp, #-16]!           // 16-byte Folded Spill
	mov	x29, sp
	.cfi_def_cfa w29, 16
	.cfi_offset w30, -8
	.cfi_offset w29, -16
.Ltmp201:
	.loc	2 572 2 prologue_end            // kernel/platform_source/basicplatform/block/mas_blk_core.c:572:2
	mov	w1, #5
	//DEBUG_VALUE: mas_blk_request_start:req <- $x0
	bl	mas_blk_latency_req_check
.Ltmp202:
	//DEBUG_VALUE: mas_blk_request_start:req <- [DW_OP_LLVM_entry_value 1] $x0
	.loc	2 573 1                         // kernel/platform_source/basicplatform/block/mas_blk_core.c:573:1
	ldp	x29, x30, [sp], #16             // 16-byte Folded Reload
	hint	#29
	ret
.Ltmp203:
.Lfunc_end24:
	.size	mas_blk_request_start, .Lfunc_end24-mas_blk_request_start
	.cfi_endproc
                                        // -- End function
	.globl	mas_blk_requeue_request         // -- Begin function mas_blk_requeue_request
	.p2align	2
	.type	mas_blk_requeue_request,@function
mas_blk_requeue_request:                // @mas_blk_requeue_request
.Lfunc_begin25:
	.loc	2 579 0                         // kernel/platform_source/basicplatform/block/mas_blk_core.c:579:0
	.cfi_startproc
// %bb.0:
	//DEBUG_VALUE: mas_blk_requeue_request:rq <- $x0
	//DEBUG_VALUE: mas_blk_requeue_request:rq <- $x0
	hint	#25
	.cfi_negate_ra_state
	stp	x29, x30, [sp, #-16]!           // 16-byte Folded Spill
	mov	x29, sp
	.cfi_def_cfa w29, 16
	.cfi_offset w30, -8
	.cfi_offset w29, -16
.Ltmp204:
	.loc	2 580 2 prologue_end            // kernel/platform_source/basicplatform/block/mas_blk_core.c:580:2
	mov	w1, #22
	//DEBUG_VALUE: mas_blk_requeue_request:rq <- $x0
	bl	mas_blk_latency_req_check
.Ltmp205:
	//DEBUG_VALUE: mas_blk_requeue_request:rq <- [DW_OP_LLVM_entry_value 1] $x0
	.loc	2 582 1                         // kernel/platform_source/basicplatform/block/mas_blk_core.c:582:1
	ldp	x29, x30, [sp], #16             // 16-byte Folded Reload
	hint	#29
	ret
.Ltmp206:
.Lfunc_end25:
	.size	mas_blk_requeue_request, .Lfunc_end25-mas_blk_requeue_request
	.cfi_endproc
                                        // -- End function
	.globl	mas_blk_request_update          // -- Begin function mas_blk_request_update
	.p2align	2
	.type	mas_blk_request_update,@function
mas_blk_request_update:                 // @mas_blk_request_update
.Lfunc_begin26:
	.loc	2 589 0                         // kernel/platform_source/basicplatform/block/mas_blk_core.c:589:0
	.cfi_startproc
// %bb.0:
	//DEBUG_VALUE: mas_blk_request_update:req <- $x0
	//DEBUG_VALUE: mas_blk_request_update:error <- $w1
	//DEBUG_VALUE: mas_blk_request_update:nr_bytes <- $w2
	hint	#25
	.cfi_negate_ra_state
	stp	x29, x30, [sp, #-32]!           // 16-byte Folded Spill
	str	x19, [sp, #16]                  // 8-byte Folded Spill
	mov	x29, sp
	.cfi_def_cfa w29, 32
	.cfi_offset w19, -16
	.cfi_offset w30, -24
	.cfi_offset w29, -32
.Ltmp207:
	.loc	2 590 49 prologue_end           // kernel/platform_source/basicplatform/block/mas_blk_core.c:590:49
	ldr	x8, [x0]
.Ltmp208:
	//DEBUG_VALUE: mas_blk_get_lld:q <- $x8
	.loc	2 0 49 is_stmt 0                // kernel/platform_source/basicplatform/block/mas_blk_core.c:0:49
	mov	x19, x0
.Ltmp209:
	//DEBUG_VALUE: mas_blk_request_update:req <- $x19
	//DEBUG_VALUE: mas_blk_request_update:nr_bytes <- $w2
	//DEBUG_VALUE: mas_blk_request_update:error <- undef
	//DEBUG_VALUE: mas_blk_request_update:req <- $x19
	.loc	2 43 6 is_stmt 1                // kernel/platform_source/basicplatform/block/mas_blk_core.c:43:6
	ldr	x9, [x8, #48]
.Ltmp210:
	//DEBUG_VALUE: mas_blk_request_update:error <- $w1
	.loc	2 43 6 is_stmt 0                // kernel/platform_source/basicplatform/block/mas_blk_core.c:43:6
	cbz	x9, .LBB26_9
.Ltmp211:
// %bb.1:
	//DEBUG_VALUE: mas_blk_request_update:req <- $x19
	//DEBUG_VALUE: mas_blk_get_lld:q <- $x8
	//DEBUG_VALUE: mas_blk_request_update:nr_bytes <- $w2
	//DEBUG_VALUE: mas_blk_request_update:error <- $w1
	.loc	2 44 14 is_stmt 1               // kernel/platform_source/basicplatform/block/mas_blk_core.c:44:14
	ldr	x9, [x8, #2552]
	.loc	2 44 11 is_stmt 0               // kernel/platform_source/basicplatform/block/mas_blk_core.c:44:11
	add	x8, x8, #1448                   // =1448
.Ltmp212:
	add	x10, x9, #64                    // =64
	cmp	x9, #0                          // =0
	csel	x8, x8, x10, eq
.Ltmp213:
.LBB26_2:
	//DEBUG_VALUE: mas_blk_request_update:req <- $x19
	//DEBUG_VALUE: mas_blk_request_update:nr_bytes <- $w2
	//DEBUG_VALUE: mas_blk_request_update:error <- $w1
	//DEBUG_VALUE: mas_blk_request_update:lld <- $x8
	.loc	2 592 6 is_stmt 1               // kernel/platform_source/basicplatform/block/mas_blk_core.c:592:6
	ldrb	w9, [x19, #24]
.Ltmp214:
	.loc	2 592 6 is_stmt 0               // kernel/platform_source/basicplatform/block/mas_blk_core.c:592:6
	cmp	w9, #3                          // =3
	b.eq	.LBB26_7
.Ltmp215:
// %bb.3:
	//DEBUG_VALUE: mas_blk_request_update:req <- $x19
	//DEBUG_VALUE: mas_blk_request_update:lld <- $x8
	//DEBUG_VALUE: mas_blk_request_update:nr_bytes <- $w2
	//DEBUG_VALUE: mas_blk_request_update:error <- $w1
	.loc	2 595 6 is_stmt 1               // kernel/platform_source/basicplatform/block/mas_blk_core.c:595:6
	cmp	w9, #1                          // =1
	b.eq	.LBB26_8
.Ltmp216:
.LBB26_4:
	//DEBUG_VALUE: mas_blk_request_update:req <- $x19
	//DEBUG_VALUE: mas_blk_request_update:lld <- $x8
	//DEBUG_VALUE: mas_blk_request_update:nr_bytes <- $w2
	//DEBUG_VALUE: mas_blk_request_update:error <- $w1
	.loc	2 598 6                         // kernel/platform_source/basicplatform/block/mas_blk_core.c:598:6
	cmp	w9, #2                          // =2
	b.ne	.LBB26_6
.Ltmp217:
.LBB26_5:
	//DEBUG_VALUE: mas_blk_request_update:req <- $x19
	//DEBUG_VALUE: mas_blk_request_update:lld <- $x8
	//DEBUG_VALUE: mas_blk_request_update:nr_bytes <- $w2
	//DEBUG_VALUE: mas_blk_request_update:error <- $w1
	.loc	2 599 29                        // kernel/platform_source/basicplatform/block/mas_blk_core.c:599:29
	and	w1, w1, #0xff
.Ltmp218:
	.loc	2 599 3 is_stmt 0               // kernel/platform_source/basicplatform/block/mas_blk_core.c:599:3
	mov	x0, x19
	bl	mas_blk_flush_update
.Ltmp219:
	//DEBUG_VALUE: mas_blk_request_update:nr_bytes <- [DW_OP_LLVM_entry_value 1] $w2
.LBB26_6:
	//DEBUG_VALUE: mas_blk_request_update:req <- $x19
	.loc	2 601 2 is_stmt 1               // kernel/platform_source/basicplatform/block/mas_blk_core.c:601:2
	mov	w1, #38
	mov	x0, x19
	bl	mas_blk_latency_req_check
.Ltmp220:
	.loc	2 607 1                         // kernel/platform_source/basicplatform/block/mas_blk_core.c:607:1
	ldr	x19, [sp, #16]                  // 8-byte Folded Reload
.Ltmp221:
	ldp	x29, x30, [sp], #32             // 16-byte Folded Reload
	hint	#29
	ret
.LBB26_7:
.Ltmp222:
	//DEBUG_VALUE: mas_blk_request_update:req <- $x19
	//DEBUG_VALUE: mas_blk_request_update:lld <- $x8
	//DEBUG_VALUE: mas_blk_request_update:nr_bytes <- $w2
	//DEBUG_VALUE: mas_blk_request_update:error <- $w1
	.loc	2 593 20                        // kernel/platform_source/basicplatform/block/mas_blk_core.c:593:20
	ldr	x9, [x8, #448]
	add	x9, x9, w2, uxtw
	str	x9, [x8, #448]
.Ltmp223:
	.loc	2 595 6                         // kernel/platform_source/basicplatform/block/mas_blk_core.c:595:6
	ldrb	w9, [x19, #24]
.Ltmp224:
	.loc	2 595 6 is_stmt 0               // kernel/platform_source/basicplatform/block/mas_blk_core.c:595:6
	cmp	w9, #1                          // =1
	b.ne	.LBB26_4
.Ltmp225:
.LBB26_8:
	//DEBUG_VALUE: mas_blk_request_update:req <- $x19
	//DEBUG_VALUE: mas_blk_request_update:lld <- $x8
	//DEBUG_VALUE: mas_blk_request_update:nr_bytes <- $w2
	//DEBUG_VALUE: mas_blk_request_update:error <- $w1
	.loc	2 596 18 is_stmt 1              // kernel/platform_source/basicplatform/block/mas_blk_core.c:596:18
	ldr	x9, [x8, #440]
	add	x9, x9, w2, uxtw
	str	x9, [x8, #440]
.Ltmp226:
	.loc	2 598 6                         // kernel/platform_source/basicplatform/block/mas_blk_core.c:598:6
	ldrb	w9, [x19, #24]
.Ltmp227:
	.loc	2 598 6 is_stmt 0               // kernel/platform_source/basicplatform/block/mas_blk_core.c:598:6
	cmp	w9, #2                          // =2
	b.eq	.LBB26_5
	b	.LBB26_6
.Ltmp228:
.LBB26_9:
	//DEBUG_VALUE: mas_blk_request_update:req <- $x19
	//DEBUG_VALUE: mas_blk_get_lld:q <- $x8
	//DEBUG_VALUE: mas_blk_request_update:nr_bytes <- $w2
	//DEBUG_VALUE: mas_blk_request_update:error <- $w1
	.loc	2 46 13 is_stmt 1               // kernel/platform_source/basicplatform/block/mas_blk_core.c:46:13
	add	x8, x8, #1448                   // =1448
.Ltmp229:
	.loc	2 0 13 is_stmt 0                // kernel/platform_source/basicplatform/block/mas_blk_core.c:0:13
	b	.LBB26_2
.Ltmp230:
.Lfunc_end26:
	.size	mas_blk_request_update, .Lfunc_end26-mas_blk_request_update
	.cfi_endproc
                                        // -- End function
	.globl	mas_blk_mq_request_free         // -- Begin function mas_blk_mq_request_free
	.p2align	2
	.type	mas_blk_mq_request_free,@function
mas_blk_mq_request_free:                // @mas_blk_mq_request_free
.Lfunc_begin27:
	.loc	2 613 0 is_stmt 1               // kernel/platform_source/basicplatform/block/mas_blk_core.c:613:0
	.cfi_startproc
// %bb.0:
	//DEBUG_VALUE: mas_blk_mq_request_free:rq <- $x0
	//DEBUG_VALUE: mas_blk_mq_request_free:rq <- $x0
	hint	#25
	.cfi_negate_ra_state
	stp	x29, x30, [sp, #-16]!           // 16-byte Folded Spill
	mov	x29, sp
	.cfi_def_cfa w29, 16
	.cfi_offset w30, -8
	.cfi_offset w29, -16
.Ltmp231:
	.loc	2 616 2 prologue_end            // kernel/platform_source/basicplatform/block/mas_blk_core.c:616:2
	mov	w1, #39
	.loc	2 614 26                        // kernel/platform_source/basicplatform/block/mas_blk_core.c:614:26
	str	xzr, [x0, #592]
	.loc	2 616 2                         // kernel/platform_source/basicplatform/block/mas_blk_core.c:616:2
	bl	mas_blk_latency_req_check
.Ltmp232:
	//DEBUG_VALUE: mas_blk_mq_request_free:rq <- [DW_OP_LLVM_entry_value 1] $x0
	.loc	2 617 1                         // kernel/platform_source/basicplatform/block/mas_blk_core.c:617:1
	ldp	x29, x30, [sp], #16             // 16-byte Folded Reload
	hint	#29
	ret
.Ltmp233:
.Lfunc_end27:
	.size	mas_blk_mq_request_free, .Lfunc_end27-mas_blk_mq_request_free
	.cfi_endproc
                                        // -- End function
	.globl	mas_blk_request_put             // -- Begin function mas_blk_request_put
	.p2align	2
	.type	mas_blk_request_put,@function
mas_blk_request_put:                    // @mas_blk_request_put
.Lfunc_begin28:
	.loc	2 623 0                         // kernel/platform_source/basicplatform/block/mas_blk_core.c:623:0
	.cfi_startproc
// %bb.0:
	//DEBUG_VALUE: mas_blk_request_put:req <- $x0
	//DEBUG_VALUE: mas_blk_request_put:req <- $x0
	hint	#25
	.cfi_negate_ra_state
	stp	x29, x30, [sp, #-16]!           // 16-byte Folded Spill
	mov	x29, sp
	.cfi_def_cfa w29, 16
	.cfi_offset w30, -8
	.cfi_offset w29, -16
.Ltmp234:
	.loc	2 626 2 prologue_end            // kernel/platform_source/basicplatform/block/mas_blk_core.c:626:2
	mov	w1, #39
	.loc	2 624 27                        // kernel/platform_source/basicplatform/block/mas_blk_core.c:624:27
	str	xzr, [x0, #592]
	.loc	2 626 2                         // kernel/platform_source/basicplatform/block/mas_blk_core.c:626:2
	bl	mas_blk_latency_req_check
.Ltmp235:
	//DEBUG_VALUE: mas_blk_request_put:req <- [DW_OP_LLVM_entry_value 1] $x0
	.loc	2 627 1                         // kernel/platform_source/basicplatform/block/mas_blk_core.c:627:1
	ldp	x29, x30, [sp], #16             // 16-byte Folded Reload
	hint	#29
	ret
.Ltmp236:
.Lfunc_end28:
	.size	mas_blk_request_put, .Lfunc_end28-mas_blk_request_put
	.cfi_endproc
                                        // -- End function
	.globl	mas_blk_check_partition_done    // -- Begin function mas_blk_check_partition_done
	.p2align	2
	.type	mas_blk_check_partition_done,@function
mas_blk_check_partition_done:           // @mas_blk_check_partition_done
.Lfunc_begin29:
	.loc	2 667 0                         // kernel/platform_source/basicplatform/block/mas_blk_core.c:667:0
	.cfi_startproc
// %bb.0:
	.loc	2 668 8 prologue_end            // kernel/platform_source/basicplatform/block/mas_blk_core.c:668:8
	hint	#34
.Ltmp237:
	//DEBUG_VALUE: mas_blk_check_partition_done:disk <- $x0
	//DEBUG_VALUE: mas_blk_check_partition_done:disk <- $x0
	ldr	x8, [x0, #1064]
	and	w9, w1, #0x1
.Ltmp238:
	//DEBUG_VALUE: mas_blk_check_partition_done:has_part_tbl <- $w9
	.loc	2 668 44 is_stmt 0              // kernel/platform_source/basicplatform/block/mas_blk_core.c:668:44
	strb	w9, [x8, #1184]
	.loc	2 669 1 is_stmt 1               // kernel/platform_source/basicplatform/block/mas_blk_core.c:669:1
	ret
.Ltmp239:
.Lfunc_end29:
	.size	mas_blk_check_partition_done, .Lfunc_end29-mas_blk_check_partition_done
	.cfi_endproc
                                        // -- End function
	.globl	mas_blk_allocated_queue_init    // -- Begin function mas_blk_allocated_queue_init
	.p2align	2
	.type	mas_blk_allocated_queue_init,@function
mas_blk_allocated_queue_init:           // @mas_blk_allocated_queue_init
.Lfunc_begin30:
	.loc	2 675 0                         // kernel/platform_source/basicplatform/block/mas_blk_core.c:675:0
	.cfi_startproc
// %bb.0:
	//DEBUG_VALUE: mas_blk_allocated_queue_init:q <- $x0
	hint	#25
	.cfi_negate_ra_state
	stp	x29, x30, [sp, #-48]!           // 16-byte Folded Spill
	str	x21, [sp, #16]                  // 8-byte Folded Spill
	stp	x20, x19, [sp, #32]             // 16-byte Folded Spill
	mov	x29, sp
	.cfi_def_cfa w29, 48
	.cfi_offset w19, -8
	.cfi_offset w20, -16
	.cfi_offset w21, -32
	.cfi_offset w30, -40
	.cfi_offset w29, -48
.Ltmp240:
	.loc	2 676 31 prologue_end           // kernel/platform_source/basicplatform/block/mas_blk_core.c:676:31
	add	x8, x0, #1336                   // =1336
	mov	w9, #122
.Ltmp241:
	//DEBUG_VALUE: INIT_LIST_HEAD:list <- $x8
	.loc	2 638 2                         // kernel/platform_source/basicplatform/block/mas_blk_core.c:638:2
	adrp	x1, .L.str.4
	adrp	x2, mas_blk_dev_lld_init.__key
	mov	x19, x0
.Ltmp242:
	//DEBUG_VALUE: mas_blk_allocated_queue_init:q <- $x19
	.loc	156 35 2                        // kernel/include/linux/list.h:35:2
	str	x8, [x0, #1336]
.Ltmp243:
	.loc	156 36 13                       // kernel/include/linux/list.h:36:13
	str	x8, [x0, #1344]
.Ltmp244:
	.loc	2 677 34                        // kernel/platform_source/basicplatform/block/mas_blk_core.c:677:34
	strb	wzr, [x0, #1184]
.Ltmp245:
	//DEBUG_VALUE: mas_blk_dev_lld_init:data <- $x19
	//DEBUG_VALUE: mas_blk_dev_lld_init:type <- 0
	//DEBUG_VALUE: mas_blk_dev_lld_init:blk_lld <- [DW_OP_plus_uconst 1448, DW_OP_stack_value] $x19
	.loc	2 636 22                        // kernel/platform_source/basicplatform/block/mas_blk_core.c:636:22
	str	w9, [x0, #1448]
	.loc	2 637 21                        // kernel/platform_source/basicplatform/block/mas_blk_core.c:637:21
	str	wzr, [x0, #1908]
.Ltmp246:
	//DEBUG_VALUE: spinlock_check:lock <- [DW_OP_plus_uconst 1448, DW_OP_plus_uconst 464, DW_OP_stack_value] $x19
	.file	157 "/mnt/disk/jenkins/ci/workspace/chipset_pipeline_release/opensource/component_code/vendor/huawei/extra/build/build_script/kirin_kernel_release" "kernel/include/linux/spinlock.h"
	.loc	157 329 16                      // kernel/include/linux/spinlock.h:329:16
	add	x0, x0, #1912                   // =1912
.Ltmp247:
	.loc	2 638 2                         // kernel/platform_source/basicplatform/block/mas_blk_core.c:638:2
	add	x1, x1, :lo12:.L.str.4
	add	x2, x2, :lo12:mas_blk_dev_lld_init.__key
	mov	w3, #2
	bl	__raw_spin_lock_init
.Ltmp248:
	.loc	2 640 2                         // kernel/platform_source/basicplatform/block/mas_blk_core.c:640:2
	adrp	x1, .L.str.6
	adrp	x2, mas_blk_dev_lld_init.__key.5
	mov	w21, #1
.Ltmp249:
	.loc	157 329 16                      // kernel/include/linux/spinlock.h:329:16
	add	x0, x19, #1944                  // =1944
.Ltmp250:
	.loc	2 640 2                         // kernel/platform_source/basicplatform/block/mas_blk_core.c:640:2
	add	x1, x1, :lo12:.L.str.6
	add	x2, x2, :lo12:mas_blk_dev_lld_init.__key.5
	mov	w3, #2
.Ltmp251:
	.loc	2 639 23                        // kernel/platform_source/basicplatform/block/mas_blk_core.c:639:23
	str	w21, [x19, #1936]
	//DEBUG_VALUE: spinlock_check:lock <- [DW_OP_plus_uconst 1448, DW_OP_plus_uconst 496, DW_OP_stack_value] $x19
.Ltmp252:
	.loc	2 640 2                         // kernel/platform_source/basicplatform/block/mas_blk_core.c:640:2
	bl	__raw_spin_lock_init
.Ltmp253:
	.loc	2 647 44                        // kernel/platform_source/basicplatform/block/mas_blk_core.c:647:44
	add	x20, x19, #1536                 // =1536
.Ltmp254:
	.loc	2 644 27                        // kernel/platform_source/basicplatform/block/mas_blk_core.c:644:27
	add	x8, x19, #1968                  // =1968
.Ltmp255:
	//DEBUG_VALUE: INIT_LIST_HEAD:list <- $x8
	.loc	2 647 6                         // kernel/platform_source/basicplatform/block/mas_blk_core.c:647:6
	mov	x0, x20
.Ltmp256:
	.loc	156 35 2                        // kernel/include/linux/list.h:35:2
	str	x8, [x19, #1968]
.Ltmp257:
	.loc	156 36 13                       // kernel/include/linux/list.h:36:13
	str	x8, [x19, #1976]
.Ltmp258:
	.loc	2 645 16                        // kernel/platform_source/basicplatform/block/mas_blk_core.c:645:16
	str	wzr, [x19, #1452]
	.loc	2 646 16                        // kernel/platform_source/basicplatform/block/mas_blk_core.c:646:16
	str	x19, [x19, #1456]
.Ltmp259:
	.loc	2 647 6                         // kernel/platform_source/basicplatform/block/mas_blk_core.c:647:6
	bl	mas_blk_busyidle_state_init
.Ltmp260:
	.loc	2 0 0 is_stmt 0                 // kernel/platform_source/basicplatform/block/mas_blk_core.c:0:0
	ldr	x8, [x19, #1472]
	.loc	2 647 6                         // kernel/platform_source/basicplatform/block/mas_blk_core.c:647:6
	cmp	w0, #0                          // =0
	and	x9, x8, #0xfffffffffffffff7
	csel	x8, x8, x9, eq
	.loc	2 649 6 is_stmt 1               // kernel/platform_source/basicplatform/block/mas_blk_core.c:649:6
	tbz	w8, #5, .LBB30_2
.Ltmp261:
// %bb.1:
	//DEBUG_VALUE: mas_blk_dev_lld_init:blk_lld <- [DW_OP_plus_uconst 1448, DW_OP_stack_value] $x19
	//DEBUG_VALUE: mas_blk_dev_lld_init:data <- $x19
	//DEBUG_VALUE: mas_blk_allocated_queue_init:q <- $x19
	//DEBUG_VALUE: mas_blk_dev_lld_init:type <- 0
	.loc	2 650 39                        // kernel/platform_source/basicplatform/block/mas_blk_core.c:650:39
	strb	w21, [x20]
.Ltmp262:
.LBB30_2:
	//DEBUG_VALUE: mas_blk_dev_lld_init:blk_lld <- [DW_OP_plus_uconst 1448, DW_OP_stack_value] $x19
	//DEBUG_VALUE: mas_blk_dev_lld_init:data <- $x19
	//DEBUG_VALUE: mas_blk_allocated_queue_init:q <- $x19
	//DEBUG_VALUE: mas_blk_dev_lld_init:type <- 0
	.loc	2 652 20                        // kernel/platform_source/basicplatform/block/mas_blk_core.c:652:20
	orr	x8, x8, #0x40
	str	x8, [x19, #1472]
	.loc	2 659 17                        // kernel/platform_source/basicplatform/block/mas_blk_core.c:659:17
	str	xzr, [x19, #2000]
.Ltmp263:
	.loc	2 679 1                         // kernel/platform_source/basicplatform/block/mas_blk_core.c:679:1
	ldp	x20, x19, [sp, #32]             // 16-byte Folded Reload
.Ltmp264:
	//DEBUG_VALUE: mas_blk_allocated_queue_init:q <- [DW_OP_LLVM_entry_value 1] $x0
	ldr	x21, [sp, #16]                  // 8-byte Folded Reload
	ldp	x29, x30, [sp], #48             // 16-byte Folded Reload
	hint	#29
	ret
.Ltmp265:
.Lfunc_end30:
	.size	mas_blk_allocated_queue_init, .Lfunc_end30-mas_blk_allocated_queue_init
	.cfi_endproc
                                        // -- End function
	.globl	mas_blk_sq_init_allocated_queue // -- Begin function mas_blk_sq_init_allocated_queue
	.p2align	2
	.type	mas_blk_sq_init_allocated_queue,@function
mas_blk_sq_init_allocated_queue:        // @mas_blk_sq_init_allocated_queue
.Lfunc_begin31:
	.loc	2 693 0                         // kernel/platform_source/basicplatform/block/mas_blk_core.c:693:0
	.cfi_startproc
// %bb.0:
	//DEBUG_VALUE: mas_blk_sq_init_allocated_queue:q <- $x0
	//DEBUG_VALUE: mas_blk_queue_init_common:q <- $x0
	hint	#25
	.cfi_negate_ra_state
	stp	x29, x30, [sp, #-32]!           // 16-byte Folded Spill
	str	x19, [sp, #16]                  // 8-byte Folded Spill
	mov	x29, sp
	.cfi_def_cfa w29, 32
	.cfi_offset w19, -16
	.cfi_offset w30, -24
	.cfi_offset w29, -32
	mov	x19, x0
.Ltmp266:
	//DEBUG_VALUE: mas_blk_queue_init_common:q <- $x19
	//DEBUG_VALUE: mas_blk_sq_init_allocated_queue:q <- $x19
	.loc	2 683 2 prologue_end            // kernel/platform_source/basicplatform/block/mas_blk_core.c:683:2
	bl	mas_blk_dump_register_queue
.Ltmp267:
	.loc	2 684 2                         // kernel/platform_source/basicplatform/block/mas_blk_core.c:684:2
	mov	x0, x19
	bl	mas_blk_queue_latency_init
.Ltmp268:
	.loc	2 685 2                         // kernel/platform_source/basicplatform/block/mas_blk_core.c:685:2
	mov	x0, x19
	bl	mas_blk_queue_async_flush_init
.Ltmp269:
	//DEBUG_VALUE: mas_blk_io_speed_adj_init:q <- $x19
	.loc	2 239 2                         // kernel/platform_source/basicplatform/block/mas_blk_core.c:239:2
	adrp	x1, _cfi_mas_blk_queue_usr_ctrl_recovery_timer_expire
	add	x0, x19, #1384                  // =1384
	add	x1, x1, :lo12:_cfi_mas_blk_queue_usr_ctrl_recovery_timer_expire
	mov	w2, wzr
	mov	x3, xzr
	mov	x4, xzr
	.loc	2 235 20                        // kernel/platform_source/basicplatform/block/mas_blk_core.c:235:20
	str	xzr, [x19, #1376]
	str	xzr, [x19, #1368]
	str	xzr, [x19, #1360]
	str	xzr, [x19, #1352]
	.loc	2 239 2                         // kernel/platform_source/basicplatform/block/mas_blk_core.c:239:2
	bl	init_timer_key
.Ltmp270:
	.loc	2 695 1                         // kernel/platform_source/basicplatform/block/mas_blk_core.c:695:1
	ldr	x19, [sp, #16]                  // 8-byte Folded Reload
.Ltmp271:
	ldp	x29, x30, [sp], #32             // 16-byte Folded Reload
	hint	#29
	ret
.Ltmp272:
.Lfunc_end31:
	.size	mas_blk_sq_init_allocated_queue, .Lfunc_end31-mas_blk_sq_init_allocated_queue
	.cfi_endproc
                                        // -- End function
	.globl	mas_blk_mq_init_allocated_queue // -- Begin function mas_blk_mq_init_allocated_queue
	.p2align	2
	.type	mas_blk_mq_init_allocated_queue,@function
mas_blk_mq_init_allocated_queue:        // @mas_blk_mq_init_allocated_queue
.Lfunc_begin32:
	.loc	2 701 0                         // kernel/platform_source/basicplatform/block/mas_blk_core.c:701:0
	.cfi_startproc
// %bb.0:
	//DEBUG_VALUE: mas_blk_mq_init_allocated_queue:q <- $x0
	hint	#25
	.cfi_negate_ra_state
	stp	x29, x30, [sp, #-32]!           // 16-byte Folded Spill
	stp	x20, x19, [sp, #16]             // 16-byte Folded Spill
	mov	x29, sp
	.cfi_def_cfa w29, 32
	.cfi_offset w19, -8
	.cfi_offset w20, -16
	.cfi_offset w30, -24
	.cfi_offset w29, -32
.Ltmp273:
	.loc	2 703 34 prologue_end           // kernel/platform_source/basicplatform/block/mas_blk_core.c:703:34
	ldr	x20, [x0, #2552]
.Ltmp274:
	//DEBUG_VALUE: mas_blk_mq_init_allocated_queue:i <- 0
	//DEBUG_VALUE: mas_blk_mq_init_allocated_queue:set <- $x20
	.loc	2 0 34 is_stmt 0                // kernel/platform_source/basicplatform/block/mas_blk_core.c:0:34
	mov	x19, x0
.Ltmp275:
	//DEBUG_VALUE: mas_blk_mq_init_allocated_queue:q <- $x19
	//DEBUG_VALUE: mas_blk_mq_init_allocated_queue:q <- $x19
	.loc	2 705 23 is_stmt 1              // kernel/platform_source/basicplatform/block/mas_blk_core.c:705:23
	ldr	w8, [x20, #636]
.Ltmp276:
	.loc	2 705 2 is_stmt 0               // kernel/platform_source/basicplatform/block/mas_blk_core.c:705:2
	cbz	w8, .LBB32_5
.Ltmp277:
// %bb.1:
	//DEBUG_VALUE: mas_blk_mq_init_allocated_queue:set <- $x20
	//DEBUG_VALUE: mas_blk_mq_init_allocated_queue:q <- $x19
	//DEBUG_VALUE: mas_blk_mq_init_allocated_queue:i <- 0
	.loc	2 0 2                           // kernel/platform_source/basicplatform/block/mas_blk_core.c:0:2
	mov	x9, xzr
	b	.LBB32_3
.Ltmp278:
.LBB32_2:                               //   in Loop: Header=BB32_3 Depth=1
	//DEBUG_VALUE: mas_blk_mq_init_allocated_queue:set <- $x20
	//DEBUG_VALUE: mas_blk_mq_init_allocated_queue:q <- $x19
	//DEBUG_VALUE: mas_blk_mq_init_allocated_queue:i <- $x9
	.loc	2 705 38                        // kernel/platform_source/basicplatform/block/mas_blk_core.c:705:38
	add	x9, x9, #1                      // =1
.Ltmp279:
	//DEBUG_VALUE: mas_blk_mq_init_allocated_queue:i <- $x9
	.loc	2 705 2                         // kernel/platform_source/basicplatform/block/mas_blk_core.c:705:2
	cmp	x9, w8, uxtw
	b.hs	.LBB32_5
.Ltmp280:
.LBB32_3:                               // =>This Inner Loop Header: Depth=1
	//DEBUG_VALUE: mas_blk_mq_init_allocated_queue:set <- $x20
	//DEBUG_VALUE: mas_blk_mq_init_allocated_queue:q <- $x19
	//DEBUG_VALUE: mas_blk_mq_init_allocated_queue:i <- $x9
	.loc	2 706 13 is_stmt 1              // kernel/platform_source/basicplatform/block/mas_blk_core.c:706:13
	ldr	x10, [x20, #808]
	.loc	2 706 8 is_stmt 0               // kernel/platform_source/basicplatform/block/mas_blk_core.c:706:8
	ldr	x10, [x10, x9, lsl #3]
.Ltmp281:
	.loc	2 706 7                         // kernel/platform_source/basicplatform/block/mas_blk_core.c:706:7
	cbz	x10, .LBB32_2
.Ltmp282:
// %bb.4:                               //   in Loop: Header=BB32_3 Depth=1
	//DEBUG_VALUE: mas_blk_mq_init_allocated_queue:set <- $x20
	//DEBUG_VALUE: mas_blk_mq_init_allocated_queue:q <- $x19
	//DEBUG_VALUE: mas_blk_mq_init_allocated_queue:i <- $x9
	.loc	2 708 21 is_stmt 1              // kernel/platform_source/basicplatform/block/mas_blk_core.c:708:21
	str	x20, [x10, #24]
.Ltmp283:
	.loc	2 705 23                        // kernel/platform_source/basicplatform/block/mas_blk_core.c:705:23
	ldr	w8, [x20, #636]
	b	.LBB32_2
.Ltmp284:
.LBB32_5:
	//DEBUG_VALUE: mas_blk_mq_init_allocated_queue:set <- $x20
	//DEBUG_VALUE: mas_blk_mq_init_allocated_queue:q <- $x19
	//DEBUG_VALUE: mas_blk_queue_init_common:q <- $x19
	.loc	2 683 2                         // kernel/platform_source/basicplatform/block/mas_blk_core.c:683:2
	mov	x0, x19
	bl	mas_blk_dump_register_queue
.Ltmp285:
	.loc	2 684 2                         // kernel/platform_source/basicplatform/block/mas_blk_core.c:684:2
	mov	x0, x19
	bl	mas_blk_queue_latency_init
.Ltmp286:
	.loc	2 685 2                         // kernel/platform_source/basicplatform/block/mas_blk_core.c:685:2
	mov	x0, x19
	bl	mas_blk_queue_async_flush_init
.Ltmp287:
	//DEBUG_VALUE: mas_blk_io_speed_adj_init:q <- $x19
	.loc	2 239 2                         // kernel/platform_source/basicplatform/block/mas_blk_core.c:239:2
	adrp	x1, _cfi_mas_blk_queue_usr_ctrl_recovery_timer_expire
	add	x0, x19, #1384                  // =1384
	add	x1, x1, :lo12:_cfi_mas_blk_queue_usr_ctrl_recovery_timer_expire
	mov	w2, wzr
	mov	x3, xzr
	mov	x4, xzr
	.loc	2 235 20                        // kernel/platform_source/basicplatform/block/mas_blk_core.c:235:20
	str	xzr, [x19, #1376]
	str	xzr, [x19, #1368]
	str	xzr, [x19, #1360]
	str	xzr, [x19, #1352]
	.loc	2 239 2                         // kernel/platform_source/basicplatform/block/mas_blk_core.c:239:2
	bl	init_timer_key
.Ltmp288:
	.loc	2 714 8                         // kernel/platform_source/basicplatform/block/mas_blk_core.c:714:8
	ldr	x8, [x20, #624]
	.loc	2 714 3 is_stmt 0               // kernel/platform_source/basicplatform/block/mas_blk_core.c:714:3
	cbz	x8, .LBB32_10
.Ltmp289:
// %bb.6:
	//DEBUG_VALUE: mas_blk_mq_init_allocated_queue:set <- $x20
	//DEBUG_VALUE: mas_blk_mq_init_allocated_queue:q <- $x19
	.loc	2 714 46                        // kernel/platform_source/basicplatform/block/mas_blk_core.c:714:46
	ldr	x8, [x8, #40]
	.loc	2 713 19 is_stmt 1              // kernel/platform_source/basicplatform/block/mas_blk_core.c:713:19
	str	x8, [x19, #1440]
.Ltmp290:
	.loc	2 715 23                        // kernel/platform_source/basicplatform/block/mas_blk_core.c:715:23
	cbz	x8, .LBB32_11
.Ltmp291:
// %bb.7:
	//DEBUG_VALUE: mas_blk_mq_init_allocated_queue:set <- $x20
	//DEBUG_VALUE: mas_blk_mq_init_allocated_queue:q <- $x19
	.loc	2 715 44 is_stmt 0              // kernel/platform_source/basicplatform/block/mas_blk_core.c:715:44
	ldr	x8, [x8, #8]
.Ltmp292:
	.loc	2 715 6                         // kernel/platform_source/basicplatform/block/mas_blk_core.c:715:6
	cbz	x8, .LBB32_11
.Ltmp293:
// %bb.8:
	//DEBUG_VALUE: mas_blk_mq_init_allocated_queue:set <- $x20
	//DEBUG_VALUE: mas_blk_mq_init_allocated_queue:q <- $x19
	.loc	2 716 13 is_stmt 1              // kernel/platform_source/basicplatform/block/mas_blk_core.c:716:13
	mov	x0, x19
	blr	x8
.Ltmp294:
	//DEBUG_VALUE: ret <- $w0
	.loc	2 717 7                         // kernel/platform_source/basicplatform/block/mas_blk_core.c:717:7
	cbz	w0, .LBB32_11
.Ltmp295:
// %bb.9:
	//DEBUG_VALUE: mas_blk_mq_init_allocated_queue:set <- $x20
	//DEBUG_VALUE: mas_blk_mq_init_allocated_queue:q <- $x19
	//DEBUG_VALUE: ret <- $w0
	.loc	2 0 0 is_stmt 0                 // kernel/platform_source/basicplatform/block/mas_blk_core.c:0:0
	mov	w2, w0
.Ltmp296:
	//DEBUG_VALUE: ret <- $w2
	.loc	2 718 4 is_stmt 1               // kernel/platform_source/basicplatform/block/mas_blk_core.c:718:4
	adrp	x0, .L.str.1
	adrp	x1, .L__func__.mas_blk_mq_init_allocated_queue
	add	x0, x0, :lo12:.L.str.1
	add	x1, x1, :lo12:.L__func__.mas_blk_mq_init_allocated_queue
	bl	printk
.Ltmp297:
	.loc	2 0 4 is_stmt 0                 // kernel/platform_source/basicplatform/block/mas_blk_core.c:0:4
	b	.LBB32_11
.Ltmp298:
.LBB32_10:
	//DEBUG_VALUE: mas_blk_mq_init_allocated_queue:set <- $x20
	//DEBUG_VALUE: mas_blk_mq_init_allocated_queue:q <- $x19
	.loc	2 713 19 is_stmt 1              // kernel/platform_source/basicplatform/block/mas_blk_core.c:713:19
	str	xzr, [x19, #1440]
.Ltmp299:
.LBB32_11:
	//DEBUG_VALUE: mas_blk_mq_init_allocated_queue:set <- $x20
	//DEBUG_VALUE: mas_blk_mq_init_allocated_queue:q <- $x19
	.loc	2 723 1                         // kernel/platform_source/basicplatform/block/mas_blk_core.c:723:1
	ldp	x20, x19, [sp, #16]             // 16-byte Folded Reload
.Ltmp300:
	//DEBUG_VALUE: mas_blk_mq_init_allocated_queue:q <- [DW_OP_LLVM_entry_value 1] $x0
	ldp	x29, x30, [sp], #32             // 16-byte Folded Reload
	hint	#29
	ret
.Ltmp301:
.Lfunc_end32:
	.size	mas_blk_mq_init_allocated_queue, .Lfunc_end32-mas_blk_mq_init_allocated_queue
	.cfi_endproc
	.file	158 "/mnt/disk/jenkins/ci/workspace/chipset_pipeline_release/opensource/component_code/vendor/huawei/extra/build/build_script/kirin_kernel_release" "kernel/include/linux/printk.h"
                                        // -- End function
	.globl	mas_blk_mq_free_queue           // -- Begin function mas_blk_mq_free_queue
	.p2align	2
	.type	mas_blk_mq_free_queue,@function
mas_blk_mq_free_queue:                  // @mas_blk_mq_free_queue
.Lfunc_begin33:
	.loc	2 729 0                         // kernel/platform_source/basicplatform/block/mas_blk_core.c:729:0
	.cfi_startproc
// %bb.0:
	//DEBUG_VALUE: mas_blk_mq_free_queue:q <- $x0
	//DEBUG_VALUE: mas_blk_mq_free_queue:q <- $x0
	hint	#25
	.cfi_negate_ra_state
	stp	x29, x30, [sp, #-16]!           // 16-byte Folded Spill
	mov	x29, sp
	.cfi_def_cfa w29, 16
	.cfi_offset w30, -8
	.cfi_offset w29, -16
.Ltmp302:
	.loc	2 730 9 prologue_end            // kernel/platform_source/basicplatform/block/mas_blk_core.c:730:9
	ldr	x8, [x0, #1440]
	.loc	2 730 23 is_stmt 0              // kernel/platform_source/basicplatform/block/mas_blk_core.c:730:23
	cbz	x8, .LBB33_3
.Ltmp303:
// %bb.1:
	//DEBUG_VALUE: mas_blk_mq_free_queue:q <- $x0
	.loc	2 730 44                        // kernel/platform_source/basicplatform/block/mas_blk_core.c:730:44
	ldr	x8, [x8, #16]
.Ltmp304:
	.loc	2 730 6                         // kernel/platform_source/basicplatform/block/mas_blk_core.c:730:6
	cbz	x8, .LBB33_3
.Ltmp305:
// %bb.2:
	//DEBUG_VALUE: mas_blk_mq_free_queue:q <- $x0
	.loc	2 731 3 is_stmt 1               // kernel/platform_source/basicplatform/block/mas_blk_core.c:731:3
	blr	x8
.Ltmp306:
	//DEBUG_VALUE: mas_blk_mq_free_queue:q <- [DW_OP_LLVM_entry_value 1] $x0
.LBB33_3:
	.loc	2 733 1                         // kernel/platform_source/basicplatform/block/mas_blk_core.c:733:1
	ldp	x29, x30, [sp], #16             // 16-byte Folded Reload
	hint	#29
	ret
.Ltmp307:
.Lfunc_end33:
	.size	mas_blk_mq_free_queue, .Lfunc_end33-mas_blk_mq_free_queue
	.cfi_endproc
                                        // -- End function
	.globl	mas_blk_cleanup_queue           // -- Begin function mas_blk_cleanup_queue
	.p2align	2
	.type	mas_blk_cleanup_queue,@function
mas_blk_cleanup_queue:                  // @mas_blk_cleanup_queue
.Lfunc_begin34:
	.loc	2 739 0                         // kernel/platform_source/basicplatform/block/mas_blk_core.c:739:0
	.cfi_startproc
// %bb.0:
	//DEBUG_VALUE: mas_blk_cleanup_queue:q <- $x0
	hint	#25
	.cfi_negate_ra_state
	stp	x29, x30, [sp, #-32]!           // 16-byte Folded Spill
	str	x19, [sp, #16]                  // 8-byte Folded Spill
	mov	x29, sp
	.cfi_def_cfa w29, 32
	.cfi_offset w19, -16
	.cfi_offset w30, -24
	.cfi_offset w29, -32
	mov	x19, x0
.Ltmp308:
	//DEBUG_VALUE: mas_blk_cleanup_queue:q <- $x19
	.loc	2 740 2 prologue_end            // kernel/platform_source/basicplatform/block/mas_blk_core.c:740:2
	bl	mas_blk_dump_unregister_queue
.Ltmp309:
	//DEBUG_VALUE: mas_blk_io_speed_adj_deinit:q <- $x19
	.loc	2 229 31                        // kernel/platform_source/basicplatform/block/mas_blk_core.c:229:31
	add	x0, x19, #1384                  // =1384
	.loc	2 229 2 is_stmt 0               // kernel/platform_source/basicplatform/block/mas_blk_core.c:229:2
	bl	del_timer_sync
.Ltmp310:
	.loc	2 742 2 is_stmt 1               // kernel/platform_source/basicplatform/block/mas_blk_core.c:742:2
	mov	x0, x19
	bl	mas_blk_flush_reduced_queue_unregister
.Ltmp311:
	.loc	2 743 1                         // kernel/platform_source/basicplatform/block/mas_blk_core.c:743:1
	ldr	x19, [sp, #16]                  // 8-byte Folded Reload
.Ltmp312:
	//DEBUG_VALUE: mas_blk_cleanup_queue:q <- [DW_OP_LLVM_entry_value 1] $x0
	ldp	x29, x30, [sp], #32             // 16-byte Folded Reload
	hint	#29
	ret
.Ltmp313:
.Lfunc_end34:
	.size	mas_blk_cleanup_queue, .Lfunc_end34-mas_blk_cleanup_queue
	.cfi_endproc
	.file	159 "/mnt/disk/jenkins/ci/workspace/chipset_pipeline_release/opensource/component_code/vendor/huawei/extra/build/build_script/kirin_kernel_release" "kernel/include/platform_include/basicplatform/linux/mas/mas_blk_flush_interface.h"
                                        // -- End function
	.globl	mas_blk_mq_allocated_tagset_init // -- Begin function mas_blk_mq_allocated_tagset_init
	.p2align	2
	.type	mas_blk_mq_allocated_tagset_init,@function
mas_blk_mq_allocated_tagset_init:       // @mas_blk_mq_allocated_tagset_init
.Lfunc_begin35:
	.loc	2 773 0                         // kernel/platform_source/basicplatform/block/mas_blk_core.c:773:0
	.cfi_startproc
// %bb.0:
	//DEBUG_VALUE: mas_blk_mq_allocated_tagset_init:set <- $x0
	//DEBUG_VALUE: mas_blk_dev_lld_init:blk_lld <- [DW_OP_plus_uconst 64, DW_OP_stack_value] $x0
	//DEBUG_VALUE: mas_blk_dev_lld_init:data <- $x0
	hint	#25
	.cfi_negate_ra_state
	stp	x29, x30, [sp, #-48]!           // 16-byte Folded Spill
	str	x21, [sp, #16]                  // 8-byte Folded Spill
	stp	x20, x19, [sp, #32]             // 16-byte Folded Spill
	mov	x29, sp
	.cfi_def_cfa w29, 48
	.cfi_offset w19, -8
	.cfi_offset w20, -16
	.cfi_offset w21, -32
	.cfi_offset w30, -40
	.cfi_offset w29, -48
	mov	w8, #122
.Ltmp314:
	//DEBUG_VALUE: mas_blk_dev_lld_init:type <- 2
	//DEBUG_VALUE: mas_blk_dev_lld_init:data <- $x19
	//DEBUG_VALUE: mas_blk_dev_lld_init:blk_lld <- [DW_OP_plus_uconst 64, DW_OP_stack_value] $x19
	//DEBUG_VALUE: mas_blk_mq_allocated_tagset_init:set <- $x19
	.loc	2 638 2 prologue_end            // kernel/platform_source/basicplatform/block/mas_blk_core.c:638:2
	adrp	x1, .L.str.4
	adrp	x2, mas_blk_dev_lld_init.__key
	mov	x19, x0
.Ltmp315:
	.loc	2 637 21                        // kernel/platform_source/basicplatform/block/mas_blk_core.c:637:21
	str	wzr, [x0, #524]
	.loc	2 636 22                        // kernel/platform_source/basicplatform/block/mas_blk_core.c:636:22
	str	w8, [x0, #64]
.Ltmp316:
	//DEBUG_VALUE: spinlock_check:lock <- [DW_OP_plus_uconst 64, DW_OP_plus_uconst 464, DW_OP_stack_value] $x19
	.loc	157 329 16                      // kernel/include/linux/spinlock.h:329:16
	add	x0, x0, #528                    // =528
.Ltmp317:
	.loc	2 638 2                         // kernel/platform_source/basicplatform/block/mas_blk_core.c:638:2
	add	x1, x1, :lo12:.L.str.4
	add	x2, x2, :lo12:mas_blk_dev_lld_init.__key
	mov	w3, #2
	mov	w20, #2
	bl	__raw_spin_lock_init
.Ltmp318:
	.loc	2 640 2                         // kernel/platform_source/basicplatform/block/mas_blk_core.c:640:2
	adrp	x1, .L.str.6
	adrp	x2, mas_blk_dev_lld_init.__key.5
	mov	w21, #1
.Ltmp319:
	.loc	157 329 16                      // kernel/include/linux/spinlock.h:329:16
	add	x0, x19, #560                   // =560
.Ltmp320:
	.loc	2 640 2                         // kernel/platform_source/basicplatform/block/mas_blk_core.c:640:2
	add	x1, x1, :lo12:.L.str.6
	add	x2, x2, :lo12:mas_blk_dev_lld_init.__key.5
	mov	w3, #2
.Ltmp321:
	.loc	2 639 23                        // kernel/platform_source/basicplatform/block/mas_blk_core.c:639:23
	str	w21, [x19, #552]
	//DEBUG_VALUE: spinlock_check:lock <- [DW_OP_plus_uconst 64, DW_OP_plus_uconst 496, DW_OP_stack_value] $x19
.Ltmp322:
	.loc	2 640 2                         // kernel/platform_source/basicplatform/block/mas_blk_core.c:640:2
	bl	__raw_spin_lock_init
.Ltmp323:
	.loc	2 644 27                        // kernel/platform_source/basicplatform/block/mas_blk_core.c:644:27
	add	x8, x19, #584                   // =584
.Ltmp324:
	//DEBUG_VALUE: INIT_LIST_HEAD:list <- $x8
	.loc	156 35 2                        // kernel/include/linux/list.h:35:2
	str	x8, [x19, #584]
.Ltmp325:
	.loc	2 645 16                        // kernel/platform_source/basicplatform/block/mas_blk_core.c:645:16
	str	w20, [x19, #68]
.Ltmp326:
	.loc	2 647 44                        // kernel/platform_source/basicplatform/block/mas_blk_core.c:647:44
	add	x20, x19, #152                  // =152
	.loc	2 647 6 is_stmt 0               // kernel/platform_source/basicplatform/block/mas_blk_core.c:647:6
	mov	x0, x20
.Ltmp327:
	.loc	156 36 13 is_stmt 1             // kernel/include/linux/list.h:36:13
	str	x8, [x19, #592]
.Ltmp328:
	.loc	2 646 16                        // kernel/platform_source/basicplatform/block/mas_blk_core.c:646:16
	str	x19, [x19, #72]
.Ltmp329:
	.loc	2 647 6                         // kernel/platform_source/basicplatform/block/mas_blk_core.c:647:6
	bl	mas_blk_busyidle_state_init
.Ltmp330:
	.loc	2 0 0 is_stmt 0                 // kernel/platform_source/basicplatform/block/mas_blk_core.c:0:0
	ldr	x8, [x19, #88]
	.loc	2 647 6                         // kernel/platform_source/basicplatform/block/mas_blk_core.c:647:6
	cmp	w0, #0                          // =0
	and	x9, x8, #0xfffffffffffffff7
	csel	x8, x8, x9, eq
	.loc	2 649 6 is_stmt 1               // kernel/platform_source/basicplatform/block/mas_blk_core.c:649:6
	tbz	w8, #5, .LBB35_2
.Ltmp331:
// %bb.1:
	//DEBUG_VALUE: mas_blk_dev_lld_init:type <- 2
	.loc	2 650 39                        // kernel/platform_source/basicplatform/block/mas_blk_core.c:650:39
	strb	w21, [x20]
.Ltmp332:
.LBB35_2:
	//DEBUG_VALUE: mas_blk_dev_lld_init:type <- 2
	.loc	2 779 6                         // kernel/platform_source/basicplatform/block/mas_blk_core.c:779:6
	adrp	x10, mas_ufs_blk_tagset_ops
.Ltmp333:
	.loc	2 652 20                        // kernel/platform_source/basicplatform/block/mas_blk_core.c:652:20
	orr	x9, x8, #0x40
.Ltmp334:
	.loc	2 779 29                        // kernel/platform_source/basicplatform/block/mas_blk_core.c:779:29
	lsl	x8, x8, #59
.Ltmp335:
	.loc	2 779 6 is_stmt 0               // kernel/platform_source/basicplatform/block/mas_blk_core.c:779:6
	add	x10, x10, :lo12:mas_ufs_blk_tagset_ops
	and	x8, x10, x8, asr #63
.Ltmp336:
	.loc	2 659 17 is_stmt 1              // kernel/platform_source/basicplatform/block/mas_blk_core.c:659:17
	str	xzr, [x19, #616]
	.loc	2 652 20                        // kernel/platform_source/basicplatform/block/mas_blk_core.c:652:20
	str	x9, [x19, #88]
.Ltmp337:
	.loc	2 786 23                        // kernel/platform_source/basicplatform/block/mas_blk_core.c:786:23
	str	x8, [x19, #624]
.Ltmp338:
	.loc	2 787 1                         // kernel/platform_source/basicplatform/block/mas_blk_core.c:787:1
	ldp	x20, x19, [sp, #32]             // 16-byte Folded Reload
	ldr	x21, [sp, #16]                  // 8-byte Folded Reload
	ldp	x29, x30, [sp], #48             // 16-byte Folded Reload
	hint	#29
	ret
.Ltmp339:
.Lfunc_end35:
	.size	mas_blk_mq_allocated_tagset_init, .Lfunc_end35-mas_blk_mq_allocated_tagset_init
	.cfi_endproc
                                        // -- End function
	.globl	mas_blk_queue_register          // -- Begin function mas_blk_queue_register
	.p2align	2
	.type	mas_blk_queue_register,@function
mas_blk_queue_register:                 // @mas_blk_queue_register
.Lfunc_begin36:
	.loc	2 794 0                         // kernel/platform_source/basicplatform/block/mas_blk_core.c:794:0
	.cfi_startproc
// %bb.0:
	.loc	2 795 26 prologue_end           // kernel/platform_source/basicplatform/block/mas_blk_core.c:795:26
	hint	#34
.Ltmp340:
	//DEBUG_VALUE: mas_blk_queue_register:q <- $x0
	//DEBUG_VALUE: mas_blk_queue_register:q <- $x0
	//DEBUG_VALUE: mas_blk_queue_register:disk <- $x1
	//DEBUG_VALUE: mas_blk_queue_register:disk <- $x1
	str	x1, [x0, #1176]
	.loc	2 796 1                         // kernel/platform_source/basicplatform/block/mas_blk_core.c:796:1
	ret
.Ltmp341:
.Lfunc_end36:
	.size	mas_blk_queue_register, .Lfunc_end36-mas_blk_queue_register
	.cfi_endproc
                                        // -- End function
	.section	.init.text,"ax",@progbits
	.globl	mas_blk_dev_init                // -- Begin function mas_blk_dev_init
	.p2align	2
	.type	mas_blk_dev_init,@function
mas_blk_dev_init:                       // @mas_blk_dev_init
.Lfunc_begin37:
	.loc	2 802 0                         // kernel/platform_source/basicplatform/block/mas_blk_core.c:802:0
	.cfi_startproc
// %bb.0:
	hint	#25
	.cfi_negate_ra_state
	stp	x29, x30, [sp, #-16]!           // 16-byte Folded Spill
	mov	x29, sp
	.cfi_def_cfa w29, 16
	.cfi_offset w30, -8
	.cfi_offset w29, -16
.Ltmp342:
	.loc	2 803 2 prologue_end            // kernel/platform_source/basicplatform/block/mas_blk_core.c:803:2
	bl	mas_blk_dump_init
.Ltmp343:
	.loc	2 804 2                         // kernel/platform_source/basicplatform/block/mas_blk_core.c:804:2
	bl	mas_blk_latency_init
.Ltmp344:
	.loc	2 805 2                         // kernel/platform_source/basicplatform/block/mas_blk_core.c:805:2
	bl	mas_blk_dsm_init
.Ltmp345:
	.loc	2 806 2                         // kernel/platform_source/basicplatform/block/mas_blk_core.c:806:2
	mov	w0, wzr
	ldp	x29, x30, [sp], #16             // 16-byte Folded Reload
	hint	#29
	ret
.Ltmp346:
.Lfunc_end37:
	.size	mas_blk_dev_init, .Lfunc_end37-mas_blk_dev_init
	.cfi_endproc
	.file	160 "/mnt/disk/jenkins/ci/workspace/chipset_pipeline_release/opensource/component_code/vendor/huawei/extra/build/build_script/kirin_kernel_release" "kernel/include/platform_include/basicplatform/linux/mas/dsm_block.h"
                                        // -- End function
	.text
	.globl	blk_write_throttle              // -- Begin function blk_write_throttle
	.p2align	2
	.type	blk_write_throttle,@function
blk_write_throttle:                     // @blk_write_throttle
.Lfunc_begin38:
	.loc	2 810 0                         // kernel/platform_source/basicplatform/block/mas_blk_core.c:810:0
	.cfi_startproc
// %bb.0:
	//DEBUG_VALUE: blk_write_throttle:queue <- $x0
	//DEBUG_VALUE: blk_write_throttle:queue <- $x0
	//DEBUG_VALUE: blk_write_throttle:level <- $w1
	//DEBUG_VALUE: blk_write_throttle:level <- $w1
	hint	#25
	.cfi_negate_ra_state
	stp	x29, x30, [sp, #-16]!           // 16-byte Folded Spill
	mov	x29, sp
	.cfi_def_cfa w29, 16
	.cfi_offset w30, -8
	.cfi_offset w29, -16
.Ltmp347:
	.loc	2 811 12 prologue_end           // kernel/platform_source/basicplatform/block/mas_blk_core.c:811:12
	cbz	x0, .LBB38_4
.Ltmp348:
// %bb.1:
	//DEBUG_VALUE: blk_write_throttle:queue <- $x0
	//DEBUG_VALUE: blk_write_throttle:level <- $w1
	.loc	2 811 22 is_stmt 0              // kernel/platform_source/basicplatform/block/mas_blk_core.c:811:22
	ldr	x8, [x0, #1440]
	.loc	2 811 36                        // kernel/platform_source/basicplatform/block/mas_blk_core.c:811:36
	cbz	x8, .LBB38_4
.Ltmp349:
// %bb.2:
	//DEBUG_VALUE: blk_write_throttle:queue <- $x0
	//DEBUG_VALUE: blk_write_throttle:level <- $w1
	.loc	2 812 28 is_stmt 1              // kernel/platform_source/basicplatform/block/mas_blk_core.c:812:28
	ldr	x8, [x8, #160]
.Ltmp350:
	.loc	2 811 6                         // kernel/platform_source/basicplatform/block/mas_blk_core.c:811:6
	cbz	x8, .LBB38_4
.Ltmp351:
// %bb.3:
	//DEBUG_VALUE: blk_write_throttle:queue <- $x0
	//DEBUG_VALUE: blk_write_throttle:level <- $w1
	.loc	2 813 54                        // kernel/platform_source/basicplatform/block/mas_blk_core.c:813:54
	cmp	w1, #0                          // =0
	cset	w1, ne
.Ltmp352:
	//DEBUG_VALUE: blk_write_throttle:level <- [DW_OP_LLVM_entry_value 1] $w1
	.loc	2 813 3 is_stmt 0               // kernel/platform_source/basicplatform/block/mas_blk_core.c:813:3
	blr	x8
.Ltmp353:
	//DEBUG_VALUE: blk_write_throttle:queue <- [DW_OP_LLVM_entry_value 1] $x0
.LBB38_4:
	.loc	2 814 1 is_stmt 1               // kernel/platform_source/basicplatform/block/mas_blk_core.c:814:1
	ldp	x29, x30, [sp], #16             // 16-byte Folded Reload
	hint	#29
	ret
.Ltmp354:
.Lfunc_end38:
	.size	blk_write_throttle, .Lfunc_end38-blk_write_throttle
	.cfi_endproc
                                        // -- End function
	.globl	blk_generic_freeze              // -- Begin function blk_generic_freeze
	.p2align	2
	.type	blk_generic_freeze,@function
blk_generic_freeze:                     // @blk_generic_freeze
.Lfunc_begin39:
	.loc	2 822 0                         // kernel/platform_source/basicplatform/block/mas_blk_core.c:822:0
	.cfi_startproc
// %bb.0:
	//DEBUG_VALUE: blk_generic_freeze:freeze_obj <- $x0
	//DEBUG_VALUE: blk_generic_freeze:type <- $w1
	//DEBUG_VALUE: blk_generic_freeze:freeze <- [DW_OP_LLVM_convert 1 7, DW_OP_LLVM_convert 8 7, DW_OP_stack_value] $w2
	//DEBUG_VALUE: blk_generic_freeze:freeze <- [DW_OP_LLVM_convert 1 7, DW_OP_LLVM_convert 8 7, DW_OP_stack_value] $w2
	//DEBUG_VALUE: blk_generic_freeze:type <- $w1
	//DEBUG_VALUE: blk_generic_freeze:freeze_obj <- $x0
	hint	#25
	.cfi_negate_ra_state
	stp	x29, x30, [sp, #-48]!           // 16-byte Folded Spill
	str	x21, [sp, #16]                  // 8-byte Folded Spill
	stp	x20, x19, [sp, #32]             // 16-byte Folded Spill
	mov	x29, sp
	.cfi_def_cfa w29, 48
	.cfi_offset w19, -8
	.cfi_offset w20, -16
	.cfi_offset w21, -32
	.cfi_offset w30, -40
	.cfi_offset w29, -48
.Ltmp355:
	//DEBUG_VALUE: blk_generic_freeze:lld <- 0
	//DEBUG_VALUE: blk_generic_freeze:q <- 0
	.loc	2 826 6 prologue_end            // kernel/platform_source/basicplatform/block/mas_blk_core.c:826:6
	cbz	x0, .LBB39_11
.Ltmp356:
// %bb.1:
	//DEBUG_VALUE: blk_generic_freeze:freeze_obj <- $x0
	//DEBUG_VALUE: blk_generic_freeze:freeze <- [DW_OP_LLVM_convert 1 7, DW_OP_LLVM_convert 8 7, DW_OP_stack_value] $w2
	//DEBUG_VALUE: blk_generic_freeze:type <- $w1
	//DEBUG_VALUE: blk_generic_freeze:q <- 0
	//DEBUG_VALUE: blk_generic_freeze:lld <- 0
	.loc	2 0 6 is_stmt 0                 // kernel/platform_source/basicplatform/block/mas_blk_core.c:0:6
	mov	w19, w2
.Ltmp357:
	//DEBUG_VALUE: blk_generic_freeze:freeze <- [DW_OP_LLVM_convert 1 7, DW_OP_LLVM_convert 8 7, DW_OP_stack_value] $w19
	//DEBUG_VALUE: blk_generic_freeze:freeze <- [DW_OP_LLVM_convert 1 7, DW_OP_LLVM_convert 8 7, DW_OP_stack_value] $w19
	//DEBUG_VALUE: blk_generic_freeze:freeze <- [DW_OP_LLVM_convert 1 7, DW_OP_LLVM_convert 8 7, DW_OP_stack_value] $w19
	.loc	2 831 2 is_stmt 1               // kernel/platform_source/basicplatform/block/mas_blk_core.c:831:2
	cmp	w1, #1                          // =1
	b.eq	.LBB39_8
.Ltmp358:
// %bb.2:
	//DEBUG_VALUE: blk_generic_freeze:freeze_obj <- $x0
	//DEBUG_VALUE: blk_generic_freeze:freeze <- [DW_OP_LLVM_convert 1 7, DW_OP_LLVM_convert 8 7, DW_OP_stack_value] $w19
	//DEBUG_VALUE: blk_generic_freeze:type <- $w1
	//DEBUG_VALUE: blk_generic_freeze:q <- 0
	//DEBUG_VALUE: blk_generic_freeze:lld <- 0
	cbnz	w1, .LBB39_11
.Ltmp359:
// %bb.3:
	//DEBUG_VALUE: blk_generic_freeze:freeze_obj <- $x0
	//DEBUG_VALUE: blk_generic_freeze:freeze <- [DW_OP_LLVM_convert 1 7, DW_OP_LLVM_convert 8 7, DW_OP_stack_value] $w19
	//DEBUG_VALUE: blk_generic_freeze:type <- $w1
	//DEBUG_VALUE: blk_generic_freeze:q <- 0
	//DEBUG_VALUE: blk_generic_freeze:lld <- 0
	//DEBUG_VALUE: blk_generic_freeze:lld <- $x0
	//DEBUG_VALUE: mas_blk_freeze_lld:lld <- $x0
	//DEBUG_VALUE: mas_blk_freeze_lld:freeze <- [DW_OP_LLVM_convert 1 7, DW_OP_LLVM_convert 8 7, DW_OP_stack_value] $w19
	//DEBUG_VALUE: mas_blk_freeze_lld:q <- 0
	//DEBUG_VALUE: mas_blk_freeze_lld:tag_set <- 0
	.loc	2 85 15                         // kernel/platform_source/basicplatform/block/mas_blk_core.c:85:15
	ldr	w8, [x0, #4]
	.loc	2 85 2 is_stmt 0                // kernel/platform_source/basicplatform/block/mas_blk_core.c:85:2
	cmp	w8, #2                          // =2
	b.eq	.LBB39_12
.Ltmp360:
// %bb.4:
	//DEBUG_VALUE: mas_blk_freeze_lld:lld <- $x0
	//DEBUG_VALUE: blk_generic_freeze:lld <- $x0
	//DEBUG_VALUE: blk_generic_freeze:freeze_obj <- $x0
	//DEBUG_VALUE: mas_blk_freeze_lld:freeze <- [DW_OP_LLVM_convert 1 7, DW_OP_LLVM_convert 8 7, DW_OP_stack_value] $w19
	//DEBUG_VALUE: blk_generic_freeze:freeze <- [DW_OP_LLVM_convert 1 7, DW_OP_LLVM_convert 8 7, DW_OP_stack_value] $w19
	//DEBUG_VALUE: blk_generic_freeze:type <- $w1
	//DEBUG_VALUE: mas_blk_freeze_lld:tag_set <- 0
	//DEBUG_VALUE: mas_blk_freeze_lld:q <- 0
	//DEBUG_VALUE: blk_generic_freeze:q <- 0
	cbnz	w8, .LBB39_11
.Ltmp361:
// %bb.5:
	//DEBUG_VALUE: mas_blk_freeze_lld:lld <- $x0
	//DEBUG_VALUE: blk_generic_freeze:lld <- $x0
	//DEBUG_VALUE: blk_generic_freeze:freeze_obj <- $x0
	//DEBUG_VALUE: mas_blk_freeze_lld:freeze <- [DW_OP_LLVM_convert 1 7, DW_OP_LLVM_convert 8 7, DW_OP_stack_value] $w19
	//DEBUG_VALUE: blk_generic_freeze:freeze <- [DW_OP_LLVM_convert 1 7, DW_OP_LLVM_convert 8 7, DW_OP_stack_value] $w19
	//DEBUG_VALUE: blk_generic_freeze:type <- $w1
	//DEBUG_VALUE: mas_blk_freeze_lld:tag_set <- 0
	//DEBUG_VALUE: mas_blk_freeze_lld:q <- 0
	//DEBUG_VALUE: blk_generic_freeze:q <- 0
	//DEBUG_VALUE: blk_generic_freeze:lld <- $x0
	//DEBUG_VALUE: mas_blk_freeze_lld:lld <- $x0
	.loc	2 87 37 is_stmt 1               // kernel/platform_source/basicplatform/block/mas_blk_core.c:87:37
	ldr	x0, [x0, #8]
.Ltmp362:
	//DEBUG_VALUE: blk_generic_freeze:freeze_obj <- [DW_OP_LLVM_entry_value 1] $x0
	//DEBUG_VALUE: mas_blk_freeze_lld:q <- $x0
	.loc	2 88 11                         // kernel/platform_source/basicplatform/block/mas_blk_core.c:88:11
	ldr	x8, [x0, #48]
.Ltmp363:
	.loc	2 88 7 is_stmt 0                // kernel/platform_source/basicplatform/block/mas_blk_core.c:88:7
	cbz	x8, .LBB39_11
.Ltmp364:
// %bb.6:
	//DEBUG_VALUE: mas_blk_freeze_lld:q <- $x0
	//DEBUG_VALUE: mas_blk_freeze_lld:freeze <- [DW_OP_LLVM_convert 1 7, DW_OP_LLVM_convert 8 7, DW_OP_stack_value] $w19
	//DEBUG_VALUE: blk_generic_freeze:freeze <- [DW_OP_LLVM_convert 1 7, DW_OP_LLVM_convert 8 7, DW_OP_stack_value] $w19
	//DEBUG_VALUE: blk_generic_freeze:type <- $w1
	//DEBUG_VALUE: blk_generic_freeze:freeze_obj <- [DW_OP_LLVM_entry_value 1] $x0
	//DEBUG_VALUE: mas_blk_freeze_lld:tag_set <- 0
	//DEBUG_VALUE: blk_generic_freeze:q <- 0
	.loc	2 91 7 is_stmt 1                // kernel/platform_source/basicplatform/block/mas_blk_core.c:91:7
	tbnz	w19, #0, .LBB39_10
.Ltmp365:
.LBB39_7:
	//DEBUG_VALUE: blk_generic_freeze:freeze <- [DW_OP_LLVM_convert 1 7, DW_OP_LLVM_convert 8 7, DW_OP_stack_value] $w19
	//DEBUG_VALUE: blk_generic_freeze:type <- $w1
	.loc	2 0 0 is_stmt 0                 // kernel/platform_source/basicplatform/block/mas_blk_core.c:0:0
	bl	blk_mq_unfreeze_queue
.Ltmp366:
	//DEBUG_VALUE: blk_generic_freeze:type <- [DW_OP_LLVM_entry_value 1] $w1
	b	.LBB39_11
.Ltmp367:
.LBB39_8:
	//DEBUG_VALUE: blk_generic_freeze:freeze_obj <- $x0
	//DEBUG_VALUE: blk_generic_freeze:freeze <- [DW_OP_LLVM_convert 1 7, DW_OP_LLVM_convert 8 7, DW_OP_stack_value] $w19
	//DEBUG_VALUE: blk_generic_freeze:type <- $w1
	//DEBUG_VALUE: blk_generic_freeze:q <- 0
	//DEBUG_VALUE: blk_generic_freeze:lld <- 0
	//DEBUG_VALUE: blk_generic_freeze:q <- $x0
	.loc	2 838 10 is_stmt 1              // kernel/platform_source/basicplatform/block/mas_blk_core.c:838:10
	ldr	x8, [x0, #48]
.Ltmp368:
	.loc	2 838 7 is_stmt 0               // kernel/platform_source/basicplatform/block/mas_blk_core.c:838:7
	cbz	x8, .LBB39_11
.Ltmp369:
// %bb.9:
	//DEBUG_VALUE: blk_generic_freeze:q <- $x0
	//DEBUG_VALUE: blk_generic_freeze:freeze_obj <- $x0
	//DEBUG_VALUE: blk_generic_freeze:freeze <- [DW_OP_LLVM_convert 1 7, DW_OP_LLVM_convert 8 7, DW_OP_stack_value] $w19
	//DEBUG_VALUE: blk_generic_freeze:type <- $w1
	//DEBUG_VALUE: blk_generic_freeze:lld <- 0
	.loc	2 839 8 is_stmt 1               // kernel/platform_source/basicplatform/block/mas_blk_core.c:839:8
	tbz	w19, #0, .LBB39_7
.Ltmp370:
.LBB39_10:
	//DEBUG_VALUE: blk_generic_freeze:freeze <- [DW_OP_LLVM_convert 1 7, DW_OP_LLVM_convert 8 7, DW_OP_stack_value] $w19
	//DEBUG_VALUE: blk_generic_freeze:type <- $w1
	.loc	2 0 0 is_stmt 0                 // kernel/platform_source/basicplatform/block/mas_blk_core.c:0:0
	bl	blk_mq_freeze_queue
.Ltmp371:
	//DEBUG_VALUE: blk_generic_freeze:type <- [DW_OP_LLVM_entry_value 1] $w1
.LBB39_11:
	.loc	2 849 1 is_stmt 1               // kernel/platform_source/basicplatform/block/mas_blk_core.c:849:1
	ldp	x20, x19, [sp, #32]             // 16-byte Folded Reload
	ldr	x21, [sp, #16]                  // 8-byte Folded Reload
	ldp	x29, x30, [sp], #48             // 16-byte Folded Reload
	hint	#29
	ret
.LBB39_12:
.Ltmp372:
	//DEBUG_VALUE: mas_blk_freeze_lld:lld <- $x0
	//DEBUG_VALUE: blk_generic_freeze:lld <- $x0
	//DEBUG_VALUE: blk_generic_freeze:freeze_obj <- $x0
	//DEBUG_VALUE: mas_blk_freeze_lld:freeze <- [DW_OP_LLVM_convert 1 7, DW_OP_LLVM_convert 8 7, DW_OP_stack_value] $w19
	//DEBUG_VALUE: blk_generic_freeze:freeze <- [DW_OP_LLVM_convert 1 7, DW_OP_LLVM_convert 8 7, DW_OP_stack_value] $w19
	//DEBUG_VALUE: blk_generic_freeze:type <- $w1
	//DEBUG_VALUE: mas_blk_freeze_lld:tag_set <- 0
	//DEBUG_VALUE: mas_blk_freeze_lld:q <- 0
	//DEBUG_VALUE: blk_generic_freeze:q <- 0
	.loc	2 99 44                         // kernel/platform_source/basicplatform/block/mas_blk_core.c:99:44
	ldr	x8, [x0, #8]
.Ltmp373:
	//DEBUG_VALUE: mas_blk_freeze_lld:tag_set <- $x8
	.loc	2 0 0 is_stmt 0                 // kernel/platform_source/basicplatform/block/mas_blk_core.c:0:0
	ldr	x20, [x8, #872]
.Ltmp374:
	//DEBUG_VALUE: mas_blk_freeze_lld:q <- [DW_OP_constu 2560, DW_OP_minus, DW_OP_stack_value] $x20
	.loc	2 100 3 is_stmt 1               // kernel/platform_source/basicplatform/block/mas_blk_core.c:100:3
	add	x21, x8, #872                   // =872
.Ltmp375:
	//DEBUG_VALUE: __mptr <- undef
	//DEBUG_VALUE: mas_blk_freeze_lld:q <- [DW_OP_constu 2560, DW_OP_minus, DW_OP_stack_value] undef
	.loc	2 100 3 is_stmt 0               // kernel/platform_source/basicplatform/block/mas_blk_core.c:100:3
	cmp	x21, x20
	b.ne	.LBB39_15
	b	.LBB39_11
.Ltmp376:
.LBB39_13:                              //   in Loop: Header=BB39_15 Depth=1
	//DEBUG_VALUE: blk_generic_freeze:q <- $x0
	//DEBUG_VALUE: blk_generic_freeze:freeze_obj <- $x0
	//DEBUG_VALUE: mas_blk_freeze_lld:q <- $x0
	//DEBUG_VALUE: blk_generic_freeze:freeze <- [DW_OP_LLVM_convert 1 7, DW_OP_LLVM_convert 8 7, DW_OP_stack_value] $w19
	//DEBUG_VALUE: mas_blk_freeze_lld:freeze <- [DW_OP_LLVM_convert 1 7, DW_OP_LLVM_convert 8 7, DW_OP_stack_value] $w19
	//DEBUG_VALUE: blk_generic_freeze:freeze <- [DW_OP_LLVM_convert 1 7, DW_OP_LLVM_convert 8 7, DW_OP_stack_value] $w19
	//DEBUG_VALUE: blk_generic_freeze:type <- 1
	//DEBUG_VALUE: blk_generic_freeze:lld <- 0
	//DEBUG_VALUE: blk_generic_freeze:q <- 0
	.loc	2 842 5 is_stmt 1               // kernel/platform_source/basicplatform/block/mas_blk_core.c:842:5
	bl	blk_mq_unfreeze_queue
.Ltmp377:
	//DEBUG_VALUE: blk_generic_freeze:type <- [DW_OP_LLVM_entry_value 1] $w1
.LBB39_14:                              //   in Loop: Header=BB39_15 Depth=1
	//DEBUG_VALUE: mas_blk_freeze_lld:freeze <- [DW_OP_LLVM_convert 1 7, DW_OP_LLVM_convert 8 7, DW_OP_stack_value] $w19
	//DEBUG_VALUE: blk_generic_freeze:freeze <- [DW_OP_LLVM_convert 1 7, DW_OP_LLVM_convert 8 7, DW_OP_stack_value] $w19
	//DEBUG_VALUE: blk_generic_freeze:q <- 0
	//DEBUG_VALUE: mas_blk_freeze_lld:q <- [DW_OP_constu 2560, DW_OP_minus, DW_OP_stack_value] undef
	//DEBUG_VALUE: __mptr <- undef
	.loc	2 0 0 is_stmt 0                 // kernel/platform_source/basicplatform/block/mas_blk_core.c:0:0
	ldr	x20, [x20]
.Ltmp378:
	//DEBUG_VALUE: mas_blk_freeze_lld:q <- [DW_OP_constu 2560, DW_OP_minus, DW_OP_stack_value] $x20
	.loc	2 100 3 is_stmt 1               // kernel/platform_source/basicplatform/block/mas_blk_core.c:100:3
	cmp	x21, x20
	b.eq	.LBB39_11
.Ltmp379:
.LBB39_15:                              // =>This Inner Loop Header: Depth=1
	//DEBUG_VALUE: mas_blk_freeze_lld:freeze <- [DW_OP_LLVM_convert 1 7, DW_OP_LLVM_convert 8 7, DW_OP_stack_value] $w19
	//DEBUG_VALUE: blk_generic_freeze:freeze <- [DW_OP_LLVM_convert 1 7, DW_OP_LLVM_convert 8 7, DW_OP_stack_value] $w19
	//DEBUG_VALUE: blk_generic_freeze:q <- 0
	.loc	2 0 0 is_stmt 0                 // kernel/platform_source/basicplatform/block/mas_blk_core.c:0:0
	subs	x0, x20, #2560                  // =2560
.Ltmp380:
	//DEBUG_VALUE: blk_generic_freeze:freeze_obj <- [DW_OP_LLVM_entry_value 1] $x0
	//DEBUG_VALUE: blk_generic_freeze:lld <- 0
	//DEBUG_VALUE: blk_generic_freeze:q <- 0
	//DEBUG_VALUE: blk_generic_freeze:freeze <- [DW_OP_LLVM_convert 1 7, DW_OP_LLVM_convert 8 7, DW_OP_stack_value] $w19
	//DEBUG_VALUE: blk_generic_freeze:type <- 1
	//DEBUG_VALUE: blk_generic_freeze:freeze_obj <- $x0
	//DEBUG_VALUE: mas_blk_freeze_lld:q <- $x0
	.loc	2 826 6 is_stmt 1               // kernel/platform_source/basicplatform/block/mas_blk_core.c:826:6
	b.eq	.LBB39_14
.Ltmp381:
// %bb.16:                              //   in Loop: Header=BB39_15 Depth=1
	//DEBUG_VALUE: blk_generic_freeze:freeze_obj <- $x0
	//DEBUG_VALUE: mas_blk_freeze_lld:q <- $x0
	//DEBUG_VALUE: blk_generic_freeze:freeze <- [DW_OP_LLVM_convert 1 7, DW_OP_LLVM_convert 8 7, DW_OP_stack_value] $w19
	//DEBUG_VALUE: mas_blk_freeze_lld:freeze <- [DW_OP_LLVM_convert 1 7, DW_OP_LLVM_convert 8 7, DW_OP_stack_value] $w19
	//DEBUG_VALUE: blk_generic_freeze:freeze <- [DW_OP_LLVM_convert 1 7, DW_OP_LLVM_convert 8 7, DW_OP_stack_value] $w19
	//DEBUG_VALUE: blk_generic_freeze:type <- 1
	//DEBUG_VALUE: blk_generic_freeze:q <- 0
	//DEBUG_VALUE: blk_generic_freeze:lld <- 0
	//DEBUG_VALUE: blk_generic_freeze:q <- 0
	//DEBUG_VALUE: blk_generic_freeze:q <- $x0
	.loc	2 838 10                        // kernel/platform_source/basicplatform/block/mas_blk_core.c:838:10
	sub	x8, x20, #2512                  // =2512
	ldr	x8, [x8]
.Ltmp382:
	.loc	2 838 7 is_stmt 0               // kernel/platform_source/basicplatform/block/mas_blk_core.c:838:7
	cbz	x8, .LBB39_14
.Ltmp383:
// %bb.17:                              //   in Loop: Header=BB39_15 Depth=1
	//DEBUG_VALUE: blk_generic_freeze:q <- $x0
	//DEBUG_VALUE: blk_generic_freeze:freeze_obj <- $x0
	//DEBUG_VALUE: mas_blk_freeze_lld:q <- $x0
	//DEBUG_VALUE: blk_generic_freeze:freeze <- [DW_OP_LLVM_convert 1 7, DW_OP_LLVM_convert 8 7, DW_OP_stack_value] $w19
	//DEBUG_VALUE: mas_blk_freeze_lld:freeze <- [DW_OP_LLVM_convert 1 7, DW_OP_LLVM_convert 8 7, DW_OP_stack_value] $w19
	//DEBUG_VALUE: blk_generic_freeze:freeze <- [DW_OP_LLVM_convert 1 7, DW_OP_LLVM_convert 8 7, DW_OP_stack_value] $w19
	//DEBUG_VALUE: blk_generic_freeze:type <- 1
	//DEBUG_VALUE: blk_generic_freeze:lld <- 0
	//DEBUG_VALUE: blk_generic_freeze:q <- 0
	//DEBUG_VALUE: blk_generic_freeze:q <- $x0
	.loc	2 839 8 is_stmt 1               // kernel/platform_source/basicplatform/block/mas_blk_core.c:839:8
	tbz	w19, #0, .LBB39_13
.Ltmp384:
// %bb.18:                              //   in Loop: Header=BB39_15 Depth=1
	//DEBUG_VALUE: blk_generic_freeze:q <- $x0
	//DEBUG_VALUE: blk_generic_freeze:freeze_obj <- $x0
	//DEBUG_VALUE: mas_blk_freeze_lld:q <- $x0
	//DEBUG_VALUE: blk_generic_freeze:freeze <- [DW_OP_LLVM_convert 1 7, DW_OP_LLVM_convert 8 7, DW_OP_stack_value] $w19
	//DEBUG_VALUE: mas_blk_freeze_lld:freeze <- [DW_OP_LLVM_convert 1 7, DW_OP_LLVM_convert 8 7, DW_OP_stack_value] $w19
	//DEBUG_VALUE: blk_generic_freeze:freeze <- [DW_OP_LLVM_convert 1 7, DW_OP_LLVM_convert 8 7, DW_OP_stack_value] $w19
	//DEBUG_VALUE: blk_generic_freeze:type <- 1
	//DEBUG_VALUE: blk_generic_freeze:lld <- 0
	//DEBUG_VALUE: blk_generic_freeze:q <- 0
	.loc	2 840 5                         // kernel/platform_source/basicplatform/block/mas_blk_core.c:840:5
	bl	blk_mq_freeze_queue
.Ltmp385:
	//DEBUG_VALUE: blk_generic_freeze:type <- [DW_OP_LLVM_entry_value 1] $w1
	//DEBUG_VALUE: mas_blk_freeze_lld:q <- [DW_OP_constu 2560, DW_OP_minus, DW_OP_stack_value] undef
	//DEBUG_VALUE: __mptr <- undef
	.loc	2 0 0 is_stmt 0                 // kernel/platform_source/basicplatform/block/mas_blk_core.c:0:0
	ldr	x20, [x20]
.Ltmp386:
	//DEBUG_VALUE: mas_blk_freeze_lld:q <- [DW_OP_constu 2560, DW_OP_minus, DW_OP_stack_value] $x20
	.loc	2 100 3 is_stmt 1               // kernel/platform_source/basicplatform/block/mas_blk_core.c:100:3
	cmp	x21, x20
	b.ne	.LBB39_15
	b	.LBB39_11
.Ltmp387:
.Lfunc_end39:
	.size	blk_generic_freeze, .Lfunc_end39-blk_generic_freeze
	.cfi_endproc
                                        // -- End function
	.globl	blk_dev_write_order_preserved   // -- Begin function blk_dev_write_order_preserved
	.p2align	2
	.type	blk_dev_write_order_preserved,@function
blk_dev_write_order_preserved:          // @blk_dev_write_order_preserved
.Lfunc_begin40:
	.loc	2 852 0                         // kernel/platform_source/basicplatform/block/mas_blk_core.c:852:0
	.cfi_startproc
// %bb.0:
	.loc	2 856 6 prologue_end            // kernel/platform_source/basicplatform/block/mas_blk_core.c:856:6
	hint	#34
.Ltmp388:
	//DEBUG_VALUE: blk_dev_write_order_preserved:bdev <- $x0
	//DEBUG_VALUE: blk_dev_write_order_preserved:bdev <- $x0
	//DEBUG_VALUE: blk_dev_write_order_preserved:q <- 0
	//DEBUG_VALUE: blk_dev_write_order_preserved:lld <- 0
	cbz	x0, .LBB40_6
.Ltmp389:
// %bb.1:
	//DEBUG_VALUE: blk_dev_write_order_preserved:bdev <- $x0
	//DEBUG_VALUE: blk_dev_write_order_preserved:lld <- 0
	//DEBUG_VALUE: blk_dev_write_order_preserved:q <- 0
	ldr	x8, [x0, #176]
	cbz	x8, .LBB40_7
.Ltmp390:
// %bb.2:
	//DEBUG_VALUE: blk_dev_write_order_preserved:bdev <- $x0
	//DEBUG_VALUE: blk_dev_write_order_preserved:lld <- 0
	//DEBUG_VALUE: blk_dev_write_order_preserved:q <- 0
	ldr	x8, [x8, #1064]
.Ltmp391:
	.loc	2 856 6 is_stmt 0               // kernel/platform_source/basicplatform/block/mas_blk_core.c:856:6
	cbz	x8, .LBB40_7
.Ltmp392:
// %bb.3:
	//DEBUG_VALUE: blk_dev_write_order_preserved:bdev <- $x0
	//DEBUG_VALUE: blk_dev_write_order_preserved:lld <- 0
	//DEBUG_VALUE: blk_dev_write_order_preserved:q <- 0
	//DEBUG_VALUE: blk_dev_write_order_preserved:q <- $x8
	//DEBUG_VALUE: mas_blk_get_lld:q <- $x8
	.loc	2 43 6 is_stmt 1                // kernel/platform_source/basicplatform/block/mas_blk_core.c:43:6
	ldr	x9, [x8, #48]
.Ltmp393:
	.loc	2 43 6 is_stmt 0                // kernel/platform_source/basicplatform/block/mas_blk_core.c:43:6
	cbz	x9, .LBB40_8
.Ltmp394:
// %bb.4:
	//DEBUG_VALUE: mas_blk_get_lld:q <- $x8
	//DEBUG_VALUE: blk_dev_write_order_preserved:q <- $x8
	//DEBUG_VALUE: blk_dev_write_order_preserved:bdev <- $x0
	//DEBUG_VALUE: blk_dev_write_order_preserved:lld <- 0
	.loc	2 44 14 is_stmt 1               // kernel/platform_source/basicplatform/block/mas_blk_core.c:44:14
	ldr	x9, [x8, #2552]
	.loc	2 44 11 is_stmt 0               // kernel/platform_source/basicplatform/block/mas_blk_core.c:44:11
	add	x8, x8, #1448                   // =1448
.Ltmp395:
	add	x10, x9, #64                    // =64
	cmp	x9, #0                          // =0
	csel	x8, x8, x10, eq
.Ltmp396:
.LBB40_5:
	//DEBUG_VALUE: blk_dev_write_order_preserved:bdev <- $x0
	//DEBUG_VALUE: blk_dev_write_order_preserved:lld <- 0
	//DEBUG_VALUE: blk_dev_write_order_preserved:lld <- $x8
	.loc	2 862 9 is_stmt 1               // kernel/platform_source/basicplatform/block/mas_blk_core.c:862:9
	ldrb	w8, [x8, #24]
.Ltmp397:
	lsr	w0, w8, #7
.Ltmp398:
	//DEBUG_VALUE: blk_dev_write_order_preserved:bdev <- [DW_OP_LLVM_entry_value 1] $x0
.LBB40_6:
	.loc	2 863 1                         // kernel/platform_source/basicplatform/block/mas_blk_core.c:863:1
	ret
.LBB40_7:
.Ltmp399:
	//DEBUG_VALUE: blk_dev_write_order_preserved:bdev <- $x0
	//DEBUG_VALUE: blk_dev_write_order_preserved:lld <- 0
	//DEBUG_VALUE: blk_dev_write_order_preserved:q <- 0
	.loc	2 0 0 is_stmt 0                 // kernel/platform_source/basicplatform/block/mas_blk_core.c:0:0
	mov	w0, wzr
.Ltmp400:
	//DEBUG_VALUE: blk_dev_write_order_preserved:bdev <- [DW_OP_LLVM_entry_value 1] $x0
	.loc	2 863 1                         // kernel/platform_source/basicplatform/block/mas_blk_core.c:863:1
	ret
.Ltmp401:
.LBB40_8:
	//DEBUG_VALUE: mas_blk_get_lld:q <- $x8
	//DEBUG_VALUE: blk_dev_write_order_preserved:q <- $x8
	//DEBUG_VALUE: blk_dev_write_order_preserved:bdev <- $x0
	//DEBUG_VALUE: blk_dev_write_order_preserved:lld <- 0
	.loc	2 46 13 is_stmt 1               // kernel/platform_source/basicplatform/block/mas_blk_core.c:46:13
	add	x8, x8, #1448                   // =1448
.Ltmp402:
	.loc	2 0 13 is_stmt 0                // kernel/platform_source/basicplatform/block/mas_blk_core.c:0:13
	b	.LBB40_5
.Ltmp403:
.Lfunc_end40:
	.size	blk_dev_write_order_preserved, .Lfunc_end40-blk_dev_write_order_preserved
	.cfi_endproc
                                        // -- End function
	.globl	blk_req_set_make_req_nr         // -- Begin function blk_req_set_make_req_nr
	.p2align	2
	.type	blk_req_set_make_req_nr,@function
blk_req_set_make_req_nr:                // @blk_req_set_make_req_nr
.Lfunc_begin41:
	.loc	2 882 0 is_stmt 1               // kernel/platform_source/basicplatform/block/mas_blk_core.c:882:0
	.cfi_startproc
// %bb.0:
	//DEBUG_VALUE: blk_req_set_make_req_nr:req <- $x0
	hint	#25
	.cfi_negate_ra_state
	stp	x29, x30, [sp, #-48]!           // 16-byte Folded Spill
	str	x21, [sp, #16]                  // 8-byte Folded Spill
	stp	x20, x19, [sp, #32]             // 16-byte Folded Spill
	mov	x29, sp
	.cfi_def_cfa w29, 48
	.cfi_offset w19, -8
	.cfi_offset w20, -16
	.cfi_offset w21, -32
	.cfi_offset w30, -40
	.cfi_offset w29, -48
.Ltmp404:
	.loc	2 884 49 prologue_end           // kernel/platform_source/basicplatform/block/mas_blk_core.c:884:49
	ldr	x8, [x0]
.Ltmp405:
	//DEBUG_VALUE: mas_blk_get_lld:q <- $x8
	.loc	2 0 49 is_stmt 0                // kernel/platform_source/basicplatform/block/mas_blk_core.c:0:49
	mov	x19, x0
.Ltmp406:
	//DEBUG_VALUE: blk_req_set_make_req_nr:req <- $x19
	//DEBUG_VALUE: blk_req_set_make_req_nr:flags <- 0
	//DEBUG_VALUE: blk_req_set_make_req_nr:req <- $x19
	.loc	2 43 6 is_stmt 1                // kernel/platform_source/basicplatform/block/mas_blk_core.c:43:6
	ldr	x9, [x8, #48]
.Ltmp407:
	.loc	2 43 6 is_stmt 0                // kernel/platform_source/basicplatform/block/mas_blk_core.c:43:6
	cbz	x9, .LBB41_7
.Ltmp408:
// %bb.1:
	//DEBUG_VALUE: blk_req_set_make_req_nr:req <- $x19
	//DEBUG_VALUE: mas_blk_get_lld:q <- $x8
	//DEBUG_VALUE: blk_req_set_make_req_nr:flags <- 0
	.loc	2 44 14 is_stmt 1               // kernel/platform_source/basicplatform/block/mas_blk_core.c:44:14
	ldr	x9, [x8, #2552]
	.loc	2 44 11 is_stmt 0               // kernel/platform_source/basicplatform/block/mas_blk_core.c:44:11
	add	x8, x8, #1448                   // =1448
.Ltmp409:
	add	x10, x9, #64                    // =64
	cmp	x9, #0                          // =0
	csel	x21, x8, x10, eq
.Ltmp410:
	//DEBUG_VALUE: blk_req_set_make_req_nr:lld <- $x21
	//DEBUG_VALUE: blk_req_set_flag:lld <- $x21
	//DEBUG_VALUE: blk_req_set_flag:req <- $x19
	.loc	2 868 11 is_stmt 1              // kernel/platform_source/basicplatform/block/mas_blk_core.c:868:11
	ldr	x8, [x21, #24]
.Ltmp411:
	.loc	2 868 6 is_stmt 0               // kernel/platform_source/basicplatform/block/mas_blk_core.c:868:6
	tbz	w8, #8, .LBB41_3
.Ltmp412:
.LBB41_2:
	//DEBUG_VALUE: blk_req_set_flag:lld <- $x21
	//DEBUG_VALUE: blk_req_set_make_req_nr:lld <- $x21
	//DEBUG_VALUE: blk_req_set_flag:req <- $x19
	//DEBUG_VALUE: blk_req_set_make_req_nr:req <- $x19
	//DEBUG_VALUE: blk_req_set_make_req_nr:flags <- 0
	.loc	2 869 18 is_stmt 1              // kernel/platform_source/basicplatform/block/mas_blk_core.c:869:18
	ldr	w8, [x19, #24]
	.loc	2 872 22                        // kernel/platform_source/basicplatform/block/mas_blk_core.c:872:22
	ldr	x9, [x19, #192]
	mov	w10, #59391
	movk	w10, #65503, lsl #16
	.loc	2 870 18                        // kernel/platform_source/basicplatform/block/mas_blk_core.c:870:18
	and	w8, w8, w10
	.loc	2 872 22                        // kernel/platform_source/basicplatform/block/mas_blk_core.c:872:22
	and	x9, x9, #0xfffffffffffffffd
	.loc	2 876 18                        // kernel/platform_source/basicplatform/block/mas_blk_core.c:876:18
	orr	w8, w8, #0x800
	.loc	2 872 22                        // kernel/platform_source/basicplatform/block/mas_blk_core.c:872:22
	str	x9, [x19, #192]
	.loc	2 876 18                        // kernel/platform_source/basicplatform/block/mas_blk_core.c:876:18
	str	w8, [x19, #24]
.Ltmp413:
	.loc	2 890 12                        // kernel/platform_source/basicplatform/block/mas_blk_core.c:890:12
	ldr	x8, [x21, #24]
.Ltmp414:
.LBB41_3:
	//DEBUG_VALUE: blk_req_set_make_req_nr:lld <- $x21
	//DEBUG_VALUE: blk_req_set_make_req_nr:req <- $x19
	//DEBUG_VALUE: blk_req_set_make_req_nr:flags <- 0
	.loc	2 890 45 is_stmt 0              // kernel/platform_source/basicplatform/block/mas_blk_core.c:890:45
	tst	x8, #0x180
	b.eq	.LBB41_6
.Ltmp415:
// %bb.4:
	//DEBUG_VALUE: blk_req_set_make_req_nr:lld <- $x21
	//DEBUG_VALUE: blk_req_set_make_req_nr:req <- $x19
	//DEBUG_VALUE: blk_req_set_make_req_nr:flags <- 0
	.loc	2 892 33 is_stmt 1              // kernel/platform_source/basicplatform/block/mas_blk_core.c:892:33
	ldr	x8, [x19, #232]
.Ltmp416:
	.loc	157 329 16                      // kernel/include/linux/spinlock.h:329:16
	add	x20, x21, #496                  // =496
.Ltmp417:
	.loc	2 893 3                         // kernel/platform_source/basicplatform/block/mas_blk_core.c:893:3
	mov	x0, x20
.Ltmp418:
	.loc	2 892 33                        // kernel/platform_source/basicplatform/block/mas_blk_core.c:892:33
	orr	x8, x8, #0x4
	str	x8, [x19, #232]
	//DEBUG_VALUE: spinlock_check:lock <- [DW_OP_plus_uconst 496, DW_OP_stack_value] $x21
.Ltmp419:
	.loc	2 893 3                         // kernel/platform_source/basicplatform/block/mas_blk_core.c:893:3
	bl	_raw_spin_lock_irqsave
.Ltmp420:
	.loc	2 894 7                         // kernel/platform_source/basicplatform/block/mas_blk_core.c:894:7
	ldr	w8, [x21, #488]
.Ltmp421:
	.loc	2 893 3                         // kernel/platform_source/basicplatform/block/mas_blk_core.c:893:3
	mov	x1, x0
.Ltmp422:
	//DEBUG_VALUE: blk_req_set_make_req_nr:flags <- $x1
	.loc	2 894 7                         // kernel/platform_source/basicplatform/block/mas_blk_core.c:894:7
	cbz	w8, .LBB41_8
.Ltmp423:
.LBB41_5:
	//DEBUG_VALUE: blk_req_set_make_req_nr:lld <- $x21
	//DEBUG_VALUE: blk_req_set_make_req_nr:req <- $x19
	//DEBUG_VALUE: blk_req_set_make_req_nr:flags <- $x1
	.loc	2 896 46                        // kernel/platform_source/basicplatform/block/mas_blk_core.c:896:46
	add	w9, w8, #1                      // =1
.Ltmp424:
	.loc	157 409 2                       // kernel/include/linux/spinlock.h:409:2
	mov	x0, x20
.Ltmp425:
	.loc	2 896 46                        // kernel/platform_source/basicplatform/block/mas_blk_core.c:896:46
	str	w9, [x21, #488]
	.loc	2 896 28 is_stmt 0              // kernel/platform_source/basicplatform/block/mas_blk_core.c:896:28
	str	w8, [x19, #592]
.Ltmp426:
	//DEBUG_VALUE: spin_unlock_irqrestore:flags <- $x1
	//DEBUG_VALUE: spin_unlock_irqrestore:lock <- [DW_OP_plus_uconst 496, DW_OP_stack_value] undef
	.loc	157 409 2 is_stmt 1             // kernel/include/linux/spinlock.h:409:2
	bl	_raw_spin_unlock_irqrestore
.Ltmp427:
.LBB41_6:
	//DEBUG_VALUE: blk_req_set_make_req_nr:lld <- $x21
	//DEBUG_VALUE: blk_req_set_make_req_nr:req <- $x19
	.loc	2 899 1                         // kernel/platform_source/basicplatform/block/mas_blk_core.c:899:1
	ldp	x20, x19, [sp, #32]             // 16-byte Folded Reload
.Ltmp428:
	ldr	x21, [sp, #16]                  // 8-byte Folded Reload
.Ltmp429:
	ldp	x29, x30, [sp], #48             // 16-byte Folded Reload
	hint	#29
	ret
.LBB41_7:
.Ltmp430:
	//DEBUG_VALUE: blk_req_set_make_req_nr:req <- $x19
	//DEBUG_VALUE: mas_blk_get_lld:q <- $x8
	//DEBUG_VALUE: blk_req_set_make_req_nr:flags <- 0
	.loc	2 46 13                         // kernel/platform_source/basicplatform/block/mas_blk_core.c:46:13
	add	x21, x8, #1448                  // =1448
.Ltmp431:
	//DEBUG_VALUE: blk_req_set_make_req_nr:lld <- $x21
	//DEBUG_VALUE: blk_req_set_flag:lld <- $x21
	//DEBUG_VALUE: blk_req_set_flag:req <- $x19
	.loc	2 868 11                        // kernel/platform_source/basicplatform/block/mas_blk_core.c:868:11
	ldr	x8, [x21, #24]
.Ltmp432:
	.loc	2 868 6 is_stmt 0               // kernel/platform_source/basicplatform/block/mas_blk_core.c:868:6
	tbnz	w8, #8, .LBB41_2
	b	.LBB41_3
.Ltmp433:
.LBB41_8:
	//DEBUG_VALUE: blk_req_set_make_req_nr:lld <- $x21
	//DEBUG_VALUE: blk_req_set_make_req_nr:req <- $x19
	//DEBUG_VALUE: blk_req_set_make_req_nr:flags <- $x1
	.loc	2 0 6                           // kernel/platform_source/basicplatform/block/mas_blk_core.c:0:6
	mov	w8, #1
.Ltmp434:
	.loc	2 895 20 is_stmt 1              // kernel/platform_source/basicplatform/block/mas_blk_core.c:895:20
	str	w8, [x21, #488]
	b	.LBB41_5
.Ltmp435:
.Lfunc_end41:
	.size	blk_req_set_make_req_nr, .Lfunc_end41-blk_req_set_make_req_nr
	.cfi_endproc
	.file	161 "/mnt/disk/jenkins/ci/workspace/chipset_pipeline_release/opensource/component_code/vendor/huawei/extra/build/build_script/kirin_kernel_release" "kernel/include/linux/spinlock_api_smp.h"
                                        // -- End function
	.globl	blk_req_get_order_nr            // -- Begin function blk_req_get_order_nr
	.p2align	2
	.type	blk_req_get_order_nr,@function
blk_req_get_order_nr:                   // @blk_req_get_order_nr
.Lfunc_begin42:
	.loc	2 972 0                         // kernel/platform_source/basicplatform/block/mas_blk_core.c:972:0
	.cfi_startproc
// %bb.0:
	//DEBUG_VALUE: blk_req_get_order_nr:req <- $x0
	//DEBUG_VALUE: blk_req_get_order_nr:extern_protect <- [DW_OP_LLVM_convert 1 7, DW_OP_LLVM_convert 8 7, DW_OP_stack_value] $w1
	hint	#25
	.cfi_negate_ra_state
	stp	x29, x30, [sp, #-48]!           // 16-byte Folded Spill
	stp	x22, x21, [sp, #16]             // 16-byte Folded Spill
	stp	x20, x19, [sp, #32]             // 16-byte Folded Spill
	mov	x29, sp
	.cfi_def_cfa w29, 48
	.cfi_offset w19, -8
	.cfi_offset w20, -16
	.cfi_offset w21, -24
	.cfi_offset w22, -32
	.cfi_offset w30, -40
	.cfi_offset w29, -48
.Ltmp436:
	.loc	2 977 6 prologue_end            // kernel/platform_source/basicplatform/block/mas_blk_core.c:977:6
	ldrb	w8, [x0, #232]
	//DEBUG_VALUE: blk_req_get_order_nr:extern_protect <- [DW_OP_LLVM_convert 1 7, DW_OP_LLVM_convert 8 7, DW_OP_stack_value] $w1
	mov	x19, x0
.Ltmp437:
	//DEBUG_VALUE: blk_req_get_order_nr:req <- $x19
	//DEBUG_VALUE: blk_req_get_order_nr:lld <- 0
	//DEBUG_VALUE: blk_req_get_order_nr:order <- 0
	//DEBUG_VALUE: blk_req_get_order_nr:extern_protect <- [DW_OP_LLVM_convert 1 7, DW_OP_LLVM_convert 8 7, DW_OP_stack_value] undef
	//DEBUG_VALUE: blk_req_get_order_nr:req <- $x19
	tbnz	w8, #1, .LBB42_4
.Ltmp438:
// %bb.1:
	//DEBUG_VALUE: blk_req_get_order_nr:req <- $x19
	//DEBUG_VALUE: blk_req_get_order_nr:order <- 0
	//DEBUG_VALUE: blk_req_get_order_nr:lld <- 0
	.loc	2 980 29                        // kernel/platform_source/basicplatform/block/mas_blk_core.c:980:29
	ldr	x8, [x19]
.Ltmp439:
	//DEBUG_VALUE: mas_blk_get_lld:q <- $x8
	.loc	2 0 29 is_stmt 0                // kernel/platform_source/basicplatform/block/mas_blk_core.c:0:29
	mov	w20, w1
.Ltmp440:
	//DEBUG_VALUE: blk_req_get_order_nr:extern_protect <- [DW_OP_LLVM_convert 1 7, DW_OP_LLVM_convert 8 7, DW_OP_stack_value] $w20
	//DEBUG_VALUE: blk_req_get_order_nr:extern_protect <- [DW_OP_LLVM_convert 1 7, DW_OP_LLVM_convert 8 7, DW_OP_stack_value] $w20
	.loc	2 43 6 is_stmt 1                // kernel/platform_source/basicplatform/block/mas_blk_core.c:43:6
	ldr	x9, [x8, #48]
.Ltmp441:
	.loc	2 43 6 is_stmt 0                // kernel/platform_source/basicplatform/block/mas_blk_core.c:43:6
	cbz	x9, .LBB42_11
.Ltmp442:
// %bb.2:
	//DEBUG_VALUE: blk_req_get_order_nr:req <- $x19
	//DEBUG_VALUE: mas_blk_get_lld:q <- $x8
	//DEBUG_VALUE: blk_req_get_order_nr:extern_protect <- [DW_OP_LLVM_convert 1 7, DW_OP_LLVM_convert 8 7, DW_OP_stack_value] $w20
	//DEBUG_VALUE: blk_req_get_order_nr:order <- 0
	//DEBUG_VALUE: blk_req_get_order_nr:lld <- 0
	.loc	2 44 14 is_stmt 1               // kernel/platform_source/basicplatform/block/mas_blk_core.c:44:14
	ldr	x9, [x8, #2552]
	.loc	2 44 11 is_stmt 0               // kernel/platform_source/basicplatform/block/mas_blk_core.c:44:11
	add	x8, x8, #1448                   // =1448
.Ltmp443:
	add	x10, x9, #64                    // =64
	cmp	x9, #0                          // =0
	csel	x22, x8, x10, eq
.Ltmp444:
	//DEBUG_VALUE: blk_req_get_order_nr:extern_protect <- [DW_OP_LLVM_convert 1 7, DW_OP_LLVM_convert 8 7, DW_OP_stack_value] $w20
	//DEBUG_VALUE: blk_req_get_order_nr:lld <- $x22
	.loc	2 981 20 is_stmt 1              // kernel/platform_source/basicplatform/block/mas_blk_core.c:981:20
	ldr	w1, [x19, #596]
.Ltmp445:
	.loc	2 981 7 is_stmt 0               // kernel/platform_source/basicplatform/block/mas_blk_core.c:981:7
	cbnz	w1, .LBB42_12
.Ltmp446:
.LBB42_3:
	//DEBUG_VALUE: blk_req_get_order_nr:lld <- $x22
	//DEBUG_VALUE: blk_req_get_order_nr:req <- $x19
	//DEBUG_VALUE: blk_req_get_order_nr:extern_protect <- [DW_OP_LLVM_convert 1 7, DW_OP_LLVM_convert 8 7, DW_OP_stack_value] $w20
	//DEBUG_VALUE: blk_req_get_order_nr:order <- 0
	//DEBUG_VALUE: blk_req_get_order_nr:extern_protect <- [DW_OP_LLVM_convert 1 7, DW_OP_LLVM_convert 8 7, DW_OP_stack_value] $w20
	.loc	2 986 7 is_stmt 1               // kernel/platform_source/basicplatform/block/mas_blk_core.c:986:7
	ldrb	w8, [x22, #24]
	tbnz	w8, #7, .LBB42_7
.Ltmp447:
.LBB42_4:
	//DEBUG_VALUE: blk_req_get_order_nr:req <- $x19
	//DEBUG_VALUE: blk_req_get_order_nr:order <- 0
	.loc	2 0 0 is_stmt 0                 // kernel/platform_source/basicplatform/block/mas_blk_core.c:0:0
	mov	w21, wzr
.Ltmp448:
.LBB42_5:
	//DEBUG_VALUE: blk_req_get_order_nr:req <- $x19
	//DEBUG_VALUE: blk_req_get_order_nr:order <- $w21
	//DEBUG_LABEL: blk_req_get_order_nr:out
	.loc	2 998 27 is_stmt 1              // kernel/platform_source/basicplatform/block/mas_blk_core.c:998:27
	str	w21, [x19, #596]
.Ltmp449:
.LBB42_6:
	//DEBUG_VALUE: blk_req_get_order_nr:req <- $x19
	.loc	2 1000 1                        // kernel/platform_source/basicplatform/block/mas_blk_core.c:1000:1
	mov	w0, w21
	ldp	x20, x19, [sp, #32]             // 16-byte Folded Reload
.Ltmp450:
	ldp	x22, x21, [sp, #16]             // 16-byte Folded Reload
	ldp	x29, x30, [sp], #48             // 16-byte Folded Reload
	hint	#29
	ret
.LBB42_7:
.Ltmp451:
	//DEBUG_VALUE: blk_req_get_order_nr:lld <- $x22
	//DEBUG_VALUE: blk_req_get_order_nr:req <- $x19
	//DEBUG_VALUE: blk_req_get_order_nr:extern_protect <- [DW_OP_LLVM_convert 1 7, DW_OP_LLVM_convert 8 7, DW_OP_stack_value] $w20
	//DEBUG_VALUE: blk_req_get_order_nr:order <- 0
	//DEBUG_VALUE: blk_req_get_order_nr:extern_protect <- [DW_OP_LLVM_convert 1 7, DW_OP_LLVM_convert 8 7, DW_OP_stack_value] $w20
                                        // implicit-def: $x1
	.loc	2 987 8                         // kernel/platform_source/basicplatform/block/mas_blk_core.c:987:8
	tbnz	w20, #0, .LBB42_9
.Ltmp452:
// %bb.8:
	//DEBUG_VALUE: blk_req_get_order_nr:lld <- $x22
	//DEBUG_VALUE: blk_req_get_order_nr:req <- $x19
	//DEBUG_VALUE: blk_req_get_order_nr:extern_protect <- [DW_OP_LLVM_convert 1 7, DW_OP_LLVM_convert 8 7, DW_OP_stack_value] $w20
	//DEBUG_VALUE: blk_req_get_order_nr:order <- 0
	//DEBUG_VALUE: spinlock_check:lock <- [DW_OP_plus_uconst 464, DW_OP_stack_value] $x22
	.loc	157 329 16                      // kernel/include/linux/spinlock.h:329:16
	add	x0, x22, #464                   // =464
.Ltmp453:
	.loc	2 988 5                         // kernel/platform_source/basicplatform/block/mas_blk_core.c:988:5
	bl	_raw_spin_lock_irqsave
.Ltmp454:
	mov	x1, x0
.Ltmp455:
	//DEBUG_VALUE: blk_req_get_order_nr:flags <- $x1
.LBB42_9:
	//DEBUG_VALUE: blk_req_get_order_nr:lld <- $x22
	//DEBUG_VALUE: blk_req_get_order_nr:req <- $x19
	//DEBUG_VALUE: blk_req_get_order_nr:extern_protect <- [DW_OP_LLVM_convert 1 7, DW_OP_LLVM_convert 8 7, DW_OP_stack_value] $w20
	//DEBUG_VALUE: blk_req_get_order_nr:order <- 0
	//DEBUG_VALUE: blk_req_get_order_nr:flags <- $x1
	.loc	2 989 18                        // kernel/platform_source/basicplatform/block/mas_blk_core.c:989:18
	ldr	w8, [x22, #460]
	adds	w9, w8, #1                      // =1
	add	w8, w8, #2                      // =2
	.loc	2 990 8                         // kernel/platform_source/basicplatform/block/mas_blk_core.c:990:8
	csel	w21, w8, w9, hs
	.loc	2 0 0 is_stmt 0                 // kernel/platform_source/basicplatform/block/mas_blk_core.c:0:0
	str	w21, [x22, #460]
.Ltmp456:
	//DEBUG_VALUE: blk_req_get_order_nr:order <- undef
	.loc	2 993 8 is_stmt 1               // kernel/platform_source/basicplatform/block/mas_blk_core.c:993:8
	tbnz	w20, #0, .LBB42_5
.Ltmp457:
// %bb.10:
	//DEBUG_VALUE: blk_req_get_order_nr:lld <- $x22
	//DEBUG_VALUE: blk_req_get_order_nr:req <- $x19
	//DEBUG_VALUE: blk_req_get_order_nr:flags <- $x1
	//DEBUG_VALUE: blk_req_get_order_nr:extern_protect <- [DW_OP_LLVM_convert 1 7, DW_OP_LLVM_convert 8 7, DW_OP_stack_value] $w20
	//DEBUG_VALUE: spin_unlock_irqrestore:lock <- [DW_OP_plus_uconst 464, DW_OP_stack_value] $x22
	//DEBUG_VALUE: spin_unlock_irqrestore:flags <- $x1
	.loc	157 409 2                       // kernel/include/linux/spinlock.h:409:2
	add	x0, x22, #464                   // =464
	bl	_raw_spin_unlock_irqrestore
.Ltmp458:
	.loc	157 0 2 is_stmt 0               // kernel/include/linux/spinlock.h:0:2
	b	.LBB42_5
.Ltmp459:
.LBB42_11:
	//DEBUG_VALUE: blk_req_get_order_nr:req <- $x19
	//DEBUG_VALUE: mas_blk_get_lld:q <- $x8
	//DEBUG_VALUE: blk_req_get_order_nr:extern_protect <- [DW_OP_LLVM_convert 1 7, DW_OP_LLVM_convert 8 7, DW_OP_stack_value] $w20
	//DEBUG_VALUE: blk_req_get_order_nr:order <- 0
	//DEBUG_VALUE: blk_req_get_order_nr:lld <- 0
	.loc	2 46 13 is_stmt 1               // kernel/platform_source/basicplatform/block/mas_blk_core.c:46:13
	add	x22, x8, #1448                  // =1448
.Ltmp460:
	//DEBUG_VALUE: blk_req_get_order_nr:extern_protect <- [DW_OP_LLVM_convert 1 7, DW_OP_LLVM_convert 8 7, DW_OP_stack_value] $w20
	//DEBUG_VALUE: blk_req_get_order_nr:lld <- $x22
	.loc	2 981 20                        // kernel/platform_source/basicplatform/block/mas_blk_core.c:981:20
	ldr	w1, [x19, #596]
.Ltmp461:
	.loc	2 981 7 is_stmt 0               // kernel/platform_source/basicplatform/block/mas_blk_core.c:981:7
	cbz	w1, .LBB42_3
.Ltmp462:
.LBB42_12:
	//DEBUG_VALUE: blk_req_get_order_nr:lld <- $x22
	//DEBUG_VALUE: blk_req_get_order_nr:req <- $x19
	//DEBUG_VALUE: blk_req_get_order_nr:extern_protect <- [DW_OP_LLVM_convert 1 7, DW_OP_LLVM_convert 8 7, DW_OP_stack_value] $w20
	//DEBUG_VALUE: blk_req_get_order_nr:order <- 0
	.loc	2 982 3 is_stmt 1               // kernel/platform_source/basicplatform/block/mas_blk_core.c:982:3
	adrp	x0, .L.str.3
	add	x0, x0, :lo12:.L.str.3
	bl	printk
.Ltmp463:
	.loc	2 984 24                        // kernel/platform_source/basicplatform/block/mas_blk_core.c:984:24
	ldr	w21, [x19, #596]
	b	.LBB42_6
.Ltmp464:
.Lfunc_end42:
	.size	blk_req_get_order_nr, .Lfunc_end42-blk_req_get_order_nr
	.cfi_endproc
                                        // -- End function
	.globl	blk_queue_order_enable          // -- Begin function blk_queue_order_enable
	.p2align	2
	.type	blk_queue_order_enable,@function
blk_queue_order_enable:                 // @blk_queue_order_enable
.Lfunc_begin43:
	.loc	2 1003 0                        // kernel/platform_source/basicplatform/block/mas_blk_core.c:1003:0
	.cfi_startproc
// %bb.0:
	.loc	2 43 6 prologue_end             // kernel/platform_source/basicplatform/block/mas_blk_core.c:43:6
	hint	#34
.Ltmp465:
	//DEBUG_VALUE: blk_queue_order_enable:q <- $x0
	//DEBUG_VALUE: blk_queue_order_enable:q <- $x0
	//DEBUG_VALUE: blk_queue_order_enable:enable <- [DW_OP_LLVM_convert 1 7, DW_OP_LLVM_convert 8 7, DW_OP_stack_value] $w1
	//DEBUG_VALUE: blk_queue_order_enable:enable <- [DW_OP_LLVM_convert 1 7, DW_OP_LLVM_convert 8 7, DW_OP_stack_value] undef
	//DEBUG_VALUE: mas_blk_get_lld:q <- $x0
	//DEBUG_VALUE: mas_blk_get_lld:q <- $x0
	ldr	x8, [x0, #48]
.Ltmp466:
	//DEBUG_VALUE: blk_queue_order_enable:enable <- [DW_OP_LLVM_convert 1 7, DW_OP_LLVM_convert 8 7, DW_OP_stack_value] $w1
	.loc	2 43 6 is_stmt 0                // kernel/platform_source/basicplatform/block/mas_blk_core.c:43:6
	cbz	x8, .LBB43_3
.Ltmp467:
// %bb.1:
	//DEBUG_VALUE: mas_blk_get_lld:q <- $x0
	//DEBUG_VALUE: blk_queue_order_enable:q <- $x0
	//DEBUG_VALUE: blk_queue_order_enable:enable <- [DW_OP_LLVM_convert 1 7, DW_OP_LLVM_convert 8 7, DW_OP_stack_value] $w1
	.loc	2 44 14 is_stmt 1               // kernel/platform_source/basicplatform/block/mas_blk_core.c:44:14
	ldr	x8, [x0, #2552]
	.loc	2 44 11 is_stmt 0               // kernel/platform_source/basicplatform/block/mas_blk_core.c:44:11
	add	x9, x0, #1448                   // =1448
	add	x10, x8, #64                    // =64
	cmp	x8, #0                          // =0
	csel	x8, x9, x10, eq
.Ltmp468:
.LBB43_2:
	//DEBUG_VALUE: blk_queue_order_enable:q <- $x0
	//DEBUG_VALUE: blk_queue_order_enable:enable <- [DW_OP_LLVM_convert 1 7, DW_OP_LLVM_convert 8 7, DW_OP_stack_value] $w1
	//DEBUG_VALUE: blk_queue_order_enable:lld <- $x8
	.loc	2 0 0                           // kernel/platform_source/basicplatform/block/mas_blk_core.c:0:0
	ldr	x9, [x8, #24]
.Ltmp469:
	.loc	2 1006 6 is_stmt 1              // kernel/platform_source/basicplatform/block/mas_blk_core.c:1006:6
	ands	w10, w1, #0x1
	mov	w11, #128
	csel	x11, x11, xzr, ne
	and	x9, x9, #0xffffffffffffff7f
	orr	x9, x9, x11
.Ltmp470:
	.loc	2 0 0 is_stmt 0                 // kernel/platform_source/basicplatform/block/mas_blk_core.c:0:0
	str	x9, [x8, #24]
.Ltmp471:
	.loc	2 1008 21 is_stmt 1             // kernel/platform_source/basicplatform/block/mas_blk_core.c:1008:21
	strb	w10, [x8, #456]
.Ltmp472:
	.loc	2 1013 1                        // kernel/platform_source/basicplatform/block/mas_blk_core.c:1013:1
	ret
.Ltmp473:
.LBB43_3:
	//DEBUG_VALUE: mas_blk_get_lld:q <- $x0
	//DEBUG_VALUE: blk_queue_order_enable:q <- $x0
	//DEBUG_VALUE: blk_queue_order_enable:enable <- [DW_OP_LLVM_convert 1 7, DW_OP_LLVM_convert 8 7, DW_OP_stack_value] $w1
	.loc	2 46 13                         // kernel/platform_source/basicplatform/block/mas_blk_core.c:46:13
	add	x8, x0, #1448                   // =1448
	b	.LBB43_2
.Ltmp474:
.Lfunc_end43:
	.size	blk_queue_order_enable, .Lfunc_end43-blk_queue_order_enable
	.cfi_endproc
                                        // -- End function
	.globl	blk_queue_query_order_enable    // -- Begin function blk_queue_query_order_enable
	.p2align	2
	.type	blk_queue_query_order_enable,@function
blk_queue_query_order_enable:           // @blk_queue_query_order_enable
.Lfunc_begin44:
	.loc	2 1016 0                        // kernel/platform_source/basicplatform/block/mas_blk_core.c:1016:0
	.cfi_startproc
// %bb.0:
	.loc	2 43 6 prologue_end             // kernel/platform_source/basicplatform/block/mas_blk_core.c:43:6
	hint	#34
.Ltmp475:
	//DEBUG_VALUE: blk_queue_query_order_enable:q <- $x0
	//DEBUG_VALUE: blk_queue_query_order_enable:q <- $x0
	//DEBUG_VALUE: mas_blk_get_lld:q <- $x0
	//DEBUG_VALUE: mas_blk_get_lld:q <- $x0
	ldr	x8, [x0, #48]
.Ltmp476:
	.loc	2 43 6 is_stmt 0                // kernel/platform_source/basicplatform/block/mas_blk_core.c:43:6
	cbz	x8, .LBB44_3
.Ltmp477:
// %bb.1:
	//DEBUG_VALUE: mas_blk_get_lld:q <- $x0
	//DEBUG_VALUE: blk_queue_query_order_enable:q <- $x0
	.loc	2 44 14 is_stmt 1               // kernel/platform_source/basicplatform/block/mas_blk_core.c:44:14
	ldr	x8, [x0, #2552]
	.loc	2 44 11 is_stmt 0               // kernel/platform_source/basicplatform/block/mas_blk_core.c:44:11
	add	x9, x0, #1448                   // =1448
	add	x10, x8, #64                    // =64
	cmp	x8, #0                          // =0
	csel	x8, x9, x10, eq
.Ltmp478:
.LBB44_2:
	//DEBUG_VALUE: blk_queue_query_order_enable:q <- $x0
	//DEBUG_VALUE: blk_queue_query_order_enable:lld <- $x8
	.loc	2 1018 10 is_stmt 1             // kernel/platform_source/basicplatform/block/mas_blk_core.c:1018:10
	ldrb	w8, [x8, #24]
.Ltmp479:
	lsr	w0, w8, #7
.Ltmp480:
	//DEBUG_VALUE: blk_queue_query_order_enable:q <- [DW_OP_LLVM_entry_value 1] $x0
	.loc	2 1018 2 is_stmt 0              // kernel/platform_source/basicplatform/block/mas_blk_core.c:1018:2
	ret
.Ltmp481:
.LBB44_3:
	//DEBUG_VALUE: mas_blk_get_lld:q <- $x0
	//DEBUG_VALUE: blk_queue_query_order_enable:q <- $x0
	.loc	2 46 13 is_stmt 1               // kernel/platform_source/basicplatform/block/mas_blk_core.c:46:13
	add	x8, x0, #1448                   // =1448
	b	.LBB44_2
.Ltmp482:
.Lfunc_end44:
	.size	blk_queue_query_order_enable, .Lfunc_end44-blk_queue_query_order_enable
	.cfi_endproc
                                        // -- End function
	.globl	blk_order_nr_reset              // -- Begin function blk_order_nr_reset
	.p2align	2
	.type	blk_order_nr_reset,@function
blk_order_nr_reset:                     // @blk_order_nr_reset
.Lfunc_begin45:
	.loc	2 1022 0                        // kernel/platform_source/basicplatform/block/mas_blk_core.c:1022:0
	.cfi_startproc
// %bb.0:
	.loc	2 1024 6 prologue_end           // kernel/platform_source/basicplatform/block/mas_blk_core.c:1024:6
	hint	#34
.Ltmp483:
	//DEBUG_VALUE: blk_order_nr_reset:tag_set <- $x0
	//DEBUG_VALUE: blk_order_nr_reset:tag_set <- $x0
	//DEBUG_VALUE: blk_order_nr_reset:blk_lld <- 0
	cbz	x0, .LBB45_2
.Ltmp484:
// %bb.1:
	//DEBUG_VALUE: blk_order_nr_reset:tag_set <- $x0
	//DEBUG_VALUE: blk_order_nr_reset:blk_lld <- 0
	//DEBUG_VALUE: blk_order_nr_reset:blk_lld <- [DW_OP_plus_uconst 64, DW_OP_stack_value] $x0
	.loc	2 1027 21                       // kernel/platform_source/basicplatform/block/mas_blk_core.c:1027:21
	str	wzr, [x0, #524]
.Ltmp485:
.LBB45_2:
	//DEBUG_VALUE: blk_order_nr_reset:tag_set <- $x0
	.loc	2 1031 1                        // kernel/platform_source/basicplatform/block/mas_blk_core.c:1031:1
	ret
.Ltmp486:
.Lfunc_end45:
	.size	blk_order_nr_reset, .Lfunc_end45-blk_order_nr_reset
	.cfi_endproc
                                        // -- End function
	.globl	blk_queue_cp_enable             // -- Begin function blk_queue_cp_enable
	.p2align	2
	.type	blk_queue_cp_enable,@function
blk_queue_cp_enable:                    // @blk_queue_cp_enable
.Lfunc_begin46:
	.loc	2 1035 0                        // kernel/platform_source/basicplatform/block/mas_blk_core.c:1035:0
	.cfi_startproc
// %bb.0:
	.loc	2 43 6 prologue_end             // kernel/platform_source/basicplatform/block/mas_blk_core.c:43:6
	hint	#34
.Ltmp487:
	//DEBUG_VALUE: blk_queue_cp_enable:q <- $x0
	//DEBUG_VALUE: blk_queue_cp_enable:q <- $x0
	//DEBUG_VALUE: blk_queue_cp_enable:enable <- [DW_OP_LLVM_convert 1 7, DW_OP_LLVM_convert 8 7, DW_OP_stack_value] $w1
	//DEBUG_VALUE: blk_queue_cp_enable:enable <- [DW_OP_LLVM_convert 1 7, DW_OP_LLVM_convert 8 7, DW_OP_stack_value] undef
	//DEBUG_VALUE: mas_blk_get_lld:q <- $x0
	//DEBUG_VALUE: mas_blk_get_lld:q <- $x0
	ldr	x8, [x0, #48]
.Ltmp488:
	//DEBUG_VALUE: blk_queue_cp_enable:enable <- [DW_OP_LLVM_convert 1 7, DW_OP_LLVM_convert 8 7, DW_OP_stack_value] $w1
	.loc	2 43 6 is_stmt 0                // kernel/platform_source/basicplatform/block/mas_blk_core.c:43:6
	cbz	x8, .LBB46_3
.Ltmp489:
// %bb.1:
	//DEBUG_VALUE: mas_blk_get_lld:q <- $x0
	//DEBUG_VALUE: blk_queue_cp_enable:q <- $x0
	//DEBUG_VALUE: blk_queue_cp_enable:enable <- [DW_OP_LLVM_convert 1 7, DW_OP_LLVM_convert 8 7, DW_OP_stack_value] $w1
	.loc	2 44 14 is_stmt 1               // kernel/platform_source/basicplatform/block/mas_blk_core.c:44:14
	ldr	x8, [x0, #2552]
	.loc	2 44 11 is_stmt 0               // kernel/platform_source/basicplatform/block/mas_blk_core.c:44:11
	add	x9, x0, #1448                   // =1448
	add	x10, x8, #64                    // =64
	cmp	x8, #0                          // =0
	csel	x8, x9, x10, eq
.Ltmp490:
.LBB46_2:
	//DEBUG_VALUE: blk_queue_cp_enable:q <- $x0
	//DEBUG_VALUE: blk_queue_cp_enable:enable <- [DW_OP_LLVM_convert 1 7, DW_OP_LLVM_convert 8 7, DW_OP_stack_value] $w1
	//DEBUG_VALUE: blk_queue_cp_enable:lld <- $x8
	.loc	2 0 0                           // kernel/platform_source/basicplatform/block/mas_blk_core.c:0:0
	ldr	x9, [x8, #24]
.Ltmp491:
	.loc	2 1038 6 is_stmt 1              // kernel/platform_source/basicplatform/block/mas_blk_core.c:1038:6
	tst	w1, #0x1
	mov	w10, #64
	csel	x10, x10, xzr, ne
	and	x9, x9, #0xffffffffffffffbf
	orr	x9, x9, x10
.Ltmp492:
	.loc	2 0 0 is_stmt 0                 // kernel/platform_source/basicplatform/block/mas_blk_core.c:0:0
	str	x9, [x8, #24]
.Ltmp493:
	.loc	2 1042 1 is_stmt 1              // kernel/platform_source/basicplatform/block/mas_blk_core.c:1042:1
	ret
.Ltmp494:
.LBB46_3:
	//DEBUG_VALUE: mas_blk_get_lld:q <- $x0
	//DEBUG_VALUE: blk_queue_cp_enable:q <- $x0
	//DEBUG_VALUE: blk_queue_cp_enable:enable <- [DW_OP_LLVM_convert 1 7, DW_OP_LLVM_convert 8 7, DW_OP_stack_value] $w1
	.loc	2 46 13                         // kernel/platform_source/basicplatform/block/mas_blk_core.c:46:13
	add	x8, x0, #1448                   // =1448
	b	.LBB46_2
.Ltmp495:
.Lfunc_end46:
	.size	blk_queue_cp_enable, .Lfunc_end46-blk_queue_cp_enable
	.cfi_endproc
                                        // -- End function
	.globl	mas_queue_status_show           // -- Begin function mas_queue_status_show
	.p2align	2
	.type	mas_queue_status_show,@function
mas_queue_status_show:                  // @mas_queue_status_show
.Lfunc_begin47:
	.loc	2 1047 0                        // kernel/platform_source/basicplatform/block/mas_blk_core.c:1047:0
	.cfi_startproc
// %bb.0:
	//DEBUG_VALUE: mas_queue_status_show:q <- $x0
	//DEBUG_VALUE: mas_queue_status_show:page <- $x1
	//DEBUG_VALUE: mas_queue_status_show:len <- $x2
	//DEBUG_VALUE: mas_blk_get_lld:q <- $x0
	hint	#25
	.cfi_negate_ra_state
	stp	x29, x30, [sp, #-48]!           // 16-byte Folded Spill
	stp	x22, x21, [sp, #16]             // 16-byte Folded Spill
	stp	x20, x19, [sp, #32]             // 16-byte Folded Spill
	mov	x29, sp
	.cfi_def_cfa w29, 48
	.cfi_offset w19, -8
	.cfi_offset w20, -16
	.cfi_offset w21, -24
	.cfi_offset w22, -32
	.cfi_offset w30, -40
	.cfi_offset w29, -48
.Ltmp496:
	.loc	2 43 6 prologue_end             // kernel/platform_source/basicplatform/block/mas_blk_core.c:43:6
	ldr	x8, [x0, #48]
	mov	x20, x2
.Ltmp497:
	//DEBUG_VALUE: mas_queue_status_show:len <- $x20
	.loc	2 0 6 is_stmt 0                 // kernel/platform_source/basicplatform/block/mas_blk_core.c:0:6
	mov	x19, x0
.Ltmp498:
	//DEBUG_VALUE: mas_queue_status_show:q <- $x19
	//DEBUG_VALUE: mas_blk_get_lld:q <- $x19
	//DEBUG_VALUE: mas_queue_status_show:len <- $x20
	//DEBUG_VALUE: mas_queue_status_show:q <- $x19
	mov	x21, x1
.Ltmp499:
	//DEBUG_VALUE: mas_queue_status_show:page <- $x21
	//DEBUG_VALUE: mas_queue_status_show:page <- $x21
	.loc	2 43 6                          // kernel/platform_source/basicplatform/block/mas_blk_core.c:43:6
	cbz	x8, .LBB47_3
.Ltmp500:
// %bb.1:
	//DEBUG_VALUE: mas_queue_status_show:page <- $x21
	//DEBUG_VALUE: mas_queue_status_show:len <- $x20
	//DEBUG_VALUE: mas_blk_get_lld:q <- $x19
	//DEBUG_VALUE: mas_queue_status_show:q <- $x19
	.loc	2 44 14 is_stmt 1               // kernel/platform_source/basicplatform/block/mas_blk_core.c:44:14
	ldr	x8, [x19, #2552]
	.loc	2 44 11 is_stmt 0               // kernel/platform_source/basicplatform/block/mas_blk_core.c:44:11
	add	x9, x19, #1448                  // =1448
	add	x10, x8, #64                    // =64
	cmp	x8, #0                          // =0
	csel	x0, x9, x10, eq
.Ltmp501:
.LBB47_2:
	//DEBUG_VALUE: mas_queue_status_show:page <- $x21
	//DEBUG_VALUE: mas_queue_status_show:len <- $x20
	//DEBUG_VALUE: mas_queue_status_show:q <- $x19
	//DEBUG_VALUE: mas_queue_status_show:lld <- $x0
	.loc	2 1049 15 is_stmt 1             // kernel/platform_source/basicplatform/block/mas_blk_core.c:1049:15
	mov	x1, x21
	mov	w2, w20
	bl	mas_blk_dump_lld_status
.Ltmp502:
	mov	w22, w0
.Ltmp503:
	//DEBUG_VALUE: mas_queue_status_show:offset <- $w22
	.loc	2 1052 35                       // kernel/platform_source/basicplatform/block/mas_blk_core.c:1052:35
	add	x1, x21, w0, sxtw
	.loc	2 1052 45 is_stmt 0             // kernel/platform_source/basicplatform/block/mas_blk_core.c:1052:45
	sub	w2, w20, w0
	.loc	2 1051 12 is_stmt 1             // kernel/platform_source/basicplatform/block/mas_blk_core.c:1051:12
	mov	x0, x19
	bl	mas_blk_dump_queue_status2
.Ltmp504:
	.loc	2 1051 9 is_stmt 0              // kernel/platform_source/basicplatform/block/mas_blk_core.c:1051:9
	add	w8, w0, w22
.Ltmp505:
	//DEBUG_VALUE: mas_queue_status_show:offset <- $w8
	.loc	2 1053 2 is_stmt 1              // kernel/platform_source/basicplatform/block/mas_blk_core.c:1053:2
	ldp	x20, x19, [sp, #32]             // 16-byte Folded Reload
.Ltmp506:
	ldp	x22, x21, [sp, #16]             // 16-byte Folded Reload
.Ltmp507:
	//DEBUG_VALUE: mas_queue_status_show:page <- [DW_OP_LLVM_entry_value 1] $x1
	.loc	2 1053 9 is_stmt 0              // kernel/platform_source/basicplatform/block/mas_blk_core.c:1053:9
	sxtw	x0, w8
	.loc	2 1053 2                        // kernel/platform_source/basicplatform/block/mas_blk_core.c:1053:2
	ldp	x29, x30, [sp], #48             // 16-byte Folded Reload
	hint	#29
	ret
.Ltmp508:
.LBB47_3:
	//DEBUG_VALUE: mas_queue_status_show:page <- $x21
	//DEBUG_VALUE: mas_queue_status_show:len <- $x20
	//DEBUG_VALUE: mas_blk_get_lld:q <- $x19
	//DEBUG_VALUE: mas_queue_status_show:q <- $x19
	.loc	2 46 13 is_stmt 1               // kernel/platform_source/basicplatform/block/mas_blk_core.c:46:13
	add	x0, x19, #1448                  // =1448
	b	.LBB47_2
.Ltmp509:
.Lfunc_end47:
	.size	mas_queue_status_show, .Lfunc_end47-mas_queue_status_show
	.cfi_endproc
                                        // -- End function
	.type	.L.str.1,@object                // @.str.1
	.section	.rodata.str1.1,"aMS",@progbits,1
.L.str.1:
	.asciz	"\0013[BLK-IO]%s: mq_iosched_init_fn failed. err = %d\n"
	.size	.L.str.1, 51

	.type	.L__func__.mas_blk_mq_init_allocated_queue,@object // @__func__.mas_blk_mq_init_allocated_queue
.L__func__.mas_blk_mq_init_allocated_queue:
	.asciz	"mas_blk_mq_init_allocated_queue"
	.size	.L__func__.mas_blk_mq_init_allocated_queue, 32

	.type	.L.str.3,@object                // @.str.3
.L.str.3:
	.asciz	"\0013[BLK-IO]old protocol_nr exist! %u\n"
	.size	.L.str.3, 37

	.type	mas_blk_dev_lld_init.__key,@object // @mas_blk_dev_lld_init.__key
	.local	mas_blk_dev_lld_init.__key
	.comm	mas_blk_dev_lld_init.__key,1,1
	.type	.L.str.4,@object                // @.str.4
.L.str.4:
	.asciz	"&blk_lld->write_num_lock"
	.size	.L.str.4, 25

	.type	mas_blk_dev_lld_init.__key.5,@object // @mas_blk_dev_lld_init.__key.5
	.local	mas_blk_dev_lld_init.__key.5
	.comm	mas_blk_dev_lld_init.__key.5,1,1
	.type	.L.str.6,@object                // @.str.6
.L.str.6:
	.asciz	"&blk_lld->make_req_nr_lock"
	.size	.L.str.6, 27
