	.text
	.file	"mas_blk_busy_idle_notify.c"
	.file	1 "/mnt/disk/jenkins/ci/workspace/chipset_pipeline_release/opensource/component_code/vendor/huawei/extra/build/build_script/kirin_kernel_release" "kernel/include/linux/lockdep_types.h"
	.file	2 "/mnt/disk/jenkins/ci/workspace/chipset_pipeline_release/opensource/component_code/vendor/huawei/extra/build/build_script/kirin_kernel_release" "kernel/platform_source/basicplatform/block/mas_blk_busy_idle_notify.c"
	.file	3 "/mnt/disk/jenkins/ci/workspace/chipset_pipeline_release/opensource/component_code/vendor/huawei/extra/build/build_script/kirin_kernel_release" "kernel/include/linux/blkdev.h"
	.file	4 "/mnt/disk/jenkins/ci/workspace/chipset_pipeline_release/opensource/component_code/vendor/huawei/extra/build/build_script/kirin_kernel_release" "kernel/include/platform_include/basicplatform/linux/mas/mas_blk.h"
	.file	5 "/mnt/disk/jenkins/ci/workspace/chipset_pipeline_release/opensource/component_code/vendor/huawei/extra/build/build_script/kirin_kernel_release" "kernel/include/linux/module.h"
	.file	6 "/mnt/disk/jenkins/ci/workspace/chipset_pipeline_release/opensource/component_code/vendor/huawei/extra/build/build_script/kirin_kernel_release" "kernel/include/linux/hrtimer.h"
	.file	7 "/mnt/disk/jenkins/ci/workspace/chipset_pipeline_release/opensource/component_code/vendor/huawei/extra/build/build_script/kirin_kernel_release" "kernel/include/linux/migrate_mode.h"
	.file	8 "/mnt/disk/jenkins/ci/workspace/chipset_pipeline_release/opensource/component_code/vendor/huawei/extra/build/build_script/kirin_kernel_release" "kernel/include/linux/memremap.h"
	.file	9 "/mnt/disk/jenkins/ci/workspace/chipset_pipeline_release/opensource/component_code/vendor/huawei/extra/build/build_script/kirin_kernel_release" "kernel/include/linux/mm.h"
	.file	10 "/mnt/disk/jenkins/ci/workspace/chipset_pipeline_release/opensource/component_code/vendor/huawei/extra/build/build_script/kirin_kernel_release" "kernel/include/linux/restart_block.h"
	.file	11 "/mnt/disk/jenkins/ci/workspace/chipset_pipeline_release/opensource/component_code/vendor/huawei/extra/build/build_script/kirin_kernel_release" "kernel/include/linux/backing-dev-defs.h"
	.file	12 "/mnt/disk/jenkins/ci/workspace/chipset_pipeline_release/opensource/component_code/vendor/huawei/extra/build/build_script/kirin_kernel_release" "kernel/include/linux/quota.h"
	.file	13 "/mnt/disk/jenkins/ci/workspace/chipset_pipeline_release/opensource/component_code/vendor/huawei/extra/build/build_script/kirin_kernel_release" "kernel/include/linux/fs.h"
	.file	14 "/mnt/disk/jenkins/ci/workspace/chipset_pipeline_release/opensource/component_code/vendor/huawei/extra/build/build_script/kirin_kernel_release" "kernel/include/linux/pid.h"
	.file	15 "/mnt/disk/jenkins/ci/workspace/chipset_pipeline_release/opensource/component_code/vendor/huawei/extra/build/build_script/kirin_kernel_release" "kernel/include/linux/kobject_ns.h"
	.file	16 "/mnt/disk/jenkins/ci/workspace/chipset_pipeline_release/opensource/component_code/vendor/huawei/extra/build/build_script/kirin_kernel_release" "kernel/include/linux/device/driver.h"
	.file	17 "/mnt/disk/jenkins/ci/workspace/chipset_pipeline_release/opensource/component_code/vendor/huawei/extra/build/build_script/kirin_kernel_release" "kernel/include/linux/device.h"
	.file	18 "/mnt/disk/jenkins/ci/workspace/chipset_pipeline_release/opensource/component_code/vendor/huawei/extra/build/build_script/kirin_kernel_release" "kernel/include/linux/pm.h"
	.file	19 "/mnt/disk/jenkins/ci/workspace/chipset_pipeline_release/opensource/component_code/vendor/huawei/extra/build/build_script/kirin_kernel_release" "kernel/include/linux/elevator.h"
	.file	20 "/mnt/disk/jenkins/ci/workspace/chipset_pipeline_release/opensource/component_code/vendor/huawei/extra/build/build_script/kirin_kernel_release" "kernel/include/linux/stddef.h"
	.file	21 "/mnt/disk/jenkins/ci/workspace/chipset_pipeline_release/opensource/component_code/vendor/huawei/extra/build/build_script/kirin_kernel_release" "kernel/include/linux/workqueue.h"
	.file	22 "/mnt/disk/jenkins/ci/workspace/chipset_pipeline_release/opensource/component_code/vendor/huawei/extra/build/build_script/kirin_kernel_release" "kernel/include/linux/slab.h"
	.file	23 "/mnt/disk/jenkins/ci/workspace/chipset_pipeline_release/opensource/component_code/vendor/huawei/extra/build/build_script/kirin_kernel_release" "kernel/include/linux/types.h"
	.file	24 "/mnt/disk/jenkins/ci/workspace/chipset_pipeline_release/opensource/component_code/vendor/huawei/extra/build/build_script/kirin_kernel_release" "kernel/include/platform_include/basicplatform/linux/mas/mas_blk_busy_idle_notify.h"
	.file	25 "/mnt/disk/jenkins/ci/workspace/chipset_pipeline_release/opensource/component_code/vendor/huawei/extra/build/build_script/kirin_kernel_release" "kernel/include/linux/timer.h"
	.file	26 "/mnt/disk/jenkins/ci/workspace/chipset_pipeline_release/opensource/component_code/vendor/huawei/extra/build/build_script/kirin_kernel_release" "kernel/include/uapi/asm-generic/int-ll64.h"
	.file	27 "/mnt/disk/jenkins/ci/workspace/chipset_pipeline_release/opensource/component_code/vendor/huawei/extra/build/build_script/kirin_kernel_release" "kernel/include/asm-generic/int-ll64.h"
	.file	28 "/mnt/disk/jenkins/ci/workspace/chipset_pipeline_release/opensource/component_code/vendor/huawei/extra/build/build_script/kirin_kernel_release" "kernel/include/linux/notifier.h"
	.file	29 "/mnt/disk/jenkins/ci/workspace/chipset_pipeline_release/opensource/component_code/vendor/huawei/extra/build/build_script/kirin_kernel_release" "kernel/include/asm-generic/qspinlock_types.h"
	.file	30 "/mnt/disk/jenkins/ci/workspace/chipset_pipeline_release/opensource/component_code/vendor/huawei/extra/build/build_script/kirin_kernel_release" "kernel/include/linux/spinlock_types.h"
	.file	31 "/mnt/disk/jenkins/ci/workspace/chipset_pipeline_release/opensource/component_code/vendor/huawei/extra/build/build_script/kirin_kernel_release" "kernel/block/blk-mq.h"
	.file	32 "/mnt/disk/jenkins/ci/workspace/chipset_pipeline_release/opensource/component_code/vendor/huawei/extra/build/build_script/kirin_kernel_release" "kernel/include/linux/blk-mq.h"
	.file	33 "/mnt/disk/jenkins/ci/workspace/chipset_pipeline_release/opensource/component_code/vendor/huawei/extra/build/build_script/kirin_kernel_release" "kernel/include/asm-generic/atomic-long.h"
	.file	34 "/mnt/disk/jenkins/ci/workspace/chipset_pipeline_release/opensource/component_code/vendor/huawei/extra/build/build_script/kirin_kernel_release" "kernel/include/linux/cpumask.h"
	.file	35 "/mnt/disk/jenkins/ci/workspace/chipset_pipeline_release/opensource/component_code/vendor/huawei/extra/build/build_script/kirin_kernel_release" "kernel/block/blk.h"
	.file	36 "/mnt/disk/jenkins/ci/workspace/chipset_pipeline_release/opensource/component_code/vendor/huawei/extra/build/build_script/kirin_kernel_release" "kernel/include/linux/blk_types.h"
	.file	37 "/mnt/disk/jenkins/ci/workspace/chipset_pipeline_release/opensource/component_code/vendor/huawei/extra/build/build_script/kirin_kernel_release" "kernel/include/linux/sbitmap.h"
	.file	38 "/mnt/disk/jenkins/ci/workspace/chipset_pipeline_release/opensource/component_code/vendor/huawei/extra/build/build_script/kirin_kernel_release" "kernel/include/linux/wait.h"
	.file	39 "/mnt/disk/jenkins/ci/workspace/chipset_pipeline_release/opensource/component_code/vendor/huawei/extra/build/build_script/kirin_kernel_release" "kernel/block/blk-mq-tag.h"
	.file	40 "/mnt/disk/jenkins/ci/workspace/chipset_pipeline_release/opensource/component_code/vendor/huawei/extra/build/build_script/kirin_kernel_release" "kernel/include/linux/genhd.h"
	.file	41 "/mnt/disk/jenkins/ci/workspace/chipset_pipeline_release/opensource/component_code/vendor/huawei/extra/build/build_script/kirin_kernel_release" "kernel/include/linux/part_stat.h"
	.file	42 "/mnt/disk/jenkins/ci/workspace/chipset_pipeline_release/opensource/component_code/vendor/huawei/extra/build/build_script/kirin_kernel_release" "kernel/include/asm-generic/local.h"
	.file	43 "/mnt/disk/jenkins/ci/workspace/chipset_pipeline_release/opensource/component_code/vendor/huawei/extra/build/build_script/kirin_kernel_release" "kernel/include/linux/percpu-refcount.h"
	.file	44 "/mnt/disk/jenkins/ci/workspace/chipset_pipeline_release/opensource/component_code/vendor/huawei/extra/build/build_script/kirin_kernel_release" "kernel/include/linux/kobject.h"
	.file	45 "/mnt/disk/jenkins/ci/workspace/chipset_pipeline_release/opensource/component_code/vendor/huawei/extra/build/build_script/kirin_kernel_release" "kernel/include/uapi/asm-generic/posix_types.h"
	.file	46 "/mnt/disk/jenkins/ci/workspace/chipset_pipeline_release/opensource/component_code/vendor/huawei/extra/build/build_script/kirin_kernel_release" "kernel/include/linux/sysfs.h"
	.file	47 "/mnt/disk/jenkins/ci/workspace/chipset_pipeline_release/opensource/component_code/vendor/huawei/extra/build/build_script/kirin_kernel_release" "kernel/include/linux/llist.h"
	.file	48 "/mnt/disk/jenkins/ci/workspace/chipset_pipeline_release/opensource/component_code/vendor/huawei/extra/build/build_script/kirin_kernel_release" "kernel/include/linux/path.h"
	.file	49 "/mnt/disk/jenkins/ci/workspace/chipset_pipeline_release/opensource/component_code/vendor/huawei/extra/build/build_script/kirin_kernel_release" "kernel/include/linux/dcache.h"
	.file	50 "/mnt/disk/jenkins/ci/workspace/chipset_pipeline_release/opensource/component_code/vendor/huawei/extra/build/build_script/kirin_kernel_release" "kernel/include/linux/seqlock.h"
	.file	51 "/mnt/disk/jenkins/ci/workspace/chipset_pipeline_release/opensource/component_code/vendor/huawei/extra/build/build_script/kirin_kernel_release" "kernel/include/linux/list_bl.h"
	.file	52 "/mnt/disk/jenkins/ci/workspace/chipset_pipeline_release/opensource/component_code/vendor/huawei/extra/build/build_script/kirin_kernel_release" "kernel/include/linux/uidgid.h"
	.file	53 "/mnt/disk/jenkins/ci/workspace/chipset_pipeline_release/opensource/component_code/vendor/huawei/extra/build/build_script/kirin_kernel_release" "kernel/include/linux/delayed_call.h"
	.file	54 "/mnt/disk/jenkins/ci/workspace/chipset_pipeline_release/opensource/component_code/vendor/huawei/extra/build/build_script/kirin_kernel_release" "kernel/include/linux/time64.h"
	.file	55 "/mnt/disk/jenkins/ci/workspace/chipset_pipeline_release/opensource/component_code/vendor/huawei/extra/build/build_script/kirin_kernel_release" "kernel/include/linux/stat.h"
	.file	56 "/mnt/disk/jenkins/ci/workspace/chipset_pipeline_release/opensource/component_code/vendor/huawei/extra/build/build_script/kirin_kernel_release" "kernel/include/linux/completion.h"
	.file	57 "/mnt/disk/jenkins/ci/workspace/chipset_pipeline_release/opensource/component_code/vendor/huawei/extra/build/build_script/kirin_kernel_release" "kernel/include/linux/swait.h"
	.file	58 "/mnt/disk/jenkins/ci/workspace/chipset_pipeline_release/opensource/component_code/vendor/huawei/extra/build/build_script/kirin_kernel_release" "kernel/include/linux/export.h"
	.file	59 "/mnt/disk/jenkins/ci/workspace/chipset_pipeline_release/opensource/component_code/vendor/huawei/extra/build/build_script/kirin_kernel_release" "kernel/include/linux/mutex.h"
	.file	60 "/mnt/disk/jenkins/ci/workspace/chipset_pipeline_release/opensource/component_code/vendor/huawei/extra/build/build_script/kirin_kernel_release" "kernel/include/linux/osq_lock.h"
	.file	61 "/mnt/disk/jenkins/ci/workspace/chipset_pipeline_release/opensource/component_code/vendor/huawei/extra/build/build_script/kirin_kernel_release" "kernel/arch/arm64/include/asm/thread_info.h"
	.file	62 "/mnt/disk/jenkins/ci/workspace/chipset_pipeline_release/opensource/component_code/vendor/huawei/extra/build/build_script/kirin_kernel_release" "kernel/include/linux/sched.h"
	.file	63 "/mnt/disk/jenkins/ci/workspace/chipset_pipeline_release/opensource/component_code/vendor/huawei/extra/build/build_script/kirin_kernel_release" "kernel/include/linux/refcount.h"
	.file	64 "/mnt/disk/jenkins/ci/workspace/chipset_pipeline_release/opensource/component_code/vendor/huawei/extra/build/build_script/kirin_kernel_release" "kernel/include/linux/smp_types.h"
	.file	65 "/mnt/disk/jenkins/ci/workspace/chipset_pipeline_release/opensource/component_code/vendor/huawei/extra/build/build_script/kirin_kernel_release" "kernel/include/linux/rbtree.h"
	.file	66 "/mnt/disk/jenkins/ci/workspace/chipset_pipeline_release/opensource/component_code/vendor/huawei/extra/build/build_script/kirin_kernel_release" "kernel/include/linux/timerqueue.h"
	.file	67 "/mnt/disk/jenkins/ci/workspace/chipset_pipeline_release/opensource/component_code/vendor/huawei/extra/build/build_script/kirin_kernel_release" "kernel/include/linux/ktime.h"
	.file	68 "/mnt/disk/jenkins/ci/workspace/chipset_pipeline_release/opensource/component_code/vendor/huawei/extra/build/build_script/kirin_kernel_release" "kernel/include/linux/irq_work.h"
	.file	69 "/mnt/disk/jenkins/ci/workspace/chipset_pipeline_release/opensource/component_code/vendor/huawei/extra/build/build_script/kirin_kernel_release" "kernel/include/linux/plist.h"
	.file	70 "/mnt/disk/jenkins/ci/workspace/chipset_pipeline_release/opensource/component_code/vendor/huawei/extra/build/build_script/kirin_kernel_release" "kernel/include/linux/mm_types.h"
	.file	71 "/mnt/disk/jenkins/ci/workspace/chipset_pipeline_release/opensource/component_code/vendor/huawei/extra/build/build_script/kirin_kernel_release" "kernel/arch/arm64/include/asm/pgtable-types.h"
	.file	72 "/mnt/disk/jenkins/ci/workspace/chipset_pipeline_release/opensource/component_code/vendor/huawei/extra/build/build_script/kirin_kernel_release" "kernel/include/asm-generic/pgtable-nop4d.h"
	.file	73 "/mnt/disk/jenkins/ci/workspace/chipset_pipeline_release/opensource/component_code/vendor/huawei/extra/build/build_script/kirin_kernel_release" "kernel/include/asm-generic/pgtable-nopud.h"
	.file	74 "/mnt/disk/jenkins/ci/workspace/chipset_pipeline_release/opensource/component_code/vendor/huawei/extra/build/build_script/kirin_kernel_release" "kernel/include/linux/xarray.h"
	.file	75 "/mnt/disk/jenkins/ci/workspace/chipset_pipeline_release/opensource/component_code/vendor/huawei/extra/build/build_script/kirin_kernel_release" "kernel/include/linux/rwsem.h"
	.file	76 "/mnt/disk/jenkins/ci/workspace/chipset_pipeline_release/opensource/component_code/vendor/huawei/extra/build/build_script/kirin_kernel_release" "kernel/include/linux/pagemap.h"
	.file	77 "/mnt/disk/jenkins/ci/workspace/chipset_pipeline_release/opensource/component_code/vendor/huawei/extra/build/build_script/kirin_kernel_release" "kernel/include/linux/uio.h"
	.file	78 "/mnt/disk/jenkins/ci/workspace/chipset_pipeline_release/opensource/component_code/vendor/huawei/extra/build/build_script/kirin_kernel_release" "kernel/include/uapi/linux/uio.h"
	.file	79 "/mnt/disk/jenkins/ci/workspace/chipset_pipeline_release/opensource/component_code/vendor/huawei/extra/build/build_script/kirin_kernel_release" "kernel/include/linux/bvec.h"
	.file	80 "/mnt/disk/jenkins/ci/workspace/chipset_pipeline_release/opensource/component_code/vendor/huawei/extra/build/build_script/kirin_kernel_release" "kernel/include/linux/mmzone.h"
	.file	81 "/mnt/disk/jenkins/ci/workspace/chipset_pipeline_release/opensource/component_code/vendor/huawei/extra/build/build_script/kirin_kernel_release" "kernel/include/linux/errseq.h"
	.file	82 "/mnt/disk/jenkins/ci/workspace/chipset_pipeline_release/opensource/component_code/vendor/huawei/extra/build/build_script/kirin_kernel_release" "kernel/arch/arm64/include/asm/page.h"
	.file	83 "/mnt/disk/jenkins/ci/workspace/chipset_pipeline_release/opensource/component_code/vendor/huawei/extra/build/build_script/kirin_kernel_release" "kernel/include/linux/range.h"
	.file	84 "/mnt/disk/jenkins/ci/workspace/chipset_pipeline_release/opensource/component_code/vendor/huawei/extra/build/build_script/kirin_kernel_release" "kernel/include/asm-generic/qrwlock_types.h"
	.file	85 "/mnt/disk/jenkins/ci/workspace/chipset_pipeline_release/opensource/component_code/vendor/huawei/extra/build/build_script/kirin_kernel_release" "kernel/include/linux/rwlock_types.h"
	.file	86 "/mnt/disk/jenkins/ci/workspace/chipset_pipeline_release/opensource/component_code/vendor/huawei/extra/build/build_script/kirin_kernel_release" "kernel/include/linux/mm_types_task.h"
	.file	87 "/mnt/disk/jenkins/ci/workspace/chipset_pipeline_release/opensource/component_code/vendor/huawei/extra/build/build_script/kirin_kernel_release" "kernel/arch/arm64/include/asm/mmu.h"
	.file	88 "/mnt/disk/jenkins/ci/workspace/chipset_pipeline_release/opensource/component_code/vendor/huawei/extra/build/build_script/kirin_kernel_release" "kernel/include/linux/uprobes.h"
	.file	89 "/mnt/disk/jenkins/ci/workspace/chipset_pipeline_release/opensource/component_code/vendor/huawei/extra/build/build_script/kirin_kernel_release" "kernel/include/linux/xreclaimer_types.h"
	.file	90 "/mnt/disk/jenkins/ci/workspace/chipset_pipeline_release/opensource/component_code/vendor/huawei/extra/build/build_script/kirin_kernel_release" "kernel/include/uapi/linux/time_types.h"
	.file	91 "/mnt/disk/jenkins/ci/workspace/chipset_pipeline_release/opensource/component_code/vendor/huawei/extra/build/build_script/kirin_kernel_release" "kernel/include/vdso/time32.h"
	.file	92 "/mnt/disk/jenkins/ci/workspace/chipset_pipeline_release/opensource/component_code/vendor/huawei/extra/build/build_script/kirin_kernel_release" "kernel/include/uapi/asm-generic/poll.h"
	.file	93 "/mnt/disk/jenkins/ci/workspace/chipset_pipeline_release/opensource/component_code/vendor/huawei/extra/build/build_script/kirin_kernel_release" "kernel/include/linux/kref.h"
	.file	94 "/mnt/disk/jenkins/ci/workspace/chipset_pipeline_release/opensource/component_code/vendor/huawei/extra/build/build_script/kirin_kernel_release" "kernel/include/linux/pid_namespace.h"
	.file	95 "/mnt/disk/jenkins/ci/workspace/chipset_pipeline_release/opensource/component_code/vendor/huawei/extra/build/build_script/kirin_kernel_release" "kernel/include/linux/idr.h"
	.file	96 "/mnt/disk/jenkins/ci/workspace/chipset_pipeline_release/opensource/component_code/vendor/huawei/extra/build/build_script/kirin_kernel_release" "kernel/include/linux/ns_common.h"
	.file	97 "/mnt/disk/jenkins/ci/workspace/chipset_pipeline_release/opensource/component_code/vendor/huawei/extra/build/build_script/kirin_kernel_release" "kernel/include/linux/posix-timers.h"
	.file	98 "/mnt/disk/jenkins/ci/workspace/chipset_pipeline_release/opensource/component_code/vendor/huawei/extra/build/build_script/kirin_kernel_release" "kernel/include/linux/cred.h"
	.file	99 "/mnt/disk/jenkins/ci/workspace/chipset_pipeline_release/opensource/component_code/vendor/huawei/extra/build/build_script/kirin_kernel_release" "kernel/include/linux/capability.h"
	.file	100 "/mnt/disk/jenkins/ci/workspace/chipset_pipeline_release/opensource/component_code/vendor/huawei/extra/build/build_script/kirin_kernel_release" "kernel/include/linux/key.h"
	.file	101 "/mnt/disk/jenkins/ci/workspace/chipset_pipeline_release/opensource/component_code/vendor/huawei/extra/build/build_script/kirin_kernel_release" "kernel/include/linux/assoc_array.h"
	.file	102 "/mnt/disk/jenkins/ci/workspace/chipset_pipeline_release/opensource/component_code/vendor/huawei/extra/build/build_script/kirin_kernel_release" "kernel/include/linux/sched/user.h"
	.file	103 "/mnt/disk/jenkins/ci/workspace/chipset_pipeline_release/opensource/component_code/vendor/huawei/extra/build/build_script/kirin_kernel_release" "kernel/include/linux/ratelimit_types.h"
	.file	104 "/mnt/disk/jenkins/ci/workspace/chipset_pipeline_release/opensource/component_code/vendor/huawei/extra/build/build_script/kirin_kernel_release" "kernel/include/linux/nsproxy.h"
	.file	105 "/mnt/disk/jenkins/ci/workspace/chipset_pipeline_release/opensource/component_code/vendor/huawei/extra/build/build_script/kirin_kernel_release" "kernel/include/linux/sched/signal.h"
	.file	106 "/mnt/disk/jenkins/ci/workspace/chipset_pipeline_release/opensource/component_code/vendor/huawei/extra/build/build_script/kirin_kernel_release" "kernel/include/linux/signal_types.h"
	.file	107 "/mnt/disk/jenkins/ci/workspace/chipset_pipeline_release/opensource/component_code/vendor/huawei/extra/build/build_script/kirin_kernel_release" "kernel/include/uapi/asm-generic/signal.h"
	.file	108 "/mnt/disk/jenkins/ci/workspace/chipset_pipeline_release/opensource/component_code/vendor/huawei/extra/build/build_script/kirin_kernel_release" "kernel/include/linux/task_io_accounting.h"
	.file	109 "/mnt/disk/jenkins/ci/workspace/chipset_pipeline_release/opensource/component_code/vendor/huawei/extra/build/build_script/kirin_kernel_release" "kernel/include/uapi/linux/resource.h"
	.file	110 "/mnt/disk/jenkins/ci/workspace/chipset_pipeline_release/opensource/component_code/vendor/huawei/extra/build/build_script/kirin_kernel_release" "kernel/include/uapi/asm-generic/signal-defs.h"
	.file	111 "/mnt/disk/jenkins/ci/workspace/chipset_pipeline_release/opensource/component_code/vendor/huawei/extra/build/build_script/kirin_kernel_release" "kernel/include/linux/seccomp.h"
	.file	112 "/mnt/disk/jenkins/ci/workspace/chipset_pipeline_release/opensource/component_code/vendor/huawei/extra/build/build_script/kirin_kernel_release" "kernel/include/linux/bio.h"
	.file	113 "/mnt/disk/jenkins/ci/workspace/chipset_pipeline_release/opensource/component_code/vendor/huawei/extra/build/build_script/kirin_kernel_release" "kernel/include/linux/percpu_counter.h"
	.file	114 "/mnt/disk/jenkins/ci/workspace/chipset_pipeline_release/opensource/component_code/vendor/huawei/extra/build/build_script/kirin_kernel_release" "kernel/include/linux/flex_proportions.h"
	.file	115 "/mnt/disk/jenkins/ci/workspace/chipset_pipeline_release/opensource/component_code/vendor/huawei/extra/build/build_script/kirin_kernel_release" "kernel/include/linux/iocontext.h"
	.file	116 "/mnt/disk/jenkins/ci/workspace/chipset_pipeline_release/opensource/component_code/vendor/huawei/extra/build/build_script/kirin_kernel_release" "kernel/include/uapi/asm-generic/siginfo.h"
	.file	117 "/mnt/disk/jenkins/ci/workspace/chipset_pipeline_release/opensource/component_code/vendor/huawei/extra/build/build_script/kirin_kernel_release" "kernel/include/linux/nodemask.h"
	.file	118 "/mnt/disk/jenkins/ci/workspace/chipset_pipeline_release/opensource/component_code/vendor/huawei/extra/build/build_script/kirin_kernel_release" "kernel/include/asm-generic/compat.h"
	.file	119 "/mnt/disk/jenkins/ci/workspace/chipset_pipeline_release/opensource/component_code/vendor/huawei/extra/build/build_script/kirin_kernel_release" "kernel/include/linux/compat.h"
	.file	120 "/mnt/disk/jenkins/ci/workspace/chipset_pipeline_release/opensource/component_code/vendor/huawei/extra/build/build_script/kirin_kernel_release" "kernel/arch/arm64/include/asm/processor.h"
	.file	121 "/mnt/disk/jenkins/ci/workspace/chipset_pipeline_release/opensource/component_code/vendor/huawei/extra/build/build_script/kirin_kernel_release" "kernel/arch/arm64/include/uapi/asm/ptrace.h"
	.file	122 "/mnt/disk/jenkins/ci/workspace/chipset_pipeline_release/opensource/component_code/vendor/huawei/extra/build/build_script/kirin_kernel_release" "kernel/include/linux/moduleparam.h"
	.file	123 "/mnt/disk/jenkins/ci/workspace/chipset_pipeline_release/opensource/component_code/vendor/huawei/extra/build/build_script/kirin_kernel_release" "kernel/arch/arm64/include/asm/extable.h"
	.file	124 "/mnt/disk/jenkins/ci/workspace/chipset_pipeline_release/opensource/component_code/vendor/huawei/extra/build/build_script/kirin_kernel_release" "kernel/include/linux/rbtree_latch.h"
	.file	125 "/mnt/disk/jenkins/ci/workspace/chipset_pipeline_release/opensource/component_code/vendor/huawei/extra/build/build_script/kirin_kernel_release" "kernel/arch/arm64/include/asm/module.h"
	.file	126 "/mnt/disk/jenkins/ci/workspace/chipset_pipeline_release/opensource/component_code/vendor/huawei/extra/build/build_script/kirin_kernel_release" "kernel/include/uapi/linux/types.h"
	.file	127 "/mnt/disk/jenkins/ci/workspace/chipset_pipeline_release/opensource/component_code/vendor/huawei/extra/build/build_script/kirin_kernel_release" "kernel/include/uapi/linux/elf.h"
	.file	128 "/mnt/disk/jenkins/ci/workspace/chipset_pipeline_release/opensource/component_code/vendor/huawei/extra/build/build_script/kirin_kernel_release" "kernel/include/asm-generic/bug.h"
	.file	129 "/mnt/disk/jenkins/ci/workspace/chipset_pipeline_release/opensource/component_code/vendor/huawei/extra/build/build_script/kirin_kernel_release" "kernel/include/linux/tracepoint-defs.h"
	.file	130 "/mnt/disk/jenkins/ci/workspace/chipset_pipeline_release/opensource/component_code/vendor/huawei/extra/build/build_script/kirin_kernel_release" "kernel/include/linux/srcutree.h"
	.file	131 "/mnt/disk/jenkins/ci/workspace/chipset_pipeline_release/opensource/component_code/vendor/huawei/extra/build/build_script/kirin_kernel_release" "kernel/include/linux/rcu_segcblist.h"
	.file	132 "/mnt/disk/jenkins/ci/workspace/chipset_pipeline_release/opensource/component_code/vendor/huawei/extra/build/build_script/kirin_kernel_release" "kernel/include/linux/tracepoint.h"
	.file	133 "/mnt/disk/jenkins/ci/workspace/chipset_pipeline_release/opensource/component_code/vendor/huawei/extra/build/build_script/kirin_kernel_release" "kernel/include/linux/projid.h"
	.file	134 "/mnt/disk/jenkins/ci/workspace/chipset_pipeline_release/opensource/component_code/vendor/huawei/extra/build/build_script/kirin_kernel_release" "kernel/include/linux/shrinker.h"
	.file	135 "/mnt/disk/jenkins/ci/workspace/chipset_pipeline_release/opensource/component_code/vendor/huawei/extra/build/build_script/kirin_kernel_release" "kernel/include/linux/rcu_sync.h"
	.file	136 "/mnt/disk/jenkins/ci/workspace/chipset_pipeline_release/opensource/component_code/vendor/huawei/extra/build/build_script/kirin_kernel_release" "kernel/include/linux/percpu-rwsem.h"
	.file	137 "/mnt/disk/jenkins/ci/workspace/chipset_pipeline_release/opensource/component_code/vendor/huawei/extra/build/build_script/kirin_kernel_release" "kernel/include/linux/rcuwait.h"
	.file	138 "/mnt/disk/jenkins/ci/workspace/chipset_pipeline_release/opensource/component_code/vendor/huawei/extra/build/build_script/kirin_kernel_release" "kernel/include/linux/uuid.h"
	.file	139 "/mnt/disk/jenkins/ci/workspace/chipset_pipeline_release/opensource/component_code/vendor/huawei/extra/build/build_script/kirin_kernel_release" "kernel/include/linux/list_lru.h"
	.file	140 "/mnt/disk/jenkins/ci/workspace/chipset_pipeline_release/opensource/component_code/vendor/huawei/extra/build/build_script/kirin_kernel_release" "kernel/include/linux/poll.h"
	.file	141 "/mnt/disk/jenkins/ci/workspace/chipset_pipeline_release/opensource/component_code/vendor/huawei/extra/build/build_script/kirin_kernel_release" "kernel/include/linux/nfs_fs_i.h"
	.file	142 "/mnt/disk/jenkins/ci/workspace/chipset_pipeline_release/opensource/component_code/vendor/huawei/extra/build/build_script/kirin_kernel_release" "kernel/include/linux/lockref.h"
	.file	143 "/mnt/disk/jenkins/ci/workspace/chipset_pipeline_release/opensource/component_code/vendor/huawei/extra/build/build_script/kirin_kernel_release" "kernel/include/linux/kernfs.h"
	.file	144 "/mnt/disk/jenkins/ci/workspace/chipset_pipeline_release/opensource/component_code/vendor/huawei/extra/build/build_script/kirin_kernel_release" "kernel/include/linux/device/bus.h"
	.file	145 "/mnt/disk/jenkins/ci/workspace/chipset_pipeline_release/opensource/component_code/vendor/huawei/extra/build/build_script/kirin_kernel_release" "kernel/include/linux/pm_wakeup.h"
	.file	146 "/mnt/disk/jenkins/ci/workspace/chipset_pipeline_release/opensource/component_code/vendor/huawei/extra/build/build_script/kirin_kernel_release" "kernel/include/linux/energy_model.h"
	.file	147 "/mnt/disk/jenkins/ci/workspace/chipset_pipeline_release/opensource/component_code/vendor/huawei/extra/build/build_script/kirin_kernel_release" "kernel/arch/arm64/include/asm/device.h"
	.file	148 "/mnt/disk/jenkins/ci/workspace/chipset_pipeline_release/opensource/component_code/vendor/huawei/extra/build/build_script/kirin_kernel_release" "kernel/include/linux/fwnode.h"
	.file	149 "/mnt/disk/jenkins/ci/workspace/chipset_pipeline_release/opensource/component_code/vendor/huawei/extra/build/build_script/kirin_kernel_release" "kernel/include/linux/device/class.h"
	.file	150 "/mnt/disk/jenkins/ci/workspace/chipset_pipeline_release/opensource/component_code/vendor/huawei/extra/build/build_script/kirin_kernel_release" "kernel/include/uapi/linux/blkzoned.h"
	.file	151 "/mnt/disk/jenkins/ci/workspace/chipset_pipeline_release/opensource/component_code/vendor/huawei/extra/build/build_script/kirin_kernel_release" "kernel/include/linux/mempool.h"
	.file	152 "/mnt/disk/jenkins/ci/workspace/chipset_pipeline_release/opensource/component_code/vendor/huawei/extra/build/build_script/kirin_kernel_release" "kernel/include/linux/smp.h"
	.file	153 "/mnt/disk/jenkins/ci/workspace/chipset_pipeline_release/opensource/component_code/vendor/huawei/extra/build/build_script/kirin_kernel_release" "kernel/block/blk-stat.h"
	.file	154 "/mnt/disk/jenkins/ci/workspace/chipset_pipeline_release/opensource/component_code/vendor/huawei/extra/build/build_script/kirin_kernel_release" "kernel/include/linux/bsg.h"
	.file	155 "/mnt/disk/jenkins/ci/workspace/chipset_pipeline_release/opensource/component_code/vendor/huawei/extra/build/build_script/kirin_kernel_release" "kernel/include/uapi/linux/bsg.h"
	.globl	mas_blk_busyidle_handler_latency_check_timer_expire // -- Begin function mas_blk_busyidle_handler_latency_check_timer_expire
	.p2align	2
	.type	mas_blk_busyidle_handler_latency_check_timer_expire,@function
mas_blk_busyidle_handler_latency_check_timer_expire: // @mas_blk_busyidle_handler_latency_check_timer_expire
.Lfunc_begin0:
	.loc	2 41 0                          // kernel/platform_source/basicplatform/block/mas_blk_busy_idle_notify.c:41:0
	.cfi_sections .debug_frame
	.cfi_startproc
// %bb.0:
	//DEBUG_VALUE: mas_blk_busyidle_handler_latency_check_timer_expire:timer <- $x0
	//DEBUG_VALUE: mas_blk_busyidle_handler_latency_check_timer_expire:timer <- $x0
	stp	x29, x30, [sp, #-16]!           // 16-byte Folded Spill
	mov	x29, sp
	.cfi_def_cfa w29, 16
	.cfi_offset w30, -8
	.cfi_offset w29, -16
.Ltmp0:
	//DEBUG_VALUE: __mptr <- $x0
	//DEBUG_VALUE: __mptr <- $x0
	//DEBUG_VALUE: mas_blk_busyidle_handler_latency_check_timer_expire:nb <- undef
	.loc	2 45 2 prologue_end             // kernel/platform_source/basicplatform/block/mas_blk_busy_idle_notify.c:45:2
	add	x2, x0, #72                     // =72
	adrp	x0, .L.str
.Ltmp1:
	//DEBUG_VALUE: mas_blk_busyidle_handler_latency_check_timer_expire:timer <- [DW_OP_LLVM_entry_value 1] $x0
	adrp	x1, .L__func__.mas_blk_busyidle_handler_latency_check_timer_expire
	add	x0, x0, :lo12:.L.str
	add	x1, x1, :lo12:.L__func__.mas_blk_busyidle_handler_latency_check_timer_expire
	mov	w3, #1000
	bl	printk
.Ltmp2:
	.loc	2 47 1                          // kernel/platform_source/basicplatform/block/mas_blk_busy_idle_notify.c:47:1
	ldp	x29, x30, [sp], #16             // 16-byte Folded Reload
	ret
.Ltmp3:
.Lfunc_end0:
	.size	mas_blk_busyidle_handler_latency_check_timer_expire, .Lfunc_end0-mas_blk_busyidle_handler_latency_check_timer_expire
	.cfi_endproc
	.file	156 "/mnt/disk/jenkins/ci/workspace/chipset_pipeline_release/opensource/component_code/vendor/huawei/extra/build/build_script/kirin_kernel_release" "kernel/include/linux/printk.h"
                                        // -- End function
	.globl	mas_blk_busyidle_notify_handler // -- Begin function mas_blk_busyidle_notify_handler
	.p2align	2
	.type	mas_blk_busyidle_notify_handler,@function
mas_blk_busyidle_notify_handler:        // @mas_blk_busyidle_notify_handler
.Lfunc_begin1:
	.loc	2 140 0                         // kernel/platform_source/basicplatform/block/mas_blk_busy_idle_notify.c:140:0
	.cfi_startproc
// %bb.0:
	//DEBUG_VALUE: mas_blk_busyidle_notify_handler:nb <- $x0
	//DEBUG_VALUE: mas_blk_busyidle_notify_handler:event <- $x1
	//DEBUG_VALUE: mas_blk_busyidle_notify_handler:v <- $x2
	//DEBUG_VALUE: mas_blk_busyidle_notify_handler:event <- $x1
	//DEBUG_VALUE: mas_blk_busyidle_notify_handler:nb <- $x0
	stp	x29, x30, [sp, #-64]!           // 16-byte Folded Spill
	str	x23, [sp, #16]                  // 8-byte Folded Spill
	stp	x22, x21, [sp, #32]             // 16-byte Folded Spill
	stp	x20, x19, [sp, #48]             // 16-byte Folded Spill
	mov	x29, sp
	.cfi_def_cfa w29, 64
	.cfi_offset w19, -8
	.cfi_offset w20, -16
	.cfi_offset w21, -24
	.cfi_offset w22, -32
	.cfi_offset w23, -48
	.cfi_offset w30, -56
	.cfi_offset w29, -64
.Ltmp4:
	//DEBUG_VALUE: __mptr <- $x0
	//DEBUG_VALUE: mas_blk_busyidle_notify_handler:busyidle_nb <- undef
	//DEBUG_VALUE: mas_blk_busyidle_notify_handler:handler_result <- 0
	//DEBUG_VALUE: __mptr <- $x0
	.loc	2 147 6 prologue_end            // kernel/platform_source/basicplatform/block/mas_blk_busy_idle_notify.c:147:6
	ldr	x8, [x0, #56]
.Ltmp5:
	.loc	2 145 56                        // kernel/platform_source/basicplatform/block/mas_blk_busy_idle_notify.c:145:56
	add	x19, x0, #24                    // =24
.Ltmp6:
	//DEBUG_VALUE: mas_blk_busyidle_notify_handler:node <- $x19
	.loc	2 147 6                         // kernel/platform_source/basicplatform/block/mas_blk_busy_idle_notify.c:147:6
	cbz	x8, .LBB1_19
.Ltmp7:
// %bb.1:
	//DEBUG_VALUE: mas_blk_busyidle_notify_handler:node <- $x19
	//DEBUG_VALUE: mas_blk_busyidle_notify_handler:v <- $x2
	//DEBUG_VALUE: mas_blk_busyidle_notify_handler:event <- $x1
	//DEBUG_VALUE: mas_blk_busyidle_notify_handler:nb <- $x0
	//DEBUG_VALUE: mas_blk_busyidle_notify_handler:handler_result <- 0
	.loc	2 0 6 is_stmt 0                 // kernel/platform_source/basicplatform/block/mas_blk_busy_idle_notify.c:0:6
	mov	x22, x1
.Ltmp8:
	//DEBUG_VALUE: mas_blk_busyidle_notify_handler:event <- $x22
	//DEBUG_VALUE: mas_blk_busyidle_notify_handler:event <- $x22
	sub	x23, x0, #64                    // =64
	//DEBUG_VALUE: mas_blk_busyidle_notify_handler:node <- $x19
.Ltmp9:
	//DEBUG_VALUE: mas_blk_busyidle_notify_handler:busyidle_nb <- $x23
	.loc	2 156 16 is_stmt 1              // kernel/platform_source/basicplatform/block/mas_blk_busy_idle_notify.c:156:16
	bl	ktime_get
.Ltmp10:
	//DEBUG_VALUE: mas_blk_busyidle_notify_handler:v <- [DW_OP_LLVM_entry_value 1] $x2
	//DEBUG_VALUE: mas_blk_busyidle_notify_handler:nb <- [DW_OP_LLVM_entry_value 1] $x0
	.loc	2 158 3                         // kernel/platform_source/basicplatform/block/mas_blk_busy_idle_notify.c:158:3
	adrp	x8, jiffies
	ldr	x8, [x8, :lo12:jiffies]
	.loc	2 157 26                        // kernel/platform_source/basicplatform/block/mas_blk_busy_idle_notify.c:157:26
	add	x21, x23, #16                   // =16
	.loc	2 156 16                        // kernel/platform_source/basicplatform/block/mas_blk_busy_idle_notify.c:156:16
	mov	x20, x0
.Ltmp11:
	//DEBUG_VALUE: mas_blk_busyidle_notify_handler:start_ktime <- $x20
	.loc	2 157 2                         // kernel/platform_source/basicplatform/block/mas_blk_busy_idle_notify.c:157:2
	mov	x0, x21
	.loc	2 158 11                        // kernel/platform_source/basicplatform/block/mas_blk_busy_idle_notify.c:158:11
	add	x1, x8, #250                    // =250
	.loc	2 157 2                         // kernel/platform_source/basicplatform/block/mas_blk_busy_idle_notify.c:157:2
	bl	mod_timer
.Ltmp12:
	//DEBUG_VALUE: handle_busyidle_event:ret <- 0
	//DEBUG_VALUE: handle_busyidle_event:handler_result <- undef
	//DEBUG_VALUE: handle_busyidle_event:node <- $x19
	//DEBUG_VALUE: handle_busyidle_event:nb <- $x23
	//DEBUG_VALUE: handle_busyidle_event:event <- $x22
	.loc	2 103 2                         // kernel/platform_source/basicplatform/block/mas_blk_busy_idle_notify.c:103:2
	cmp	x22, #3                         // =3
	b.hi	.LBB1_15
.Ltmp13:
// %bb.2:
	//DEBUG_VALUE: handle_busyidle_event:nb <- $x23
	//DEBUG_VALUE: mas_blk_busyidle_notify_handler:busyidle_nb <- $x23
	//DEBUG_VALUE: handle_busyidle_event:event <- $x22
	//DEBUG_VALUE: mas_blk_busyidle_notify_handler:event <- $x22
	//DEBUG_VALUE: mas_blk_busyidle_notify_handler:start_ktime <- $x20
	//DEBUG_VALUE: handle_busyidle_event:node <- $x19
	//DEBUG_VALUE: mas_blk_busyidle_notify_handler:node <- $x19
	//DEBUG_VALUE: handle_busyidle_event:ret <- 0
	//DEBUG_VALUE: mas_blk_busyidle_notify_handler:v <- [DW_OP_LLVM_entry_value 1] $x2
	//DEBUG_VALUE: mas_blk_busyidle_notify_handler:nb <- [DW_OP_LLVM_entry_value 1] $x0
	//DEBUG_VALUE: mas_blk_busyidle_notify_handler:handler_result <- 0
	//DEBUG_VALUE: mas_blk_busyidle_notify_handler:busyidle_nb <- $x23
	//DEBUG_VALUE: handle_busyidle_event:nb <- $x23
	.loc	2 0 2 is_stmt 0                 // kernel/platform_source/basicplatform/block/mas_blk_busy_idle_notify.c:0:2
	adrp	x8, .LJTI1_0
	add	x8, x8, :lo12:.LJTI1_0
	adr	x9, .LBB1_3
	ldrb	w10, [x8, x22]
	add	x9, x9, x10, lsl #2
	br	x9
.Ltmp14:
.LBB1_3:
	//DEBUG_VALUE: handle_busyidle_event:nb <- $x23
	//DEBUG_VALUE: mas_blk_busyidle_notify_handler:busyidle_nb <- $x23
	//DEBUG_VALUE: handle_busyidle_event:event <- $x22
	//DEBUG_VALUE: mas_blk_busyidle_notify_handler:event <- $x22
	//DEBUG_VALUE: mas_blk_busyidle_notify_handler:start_ktime <- $x20
	//DEBUG_VALUE: handle_busyidle_event:node <- $x19
	//DEBUG_VALUE: mas_blk_busyidle_notify_handler:node <- $x19
	//DEBUG_VALUE: handle_busyidle_event:ret <- 0
	//DEBUG_VALUE: mas_blk_busyidle_notify_handler:v <- [DW_OP_LLVM_entry_value 1] $x2
	//DEBUG_VALUE: mas_blk_busyidle_notify_handler:nb <- [DW_OP_LLVM_entry_value 1] $x0
	//DEBUG_VALUE: mas_blk_busyidle_notify_handler:handler_result <- 0
	.loc	2 115 7 is_stmt 1               // kernel/platform_source/basicplatform/block/mas_blk_busy_idle_notify.c:115:7
	ldr	w8, [x23, #144]
.Ltmp15:
	.loc	2 115 7 is_stmt 0               // kernel/platform_source/basicplatform/block/mas_blk_busy_idle_notify.c:115:7
	cmp	w8, #1                          // =1
	b.ne	.LBB1_15
.Ltmp16:
// %bb.4:
	//DEBUG_VALUE: handle_busyidle_event:nb <- $x23
	//DEBUG_VALUE: mas_blk_busyidle_notify_handler:busyidle_nb <- $x23
	//DEBUG_VALUE: handle_busyidle_event:event <- $x22
	//DEBUG_VALUE: mas_blk_busyidle_notify_handler:event <- $x22
	//DEBUG_VALUE: mas_blk_busyidle_notify_handler:start_ktime <- $x20
	//DEBUG_VALUE: handle_busyidle_event:node <- $x19
	//DEBUG_VALUE: mas_blk_busyidle_notify_handler:node <- $x19
	//DEBUG_VALUE: handle_busyidle_event:ret <- 0
	//DEBUG_VALUE: mas_blk_busyidle_notify_handler:v <- [DW_OP_LLVM_entry_value 1] $x2
	//DEBUG_VALUE: mas_blk_busyidle_notify_handler:nb <- [DW_OP_LLVM_entry_value 1] $x0
	//DEBUG_VALUE: mas_blk_busyidle_notify_handler:handler_result <- 0
	.loc	2 116 16 is_stmt 1              // kernel/platform_source/basicplatform/block/mas_blk_busy_idle_notify.c:116:16
	ldr	x8, [x23, #120]
	.loc	2 116 10 is_stmt 0              // kernel/platform_source/basicplatform/block/mas_blk_busy_idle_notify.c:116:10
	mov	x0, x19
	mov	w1, wzr
	blr	x8
.Ltmp17:
	//DEBUG_VALUE: handle_busyidle_event:ret <- $w0
	.loc	2 119 19 is_stmt 1              // kernel/platform_source/basicplatform/block/mas_blk_busy_idle_notify.c:119:19
	str	wzr, [x23, #144]
	b	.LBB1_14
.Ltmp18:
.LBB1_5:
	//DEBUG_VALUE: handle_busyidle_event:nb <- $x23
	//DEBUG_VALUE: mas_blk_busyidle_notify_handler:busyidle_nb <- $x23
	//DEBUG_VALUE: handle_busyidle_event:event <- $x22
	//DEBUG_VALUE: mas_blk_busyidle_notify_handler:event <- $x22
	//DEBUG_VALUE: mas_blk_busyidle_notify_handler:start_ktime <- $x20
	//DEBUG_VALUE: handle_busyidle_event:node <- $x19
	//DEBUG_VALUE: mas_blk_busyidle_notify_handler:node <- $x19
	//DEBUG_VALUE: handle_busyidle_event:ret <- 0
	//DEBUG_VALUE: mas_blk_busyidle_notify_handler:v <- [DW_OP_LLVM_entry_value 1] $x2
	//DEBUG_VALUE: mas_blk_busyidle_notify_handler:nb <- [DW_OP_LLVM_entry_value 1] $x0
	//DEBUG_VALUE: mas_blk_busyidle_notify_handler:handler_result <- 0
	.loc	2 105 7                         // kernel/platform_source/basicplatform/block/mas_blk_busy_idle_notify.c:105:7
	ldr	w8, [x23, #144]
.Ltmp19:
	.loc	2 105 7 is_stmt 0               // kernel/platform_source/basicplatform/block/mas_blk_busy_idle_notify.c:105:7
	cbnz	w8, .LBB1_15
.Ltmp20:
// %bb.6:
	//DEBUG_VALUE: handle_busyidle_event:nb <- $x23
	//DEBUG_VALUE: mas_blk_busyidle_notify_handler:busyidle_nb <- $x23
	//DEBUG_VALUE: handle_busyidle_event:event <- $x22
	//DEBUG_VALUE: mas_blk_busyidle_notify_handler:event <- $x22
	//DEBUG_VALUE: mas_blk_busyidle_notify_handler:start_ktime <- $x20
	//DEBUG_VALUE: handle_busyidle_event:node <- $x19
	//DEBUG_VALUE: mas_blk_busyidle_notify_handler:node <- $x19
	//DEBUG_VALUE: handle_busyidle_event:ret <- 0
	//DEBUG_VALUE: mas_blk_busyidle_notify_handler:v <- [DW_OP_LLVM_entry_value 1] $x2
	//DEBUG_VALUE: mas_blk_busyidle_notify_handler:nb <- [DW_OP_LLVM_entry_value 1] $x0
	//DEBUG_VALUE: mas_blk_busyidle_notify_handler:handler_result <- 0
	.loc	2 106 16 is_stmt 1              // kernel/platform_source/basicplatform/block/mas_blk_busy_idle_notify.c:106:16
	ldr	x8, [x23, #120]
	.loc	2 106 10 is_stmt 0              // kernel/platform_source/basicplatform/block/mas_blk_busy_idle_notify.c:106:10
	mov	w1, #1
	mov	x0, x19
	mov	w22, #1
.Ltmp21:
	//DEBUG_VALUE: mas_blk_busyidle_notify_handler:event <- [DW_OP_LLVM_entry_value 1] $x1
	blr	x8
.Ltmp22:
	//DEBUG_VALUE: handle_busyidle_event:ret <- $w0
	.loc	2 110 8 is_stmt 1               // kernel/platform_source/basicplatform/block/mas_blk_busy_idle_notify.c:110:8
	cmp	w0, #1                          // =1
	.loc	2 109 19                        // kernel/platform_source/basicplatform/block/mas_blk_busy_idle_notify.c:109:19
	str	w22, [x23, #144]
	.loc	2 110 8                         // kernel/platform_source/basicplatform/block/mas_blk_busy_idle_notify.c:110:8
	b.ne	.LBB1_14
.Ltmp23:
.LBB1_7:
	//DEBUG_VALUE: handle_busyidle_event:nb <- $x23
	//DEBUG_VALUE: mas_blk_busyidle_notify_handler:busyidle_nb <- $x23
	//DEBUG_VALUE: mas_blk_busyidle_notify_handler:start_ktime <- $x20
	//DEBUG_VALUE: handle_busyidle_event:node <- $x19
	//DEBUG_VALUE: mas_blk_busyidle_notify_handler:node <- $x19
	//DEBUG_VALUE: mas_blk_busyidle_notify_handler:v <- [DW_OP_LLVM_entry_value 1] $x2
	//DEBUG_VALUE: mas_blk_busyidle_notify_handler:nb <- [DW_OP_LLVM_entry_value 1] $x0
	//DEBUG_VALUE: mas_blk_busyidle_notify_handler:handler_result <- 0
	.loc	2 0 8 is_stmt 0                 // kernel/platform_source/basicplatform/block/mas_blk_busy_idle_notify.c:0:8
	mov	w22, #32769
	b	.LBB1_16
.Ltmp24:
.LBB1_8:
	//DEBUG_VALUE: handle_busyidle_event:nb <- $x23
	//DEBUG_VALUE: mas_blk_busyidle_notify_handler:busyidle_nb <- $x23
	//DEBUG_VALUE: handle_busyidle_event:event <- $x22
	//DEBUG_VALUE: mas_blk_busyidle_notify_handler:event <- $x22
	//DEBUG_VALUE: mas_blk_busyidle_notify_handler:start_ktime <- $x20
	//DEBUG_VALUE: handle_busyidle_event:node <- $x19
	//DEBUG_VALUE: mas_blk_busyidle_notify_handler:node <- $x19
	//DEBUG_VALUE: handle_busyidle_event:ret <- 0
	//DEBUG_VALUE: mas_blk_busyidle_notify_handler:v <- [DW_OP_LLVM_entry_value 1] $x2
	//DEBUG_VALUE: mas_blk_busyidle_notify_handler:nb <- [DW_OP_LLVM_entry_value 1] $x0
	//DEBUG_VALUE: mas_blk_busyidle_notify_handler:handler_result <- 0
	//DEBUG_VALUE: handle_fg_busy_event:node <- $x19
	//DEBUG_VALUE: handle_fg_busy_event:nb <- $x23
	//DEBUG_VALUE: handle_fg_busy_event:ret <- 0
	.loc	2 83 34 is_stmt 1               // kernel/platform_source/basicplatform/block/mas_blk_busy_idle_notify.c:83:34
	ldr	x8, [x23, #136]
.Ltmp25:
	//DEBUG_VALUE: handle_fg_busy_event:lld <- $x8
	.loc	2 85 48                         // kernel/platform_source/basicplatform/block/mas_blk_busy_idle_notify.c:85:48
	ldrb	w8, [x8, #25]
.Ltmp26:
	tbz	w8, #0, .LBB1_15
.Ltmp27:
// %bb.9:
	//DEBUG_VALUE: handle_fg_busy_event:nb <- $x23
	//DEBUG_VALUE: handle_busyidle_event:nb <- $x23
	//DEBUG_VALUE: mas_blk_busyidle_notify_handler:busyidle_nb <- $x23
	//DEBUG_VALUE: handle_busyidle_event:event <- $x22
	//DEBUG_VALUE: mas_blk_busyidle_notify_handler:event <- $x22
	//DEBUG_VALUE: mas_blk_busyidle_notify_handler:start_ktime <- $x20
	//DEBUG_VALUE: handle_fg_busy_event:node <- $x19
	//DEBUG_VALUE: handle_busyidle_event:node <- $x19
	//DEBUG_VALUE: mas_blk_busyidle_notify_handler:node <- $x19
	//DEBUG_VALUE: handle_fg_busy_event:ret <- 0
	//DEBUG_VALUE: handle_busyidle_event:ret <- 0
	//DEBUG_VALUE: mas_blk_busyidle_notify_handler:v <- [DW_OP_LLVM_entry_value 1] $x2
	//DEBUG_VALUE: mas_blk_busyidle_notify_handler:nb <- [DW_OP_LLVM_entry_value 1] $x0
	//DEBUG_VALUE: mas_blk_busyidle_notify_handler:handler_result <- 0
	.loc	2 86 9                          // kernel/platform_source/basicplatform/block/mas_blk_busy_idle_notify.c:86:9
	ldr	w8, [x23, #148]
.Ltmp28:
	.loc	2 85 6                          // kernel/platform_source/basicplatform/block/mas_blk_busy_idle_notify.c:85:6
	cmp	w8, #1                          // =1
	b.ne	.LBB1_15
.Ltmp29:
// %bb.10:
	//DEBUG_VALUE: handle_fg_busy_event:nb <- $x23
	//DEBUG_VALUE: handle_busyidle_event:nb <- $x23
	//DEBUG_VALUE: mas_blk_busyidle_notify_handler:busyidle_nb <- $x23
	//DEBUG_VALUE: handle_busyidle_event:event <- $x22
	//DEBUG_VALUE: mas_blk_busyidle_notify_handler:event <- $x22
	//DEBUG_VALUE: mas_blk_busyidle_notify_handler:start_ktime <- $x20
	//DEBUG_VALUE: handle_fg_busy_event:node <- $x19
	//DEBUG_VALUE: handle_busyidle_event:node <- $x19
	//DEBUG_VALUE: mas_blk_busyidle_notify_handler:node <- $x19
	//DEBUG_VALUE: handle_fg_busy_event:ret <- 0
	//DEBUG_VALUE: handle_busyidle_event:ret <- 0
	//DEBUG_VALUE: mas_blk_busyidle_notify_handler:v <- [DW_OP_LLVM_entry_value 1] $x2
	//DEBUG_VALUE: mas_blk_busyidle_notify_handler:nb <- [DW_OP_LLVM_entry_value 1] $x0
	//DEBUG_VALUE: mas_blk_busyidle_notify_handler:handler_result <- 0
	.loc	2 87 15                         // kernel/platform_source/basicplatform/block/mas_blk_busy_idle_notify.c:87:15
	ldr	x8, [x23, #120]
	.loc	2 87 9 is_stmt 0                // kernel/platform_source/basicplatform/block/mas_blk_busy_idle_notify.c:87:9
	mov	w1, #2
	mov	x0, x19
	blr	x8
.Ltmp30:
	//DEBUG_VALUE: handle_fg_busy_event:ret <- $w0
	.loc	2 90 24 is_stmt 1               // kernel/platform_source/basicplatform/block/mas_blk_busy_idle_notify.c:90:24
	str	wzr, [x23, #148]
	b	.LBB1_14
.Ltmp31:
.LBB1_11:
	//DEBUG_VALUE: handle_busyidle_event:nb <- $x23
	//DEBUG_VALUE: mas_blk_busyidle_notify_handler:busyidle_nb <- $x23
	//DEBUG_VALUE: handle_busyidle_event:event <- $x22
	//DEBUG_VALUE: mas_blk_busyidle_notify_handler:event <- $x22
	//DEBUG_VALUE: mas_blk_busyidle_notify_handler:start_ktime <- $x20
	//DEBUG_VALUE: handle_busyidle_event:node <- $x19
	//DEBUG_VALUE: mas_blk_busyidle_notify_handler:node <- $x19
	//DEBUG_VALUE: handle_busyidle_event:ret <- 0
	//DEBUG_VALUE: mas_blk_busyidle_notify_handler:v <- [DW_OP_LLVM_entry_value 1] $x2
	//DEBUG_VALUE: mas_blk_busyidle_notify_handler:nb <- [DW_OP_LLVM_entry_value 1] $x0
	//DEBUG_VALUE: mas_blk_busyidle_notify_handler:handler_result <- 0
	//DEBUG_VALUE: handle_fg_idle_event:node <- $x19
	//DEBUG_VALUE: handle_fg_idle_event:nb <- $x23
	//DEBUG_VALUE: handle_fg_idle_event:handler_result <- undef
	//DEBUG_VALUE: handle_fg_idle_event:ret <- 0
	.loc	2 64 34                         // kernel/platform_source/basicplatform/block/mas_blk_busy_idle_notify.c:64:34
	ldr	x8, [x23, #136]
.Ltmp32:
	//DEBUG_VALUE: handle_fg_idle_event:lld <- $x8
	.loc	2 66 48                         // kernel/platform_source/basicplatform/block/mas_blk_busy_idle_notify.c:66:48
	ldrb	w8, [x8, #25]
.Ltmp33:
	tbz	w8, #0, .LBB1_15
.Ltmp34:
// %bb.12:
	//DEBUG_VALUE: handle_fg_idle_event:nb <- $x23
	//DEBUG_VALUE: handle_busyidle_event:nb <- $x23
	//DEBUG_VALUE: mas_blk_busyidle_notify_handler:busyidle_nb <- $x23
	//DEBUG_VALUE: handle_busyidle_event:event <- $x22
	//DEBUG_VALUE: mas_blk_busyidle_notify_handler:event <- $x22
	//DEBUG_VALUE: mas_blk_busyidle_notify_handler:start_ktime <- $x20
	//DEBUG_VALUE: handle_fg_idle_event:node <- $x19
	//DEBUG_VALUE: handle_busyidle_event:node <- $x19
	//DEBUG_VALUE: mas_blk_busyidle_notify_handler:node <- $x19
	//DEBUG_VALUE: handle_fg_idle_event:ret <- 0
	//DEBUG_VALUE: handle_busyidle_event:ret <- 0
	//DEBUG_VALUE: mas_blk_busyidle_notify_handler:v <- [DW_OP_LLVM_entry_value 1] $x2
	//DEBUG_VALUE: mas_blk_busyidle_notify_handler:nb <- [DW_OP_LLVM_entry_value 1] $x0
	//DEBUG_VALUE: mas_blk_busyidle_notify_handler:handler_result <- 0
	.loc	2 67 9                          // kernel/platform_source/basicplatform/block/mas_blk_busy_idle_notify.c:67:9
	ldr	w8, [x23, #148]
.Ltmp35:
	.loc	2 66 6                          // kernel/platform_source/basicplatform/block/mas_blk_busy_idle_notify.c:66:6
	cbnz	w8, .LBB1_15
.Ltmp36:
// %bb.13:
	//DEBUG_VALUE: handle_fg_idle_event:nb <- $x23
	//DEBUG_VALUE: handle_busyidle_event:nb <- $x23
	//DEBUG_VALUE: mas_blk_busyidle_notify_handler:busyidle_nb <- $x23
	//DEBUG_VALUE: handle_busyidle_event:event <- $x22
	//DEBUG_VALUE: mas_blk_busyidle_notify_handler:event <- $x22
	//DEBUG_VALUE: mas_blk_busyidle_notify_handler:start_ktime <- $x20
	//DEBUG_VALUE: handle_fg_idle_event:node <- $x19
	//DEBUG_VALUE: handle_busyidle_event:node <- $x19
	//DEBUG_VALUE: mas_blk_busyidle_notify_handler:node <- $x19
	//DEBUG_VALUE: handle_fg_idle_event:ret <- 0
	//DEBUG_VALUE: handle_busyidle_event:ret <- 0
	//DEBUG_VALUE: mas_blk_busyidle_notify_handler:v <- [DW_OP_LLVM_entry_value 1] $x2
	//DEBUG_VALUE: mas_blk_busyidle_notify_handler:nb <- [DW_OP_LLVM_entry_value 1] $x0
	//DEBUG_VALUE: mas_blk_busyidle_notify_handler:handler_result <- 0
	.loc	2 68 15                         // kernel/platform_source/basicplatform/block/mas_blk_busy_idle_notify.c:68:15
	ldr	x8, [x23, #120]
	.loc	2 68 9 is_stmt 0                // kernel/platform_source/basicplatform/block/mas_blk_busy_idle_notify.c:68:9
	mov	w1, #3
	mov	x0, x19
	blr	x8
.Ltmp37:
	//DEBUG_VALUE: handle_fg_idle_event:ret <- $w0
	.loc	2 0 9                           // kernel/platform_source/basicplatform/block/mas_blk_busy_idle_notify.c:0:9
	mov	w8, #1
	.loc	2 72 7 is_stmt 1                // kernel/platform_source/basicplatform/block/mas_blk_busy_idle_notify.c:72:7
	cmp	w0, #1                          // =1
	.loc	2 71 24                         // kernel/platform_source/basicplatform/block/mas_blk_busy_idle_notify.c:71:24
	str	w8, [x23, #148]
	.loc	2 72 7                          // kernel/platform_source/basicplatform/block/mas_blk_busy_idle_notify.c:72:7
	b.eq	.LBB1_7
.Ltmp38:
.LBB1_14:
	//DEBUG_VALUE: mas_blk_busyidle_notify_handler:busyidle_nb <- $x23
	//DEBUG_VALUE: mas_blk_busyidle_notify_handler:start_ktime <- $x20
	//DEBUG_VALUE: mas_blk_busyidle_notify_handler:node <- $x19
	//DEBUG_VALUE: mas_blk_busyidle_notify_handler:v <- [DW_OP_LLVM_entry_value 1] $x2
	//DEBUG_VALUE: mas_blk_busyidle_notify_handler:nb <- [DW_OP_LLVM_entry_value 1] $x0
	//DEBUG_VALUE: mas_blk_busyidle_notify_handler:handler_result <- 0
	//DEBUG_VALUE: handle_busyidle_event:ret <- $w0
	.loc	2 160 6                         // kernel/platform_source/basicplatform/block/mas_blk_busy_idle_notify.c:160:6
	cmp	w0, #2                          // =2
	b.eq	.LBB1_18
.Ltmp39:
.LBB1_15:
	//DEBUG_VALUE: mas_blk_busyidle_notify_handler:busyidle_nb <- $x23
	//DEBUG_VALUE: mas_blk_busyidle_notify_handler:start_ktime <- $x20
	//DEBUG_VALUE: mas_blk_busyidle_notify_handler:node <- $x19
	//DEBUG_VALUE: mas_blk_busyidle_notify_handler:v <- [DW_OP_LLVM_entry_value 1] $x2
	//DEBUG_VALUE: mas_blk_busyidle_notify_handler:nb <- [DW_OP_LLVM_entry_value 1] $x0
	//DEBUG_VALUE: mas_blk_busyidle_notify_handler:handler_result <- 0
	.loc	2 0 6 is_stmt 0                 // kernel/platform_source/basicplatform/block/mas_blk_busy_idle_notify.c:0:6
	mov	w22, wzr
.Ltmp40:
.LBB1_16:
	//DEBUG_VALUE: mas_blk_busyidle_notify_handler:busyidle_nb <- $x23
	//DEBUG_VALUE: mas_blk_busyidle_notify_handler:start_ktime <- $x20
	//DEBUG_VALUE: mas_blk_busyidle_notify_handler:node <- $x19
	//DEBUG_VALUE: mas_blk_busyidle_notify_handler:v <- [DW_OP_LLVM_entry_value 1] $x2
	//DEBUG_VALUE: mas_blk_busyidle_notify_handler:nb <- [DW_OP_LLVM_entry_value 1] $x0
	//DEBUG_VALUE: mas_blk_busyidle_notify_handler:handler_result <- 0
	.loc	2 168 2 is_stmt 1               // kernel/platform_source/basicplatform/block/mas_blk_busy_idle_notify.c:168:2
	mov	x0, x21
	bl	del_timer_sync
.Ltmp41:
	.loc	2 169 6                         // kernel/platform_source/basicplatform/block/mas_blk_busy_idle_notify.c:169:6
	bl	ktime_get
.Ltmp42:
	//DEBUG_VALUE: ktime_compare:cmp1 <- $x0
	//DEBUG_VALUE: ktime_after:cmp1 <- $x0
	.loc	2 0 6 is_stmt 0                 // kernel/platform_source/basicplatform/block/mas_blk_busy_idle_notify.c:0:6
	mov	w8, #38528
	movk	w8, #152, lsl #16
.Ltmp43:
	//DEBUG_VALUE: ktime_add_ms:msec <- 10
	//DEBUG_VALUE: ktime_add_ms:kt <- $x20
	.loc	67 186 9 is_stmt 1              // kernel/include/linux/ktime.h:186:9
	add	x8, x20, x8
.Ltmp44:
	//DEBUG_VALUE: ktime_compare:cmp2 <- $x8
	//DEBUG_VALUE: ktime_after:cmp2 <- $x8
	.loc	2 169 6                         // kernel/platform_source/basicplatform/block/mas_blk_busy_idle_notify.c:169:6
	cmp	x0, x8
	b.gt	.LBB1_20
.Ltmp45:
.LBB1_17:
	//DEBUG_VALUE: mas_blk_busyidle_notify_handler:node <- $x19
	//DEBUG_VALUE: mas_blk_busyidle_notify_handler:v <- [DW_OP_LLVM_entry_value 1] $x2
	//DEBUG_VALUE: mas_blk_busyidle_notify_handler:nb <- [DW_OP_LLVM_entry_value 1] $x0
	//DEBUG_VALUE: mas_blk_busyidle_notify_handler:handler_result <- 0
	.loc	2 176 1                         // kernel/platform_source/basicplatform/block/mas_blk_busy_idle_notify.c:176:1
	mov	w0, w22
	ldp	x20, x19, [sp, #48]             // 16-byte Folded Reload
.Ltmp46:
	ldp	x22, x21, [sp, #32]             // 16-byte Folded Reload
	ldr	x23, [sp, #16]                  // 8-byte Folded Reload
	ldp	x29, x30, [sp], #64             // 16-byte Folded Reload
	ret
.Ltmp47:
.LBB1_18:
	//DEBUG_VALUE: mas_blk_busyidle_notify_handler:busyidle_nb <- $x23
	//DEBUG_VALUE: mas_blk_busyidle_notify_handler:start_ktime <- $x20
	//DEBUG_VALUE: mas_blk_busyidle_notify_handler:node <- $x19
	//DEBUG_VALUE: mas_blk_busyidle_notify_handler:v <- [DW_OP_LLVM_entry_value 1] $x2
	//DEBUG_VALUE: mas_blk_busyidle_notify_handler:nb <- [DW_OP_LLVM_entry_value 1] $x0
	//DEBUG_VALUE: mas_blk_busyidle_notify_handler:handler_result <- 0
	.loc	2 162 3                         // kernel/platform_source/basicplatform/block/mas_blk_busy_idle_notify.c:162:3
	adrp	x0, .L.str.2
	adrp	x1, .L__func__.mas_blk_busyidle_notify_handler
	add	x0, x0, :lo12:.L.str.2
	add	x1, x1, :lo12:.L__func__.mas_blk_busyidle_notify_handler
	mov	x2, x19
	bl	printk
.Ltmp48:
	.loc	2 0 3 is_stmt 0                 // kernel/platform_source/basicplatform/block/mas_blk_busy_idle_notify.c:0:3
	b	.LBB1_15
.Ltmp49:
.LBB1_19:
	//DEBUG_VALUE: mas_blk_busyidle_notify_handler:node <- $x19
	//DEBUG_VALUE: mas_blk_busyidle_notify_handler:v <- $x2
	//DEBUG_VALUE: mas_blk_busyidle_notify_handler:event <- $x1
	//DEBUG_VALUE: mas_blk_busyidle_notify_handler:nb <- $x0
	//DEBUG_VALUE: mas_blk_busyidle_notify_handler:handler_result <- 0
	.loc	2 148 3 is_stmt 1               // kernel/platform_source/basicplatform/block/mas_blk_busy_idle_notify.c:148:3
	adrp	x0, .L.str.1
.Ltmp50:
	//DEBUG_VALUE: mas_blk_busyidle_notify_handler:nb <- [DW_OP_LLVM_entry_value 1] $x0
	adrp	x1, .L__func__.mas_blk_busyidle_notify_handler
.Ltmp51:
	//DEBUG_VALUE: mas_blk_busyidle_notify_handler:event <- [DW_OP_LLVM_entry_value 1] $x1
	add	x0, x0, :lo12:.L.str.1
	add	x1, x1, :lo12:.L__func__.mas_blk_busyidle_notify_handler
	mov	x2, x19
.Ltmp52:
	//DEBUG_VALUE: mas_blk_busyidle_notify_handler:v <- [DW_OP_LLVM_entry_value 1] $x2
	bl	printk
.Ltmp53:
	.loc	2 0 0 is_stmt 0                 // kernel/platform_source/basicplatform/block/mas_blk_busy_idle_notify.c:0:0
	mov	w22, wzr
	b	.LBB1_17
.Ltmp54:
.LBB1_20:
	//DEBUG_VALUE: mas_blk_busyidle_notify_handler:busyidle_nb <- $x23
	//DEBUG_VALUE: mas_blk_busyidle_notify_handler:start_ktime <- $x20
	//DEBUG_VALUE: mas_blk_busyidle_notify_handler:node <- $x19
	//DEBUG_VALUE: mas_blk_busyidle_notify_handler:v <- [DW_OP_LLVM_entry_value 1] $x2
	//DEBUG_VALUE: mas_blk_busyidle_notify_handler:nb <- [DW_OP_LLVM_entry_value 1] $x0
	//DEBUG_VALUE: mas_blk_busyidle_notify_handler:handler_result <- 0
	.loc	2 171 3 is_stmt 1               // kernel/platform_source/basicplatform/block/mas_blk_busy_idle_notify.c:171:3
	bl	ktime_get
.Ltmp55:
	.loc	2 0 3 is_stmt 0                 // kernel/platform_source/basicplatform/block/mas_blk_busy_idle_notify.c:0:3
	mov	x9, #13531
	movk	x9, #55222, lsl #16
	movk	x9, #56962, lsl #32
	.loc	2 171 3                         // kernel/platform_source/basicplatform/block/mas_blk_busy_idle_notify.c:171:3
	sub	x8, x0, x20
	movk	x9, #17179, lsl #48
.Ltmp56:
	//DEBUG_VALUE: ktime_divns:div <- 1000000
	//DEBUG_VALUE: ktime_divns:kt <- $x8
	//DEBUG_VALUE: ktime_to_ms:kt <- $x8
	.loc	67 155 12 is_stmt 1             // kernel/include/linux/ktime.h:155:12
	smulh	x8, x8, x9
.Ltmp57:
	asr	x9, x8, #18
.Ltmp58:
	.loc	2 171 3                         // kernel/platform_source/basicplatform/block/mas_blk_busy_idle_notify.c:171:3
	adrp	x0, .L.str.3
	adrp	x1, .L__func__.mas_blk_busyidle_notify_handler
.Ltmp59:
	.loc	67 155 12                       // kernel/include/linux/ktime.h:155:12
	add	x3, x9, x8, lsr #63
.Ltmp60:
	.loc	2 171 3                         // kernel/platform_source/basicplatform/block/mas_blk_busy_idle_notify.c:171:3
	add	x0, x0, :lo12:.L.str.3
	add	x1, x1, :lo12:.L__func__.mas_blk_busyidle_notify_handler
	mov	x2, x19
	bl	printk
.Ltmp61:
	.loc	2 0 3 is_stmt 0                 // kernel/platform_source/basicplatform/block/mas_blk_busy_idle_notify.c:0:3
	b	.LBB1_17
.Ltmp62:
.Lfunc_end1:
	.size	mas_blk_busyidle_notify_handler, .Lfunc_end1-mas_blk_busyidle_notify_handler
	.cfi_endproc
	.section	.rodata,"a",@progbits
.LJTI1_0:
	.byte	(.LBB1_3-.LBB1_3)>>2
	.byte	(.LBB1_5-.LBB1_3)>>2
	.byte	(.LBB1_8-.LBB1_3)>>2
	.byte	(.LBB1_11-.LBB1_3)>>2
	.file	157 "/mnt/disk/jenkins/ci/workspace/chipset_pipeline_release/opensource/component_code/vendor/huawei/extra/build/build_script/kirin_kernel_release" "kernel/include/linux/timekeeping.h"
                                        // -- End function
	.text
	.globl	blk_lld_fg_io_idle_notify       // -- Begin function blk_lld_fg_io_idle_notify
	.p2align	2
	.type	blk_lld_fg_io_idle_notify,@function
blk_lld_fg_io_idle_notify:              // @blk_lld_fg_io_idle_notify
.Lfunc_begin2:
	.loc	2 369 0 is_stmt 1               // kernel/platform_source/basicplatform/block/mas_blk_busy_idle_notify.c:369:0
	.cfi_startproc
// %bb.0:
	//DEBUG_VALUE: blk_lld_fg_io_idle_notify:lld <- $x0
	//DEBUG_VALUE: blk_lld_fg_io_idle_notify:lld <- $x0
	stp	x29, x30, [sp, #-32]!           // 16-byte Folded Spill
	stp	x20, x19, [sp, #16]             // 16-byte Folded Spill
	mov	x29, sp
	.cfi_def_cfa w29, 32
	.cfi_offset w19, -8
	.cfi_offset w20, -16
	.cfi_offset w30, -24
	.cfi_offset w29, -32
.Ltmp63:
	.loc	2 370 6 prologue_end            // kernel/platform_source/basicplatform/block/mas_blk_busy_idle_notify.c:370:6
	ldr	w8, [x0]
.Ltmp64:
	.loc	2 370 6 is_stmt 0               // kernel/platform_source/basicplatform/block/mas_blk_busy_idle_notify.c:370:6
	cmp	w8, #122                        // =122
	b.ne	.LBB2_2
.Ltmp65:
// %bb.1:
	//DEBUG_VALUE: blk_lld_fg_io_idle_notify:lld <- $x0
	.loc	2 371 22 is_stmt 1              // kernel/platform_source/basicplatform/block/mas_blk_busy_idle_notify.c:371:22
	adrp	x8, blk_fg_io_idle_notify_workqueue
	ldr	x19, [x8, :lo12:blk_fg_io_idle_notify_workqueue]
	.loc	2 373 35                        // kernel/platform_source/basicplatform/block/mas_blk_busy_idle_notify.c:373:35
	ldr	w8, [x0, #1472]
	//DEBUG_VALUE: msecs_to_jiffies:m <- $w8
	.loc	2 372 19                        // kernel/platform_source/basicplatform/block/mas_blk_busy_idle_notify.c:372:19
	add	x20, x0, #1376                  // =1376
.Ltmp66:
	//DEBUG_VALUE: msecs_to_jiffies:m <- undef
	.file	158 "/mnt/disk/jenkins/ci/workspace/chipset_pipeline_release/opensource/component_code/vendor/huawei/extra/build/build_script/kirin_kernel_release" "kernel/include/linux/jiffies.h"
	.loc	158 370 10                      // kernel/include/linux/jiffies.h:370:10
	mov	w0, w8
.Ltmp67:
	//DEBUG_VALUE: blk_lld_fg_io_idle_notify:lld <- [DW_OP_LLVM_entry_value 1] $x0
	bl	__msecs_to_jiffies
.Ltmp68:
	mov	x3, x0
.Ltmp69:
	//DEBUG_VALUE: queue_delayed_work:dwork <- $x20
	//DEBUG_VALUE: queue_delayed_work:delay <- $x3
	//DEBUG_VALUE: queue_delayed_work:wq <- $x19
	.loc	21 528 9                        // kernel/include/linux/workqueue.h:528:9
	mov	w0, #8
	mov	x1, x19
	mov	x2, x20
	bl	queue_delayed_work_on
.Ltmp70:
.LBB2_2:
	.loc	2 374 1                         // kernel/platform_source/basicplatform/block/mas_blk_busy_idle_notify.c:374:1
	ldp	x20, x19, [sp, #16]             // 16-byte Folded Reload
	ldp	x29, x30, [sp], #32             // 16-byte Folded Reload
	ret
.Ltmp71:
.Lfunc_end2:
	.size	blk_lld_fg_io_idle_notify, .Lfunc_end2-blk_lld_fg_io_idle_notify
	.cfi_endproc
                                        // -- End function
	.globl	mas_blk_idle_notify_work        // -- Begin function mas_blk_idle_notify_work
	.p2align	2
	.type	mas_blk_idle_notify_work,@function
mas_blk_idle_notify_work:               // @mas_blk_idle_notify_work
.Lfunc_begin3:
	.loc	2 439 0                         // kernel/platform_source/basicplatform/block/mas_blk_busy_idle_notify.c:439:0
	.cfi_startproc
// %bb.0:
	//DEBUG_VALUE: mas_blk_idle_notify_work:work <- $x0
	stp	x29, x30, [sp, #-32]!           // 16-byte Folded Spill
	stp	x20, x19, [sp, #16]             // 16-byte Folded Spill
	mov	x29, sp
	.cfi_def_cfa w29, 32
	.cfi_offset w19, -8
	.cfi_offset w20, -16
	.cfi_offset w30, -24
	.cfi_offset w29, -32
.Ltmp72:
	//DEBUG_VALUE: __mptr <- $x0
	mov	x20, x0
.Ltmp73:
	//DEBUG_VALUE: mas_blk_idle_notify_work:work <- $x20
	//DEBUG_VALUE: __mptr <- $x20
	//DEBUG_VALUE: mas_blk_idle_notify_work:work <- $x20
	.loc	2 444 16 prologue_end           // kernel/platform_source/basicplatform/block/mas_blk_busy_idle_notify.c:444:16
	ldrb	w8, [x20, #-8]!
.Ltmp74:
	//DEBUG_VALUE: mas_blk_idle_notify_work:blk_idle <- $x20
	.loc	2 444 6 is_stmt 0               // kernel/platform_source/basicplatform/block/mas_blk_busy_idle_notify.c:444:6
	cbz	w8, .LBB3_2
.Ltmp75:
// %bb.1:
	//DEBUG_VALUE: mas_blk_idle_notify_work:blk_idle <- $x20
	//DEBUG_VALUE: atomic_set:v <- [DW_OP_plus_uconst 208, DW_OP_stack_value] $x20
	//DEBUG_VALUE: atomic_set:i <- 0
	.file	159 "/mnt/disk/jenkins/ci/workspace/chipset_pipeline_release/opensource/component_code/vendor/huawei/extra/build/build_script/kirin_kernel_release" "kernel/include/asm-generic/atomic-instrumented.h"
	.loc	159 46 2 is_stmt 1              // kernel/include/asm-generic/atomic-instrumented.h:46:2
	str	wzr, [x20, #208]
.Ltmp76:
.LBB3_2:
	//DEBUG_VALUE: mas_blk_idle_notify_work:blk_idle <- $x20
	.loc	2 447 24                        // kernel/platform_source/basicplatform/block/mas_blk_busy_idle_notify.c:447:24
	add	x19, x20, #216                  // =216
	.loc	2 447 2 is_stmt 0               // kernel/platform_source/basicplatform/block/mas_blk_busy_idle_notify.c:447:2
	mov	x0, x19
	bl	mutex_lock
.Ltmp77:
	//DEBUG_VALUE: atomic_read:v <- [DW_OP_plus_uconst 208, DW_OP_stack_value] $x20
	.loc	159 28 9 is_stmt 1              // kernel/include/asm-generic/atomic-instrumented.h:28:9
	ldr	w8, [x20, #208]
.Ltmp78:
	.loc	2 448 40                        // kernel/platform_source/basicplatform/block/mas_blk_busy_idle_notify.c:448:40
	cbnz	w8, .LBB3_5
.Ltmp79:
// %bb.3:
	//DEBUG_VALUE: mas_blk_idle_notify_work:blk_idle <- $x20
	.loc	2 449 14                        // kernel/platform_source/basicplatform/block/mas_blk_busy_idle_notify.c:449:14
	ldr	w8, [x20, #280]
.Ltmp80:
	.loc	2 448 6                         // kernel/platform_source/basicplatform/block/mas_blk_busy_idle_notify.c:448:6
	cmp	w8, #1                          // =1
	b.eq	.LBB3_5
.Ltmp81:
// %bb.4:
	//DEBUG_VALUE: mas_blk_idle_notify_work:blk_idle <- $x20
	.loc	2 0 6 is_stmt 0                 // kernel/platform_source/basicplatform/block/mas_blk_busy_idle_notify.c:0:6
	mov	w8, #1
.Ltmp82:
	//DEBUG_VALUE: blk_busy_to_idle:blk_idle <- $x20
	.loc	2 343 42 is_stmt 1              // kernel/platform_source/basicplatform/block/mas_blk_busy_idle_notify.c:343:42
	add	x0, x20, #128                   // =128
	.loc	2 343 2 is_stmt 0               // kernel/platform_source/basicplatform/block/mas_blk_busy_idle_notify.c:343:2
	mov	w1, #1
	mov	x2, xzr
	.loc	2 333 23 is_stmt 1              // kernel/platform_source/basicplatform/block/mas_blk_busy_idle_notify.c:333:23
	str	w8, [x20, #280]
	.loc	2 343 2                         // kernel/platform_source/basicplatform/block/mas_blk_busy_idle_notify.c:343:2
	bl	blocking_notifier_call_chain
.Ltmp83:
.LBB3_5:
	//DEBUG_VALUE: mas_blk_idle_notify_work:blk_idle <- $x20
	.loc	2 451 2                         // kernel/platform_source/basicplatform/block/mas_blk_busy_idle_notify.c:451:2
	mov	x0, x19
	bl	mutex_unlock
.Ltmp84:
	.loc	2 452 1                         // kernel/platform_source/basicplatform/block/mas_blk_busy_idle_notify.c:452:1
	ldp	x20, x19, [sp, #16]             // 16-byte Folded Reload
.Ltmp85:
	ldp	x29, x30, [sp], #32             // 16-byte Folded Reload
	ret
.Ltmp86:
.Lfunc_end3:
	.size	mas_blk_idle_notify_work, .Lfunc_end3-mas_blk_idle_notify_work
	.cfi_endproc
                                        // -- End function
	.globl	blk_lld_idle_notify             // -- Begin function blk_lld_idle_notify
	.p2align	2
	.type	blk_lld_idle_notify,@function
blk_lld_idle_notify:                    // @blk_lld_idle_notify
.Lfunc_begin4:
	.loc	2 455 0                         // kernel/platform_source/basicplatform/block/mas_blk_busy_idle_notify.c:455:0
	.cfi_startproc
// %bb.0:
	//DEBUG_VALUE: blk_lld_idle_notify:lld <- $x0
	//DEBUG_VALUE: blk_lld_idle_notify:lld <- $x0
	stp	x29, x30, [sp, #-32]!           // 16-byte Folded Spill
	stp	x20, x19, [sp, #16]             // 16-byte Folded Spill
	mov	x29, sp
	.cfi_def_cfa w29, 32
	.cfi_offset w19, -8
	.cfi_offset w20, -16
	.cfi_offset w30, -24
	.cfi_offset w29, -32
.Ltmp87:
	.loc	2 456 6 prologue_end            // kernel/platform_source/basicplatform/block/mas_blk_busy_idle_notify.c:456:6
	ldr	w8, [x0]
.Ltmp88:
	.loc	2 456 6 is_stmt 0               // kernel/platform_source/basicplatform/block/mas_blk_busy_idle_notify.c:456:6
	cmp	w8, #122                        // =122
	b.ne	.LBB4_2
.Ltmp89:
// %bb.1:
	//DEBUG_VALUE: blk_lld_idle_notify:lld <- $x0
	.loc	2 457 22 is_stmt 1              // kernel/platform_source/basicplatform/block/mas_blk_busy_idle_notify.c:457:22
	adrp	x8, blk_idle_notify_workqueue
	ldr	x19, [x8, :lo12:blk_idle_notify_workqueue]
	.loc	2 460 35                        // kernel/platform_source/basicplatform/block/mas_blk_busy_idle_notify.c:460:35
	ldr	w8, [x0, #1192]
	//DEBUG_VALUE: msecs_to_jiffies:m <- $w8
	.loc	2 459 6                         // kernel/platform_source/basicplatform/block/mas_blk_busy_idle_notify.c:459:6
	add	x20, x0, #1096                  // =1096
.Ltmp90:
	//DEBUG_VALUE: msecs_to_jiffies:m <- undef
	.loc	158 370 10                      // kernel/include/linux/jiffies.h:370:10
	mov	w0, w8
.Ltmp91:
	//DEBUG_VALUE: blk_lld_idle_notify:lld <- [DW_OP_LLVM_entry_value 1] $x0
	bl	__msecs_to_jiffies
.Ltmp92:
	mov	x3, x0
.Ltmp93:
	//DEBUG_VALUE: queue_delayed_work:dwork <- $x20
	//DEBUG_VALUE: queue_delayed_work:delay <- $x3
	//DEBUG_VALUE: queue_delayed_work:wq <- $x19
	.loc	21 528 9                        // kernel/include/linux/workqueue.h:528:9
	mov	w0, #8
	mov	x1, x19
	mov	x2, x20
	bl	queue_delayed_work_on
.Ltmp94:
.LBB4_2:
	.loc	2 461 1                         // kernel/platform_source/basicplatform/block/mas_blk_busy_idle_notify.c:461:1
	ldp	x20, x19, [sp, #16]             // 16-byte Folded Reload
	ldp	x29, x30, [sp], #32             // 16-byte Folded Reload
	ret
.Ltmp95:
.Lfunc_end4:
	.size	blk_lld_idle_notify, .Lfunc_end4-blk_lld_idle_notify
	.cfi_endproc
                                        // -- End function
	.globl	mas_blk_busyidle_check_bio      // -- Begin function mas_blk_busyidle_check_bio
	.p2align	2
	.type	mas_blk_busyidle_check_bio,@function
mas_blk_busyidle_check_bio:             // @mas_blk_busyidle_check_bio
.Lfunc_begin5:
	.loc	2 770 0                         // kernel/platform_source/basicplatform/block/mas_blk_busy_idle_notify.c:770:0
	.cfi_startproc
// %bb.0:
	//DEBUG_VALUE: mas_blk_busyidle_check_bio:q <- $x0
	//DEBUG_VALUE: mas_blk_busyidle_check_bio:bio <- $x1
	stp	x29, x30, [sp, #-80]!           // 16-byte Folded Spill
	stp	x26, x25, [sp, #16]             // 16-byte Folded Spill
	stp	x24, x23, [sp, #32]             // 16-byte Folded Spill
	stp	x22, x21, [sp, #48]             // 16-byte Folded Spill
	stp	x20, x19, [sp, #64]             // 16-byte Folded Spill
	mov	x29, sp
	.cfi_def_cfa w29, 80
	.cfi_offset w19, -8
	.cfi_offset w20, -16
	.cfi_offset w21, -24
	.cfi_offset w22, -32
	.cfi_offset w23, -40
	.cfi_offset w24, -48
	.cfi_offset w25, -56
	.cfi_offset w26, -64
	.cfi_offset w30, -72
	.cfi_offset w29, -80
	mov	x21, x1
.Ltmp96:
	//DEBUG_VALUE: mas_blk_busyidle_check_bio:bio <- $x21
	mov	x19, x0
	//DEBUG_VALUE: mas_blk_busyidle_check_bio:bio <- $x21
.Ltmp97:
	//DEBUG_VALUE: mas_blk_busyidle_check_bio:q <- $x19
	.loc	2 771 28 prologue_end           // kernel/platform_source/basicplatform/block/mas_blk_busy_idle_notify.c:771:28
	bl	mas_blk_get_lld
.Ltmp98:
	//DEBUG_VALUE: mas_blk_busyidle_check_bio:lld <- $x0
	.loc	2 775 6                         // kernel/platform_source/basicplatform/block/mas_blk_busy_idle_notify.c:775:6
	ldrb	w8, [x21, #128]
.Ltmp99:
	.loc	2 773 17                        // kernel/platform_source/basicplatform/block/mas_blk_busy_idle_notify.c:773:17
	str	x19, [x21, #80]
	.loc	2 775 6                         // kernel/platform_source/basicplatform/block/mas_blk_busy_idle_notify.c:775:6
	tbnz	w8, #0, .LBB5_12
.Ltmp100:
// %bb.1:
	//DEBUG_VALUE: mas_blk_busyidle_check_bio:bio <- $x21
	//DEBUG_VALUE: mas_blk_busyidle_check_bio:q <- $x19
	//DEBUG_VALUE: mas_blk_busyidle_check_bio:lld <- $x0
	.file	160 "/mnt/disk/jenkins/ci/workspace/chipset_pipeline_release/opensource/component_code/vendor/huawei/extra/build/build_script/kirin_kernel_release" "kernel/include/linux/spinlock.h"
	.loc	160 329 16                      // kernel/include/linux/spinlock.h:329:16
	add	x22, x0, #1600                  // =1600
.Ltmp101:
	.loc	2 0 0 is_stmt 0                 // kernel/platform_source/basicplatform/block/mas_blk_busy_idle_notify.c:0:0
	mov	x20, x0
.Ltmp102:
	//DEBUG_VALUE: mas_blk_busyidle_check_bio:lld <- $x20
	//DEBUG_VALUE: mas_blk_busyidle_check_bio:lld <- $x20
	.loc	2 777 27 is_stmt 1              // kernel/platform_source/basicplatform/block/mas_blk_busy_idle_notify.c:777:27
	orr	w8, w8, #0x1
.Ltmp103:
	.loc	2 691 2                         // kernel/platform_source/basicplatform/block/mas_blk_busy_idle_notify.c:691:2
	mov	x0, x22
.Ltmp104:
	.loc	2 777 27                        // kernel/platform_source/basicplatform/block/mas_blk_busy_idle_notify.c:777:27
	strb	w8, [x21, #128]
	//DEBUG_VALUE: spinlock_check:lock <- [DW_OP_plus_uconst 1600, DW_OP_stack_value] $x20
.Ltmp105:
	//DEBUG_VALUE: mas_blk_add_bio_to_counted_list:bio <- $x21
	//DEBUG_VALUE: mas_blk_add_bio_to_counted_list:lld <- $x20
	.loc	2 691 2                         // kernel/platform_source/basicplatform/block/mas_blk_busy_idle_notify.c:691:2
	bl	_raw_spin_lock_irqsave
.Ltmp106:
	.loc	2 692 25                        // kernel/platform_source/basicplatform/block/mas_blk_busy_idle_notify.c:692:25
	ldr	x8, [x20, #1552]
.Ltmp107:
	.file	161 "/mnt/disk/jenkins/ci/workspace/chipset_pipeline_release/opensource/component_code/vendor/huawei/extra/build/build_script/kirin_kernel_release" "kernel/include/linux/list.h"
	.loc	161 100 24                      // kernel/include/linux/list.h:100:24
	ldr	x25, [x20, #1576]
.Ltmp108:
	//DEBUG_VALUE: __list_add:next <- undef
	.loc	2 693 22                        // kernel/platform_source/basicplatform/block/mas_blk_busy_idle_notify.c:693:22
	add	x24, x21, #288                  // =288
	.loc	2 693 47 is_stmt 0              // kernel/platform_source/basicplatform/block/mas_blk_busy_idle_notify.c:693:47
	add	x26, x20, #1568                 // =1568
.Ltmp109:
	//DEBUG_VALUE: list_add_tail:new <- $x24
	//DEBUG_VALUE: list_add_tail:head <- $x26
	//DEBUG_VALUE: __list_add:new <- $x24
	//DEBUG_VALUE: __list_add:prev <- $x25
	.loc	2 691 2 is_stmt 1               // kernel/platform_source/basicplatform/block/mas_blk_busy_idle_notify.c:691:2
	mov	x23, x0
.Ltmp110:
	//DEBUG_VALUE: mas_blk_add_bio_to_counted_list:flags <- $x23
	.loc	2 692 25                        // kernel/platform_source/basicplatform/block/mas_blk_busy_idle_notify.c:692:25
	add	x8, x8, #1                      // =1
.Ltmp111:
	.loc	161 67 7                        // kernel/include/linux/list.h:67:7
	mov	x0, x24
	mov	x1, x25
	mov	x2, x26
.Ltmp112:
	.loc	2 692 25                        // kernel/platform_source/basicplatform/block/mas_blk_busy_idle_notify.c:692:25
	str	x8, [x20, #1552]
.Ltmp113:
	.loc	161 67 7                        // kernel/include/linux/list.h:67:7
	bl	__list_add_valid
.Ltmp114:
	.loc	161 67 6 is_stmt 0              // kernel/include/linux/list.h:67:6
	tbz	w0, #0, .LBB5_3
.Ltmp115:
// %bb.2:
	//DEBUG_VALUE: list_add_tail:head <- $x26
	//DEBUG_VALUE: __list_add:prev <- $x25
	//DEBUG_VALUE: __list_add:new <- $x24
	//DEBUG_VALUE: list_add_tail:new <- $x24
	//DEBUG_VALUE: mas_blk_add_bio_to_counted_list:flags <- $x23
	//DEBUG_VALUE: mas_blk_add_bio_to_counted_list:bio <- $x21
	//DEBUG_VALUE: mas_blk_busyidle_check_bio:bio <- $x21
	//DEBUG_VALUE: mas_blk_add_bio_to_counted_list:lld <- $x20
	//DEBUG_VALUE: mas_blk_busyidle_check_bio:lld <- $x20
	//DEBUG_VALUE: mas_blk_busyidle_check_bio:q <- $x19
	.loc	161 70 13 is_stmt 1             // kernel/include/linux/list.h:70:13
	str	x24, [x20, #1576]
	.loc	161 71 12                       // kernel/include/linux/list.h:71:12
	stp	x26, x25, [x21, #288]
.Ltmp116:
	.loc	161 73 2                        // kernel/include/linux/list.h:73:2
	str	x24, [x25]
.Ltmp117:
.LBB5_3:
	//DEBUG_VALUE: mas_blk_add_bio_to_counted_list:flags <- $x23
	//DEBUG_VALUE: mas_blk_add_bio_to_counted_list:bio <- $x21
	//DEBUG_VALUE: mas_blk_busyidle_check_bio:bio <- $x21
	//DEBUG_VALUE: mas_blk_add_bio_to_counted_list:lld <- $x20
	//DEBUG_VALUE: mas_blk_busyidle_check_bio:lld <- $x20
	//DEBUG_VALUE: mas_blk_busyidle_check_bio:q <- $x19
	//DEBUG_VALUE: spin_unlock_irqrestore:lock <- [DW_OP_plus_uconst 1600, DW_OP_stack_value] $x20
	//DEBUG_VALUE: spin_unlock_irqrestore:flags <- $x23
	.loc	160 409 2                       // kernel/include/linux/spinlock.h:409:2
	mov	x0, x22
	mov	x1, x23
	bl	_raw_spin_unlock_irqrestore
.Ltmp118:
	//DEBUG_VALUE: blk_busy_count:blk_idle <- [DW_OP_plus_uconst 1088, DW_OP_stack_value] $x20
	//DEBUG_VALUE: blk_busy_count:lld <- $x20
	.loc	2 653 6                         // kernel/platform_source/basicplatform/block/mas_blk_busy_idle_notify.c:653:6
	ldr	x8, [x20, #24]
.Ltmp119:
	.loc	2 653 6 is_stmt 0               // kernel/platform_source/basicplatform/block/mas_blk_busy_idle_notify.c:653:6
	tbz	w8, #3, .LBB5_6
.Ltmp120:
// %bb.4:
	//DEBUG_VALUE: mas_blk_busyidle_check_bio:bio <- $x21
	//DEBUG_VALUE: blk_busy_count:lld <- $x20
	//DEBUG_VALUE: blk_busy_count:blk_idle <- [DW_OP_plus_uconst 1088, DW_OP_stack_value] $x20
	//DEBUG_VALUE: mas_blk_busyidle_check_bio:lld <- $x20
	//DEBUG_VALUE: mas_blk_busyidle_check_bio:q <- $x19
	//DEBUG_VALUE: atomic_read:v <- [DW_OP_plus_uconst 1296, DW_OP_stack_value] $x20
	.loc	159 28 9 is_stmt 1              // kernel/include/asm-generic/atomic-instrumented.h:28:9
	ldr	w8, [x20, #1296]
.Ltmp121:
	.loc	2 656 6                         // kernel/platform_source/basicplatform/block/mas_blk_busy_idle_notify.c:656:6
	cbz	w8, .LBB5_13
.Ltmp122:
.LBB5_5:
	//DEBUG_VALUE: mas_blk_busyidle_check_bio:bio <- $x21
	//DEBUG_VALUE: blk_busy_count:lld <- $x20
	//DEBUG_VALUE: blk_busy_count:blk_idle <- [DW_OP_plus_uconst 1088, DW_OP_stack_value] $x20
	//DEBUG_VALUE: mas_blk_busyidle_check_bio:lld <- $x20
	//DEBUG_VALUE: mas_blk_busyidle_check_bio:q <- $x19
	//DEBUG_VALUE: atomic_inc:v <- [DW_OP_plus_uconst 1296, DW_OP_stack_value] $x20
	//DEBUG_VALUE: arch_atomic_inc:v <- [DW_OP_plus_uconst 1296, DW_OP_stack_value] $x20
	//DEBUG_VALUE: arch_atomic_add:i <- 1
	//DEBUG_VALUE: arch_atomic_add:v <- [DW_OP_plus_uconst 1296, DW_OP_stack_value] $x20
	//DEBUG_VALUE: __ll_sc_atomic_add:i <- 1
	//DEBUG_VALUE: __ll_sc_atomic_add:v <- [DW_OP_plus_uconst 1296, DW_OP_stack_value] $x20
	//DEBUG_LABEL: blk_busy_count:inc_iocount
	.file	162 "/mnt/disk/jenkins/ci/workspace/chipset_pipeline_release/opensource/component_code/vendor/huawei/extra/build/build_script/kirin_kernel_release" "kernel/arch/arm64/include/asm/atomic_ll_sc.h"
	.loc	162 111 1                       // kernel/arch/arm64/include/asm/atomic_ll_sc.h:111:1
	add	x8, x20, #1296                  // =1296
	//APP
	// atomic_add
	prfm	pstl1strm, [x8]
.Ltmp123:
	ldxr	w9, [x8]
	add	w9, w9, #1                      // =1
	stxr	w10, w9, [x8]
	cbnz	w10, .Ltmp123

	//NO_APP
.Ltmp124:
	//DEBUG_VALUE: __ll_sc_atomic_add:tmp <- undef
	//DEBUG_VALUE: __ll_sc_atomic_add:result <- undef
	.loc	2 748 12                        // kernel/platform_source/basicplatform/block/mas_blk_busy_idle_notify.c:748:12
	ldr	x8, [x20, #24]
.Ltmp125:
.LBB5_6:
	//DEBUG_VALUE: mas_blk_busyidle_check_bio:bio <- $x21
	//DEBUG_VALUE: mas_blk_busyidle_check_bio:lld <- $x20
	//DEBUG_VALUE: mas_blk_busyidle_check_bio:q <- $x19
	//DEBUG_VALUE: mas_blk_fg_io_check_busy:q <- $x19
	//DEBUG_VALUE: mas_blk_fg_io_check_busy:bio <- $x21
	//DEBUG_VALUE: mas_blk_fg_io_check_busy:lld <- $x20
	.loc	2 748 48 is_stmt 0              // kernel/platform_source/basicplatform/block/mas_blk_busy_idle_notify.c:748:48
	tbz	w8, #8, .LBB5_12
.Ltmp126:
// %bb.7:
	//DEBUG_VALUE: mas_blk_fg_io_check_busy:bio <- $x21
	//DEBUG_VALUE: mas_blk_busyidle_check_bio:bio <- $x21
	//DEBUG_VALUE: mas_blk_fg_io_check_busy:lld <- $x20
	//DEBUG_VALUE: mas_blk_busyidle_check_bio:lld <- $x20
	//DEBUG_VALUE: mas_blk_fg_io_check_busy:q <- $x19
	//DEBUG_VALUE: mas_blk_busyidle_check_bio:q <- $x19
	.loc	2 748 64                        // kernel/platform_source/basicplatform/block/mas_blk_busy_idle_notify.c:748:64
	ldrb	w8, [x21, #282]
	.loc	2 748 70                        // kernel/platform_source/basicplatform/block/mas_blk_busy_idle_notify.c:748:70
	cbz	w8, .LBB5_12
.Ltmp127:
// %bb.8:
	//DEBUG_VALUE: mas_blk_fg_io_check_busy:bio <- $x21
	//DEBUG_VALUE: mas_blk_busyidle_check_bio:bio <- $x21
	//DEBUG_VALUE: mas_blk_fg_io_check_busy:lld <- $x20
	//DEBUG_VALUE: mas_blk_busyidle_check_bio:lld <- $x20
	//DEBUG_VALUE: mas_blk_fg_io_check_busy:q <- $x19
	//DEBUG_VALUE: mas_blk_busyidle_check_bio:q <- $x19
	.loc	2 749 20 is_stmt 1              // kernel/platform_source/basicplatform/block/mas_blk_busy_idle_notify.c:749:20
	ldrb	w8, [x21, #128]
.Ltmp128:
	.loc	2 748 6                         // kernel/platform_source/basicplatform/block/mas_blk_busy_idle_notify.c:748:6
	tbnz	w8, #5, .LBB5_12
.Ltmp129:
// %bb.9:
	//DEBUG_VALUE: mas_blk_fg_io_check_busy:bio <- $x21
	//DEBUG_VALUE: mas_blk_busyidle_check_bio:bio <- $x21
	//DEBUG_VALUE: mas_blk_fg_io_check_busy:lld <- $x20
	//DEBUG_VALUE: mas_blk_busyidle_check_bio:lld <- $x20
	//DEBUG_VALUE: mas_blk_fg_io_check_busy:q <- $x19
	//DEBUG_VALUE: mas_blk_busyidle_check_bio:q <- $x19
	.loc	2 750 28                        // kernel/platform_source/basicplatform/block/mas_blk_busy_idle_notify.c:750:28
	orr	w8, w8, #0x20
	strb	w8, [x21, #128]
.Ltmp130:
	//DEBUG_VALUE: blk_fg_io_busy_count:blk_idle <- [DW_OP_plus_uconst 1088, DW_OP_stack_value] $x20
	//DEBUG_VALUE: blk_fg_io_busy_count:lld <- $x20
	//DEBUG_VALUE: blk_fg_io_busy_count:q <- $x19
	.loc	2 406 6                         // kernel/platform_source/basicplatform/block/mas_blk_busy_idle_notify.c:406:6
	ldr	w8, [x20, #24]
	mov	w9, #264
	mvn	w8, w8
.Ltmp131:
	.loc	2 406 6 is_stmt 0               // kernel/platform_source/basicplatform/block/mas_blk_busy_idle_notify.c:406:6
	tst	x8, x9
	b.ne	.LBB5_12
.Ltmp132:
// %bb.10:
	//DEBUG_VALUE: mas_blk_fg_io_check_busy:bio <- $x21
	//DEBUG_VALUE: mas_blk_busyidle_check_bio:bio <- $x21
	//DEBUG_VALUE: blk_fg_io_busy_count:lld <- $x20
	//DEBUG_VALUE: blk_fg_io_busy_count:blk_idle <- [DW_OP_plus_uconst 1088, DW_OP_stack_value] $x20
	//DEBUG_VALUE: mas_blk_fg_io_check_busy:lld <- $x20
	//DEBUG_VALUE: mas_blk_busyidle_check_bio:lld <- $x20
	//DEBUG_VALUE: blk_fg_io_busy_count:q <- $x19
	//DEBUG_VALUE: mas_blk_fg_io_check_busy:q <- $x19
	//DEBUG_VALUE: mas_blk_busyidle_check_bio:q <- $x19
	//DEBUG_VALUE: atomic_read:v <- [DW_OP_plus_uconst 1476, DW_OP_stack_value] $x20
	.loc	159 28 9 is_stmt 1              // kernel/include/asm-generic/atomic-instrumented.h:28:9
	ldr	w8, [x20, #1476]
	add	x22, x20, #1476                 // =1476
.Ltmp133:
	.loc	2 412 6                         // kernel/platform_source/basicplatform/block/mas_blk_busy_idle_notify.c:412:6
	cbz	w8, .LBB5_16
.Ltmp134:
.LBB5_11:
	//DEBUG_VALUE: blk_fg_io_busy_count:lld <- $x20
	//DEBUG_VALUE: blk_fg_io_busy_count:blk_idle <- [DW_OP_plus_uconst 1088, DW_OP_stack_value] $x20
	//DEBUG_VALUE: mas_blk_fg_io_check_busy:lld <- $x20
	//DEBUG_VALUE: mas_blk_busyidle_check_bio:lld <- $x20
	//DEBUG_VALUE: blk_fg_io_busy_count:q <- $x19
	//DEBUG_VALUE: mas_blk_fg_io_check_busy:q <- $x19
	//DEBUG_VALUE: mas_blk_busyidle_check_bio:q <- $x19
	//DEBUG_VALUE: atomic_inc:v <- [DW_OP_plus_uconst 1476, DW_OP_stack_value] undef
	//DEBUG_VALUE: arch_atomic_inc:v <- [DW_OP_plus_uconst 1476, DW_OP_stack_value] undef
	//DEBUG_VALUE: arch_atomic_add:i <- 1
	//DEBUG_VALUE: arch_atomic_add:v <- [DW_OP_plus_uconst 1476, DW_OP_stack_value] undef
	//DEBUG_VALUE: __ll_sc_atomic_add:i <- 1
	//DEBUG_VALUE: __ll_sc_atomic_add:v <- [DW_OP_plus_uconst 1476, DW_OP_stack_value] undef
	//DEBUG_LABEL: blk_fg_io_busy_count:inc_fg_iocount
	.loc	162 111 1                       // kernel/arch/arm64/include/asm/atomic_ll_sc.h:111:1
	//APP
	// atomic_add
	prfm	pstl1strm, [x22]
.Ltmp135:
	ldxr	w8, [x22]
	add	w8, w8, #1                      // =1
	stxr	w9, w8, [x22]
	cbnz	w9, .Ltmp135

	//NO_APP
.Ltmp136:
	//DEBUG_VALUE: __ll_sc_atomic_add:tmp <- undef
	//DEBUG_VALUE: __ll_sc_atomic_add:result <- undef
.LBB5_12:
	//DEBUG_VALUE: mas_blk_busyidle_check_bio:q <- $x19
	.loc	2 783 1                         // kernel/platform_source/basicplatform/block/mas_blk_busy_idle_notify.c:783:1
	ldp	x20, x19, [sp, #64]             // 16-byte Folded Reload
.Ltmp137:
	ldp	x22, x21, [sp, #48]             // 16-byte Folded Reload
	ldp	x24, x23, [sp, #32]             // 16-byte Folded Reload
	ldp	x26, x25, [sp, #16]             // 16-byte Folded Reload
	ldp	x29, x30, [sp], #80             // 16-byte Folded Reload
	ret
.LBB5_13:
.Ltmp138:
	//DEBUG_VALUE: mas_blk_busyidle_check_bio:bio <- $x21
	//DEBUG_VALUE: blk_busy_count:lld <- $x20
	//DEBUG_VALUE: blk_busy_count:blk_idle <- [DW_OP_plus_uconst 1088, DW_OP_stack_value] $x20
	//DEBUG_VALUE: mas_blk_busyidle_check_bio:lld <- $x20
	//DEBUG_VALUE: mas_blk_busyidle_check_bio:q <- $x19
	.loc	2 664 24                        // kernel/platform_source/basicplatform/block/mas_blk_busy_idle_notify.c:664:24
	add	x22, x20, #1304                 // =1304
	.loc	2 664 2 is_stmt 0               // kernel/platform_source/basicplatform/block/mas_blk_busy_idle_notify.c:664:2
	mov	x0, x22
	bl	mutex_lock
.Ltmp139:
	.loc	2 665 33 is_stmt 1              // kernel/platform_source/basicplatform/block/mas_blk_busy_idle_notify.c:665:33
	add	x0, x20, #1096                  // =1096
	.loc	2 665 2 is_stmt 0               // kernel/platform_source/basicplatform/block/mas_blk_busy_idle_notify.c:665:2
	bl	cancel_delayed_work
.Ltmp140:
	.loc	2 671 16 is_stmt 1              // kernel/platform_source/basicplatform/block/mas_blk_busy_idle_notify.c:671:16
	ldr	w8, [x20, #1368]
.Ltmp141:
	.loc	2 671 6 is_stmt 0               // kernel/platform_source/basicplatform/block/mas_blk_busy_idle_notify.c:671:6
	cmp	w8, #1                          // =1
	b.ne	.LBB5_15
.Ltmp142:
// %bb.14:
	//DEBUG_VALUE: mas_blk_busyidle_check_bio:bio <- $x21
	//DEBUG_VALUE: blk_busy_count:lld <- $x20
	//DEBUG_VALUE: blk_busy_count:blk_idle <- [DW_OP_plus_uconst 1088, DW_OP_stack_value] $x20
	//DEBUG_VALUE: mas_blk_busyidle_check_bio:lld <- $x20
	//DEBUG_VALUE: mas_blk_busyidle_check_bio:q <- $x19
	//DEBUG_VALUE: blk_idle_to_busy:blk_idle <- [DW_OP_plus_uconst 1088, DW_OP_stack_value] $x20
	.loc	2 641 42 is_stmt 1              // kernel/platform_source/basicplatform/block/mas_blk_busy_idle_notify.c:641:42
	add	x0, x20, #1216                  // =1216
	.loc	2 641 2 is_stmt 0               // kernel/platform_source/basicplatform/block/mas_blk_busy_idle_notify.c:641:2
	mov	x1, xzr
	mov	x2, xzr
	.loc	2 630 23 is_stmt 1              // kernel/platform_source/basicplatform/block/mas_blk_busy_idle_notify.c:630:23
	str	wzr, [x20, #1368]
	.loc	2 641 2                         // kernel/platform_source/basicplatform/block/mas_blk_busy_idle_notify.c:641:2
	bl	blocking_notifier_call_chain
.Ltmp143:
.LBB5_15:
	//DEBUG_VALUE: mas_blk_busyidle_check_bio:bio <- $x21
	//DEBUG_VALUE: blk_busy_count:lld <- $x20
	//DEBUG_VALUE: blk_busy_count:blk_idle <- [DW_OP_plus_uconst 1088, DW_OP_stack_value] $x20
	//DEBUG_VALUE: mas_blk_busyidle_check_bio:lld <- $x20
	//DEBUG_VALUE: mas_blk_busyidle_check_bio:q <- $x19
	.loc	2 680 2                         // kernel/platform_source/basicplatform/block/mas_blk_busy_idle_notify.c:680:2
	mov	x0, x22
	bl	mutex_unlock
.Ltmp144:
	.loc	2 0 2 is_stmt 0                 // kernel/platform_source/basicplatform/block/mas_blk_busy_idle_notify.c:0:2
	b	.LBB5_5
.Ltmp145:
.LBB5_16:
	//DEBUG_VALUE: mas_blk_fg_io_check_busy:bio <- $x21
	//DEBUG_VALUE: mas_blk_busyidle_check_bio:bio <- $x21
	//DEBUG_VALUE: blk_fg_io_busy_count:lld <- $x20
	//DEBUG_VALUE: blk_fg_io_busy_count:blk_idle <- [DW_OP_plus_uconst 1088, DW_OP_stack_value] $x20
	//DEBUG_VALUE: mas_blk_fg_io_check_busy:lld <- $x20
	//DEBUG_VALUE: mas_blk_busyidle_check_bio:lld <- $x20
	//DEBUG_VALUE: blk_fg_io_busy_count:q <- $x19
	//DEBUG_VALUE: mas_blk_fg_io_check_busy:q <- $x19
	//DEBUG_VALUE: mas_blk_busyidle_check_bio:q <- $x19
	.loc	2 419 24 is_stmt 1              // kernel/platform_source/basicplatform/block/mas_blk_busy_idle_notify.c:419:24
	add	x21, x20, #1480                 // =1480
.Ltmp146:
	.loc	2 419 2 is_stmt 0               // kernel/platform_source/basicplatform/block/mas_blk_busy_idle_notify.c:419:2
	mov	x0, x21
	bl	mutex_lock
.Ltmp147:
	.loc	2 420 33 is_stmt 1              // kernel/platform_source/basicplatform/block/mas_blk_busy_idle_notify.c:420:33
	add	x0, x20, #1376                  // =1376
	.loc	2 420 2 is_stmt 0               // kernel/platform_source/basicplatform/block/mas_blk_busy_idle_notify.c:420:2
	bl	cancel_delayed_work
.Ltmp148:
	.loc	2 421 16 is_stmt 1              // kernel/platform_source/basicplatform/block/mas_blk_busy_idle_notify.c:421:16
	ldr	w8, [x20, #1544]
.Ltmp149:
	.loc	2 421 6 is_stmt 0               // kernel/platform_source/basicplatform/block/mas_blk_busy_idle_notify.c:421:6
	cmp	w8, #1                          // =1
	b.ne	.LBB5_18
.Ltmp150:
// %bb.17:
	//DEBUG_VALUE: blk_fg_io_busy_count:lld <- $x20
	//DEBUG_VALUE: blk_fg_io_busy_count:blk_idle <- [DW_OP_plus_uconst 1088, DW_OP_stack_value] $x20
	//DEBUG_VALUE: mas_blk_fg_io_check_busy:lld <- $x20
	//DEBUG_VALUE: mas_blk_busyidle_check_bio:lld <- $x20
	//DEBUG_VALUE: blk_fg_io_busy_count:q <- $x19
	//DEBUG_VALUE: mas_blk_fg_io_check_busy:q <- $x19
	//DEBUG_VALUE: mas_blk_busyidle_check_bio:q <- $x19
	.loc	2 424 15 is_stmt 1              // kernel/platform_source/basicplatform/block/mas_blk_busy_idle_notify.c:424:15
	add	x0, x20, #1216                  // =1216
	.loc	2 423 3                         // kernel/platform_source/basicplatform/block/mas_blk_busy_idle_notify.c:423:3
	mov	w1, #2
	mov	x2, x19
	.loc	2 422 30                        // kernel/platform_source/basicplatform/block/mas_blk_busy_idle_notify.c:422:30
	str	wzr, [x20, #1544]
	.loc	2 423 3                         // kernel/platform_source/basicplatform/block/mas_blk_busy_idle_notify.c:423:3
	bl	blocking_notifier_call_chain
.Ltmp151:
.LBB5_18:
	//DEBUG_VALUE: blk_fg_io_busy_count:lld <- $x20
	//DEBUG_VALUE: blk_fg_io_busy_count:blk_idle <- [DW_OP_plus_uconst 1088, DW_OP_stack_value] $x20
	//DEBUG_VALUE: mas_blk_fg_io_check_busy:lld <- $x20
	//DEBUG_VALUE: mas_blk_busyidle_check_bio:lld <- $x20
	//DEBUG_VALUE: blk_fg_io_busy_count:q <- $x19
	//DEBUG_VALUE: mas_blk_fg_io_check_busy:q <- $x19
	//DEBUG_VALUE: mas_blk_busyidle_check_bio:q <- $x19
	.loc	2 432 2                         // kernel/platform_source/basicplatform/block/mas_blk_busy_idle_notify.c:432:2
	mov	x0, x21
	bl	mutex_unlock
.Ltmp152:
	.loc	2 0 2 is_stmt 0                 // kernel/platform_source/basicplatform/block/mas_blk_busy_idle_notify.c:0:2
	b	.LBB5_11
.Ltmp153:
.Lfunc_end5:
	.size	mas_blk_busyidle_check_bio, .Lfunc_end5-mas_blk_busyidle_check_bio
	.cfi_endproc
	.file	163 "/mnt/disk/jenkins/ci/workspace/chipset_pipeline_release/opensource/component_code/vendor/huawei/extra/build/build_script/kirin_kernel_release" "kernel/arch/arm64/include/asm/atomic.h"
	.file	164 "/mnt/disk/jenkins/ci/workspace/chipset_pipeline_release/opensource/component_code/vendor/huawei/extra/build/build_script/kirin_kernel_release" "kernel/include/linux/atomic-arch-fallback.h"
	.file	165 "/mnt/disk/jenkins/ci/workspace/chipset_pipeline_release/opensource/component_code/vendor/huawei/extra/build/build_script/kirin_kernel_release" "kernel/include/linux/spinlock_api_smp.h"
                                        // -- End function
	.globl	mas_blk_busyidle_check_request_bio // -- Begin function mas_blk_busyidle_check_request_bio
	.p2align	2
	.type	mas_blk_busyidle_check_request_bio,@function
mas_blk_busyidle_check_request_bio:     // @mas_blk_busyidle_check_request_bio
.Lfunc_begin6:
	.loc	2 790 0 is_stmt 1               // kernel/platform_source/basicplatform/block/mas_blk_busy_idle_notify.c:790:0
	.cfi_startproc
// %bb.0:
	//DEBUG_VALUE: mas_blk_busyidle_check_request_bio:q <- $x0
	//DEBUG_VALUE: mas_blk_busyidle_check_request_bio:rq <- $x1
	//DEBUG_VALUE: mas_blk_busyidle_check_request_bio:rq <- $x1
	stp	x29, x30, [sp, #-48]!           // 16-byte Folded Spill
	str	x21, [sp, #16]                  // 8-byte Folded Spill
	stp	x20, x19, [sp, #32]             // 16-byte Folded Spill
	mov	x29, sp
	.cfi_def_cfa w29, 48
	.cfi_offset w19, -8
	.cfi_offset w20, -16
	.cfi_offset w21, -32
	.cfi_offset w30, -40
	.cfi_offset w29, -48
.Ltmp154:
	.loc	2 791 24 prologue_end           // kernel/platform_source/basicplatform/block/mas_blk_busy_idle_notify.c:791:24
	ldr	x21, [x1, #56]
.Ltmp155:
	//DEBUG_VALUE: mas_blk_busyidle_check_request_bio:bio <- $x21
	//DEBUG_VALUE: mas_blk_busyidle_check_request_bio:q <- $x0
	.loc	2 793 6                         // kernel/platform_source/basicplatform/block/mas_blk_busy_idle_notify.c:793:6
	cbz	x21, .LBB6_3
.Ltmp156:
// %bb.1:
	//DEBUG_VALUE: mas_blk_busyidle_check_request_bio:bio <- $x21
	//DEBUG_VALUE: mas_blk_busyidle_check_request_bio:rq <- $x1
	//DEBUG_VALUE: mas_blk_busyidle_check_request_bio:q <- $x0
	.loc	2 0 6 is_stmt 0                 // kernel/platform_source/basicplatform/block/mas_blk_busy_idle_notify.c:0:6
	mov	x19, x0
.Ltmp157:
	//DEBUG_VALUE: mas_blk_busyidle_check_request_bio:q <- $x19
	//DEBUG_VALUE: mas_blk_busyidle_check_request_bio:q <- $x19
	mov	x20, x21
.Ltmp158:
.LBB6_2:                                // =>This Inner Loop Header: Depth=1
	//DEBUG_VALUE: mas_blk_busyidle_check_request_bio:q <- $x19
	//DEBUG_VALUE: mas_blk_busyidle_check_request_bio:bio <- $x20
	.loc	2 795 4 is_stmt 1               // kernel/platform_source/basicplatform/block/mas_blk_busy_idle_notify.c:795:4
	mov	x0, x19
	mov	x1, x20
.Ltmp159:
	//DEBUG_VALUE: mas_blk_busyidle_check_request_bio:rq <- [DW_OP_LLVM_entry_value 1] $x1
	bl	mas_blk_busyidle_check_bio
.Ltmp160:
	.loc	2 796 15                        // kernel/platform_source/basicplatform/block/mas_blk_busy_idle_notify.c:796:15
	ldr	x20, [x20]
.Ltmp161:
	//DEBUG_VALUE: mas_blk_busyidle_check_request_bio:bio <- $x20
	.loc	2 797 3                         // kernel/platform_source/basicplatform/block/mas_blk_busy_idle_notify.c:797:3
	cbnz	x20, .LBB6_2
.Ltmp162:
.LBB6_3:
	.loc	2 793 6                         // kernel/platform_source/basicplatform/block/mas_blk_busy_idle_notify.c:793:6
	cmp	x21, #0                         // =0
.Ltmp163:
	.loc	2 801 1                         // kernel/platform_source/basicplatform/block/mas_blk_busy_idle_notify.c:801:1
	ldp	x20, x19, [sp, #32]             // 16-byte Folded Reload
	ldr	x21, [sp, #16]                  // 8-byte Folded Reload
.Ltmp164:
	.loc	2 793 6                         // kernel/platform_source/basicplatform/block/mas_blk_busy_idle_notify.c:793:6
	cset	w0, ne
.Ltmp165:
	.loc	2 801 1                         // kernel/platform_source/basicplatform/block/mas_blk_busy_idle_notify.c:801:1
	ldp	x29, x30, [sp], #48             // 16-byte Folded Reload
	ret
.Ltmp166:
.Lfunc_end6:
	.size	mas_blk_busyidle_check_request_bio, .Lfunc_end6-mas_blk_busyidle_check_request_bio
	.cfi_endproc
                                        // -- End function
	.globl	mas_blk_busyidle_end_rq         // -- Begin function mas_blk_busyidle_end_rq
	.p2align	2
	.type	mas_blk_busyidle_end_rq,@function
mas_blk_busyidle_end_rq:                // @mas_blk_busyidle_end_rq
.Lfunc_begin7:
	.loc	2 804 0                         // kernel/platform_source/basicplatform/block/mas_blk_busy_idle_notify.c:804:0
	.cfi_startproc
// %bb.0:
	//DEBUG_VALUE: mas_blk_busyidle_end_rq:rq <- $x0
	//DEBUG_VALUE: mas_blk_busyidle_end_rq:error <- $w1
	stp	x29, x30, [sp, #-64]!           // 16-byte Folded Spill
	stp	x24, x23, [sp, #16]             // 16-byte Folded Spill
	stp	x22, x21, [sp, #32]             // 16-byte Folded Spill
	stp	x20, x19, [sp, #48]             // 16-byte Folded Spill
	mov	x29, sp
	.cfi_def_cfa w29, 64
	.cfi_offset w19, -8
	.cfi_offset w20, -16
	.cfi_offset w21, -24
	.cfi_offset w22, -32
	.cfi_offset w23, -40
	.cfi_offset w24, -48
	.cfi_offset w30, -56
	.cfi_offset w29, -64
	mov	x19, x0
.Ltmp167:
	//DEBUG_VALUE: mas_blk_busyidle_end_rq:error <- undef
	//DEBUG_VALUE: mas_blk_busyidle_end_rq:rq <- $x19
	.loc	2 805 48 prologue_end           // kernel/platform_source/basicplatform/block/mas_blk_busy_idle_notify.c:805:48
	ldr	x0, [x0]
	mov	w20, w1
.Ltmp168:
	//DEBUG_VALUE: mas_blk_busyidle_end_rq:error <- $w20
	.loc	2 805 28 is_stmt 0              // kernel/platform_source/basicplatform/block/mas_blk_busy_idle_notify.c:805:28
	bl	mas_blk_get_lld
.Ltmp169:
	.loc	2 731 6 is_stmt 1               // kernel/platform_source/basicplatform/block/mas_blk_busy_idle_notify.c:731:6
	ldr	x8, [x0, #1560]
.Ltmp170:
	.loc	2 805 28                        // kernel/platform_source/basicplatform/block/mas_blk_busy_idle_notify.c:805:28
	mov	x21, x0
.Ltmp171:
	//DEBUG_VALUE: mas_blk_remove_rq_from_counted_list:lld <- $x21
	//DEBUG_VALUE: mas_blk_busyidle_end_rq:lld <- $x21
	//DEBUG_VALUE: mas_blk_remove_rq_from_counted_list:rq <- $x19
	.loc	2 731 6                         // kernel/platform_source/basicplatform/block/mas_blk_busy_idle_notify.c:731:6
	cbz	x8, .LBB7_4
.Ltmp172:
// %bb.1:
	//DEBUG_VALUE: mas_blk_busyidle_end_rq:lld <- $x21
	//DEBUG_VALUE: mas_blk_remove_rq_from_counted_list:lld <- $x21
	//DEBUG_VALUE: mas_blk_remove_rq_from_counted_list:rq <- $x19
	//DEBUG_VALUE: mas_blk_busyidle_end_rq:rq <- $x19
	//DEBUG_VALUE: mas_blk_busyidle_end_rq:error <- $w20
	//DEBUG_VALUE: spinlock_check:lock <- [DW_OP_plus_uconst 1600, DW_OP_stack_value] $x21
	.loc	160 329 16                      // kernel/include/linux/spinlock.h:329:16
	add	x22, x21, #1600                 // =1600
.Ltmp173:
	.loc	2 738 2                         // kernel/platform_source/basicplatform/block/mas_blk_busy_idle_notify.c:738:2
	mov	x0, x22
	bl	_raw_spin_lock_irqsave
.Ltmp174:
	.loc	2 739 25                        // kernel/platform_source/basicplatform/block/mas_blk_busy_idle_notify.c:739:25
	ldr	x8, [x21, #1560]
	.loc	2 740 21                        // kernel/platform_source/basicplatform/block/mas_blk_busy_idle_notify.c:740:21
	add	x24, x19, #648                  // =648
.Ltmp175:
	//DEBUG_VALUE: __list_del_entry:entry <- $x24
	//DEBUG_VALUE: list_del_init:entry <- $x24
	.loc	2 738 2                         // kernel/platform_source/basicplatform/block/mas_blk_busy_idle_notify.c:738:2
	mov	x23, x0
.Ltmp176:
	//DEBUG_VALUE: mas_blk_remove_rq_from_counted_list:flags <- $x23
	.loc	161 132 7                       // kernel/include/linux/list.h:132:7
	mov	x0, x24
.Ltmp177:
	.loc	2 739 25                        // kernel/platform_source/basicplatform/block/mas_blk_busy_idle_notify.c:739:25
	sub	x8, x8, #1                      // =1
	str	x8, [x21, #1560]
.Ltmp178:
	.loc	161 132 7                       // kernel/include/linux/list.h:132:7
	bl	__list_del_entry_valid
.Ltmp179:
	.loc	161 132 6 is_stmt 0             // kernel/include/linux/list.h:132:6
	tbz	w0, #0, .LBB7_3
.Ltmp180:
// %bb.2:
	//DEBUG_VALUE: list_del_init:entry <- $x24
	//DEBUG_VALUE: __list_del_entry:entry <- $x24
	//DEBUG_VALUE: mas_blk_remove_rq_from_counted_list:flags <- $x23
	//DEBUG_VALUE: mas_blk_busyidle_end_rq:lld <- $x21
	//DEBUG_VALUE: mas_blk_remove_rq_from_counted_list:lld <- $x21
	//DEBUG_VALUE: mas_blk_remove_rq_from_counted_list:rq <- $x19
	//DEBUG_VALUE: mas_blk_busyidle_end_rq:rq <- $x19
	//DEBUG_VALUE: mas_blk_busyidle_end_rq:error <- $w20
	.loc	161 135 20 is_stmt 1            // kernel/include/linux/list.h:135:20
	ldr	x8, [x19, #656]
	.loc	161 135 33 is_stmt 0            // kernel/include/linux/list.h:135:33
	ldr	x9, [x19, #648]
.Ltmp181:
	//DEBUG_VALUE: __list_del:prev <- $x8
	//DEBUG_VALUE: __list_del:next <- $x9
	.loc	161 112 13 is_stmt 1            // kernel/include/linux/list.h:112:13
	str	x8, [x9, #8]
.Ltmp182:
	.loc	161 113 2                       // kernel/include/linux/list.h:113:2
	str	x9, [x8]
.Ltmp183:
.LBB7_3:
	//DEBUG_VALUE: list_del_init:entry <- $x24
	//DEBUG_VALUE: mas_blk_remove_rq_from_counted_list:flags <- $x23
	//DEBUG_VALUE: mas_blk_busyidle_end_rq:lld <- $x21
	//DEBUG_VALUE: mas_blk_remove_rq_from_counted_list:lld <- $x21
	//DEBUG_VALUE: mas_blk_remove_rq_from_counted_list:rq <- $x19
	//DEBUG_VALUE: mas_blk_busyidle_end_rq:rq <- $x19
	//DEBUG_VALUE: mas_blk_busyidle_end_rq:error <- $w20
	//DEBUG_VALUE: INIT_LIST_HEAD:list <- $x24
	.loc	160 409 2                       // kernel/include/linux/spinlock.h:409:2
	mov	x0, x22
	mov	x1, x23
.Ltmp184:
	.loc	161 35 2                        // kernel/include/linux/list.h:35:2
	str	x24, [x19, #648]
.Ltmp185:
	.loc	161 36 13                       // kernel/include/linux/list.h:36:13
	str	x24, [x19, #656]
.Ltmp186:
	//DEBUG_VALUE: spin_unlock_irqrestore:flags <- $x23
	//DEBUG_VALUE: spin_unlock_irqrestore:lock <- [DW_OP_plus_uconst 1600, DW_OP_stack_value] $x21
	.loc	160 409 2                       // kernel/include/linux/spinlock.h:409:2
	bl	_raw_spin_unlock_irqrestore
.Ltmp187:
.LBB7_4:
	//DEBUG_VALUE: mas_blk_busyidle_end_rq:lld <- $x21
	//DEBUG_VALUE: mas_blk_busyidle_end_rq:rq <- $x19
	//DEBUG_VALUE: mas_blk_busyidle_end_rq:error <- $w20
	//DEBUG_VALUE: mas_blk_busyidle_end_rq:error <- $w20
	.loc	2 808 2                         // kernel/platform_source/basicplatform/block/mas_blk_busy_idle_notify.c:808:2
	mov	x0, x21
	bl	blk_idle_count
.Ltmp188:
	.loc	2 810 18                        // kernel/platform_source/basicplatform/block/mas_blk_busy_idle_notify.c:810:18
	ldr	x8, [x19, #256]
.Ltmp189:
	.loc	2 810 6 is_stmt 0               // kernel/platform_source/basicplatform/block/mas_blk_busy_idle_notify.c:810:6
	cbz	x8, .LBB7_6
.Ltmp190:
// %bb.5:
	//DEBUG_VALUE: mas_blk_busyidle_end_rq:lld <- $x21
	//DEBUG_VALUE: mas_blk_busyidle_end_rq:rq <- $x19
	//DEBUG_VALUE: mas_blk_busyidle_end_rq:error <- $w20
	//DEBUG_VALUE: mas_blk_busyidle_end_rq:error <- $w20
	.loc	2 811 3 is_stmt 1               // kernel/platform_source/basicplatform/block/mas_blk_busy_idle_notify.c:811:3
	mov	x0, x19
	mov	w1, w20
	blr	x8
.Ltmp191:
.LBB7_6:
	//DEBUG_VALUE: mas_blk_busyidle_end_rq:lld <- $x21
	//DEBUG_VALUE: mas_blk_busyidle_end_rq:rq <- $x19
	//DEBUG_VALUE: mas_blk_busyidle_end_rq:error <- $w20
	.loc	2 812 1                         // kernel/platform_source/basicplatform/block/mas_blk_busy_idle_notify.c:812:1
	ldp	x20, x19, [sp, #48]             // 16-byte Folded Reload
.Ltmp192:
	ldp	x22, x21, [sp, #32]             // 16-byte Folded Reload
.Ltmp193:
	ldp	x24, x23, [sp, #16]             // 16-byte Folded Reload
	ldp	x29, x30, [sp], #64             // 16-byte Folded Reload
	ret
.Ltmp194:
.Lfunc_end7:
	.size	mas_blk_busyidle_end_rq, .Lfunc_end7-mas_blk_busyidle_end_rq
	.cfi_endproc
                                        // -- End function
	.p2align	2                               // -- Begin function blk_idle_count
	.type	blk_idle_count,@function
blk_idle_count:                         // @blk_idle_count
.Lfunc_begin8:
	.loc	2 608 0                         // kernel/platform_source/basicplatform/block/mas_blk_busy_idle_notify.c:608:0
	.cfi_startproc
// %bb.0:
	//DEBUG_VALUE: blk_idle_count:lld <- $x0
	//DEBUG_VALUE: blk_idle_count:lld <- $x0
	stp	x29, x30, [sp, #-32]!           // 16-byte Folded Spill
	stp	x20, x19, [sp, #16]             // 16-byte Folded Spill
	mov	x29, sp
	.cfi_def_cfa w29, 32
	.cfi_offset w19, -8
	.cfi_offset w20, -16
	.cfi_offset w30, -24
	.cfi_offset w29, -32
.Ltmp195:
	//DEBUG_VALUE: blk_idle_count:blk_idle <- [DW_OP_plus_uconst 1088, DW_OP_stack_value] $x0
	//DEBUG_VALUE: blk_idle_count:blk_idle <- [DW_OP_plus_uconst 1088, DW_OP_stack_value] $x0
	.loc	2 611 6 prologue_end            // kernel/platform_source/basicplatform/block/mas_blk_busy_idle_notify.c:611:6
	ldrb	w8, [x0, #24]
	tbz	w8, #3, .LBB8_4
.Ltmp196:
// %bb.1:
	//DEBUG_VALUE: blk_idle_count:blk_idle <- [DW_OP_plus_uconst 1088, DW_OP_stack_value] $x0
	//DEBUG_VALUE: blk_idle_count:lld <- $x0
	//DEBUG_VALUE: blk_idle_count:blk_idle <- [DW_OP_plus_uconst 1088, DW_OP_stack_value] $x0
	.loc	2 614 16                        // kernel/platform_source/basicplatform/block/mas_blk_busy_idle_notify.c:614:16
	ldrb	w8, [x0, #1088]
.Ltmp197:
	.loc	2 614 6 is_stmt 0               // kernel/platform_source/basicplatform/block/mas_blk_busy_idle_notify.c:614:6
	cbnz	w8, .LBB8_4
.Ltmp198:
// %bb.2:
	//DEBUG_VALUE: blk_idle_count:blk_idle <- [DW_OP_plus_uconst 1088, DW_OP_stack_value] $x0
	//DEBUG_VALUE: blk_idle_count:lld <- $x0
	//DEBUG_VALUE: atomic_read:v <- [DW_OP_plus_uconst 1296, DW_OP_stack_value] $x0
	.loc	159 28 9 is_stmt 1              // kernel/include/asm-generic/atomic-instrumented.h:28:9
	ldr	w8, [x0, #1296]
.Ltmp199:
	.loc	2 616 6                         // kernel/platform_source/basicplatform/block/mas_blk_busy_idle_notify.c:616:6
	cbz	w8, .LBB8_5
.Ltmp200:
// %bb.3:
	//DEBUG_VALUE: blk_idle_count:blk_idle <- [DW_OP_plus_uconst 1088, DW_OP_stack_value] $x0
	//DEBUG_VALUE: blk_idle_count:lld <- $x0
	//DEBUG_VALUE: atomic_dec_return:v <- [DW_OP_plus_uconst 1296, DW_OP_stack_value] $x0
	//DEBUG_VALUE: arch_atomic_dec_return:v <- [DW_OP_plus_uconst 1296, DW_OP_stack_value] $x0
	//DEBUG_VALUE: arch_atomic_sub_return:i <- 1
	//DEBUG_VALUE: arch_atomic_sub_return:v <- [DW_OP_plus_uconst 1296, DW_OP_stack_value] $x0
	//DEBUG_VALUE: __ll_sc_atomic_sub_return:i <- 1
	//DEBUG_VALUE: __ll_sc_atomic_sub_return:v <- [DW_OP_plus_uconst 1296, DW_OP_stack_value] $x0
	.loc	162 112 1                       // kernel/arch/arm64/include/asm/atomic_ll_sc.h:112:1
	add	x8, x0, #1296                   // =1296
	mov	w9, #1
	//APP
	// atomic_sub_return
	prfm	pstl1strm, [x8]
.Ltmp201:
	ldxr	w10, [x8]
	sub	w10, w10, w9
	stlxr	w11, w10, [x8]
	cbnz	w11, .Ltmp201
	dmb	ish
	//NO_APP
.Ltmp202:
	//DEBUG_VALUE: __ll_sc_atomic_sub_return:tmp <- undef
	//DEBUG_VALUE: __ll_sc_atomic_sub_return:result <- $w10
	.loc	2 624 6                         // kernel/platform_source/basicplatform/block/mas_blk_busy_idle_notify.c:624:6
	cbz	w10, .LBB8_6
.Ltmp203:
.LBB8_4:
	.loc	2 626 1                         // kernel/platform_source/basicplatform/block/mas_blk_busy_idle_notify.c:626:1
	ldp	x20, x19, [sp, #16]             // 16-byte Folded Reload
	ldp	x29, x30, [sp], #32             // 16-byte Folded Reload
	ret
.LBB8_5:
.Ltmp204:
	//DEBUG_VALUE: blk_idle_count:blk_idle <- [DW_OP_plus_uconst 1088, DW_OP_stack_value] $x0
	//DEBUG_VALUE: blk_idle_count:lld <- $x0
	.loc	2 617 3                         // kernel/platform_source/basicplatform/block/mas_blk_busy_idle_notify.c:617:3
	adrp	x0, .L.str.12
.Ltmp205:
	//DEBUG_VALUE: blk_idle_count:lld <- [DW_OP_LLVM_entry_value 1] $x0
	adrp	x1, .L__func__.blk_idle_count
	add	x0, x0, :lo12:.L.str.12
	add	x1, x1, :lo12:.L__func__.blk_idle_count
	bl	printk
.Ltmp206:
	.loc	2 0 3 is_stmt 0                 // kernel/platform_source/basicplatform/block/mas_blk_busy_idle_notify.c:0:3
	b	.LBB8_4
.Ltmp207:
.LBB8_6:
	//DEBUG_VALUE: blk_idle_count:blk_idle <- [DW_OP_plus_uconst 1088, DW_OP_stack_value] $x0
	//DEBUG_VALUE: blk_idle_count:lld <- $x0
	//DEBUG_VALUE: blk_lld_idle_notify:lld <- $x0
	.loc	2 456 6 is_stmt 1               // kernel/platform_source/basicplatform/block/mas_blk_busy_idle_notify.c:456:6
	ldr	w8, [x0]
.Ltmp208:
	.loc	2 456 6 is_stmt 0               // kernel/platform_source/basicplatform/block/mas_blk_busy_idle_notify.c:456:6
	cmp	w8, #122                        // =122
	b.ne	.LBB8_4
.Ltmp209:
// %bb.7:
	//DEBUG_VALUE: blk_lld_idle_notify:lld <- $x0
	//DEBUG_VALUE: blk_idle_count:blk_idle <- [DW_OP_plus_uconst 1088, DW_OP_stack_value] $x0
	//DEBUG_VALUE: blk_idle_count:lld <- $x0
	.loc	2 457 22 is_stmt 1              // kernel/platform_source/basicplatform/block/mas_blk_busy_idle_notify.c:457:22
	adrp	x8, blk_idle_notify_workqueue
	ldr	x19, [x8, :lo12:blk_idle_notify_workqueue]
	.loc	2 460 35                        // kernel/platform_source/basicplatform/block/mas_blk_busy_idle_notify.c:460:35
	ldr	w8, [x0, #1192]
	//DEBUG_VALUE: msecs_to_jiffies:m <- $w8
	.loc	2 459 6                         // kernel/platform_source/basicplatform/block/mas_blk_busy_idle_notify.c:459:6
	add	x20, x0, #1096                  // =1096
.Ltmp210:
	//DEBUG_VALUE: msecs_to_jiffies:m <- undef
	.loc	158 370 10                      // kernel/include/linux/jiffies.h:370:10
	mov	w0, w8
.Ltmp211:
	//DEBUG_VALUE: blk_idle_count:lld <- [DW_OP_LLVM_entry_value 1] $x0
	bl	__msecs_to_jiffies
.Ltmp212:
	mov	x3, x0
.Ltmp213:
	//DEBUG_VALUE: queue_delayed_work:dwork <- $x20
	//DEBUG_VALUE: queue_delayed_work:delay <- $x3
	//DEBUG_VALUE: queue_delayed_work:wq <- $x19
	.loc	21 528 9                        // kernel/include/linux/workqueue.h:528:9
	mov	w0, #8
	mov	x1, x19
	mov	x2, x20
	bl	queue_delayed_work_on
.Ltmp214:
	.loc	21 0 9 is_stmt 0                // kernel/include/linux/workqueue.h:0:9
	b	.LBB8_4
.Ltmp215:
.Lfunc_end8:
	.size	blk_idle_count, .Lfunc_end8-blk_idle_count
	.cfi_endproc
                                        // -- End function
	.globl	mas_blk_busyidle_check_execute_request // -- Begin function mas_blk_busyidle_check_execute_request
	.p2align	2
	.type	mas_blk_busyidle_check_execute_request,@function
mas_blk_busyidle_check_execute_request: // @mas_blk_busyidle_check_execute_request
.Lfunc_begin9:
	.loc	2 820 0 is_stmt 1               // kernel/platform_source/basicplatform/block/mas_blk_busy_idle_notify.c:820:0
	.cfi_startproc
// %bb.0:
	//DEBUG_VALUE: mas_blk_busyidle_check_execute_request:q <- $x0
	//DEBUG_VALUE: mas_blk_busyidle_check_execute_request:rq <- $x1
	//DEBUG_VALUE: mas_blk_busyidle_check_execute_request:done <- $x2
	//DEBUG_VALUE: mas_blk_busyidle_check_request_bio:q <- $x0
	//DEBUG_VALUE: mas_blk_busyidle_check_request_bio:rq <- $x1
	stp	x29, x30, [sp, #-80]!           // 16-byte Folded Spill
	stp	x26, x25, [sp, #16]             // 16-byte Folded Spill
	stp	x24, x23, [sp, #32]             // 16-byte Folded Spill
	stp	x22, x21, [sp, #48]             // 16-byte Folded Spill
	stp	x20, x19, [sp, #64]             // 16-byte Folded Spill
	mov	x29, sp
	.cfi_def_cfa w29, 80
	.cfi_offset w19, -8
	.cfi_offset w20, -16
	.cfi_offset w21, -24
	.cfi_offset w22, -32
	.cfi_offset w23, -40
	.cfi_offset w24, -48
	.cfi_offset w25, -56
	.cfi_offset w26, -64
	.cfi_offset w30, -72
	.cfi_offset w29, -80
.Ltmp216:
	.loc	2 791 24 prologue_end           // kernel/platform_source/basicplatform/block/mas_blk_busy_idle_notify.c:791:24
	ldr	x21, [x1, #56]
.Ltmp217:
	//DEBUG_VALUE: mas_blk_busyidle_check_request_bio:bio <- $x21
	//DEBUG_VALUE: mas_blk_busyidle_check_request_bio:q <- $x0
	//DEBUG_VALUE: mas_blk_busyidle_check_execute_request:q <- $x0
	.loc	2 0 24 is_stmt 0                // kernel/platform_source/basicplatform/block/mas_blk_busy_idle_notify.c:0:24
	mov	x19, x2
.Ltmp218:
	//DEBUG_VALUE: mas_blk_busyidle_check_execute_request:done <- $x19
	mov	x20, x1
.Ltmp219:
	//DEBUG_VALUE: mas_blk_busyidle_check_execute_request:rq <- $x20
	//DEBUG_VALUE: mas_blk_busyidle_check_request_bio:rq <- $x20
	//DEBUG_VALUE: mas_blk_busyidle_check_execute_request:done <- $x19
	//DEBUG_VALUE: mas_blk_busyidle_check_execute_request:rq <- $x20
	.loc	2 793 6 is_stmt 1               // kernel/platform_source/basicplatform/block/mas_blk_busy_idle_notify.c:793:6
	cbz	x21, .LBB9_4
.Ltmp220:
// %bb.1:
	//DEBUG_VALUE: mas_blk_busyidle_check_request_bio:bio <- $x21
	//DEBUG_VALUE: mas_blk_busyidle_check_request_bio:rq <- $x20
	//DEBUG_VALUE: mas_blk_busyidle_check_execute_request:rq <- $x20
	//DEBUG_VALUE: mas_blk_busyidle_check_execute_request:done <- $x19
	//DEBUG_VALUE: mas_blk_busyidle_check_request_bio:q <- $x0
	//DEBUG_VALUE: mas_blk_busyidle_check_execute_request:q <- $x0
	.loc	2 0 6 is_stmt 0                 // kernel/platform_source/basicplatform/block/mas_blk_busy_idle_notify.c:0:6
	mov	x22, x0
.Ltmp221:
	//DEBUG_VALUE: mas_blk_busyidle_check_execute_request:q <- $x22
	//DEBUG_VALUE: mas_blk_busyidle_check_execute_request:q <- $x22
	//DEBUG_VALUE: mas_blk_busyidle_check_request_bio:q <- $x22
.LBB9_2:                                // =>This Inner Loop Header: Depth=1
	//DEBUG_VALUE: mas_blk_busyidle_check_request_bio:q <- $x22
	//DEBUG_VALUE: mas_blk_busyidle_check_execute_request:q <- $x22
	//DEBUG_VALUE: mas_blk_busyidle_check_request_bio:bio <- $x21
	//DEBUG_VALUE: mas_blk_busyidle_check_request_bio:rq <- $x20
	//DEBUG_VALUE: mas_blk_busyidle_check_execute_request:rq <- $x20
	//DEBUG_VALUE: mas_blk_busyidle_check_execute_request:done <- $x19
	//DEBUG_VALUE: mas_blk_busyidle_check_request_bio:bio <- $x21
	.loc	2 795 4 is_stmt 1               // kernel/platform_source/basicplatform/block/mas_blk_busy_idle_notify.c:795:4
	mov	x0, x22
	mov	x1, x21
	bl	mas_blk_busyidle_check_bio
.Ltmp222:
	.loc	2 796 15                        // kernel/platform_source/basicplatform/block/mas_blk_busy_idle_notify.c:796:15
	ldr	x21, [x21]
.Ltmp223:
	//DEBUG_VALUE: mas_blk_busyidle_check_request_bio:bio <- $x21
	.loc	2 797 3                         // kernel/platform_source/basicplatform/block/mas_blk_busy_idle_notify.c:797:3
	cbnz	x21, .LBB9_2
.Ltmp224:
// %bb.3:
	//DEBUG_VALUE: mas_blk_busyidle_check_execute_request:q <- $x22
	//DEBUG_VALUE: mas_blk_busyidle_check_execute_request:rq <- $x20
	//DEBUG_VALUE: mas_blk_busyidle_check_execute_request:done <- $x19
	.loc	2 829 7                         // kernel/platform_source/basicplatform/block/mas_blk_busy_idle_notify.c:829:7
	add	x8, x20, #776                   // =776
	b	.LBB9_10
.Ltmp225:
.LBB9_4:
	//DEBUG_VALUE: mas_blk_busyidle_check_execute_request:rq <- $x20
	//DEBUG_VALUE: mas_blk_busyidle_check_execute_request:done <- $x19
	//DEBUG_VALUE: mas_blk_busyidle_check_execute_request:q <- $x0
	.loc	2 822 49                        // kernel/platform_source/basicplatform/block/mas_blk_busy_idle_notify.c:822:49
	ldr	x0, [x20]
.Ltmp226:
	//DEBUG_VALUE: mas_blk_busyidle_check_execute_request:q <- [DW_OP_LLVM_entry_value 1] $x0
	.loc	2 822 29 is_stmt 0              // kernel/platform_source/basicplatform/block/mas_blk_busy_idle_notify.c:822:29
	bl	mas_blk_get_lld
.Ltmp227:
	.loc	160 329 16 is_stmt 1            // kernel/include/linux/spinlock.h:329:16
	add	x22, x0, #1600                  // =1600
.Ltmp228:
	.loc	2 822 29                        // kernel/platform_source/basicplatform/block/mas_blk_busy_idle_notify.c:822:29
	mov	x21, x0
.Ltmp229:
	//DEBUG_VALUE: mas_blk_add_rq_to_counted_list:rq <- $x20
	//DEBUG_VALUE: spinlock_check:lock <- [DW_OP_plus_uconst 1600, DW_OP_stack_value] $x21
	//DEBUG_VALUE: mas_blk_add_rq_to_counted_list:lld <- $x21
	//DEBUG_VALUE: lld <- $x21
	.loc	2 720 2                         // kernel/platform_source/basicplatform/block/mas_blk_busy_idle_notify.c:720:2
	mov	x0, x22
	bl	_raw_spin_lock_irqsave
.Ltmp230:
	.loc	2 721 25                        // kernel/platform_source/basicplatform/block/mas_blk_busy_idle_notify.c:721:25
	ldr	x8, [x21, #1560]
.Ltmp231:
	.loc	161 100 24                      // kernel/include/linux/list.h:100:24
	ldr	x25, [x21, #1592]
.Ltmp232:
	//DEBUG_VALUE: __list_add:next <- undef
	.loc	2 722 21                        // kernel/platform_source/basicplatform/block/mas_blk_busy_idle_notify.c:722:21
	add	x24, x20, #648                  // =648
	.loc	2 722 46 is_stmt 0              // kernel/platform_source/basicplatform/block/mas_blk_busy_idle_notify.c:722:46
	add	x26, x21, #1584                 // =1584
.Ltmp233:
	//DEBUG_VALUE: list_add_tail:new <- $x24
	//DEBUG_VALUE: list_add_tail:head <- $x26
	//DEBUG_VALUE: __list_add:new <- $x24
	//DEBUG_VALUE: __list_add:prev <- $x25
	.loc	2 720 2 is_stmt 1               // kernel/platform_source/basicplatform/block/mas_blk_busy_idle_notify.c:720:2
	mov	x23, x0
.Ltmp234:
	//DEBUG_VALUE: mas_blk_add_rq_to_counted_list:flags <- $x23
	.loc	2 721 25                        // kernel/platform_source/basicplatform/block/mas_blk_busy_idle_notify.c:721:25
	add	x8, x8, #1                      // =1
.Ltmp235:
	.loc	161 67 7                        // kernel/include/linux/list.h:67:7
	mov	x0, x24
	mov	x1, x25
	mov	x2, x26
.Ltmp236:
	.loc	2 721 25                        // kernel/platform_source/basicplatform/block/mas_blk_busy_idle_notify.c:721:25
	str	x8, [x21, #1560]
.Ltmp237:
	.loc	161 67 7                        // kernel/include/linux/list.h:67:7
	bl	__list_add_valid
.Ltmp238:
	.loc	161 67 6 is_stmt 0              // kernel/include/linux/list.h:67:6
	tbz	w0, #0, .LBB9_6
.Ltmp239:
// %bb.5:
	//DEBUG_VALUE: list_add_tail:head <- $x26
	//DEBUG_VALUE: __list_add:prev <- $x25
	//DEBUG_VALUE: __list_add:new <- $x24
	//DEBUG_VALUE: list_add_tail:new <- $x24
	//DEBUG_VALUE: mas_blk_add_rq_to_counted_list:flags <- $x23
	//DEBUG_VALUE: lld <- $x21
	//DEBUG_VALUE: mas_blk_add_rq_to_counted_list:lld <- $x21
	//DEBUG_VALUE: mas_blk_add_rq_to_counted_list:rq <- $x20
	//DEBUG_VALUE: mas_blk_busyidle_check_execute_request:rq <- $x20
	//DEBUG_VALUE: mas_blk_busyidle_check_execute_request:done <- $x19
	//DEBUG_VALUE: mas_blk_busyidle_check_execute_request:q <- [DW_OP_LLVM_entry_value 1] $x0
	.loc	161 70 13 is_stmt 1             // kernel/include/linux/list.h:70:13
	str	x24, [x21, #1592]
	.loc	161 71 12                       // kernel/include/linux/list.h:71:12
	str	x26, [x20, #648]
	.loc	161 72 12                       // kernel/include/linux/list.h:72:12
	str	x25, [x20, #656]
.Ltmp240:
	.loc	161 73 2                        // kernel/include/linux/list.h:73:2
	str	x24, [x25]
.Ltmp241:
.LBB9_6:
	//DEBUG_VALUE: mas_blk_add_rq_to_counted_list:flags <- $x23
	//DEBUG_VALUE: lld <- $x21
	//DEBUG_VALUE: mas_blk_add_rq_to_counted_list:lld <- $x21
	//DEBUG_VALUE: mas_blk_add_rq_to_counted_list:rq <- $x20
	//DEBUG_VALUE: mas_blk_busyidle_check_execute_request:rq <- $x20
	//DEBUG_VALUE: mas_blk_busyidle_check_execute_request:done <- $x19
	//DEBUG_VALUE: mas_blk_busyidle_check_execute_request:q <- [DW_OP_LLVM_entry_value 1] $x0
	//DEBUG_VALUE: spin_unlock_irqrestore:lock <- [DW_OP_plus_uconst 1600, DW_OP_stack_value] $x21
	//DEBUG_VALUE: spin_unlock_irqrestore:flags <- $x23
	.loc	160 409 2                       // kernel/include/linux/spinlock.h:409:2
	mov	x0, x22
	mov	x1, x23
	bl	_raw_spin_unlock_irqrestore
.Ltmp242:
	//DEBUG_VALUE: blk_busy_count:blk_idle <- [DW_OP_plus_uconst 1088, DW_OP_stack_value] $x21
	//DEBUG_VALUE: blk_busy_count:lld <- $x21
	.loc	2 653 6                         // kernel/platform_source/basicplatform/block/mas_blk_busy_idle_notify.c:653:6
	ldrb	w8, [x21, #24]
	tbz	w8, #3, .LBB9_9
.Ltmp243:
// %bb.7:
	//DEBUG_VALUE: blk_busy_count:lld <- $x21
	//DEBUG_VALUE: blk_busy_count:blk_idle <- [DW_OP_plus_uconst 1088, DW_OP_stack_value] $x21
	//DEBUG_VALUE: lld <- $x21
	//DEBUG_VALUE: mas_blk_busyidle_check_execute_request:rq <- $x20
	//DEBUG_VALUE: mas_blk_busyidle_check_execute_request:done <- $x19
	//DEBUG_VALUE: mas_blk_busyidle_check_execute_request:q <- [DW_OP_LLVM_entry_value 1] $x0
	//DEBUG_VALUE: atomic_read:v <- [DW_OP_plus_uconst 1296, DW_OP_stack_value] $x21
	.loc	159 28 9                        // kernel/include/asm-generic/atomic-instrumented.h:28:9
	ldr	w8, [x21, #1296]
.Ltmp244:
	.loc	2 656 6                         // kernel/platform_source/basicplatform/block/mas_blk_busy_idle_notify.c:656:6
	cbz	w8, .LBB9_11
.Ltmp245:
.LBB9_8:
	//DEBUG_VALUE: blk_busy_count:lld <- $x21
	//DEBUG_VALUE: blk_busy_count:blk_idle <- [DW_OP_plus_uconst 1088, DW_OP_stack_value] $x21
	//DEBUG_VALUE: lld <- $x21
	//DEBUG_VALUE: mas_blk_busyidle_check_execute_request:rq <- $x20
	//DEBUG_VALUE: mas_blk_busyidle_check_execute_request:done <- $x19
	//DEBUG_VALUE: mas_blk_busyidle_check_execute_request:q <- [DW_OP_LLVM_entry_value 1] $x0
	//DEBUG_VALUE: atomic_inc:v <- [DW_OP_plus_uconst 1296, DW_OP_stack_value] undef
	//DEBUG_VALUE: arch_atomic_inc:v <- [DW_OP_plus_uconst 1296, DW_OP_stack_value] undef
	//DEBUG_VALUE: arch_atomic_add:i <- 1
	//DEBUG_VALUE: arch_atomic_add:v <- [DW_OP_plus_uconst 1296, DW_OP_stack_value] undef
	//DEBUG_VALUE: __ll_sc_atomic_add:i <- 1
	//DEBUG_VALUE: __ll_sc_atomic_add:v <- [DW_OP_plus_uconst 1296, DW_OP_stack_value] undef
	//DEBUG_LABEL: blk_busy_count:inc_iocount
	.loc	162 111 1                       // kernel/arch/arm64/include/asm/atomic_ll_sc.h:111:1
	add	x8, x21, #1296                  // =1296
	//APP
	// atomic_add
	prfm	pstl1strm, [x8]
.Ltmp246:
	ldxr	w9, [x8]
	add	w9, w9, #1                      // =1
	stxr	w10, w9, [x8]
	cbnz	w10, .Ltmp246

	//NO_APP
.Ltmp247:
	//DEBUG_VALUE: __ll_sc_atomic_add:tmp <- undef
	//DEBUG_VALUE: __ll_sc_atomic_add:result <- undef
.LBB9_9:
	//DEBUG_VALUE: lld <- $x21
	//DEBUG_VALUE: mas_blk_busyidle_check_execute_request:rq <- $x20
	//DEBUG_VALUE: mas_blk_busyidle_check_execute_request:done <- $x19
	//DEBUG_VALUE: mas_blk_busyidle_check_execute_request:q <- [DW_OP_LLVM_entry_value 1] $x0
	.loc	2 826 14                        // kernel/platform_source/basicplatform/block/mas_blk_busy_idle_notify.c:826:14
	adrp	x8, __cfi_mas_blk_busyidle_end_rq
	add	x8, x8, :lo12:__cfi_mas_blk_busyidle_end_rq
	str	x8, [x20, #776]
	.loc	2 827 15                        // kernel/platform_source/basicplatform/block/mas_blk_busy_idle_notify.c:827:15
	add	x8, x20, #256                   // =256
.Ltmp248:
.LBB9_10:
	//DEBUG_VALUE: mas_blk_busyidle_check_execute_request:rq <- $x20
	//DEBUG_VALUE: mas_blk_busyidle_check_execute_request:done <- $x19
	.loc	2 0 0 is_stmt 0                 // kernel/platform_source/basicplatform/block/mas_blk_busy_idle_notify.c:0:0
	str	x19, [x8]
.Ltmp249:
	.loc	2 831 1 is_stmt 1               // kernel/platform_source/basicplatform/block/mas_blk_busy_idle_notify.c:831:1
	ldp	x20, x19, [sp, #64]             // 16-byte Folded Reload
.Ltmp250:
	ldp	x22, x21, [sp, #48]             // 16-byte Folded Reload
	ldp	x24, x23, [sp, #32]             // 16-byte Folded Reload
	ldp	x26, x25, [sp, #16]             // 16-byte Folded Reload
	ldp	x29, x30, [sp], #80             // 16-byte Folded Reload
	ret
.LBB9_11:
.Ltmp251:
	//DEBUG_VALUE: blk_busy_count:lld <- $x21
	//DEBUG_VALUE: blk_busy_count:blk_idle <- [DW_OP_plus_uconst 1088, DW_OP_stack_value] $x21
	//DEBUG_VALUE: lld <- $x21
	//DEBUG_VALUE: mas_blk_busyidle_check_execute_request:rq <- $x20
	//DEBUG_VALUE: mas_blk_busyidle_check_execute_request:done <- $x19
	//DEBUG_VALUE: mas_blk_busyidle_check_execute_request:q <- [DW_OP_LLVM_entry_value 1] $x0
	.loc	2 664 24                        // kernel/platform_source/basicplatform/block/mas_blk_busy_idle_notify.c:664:24
	add	x22, x21, #1304                 // =1304
	.loc	2 664 2 is_stmt 0               // kernel/platform_source/basicplatform/block/mas_blk_busy_idle_notify.c:664:2
	mov	x0, x22
	bl	mutex_lock
.Ltmp252:
	.loc	2 665 33 is_stmt 1              // kernel/platform_source/basicplatform/block/mas_blk_busy_idle_notify.c:665:33
	add	x0, x21, #1096                  // =1096
	.loc	2 665 2 is_stmt 0               // kernel/platform_source/basicplatform/block/mas_blk_busy_idle_notify.c:665:2
	bl	cancel_delayed_work
.Ltmp253:
	.loc	2 671 16 is_stmt 1              // kernel/platform_source/basicplatform/block/mas_blk_busy_idle_notify.c:671:16
	ldr	w8, [x21, #1368]
.Ltmp254:
	.loc	2 671 6 is_stmt 0               // kernel/platform_source/basicplatform/block/mas_blk_busy_idle_notify.c:671:6
	cmp	w8, #1                          // =1
	b.ne	.LBB9_13
.Ltmp255:
// %bb.12:
	//DEBUG_VALUE: blk_busy_count:lld <- $x21
	//DEBUG_VALUE: blk_busy_count:blk_idle <- [DW_OP_plus_uconst 1088, DW_OP_stack_value] $x21
	//DEBUG_VALUE: lld <- $x21
	//DEBUG_VALUE: mas_blk_busyidle_check_execute_request:rq <- $x20
	//DEBUG_VALUE: mas_blk_busyidle_check_execute_request:done <- $x19
	//DEBUG_VALUE: mas_blk_busyidle_check_execute_request:q <- [DW_OP_LLVM_entry_value 1] $x0
	//DEBUG_VALUE: blk_idle_to_busy:blk_idle <- [DW_OP_plus_uconst 1088, DW_OP_stack_value] $x21
	.loc	2 641 42 is_stmt 1              // kernel/platform_source/basicplatform/block/mas_blk_busy_idle_notify.c:641:42
	add	x0, x21, #1216                  // =1216
	.loc	2 641 2 is_stmt 0               // kernel/platform_source/basicplatform/block/mas_blk_busy_idle_notify.c:641:2
	mov	x1, xzr
	mov	x2, xzr
	.loc	2 630 23 is_stmt 1              // kernel/platform_source/basicplatform/block/mas_blk_busy_idle_notify.c:630:23
	str	wzr, [x21, #1368]
	.loc	2 641 2                         // kernel/platform_source/basicplatform/block/mas_blk_busy_idle_notify.c:641:2
	bl	blocking_notifier_call_chain
.Ltmp256:
.LBB9_13:
	//DEBUG_VALUE: blk_busy_count:lld <- $x21
	//DEBUG_VALUE: blk_busy_count:blk_idle <- [DW_OP_plus_uconst 1088, DW_OP_stack_value] $x21
	//DEBUG_VALUE: lld <- $x21
	//DEBUG_VALUE: mas_blk_busyidle_check_execute_request:rq <- $x20
	//DEBUG_VALUE: mas_blk_busyidle_check_execute_request:done <- $x19
	//DEBUG_VALUE: mas_blk_busyidle_check_execute_request:q <- [DW_OP_LLVM_entry_value 1] $x0
	.loc	2 680 2                         // kernel/platform_source/basicplatform/block/mas_blk_busy_idle_notify.c:680:2
	mov	x0, x22
	bl	mutex_unlock
.Ltmp257:
	.loc	2 0 2 is_stmt 0                 // kernel/platform_source/basicplatform/block/mas_blk_busy_idle_notify.c:0:2
	b	.LBB9_8
.Ltmp258:
.Lfunc_end9:
	.size	mas_blk_busyidle_check_execute_request, .Lfunc_end9-mas_blk_busyidle_check_execute_request
	.cfi_endproc
                                        // -- End function
	.globl	mas_blk_busyidle_check_bio_endio // -- Begin function mas_blk_busyidle_check_bio_endio
	.p2align	2
	.type	mas_blk_busyidle_check_bio_endio,@function
mas_blk_busyidle_check_bio_endio:       // @mas_blk_busyidle_check_bio_endio
.Lfunc_begin10:
	.loc	2 837 0 is_stmt 1               // kernel/platform_source/basicplatform/block/mas_blk_busy_idle_notify.c:837:0
	.cfi_startproc
// %bb.0:
	//DEBUG_VALUE: mas_blk_busyidle_check_bio_endio:bio <- $x0
	stp	x29, x30, [sp, #-64]!           // 16-byte Folded Spill
	str	x23, [sp, #16]                  // 8-byte Folded Spill
	stp	x22, x21, [sp, #32]             // 16-byte Folded Spill
	stp	x20, x19, [sp, #48]             // 16-byte Folded Spill
	mov	x29, sp
	.cfi_def_cfa w29, 64
	.cfi_offset w19, -8
	.cfi_offset w20, -16
	.cfi_offset w21, -24
	.cfi_offset w22, -32
	.cfi_offset w23, -48
	.cfi_offset w30, -56
	.cfi_offset w29, -64
.Ltmp259:
	.loc	2 839 8 prologue_end            // kernel/platform_source/basicplatform/block/mas_blk_busy_idle_notify.c:839:8
	ldr	x8, [x0, #8]
	.loc	2 839 3 is_stmt 0               // kernel/platform_source/basicplatform/block/mas_blk_busy_idle_notify.c:839:3
	add	x9, x0, #80                     // =80
	mov	x19, x0
.Ltmp260:
	//DEBUG_VALUE: mas_blk_busyidle_check_bio_endio:bio <- $x19
	//DEBUG_VALUE: mas_blk_busyidle_check_bio_endio:bio <- $x19
	add	x10, x8, #1072                  // =1072
	cmp	x8, #0                          // =0
	csel	x8, x9, x10, eq
	ldr	x0, [x8]
.Ltmp261:
	//DEBUG_VALUE: mas_blk_busyidle_check_bio_endio:q <- $x0
	.loc	2 840 28 is_stmt 1              // kernel/platform_source/basicplatform/block/mas_blk_busy_idle_notify.c:840:28
	bl	mas_blk_get_lld
.Ltmp262:
	.loc	2 757 48                        // kernel/platform_source/basicplatform/block/mas_blk_busy_idle_notify.c:757:48
	ldrb	w8, [x0, #25]
.Ltmp263:
	.loc	2 840 28                        // kernel/platform_source/basicplatform/block/mas_blk_busy_idle_notify.c:840:28
	mov	x20, x0
.Ltmp264:
	//DEBUG_VALUE: mas_blk_fg_io_check_idle:bio <- $x19
	//DEBUG_VALUE: mas_blk_fg_io_check_idle:q <- undef
	//DEBUG_VALUE: mas_blk_fg_io_check_idle:lld <- $x20
	//DEBUG_VALUE: mas_blk_busyidle_check_bio_endio:lld <- $x20
	.loc	2 757 48                        // kernel/platform_source/basicplatform/block/mas_blk_busy_idle_notify.c:757:48
	tbz	w8, #0, .LBB10_6
.Ltmp265:
// %bb.1:
	//DEBUG_VALUE: mas_blk_busyidle_check_bio_endio:lld <- $x20
	//DEBUG_VALUE: mas_blk_fg_io_check_idle:lld <- $x20
	//DEBUG_VALUE: mas_blk_fg_io_check_idle:bio <- $x19
	//DEBUG_VALUE: mas_blk_busyidle_check_bio_endio:bio <- $x19
	.loc	2 757 64 is_stmt 0              // kernel/platform_source/basicplatform/block/mas_blk_busy_idle_notify.c:757:64
	ldrb	w8, [x19, #282]
	.loc	2 757 70                        // kernel/platform_source/basicplatform/block/mas_blk_busy_idle_notify.c:757:70
	cbz	w8, .LBB10_6
.Ltmp266:
// %bb.2:
	//DEBUG_VALUE: mas_blk_busyidle_check_bio_endio:lld <- $x20
	//DEBUG_VALUE: mas_blk_fg_io_check_idle:lld <- $x20
	//DEBUG_VALUE: mas_blk_fg_io_check_idle:bio <- $x19
	//DEBUG_VALUE: mas_blk_busyidle_check_bio_endio:bio <- $x19
	.loc	2 758 18 is_stmt 1              // kernel/platform_source/basicplatform/block/mas_blk_busy_idle_notify.c:758:18
	ldrb	w8, [x19, #128]
.Ltmp267:
	.loc	2 757 6                         // kernel/platform_source/basicplatform/block/mas_blk_busy_idle_notify.c:757:6
	tbz	w8, #5, .LBB10_6
.Ltmp268:
// %bb.3:
	//DEBUG_VALUE: mas_blk_busyidle_check_bio_endio:lld <- $x20
	//DEBUG_VALUE: mas_blk_fg_io_check_idle:lld <- $x20
	//DEBUG_VALUE: mas_blk_fg_io_check_idle:bio <- $x19
	//DEBUG_VALUE: mas_blk_busyidle_check_bio_endio:bio <- $x19
	.loc	2 759 28                        // kernel/platform_source/basicplatform/block/mas_blk_busy_idle_notify.c:759:28
	and	w8, w8, #0xffffffdf
	strb	w8, [x19, #128]
.Ltmp269:
	//DEBUG_VALUE: blk_fg_io_idle_count:lld <- $x20
	//DEBUG_VALUE: blk_fg_io_idle_count:q <- undef
	.loc	2 379 6                         // kernel/platform_source/basicplatform/block/mas_blk_busy_idle_notify.c:379:6
	ldr	w8, [x20, #24]
	mov	w9, #264
	mvn	w8, w8
.Ltmp270:
	.loc	2 379 6 is_stmt 0               // kernel/platform_source/basicplatform/block/mas_blk_busy_idle_notify.c:379:6
	tst	x8, x9
	b.ne	.LBB10_6
.Ltmp271:
// %bb.4:
	//DEBUG_VALUE: blk_fg_io_idle_count:lld <- $x20
	//DEBUG_VALUE: mas_blk_busyidle_check_bio_endio:lld <- $x20
	//DEBUG_VALUE: mas_blk_fg_io_check_idle:lld <- $x20
	//DEBUG_VALUE: mas_blk_fg_io_check_idle:bio <- $x19
	//DEBUG_VALUE: mas_blk_busyidle_check_bio_endio:bio <- $x19
	//DEBUG_VALUE: atomic_read:v <- [DW_OP_plus_uconst 1476, DW_OP_stack_value] $x20
	.loc	159 28 9 is_stmt 1              // kernel/include/asm-generic/atomic-instrumented.h:28:9
	ldr	w8, [x20, #1476]
.Ltmp272:
	.loc	2 385 6                         // kernel/platform_source/basicplatform/block/mas_blk_busy_idle_notify.c:385:6
	cbz	w8, .LBB10_13
.Ltmp273:
// %bb.5:
	//DEBUG_VALUE: blk_fg_io_idle_count:lld <- $x20
	//DEBUG_VALUE: mas_blk_busyidle_check_bio_endio:lld <- $x20
	//DEBUG_VALUE: mas_blk_fg_io_check_idle:lld <- $x20
	//DEBUG_VALUE: mas_blk_fg_io_check_idle:bio <- $x19
	//DEBUG_VALUE: mas_blk_busyidle_check_bio_endio:bio <- $x19
	.loc	2 0 0 is_stmt 0                 // kernel/platform_source/basicplatform/block/mas_blk_busy_idle_notify.c:0:0
	add	x8, x20, #1476                  // =1476
	mov	w9, #1
.Ltmp274:
	//DEBUG_VALUE: __ll_sc_atomic_sub_return:v <- [DW_OP_plus_uconst 1476, DW_OP_stack_value] $x20
	//DEBUG_VALUE: __ll_sc_atomic_sub_return:i <- 1
	//DEBUG_VALUE: arch_atomic_sub_return:v <- [DW_OP_plus_uconst 1476, DW_OP_stack_value] $x20
	//DEBUG_VALUE: arch_atomic_sub_return:i <- 1
	//DEBUG_VALUE: arch_atomic_dec_return:v <- [DW_OP_plus_uconst 1476, DW_OP_stack_value] $x20
	//DEBUG_VALUE: atomic_dec_return:v <- [DW_OP_plus_uconst 1476, DW_OP_stack_value] $x20
	.loc	162 112 1 is_stmt 1             // kernel/arch/arm64/include/asm/atomic_ll_sc.h:112:1
	//APP
	// atomic_sub_return
	prfm	pstl1strm, [x8]
.Ltmp275:
	ldxr	w10, [x8]
	sub	w10, w10, w9
	stlxr	w11, w10, [x8]
	cbnz	w11, .Ltmp275
	dmb	ish
	//NO_APP
.Ltmp276:
	//DEBUG_VALUE: __ll_sc_atomic_sub_return:tmp <- undef
	//DEBUG_VALUE: __ll_sc_atomic_sub_return:result <- $w10
	.loc	2 394 6                         // kernel/platform_source/basicplatform/block/mas_blk_busy_idle_notify.c:394:6
	cbz	w10, .LBB10_14
.Ltmp277:
.LBB10_6:
	//DEBUG_VALUE: mas_blk_busyidle_check_bio_endio:lld <- $x20
	//DEBUG_VALUE: mas_blk_busyidle_check_bio_endio:bio <- $x19
	.loc	2 845 6                         // kernel/platform_source/basicplatform/block/mas_blk_busy_idle_notify.c:845:6
	ldrb	w8, [x19, #128]
.Ltmp278:
	.loc	2 845 6 is_stmt 0               // kernel/platform_source/basicplatform/block/mas_blk_busy_idle_notify.c:845:6
	tbz	w8, #0, .LBB10_12
.Ltmp279:
// %bb.7:
	//DEBUG_VALUE: mas_blk_busyidle_check_bio_endio:lld <- $x20
	//DEBUG_VALUE: mas_blk_busyidle_check_bio_endio:bio <- $x19
	//DEBUG_VALUE: mas_blk_remove_bio_from_counted_list:lld <- $x20
	//DEBUG_VALUE: mas_blk_remove_bio_from_counted_list:bio <- $x19
	.loc	2 702 6 is_stmt 1               // kernel/platform_source/basicplatform/block/mas_blk_busy_idle_notify.c:702:6
	ldr	x8, [x20, #1552]
.Ltmp280:
	.loc	2 702 6 is_stmt 0               // kernel/platform_source/basicplatform/block/mas_blk_busy_idle_notify.c:702:6
	cbz	x8, .LBB10_11
.Ltmp281:
// %bb.8:
	//DEBUG_VALUE: mas_blk_remove_bio_from_counted_list:lld <- $x20
	//DEBUG_VALUE: mas_blk_busyidle_check_bio_endio:lld <- $x20
	//DEBUG_VALUE: mas_blk_remove_bio_from_counted_list:bio <- $x19
	//DEBUG_VALUE: mas_blk_busyidle_check_bio_endio:bio <- $x19
	//DEBUG_VALUE: spinlock_check:lock <- [DW_OP_plus_uconst 1600, DW_OP_stack_value] $x20
	.loc	160 329 16 is_stmt 1            // kernel/include/linux/spinlock.h:329:16
	add	x21, x20, #1600                 // =1600
.Ltmp282:
	.loc	2 709 2                         // kernel/platform_source/basicplatform/block/mas_blk_busy_idle_notify.c:709:2
	mov	x0, x21
	bl	_raw_spin_lock_irqsave
.Ltmp283:
	.loc	2 710 25                        // kernel/platform_source/basicplatform/block/mas_blk_busy_idle_notify.c:710:25
	ldr	x8, [x20, #1552]
	.loc	2 711 22                        // kernel/platform_source/basicplatform/block/mas_blk_busy_idle_notify.c:711:22
	add	x23, x19, #288                  // =288
.Ltmp284:
	//DEBUG_VALUE: __list_del_entry:entry <- $x23
	//DEBUG_VALUE: list_del_init:entry <- $x23
	.loc	2 709 2                         // kernel/platform_source/basicplatform/block/mas_blk_busy_idle_notify.c:709:2
	mov	x22, x0
.Ltmp285:
	//DEBUG_VALUE: mas_blk_remove_bio_from_counted_list:flags <- $x22
	.loc	161 132 7                       // kernel/include/linux/list.h:132:7
	mov	x0, x23
.Ltmp286:
	.loc	2 710 25                        // kernel/platform_source/basicplatform/block/mas_blk_busy_idle_notify.c:710:25
	sub	x8, x8, #1                      // =1
	str	x8, [x20, #1552]
.Ltmp287:
	.loc	161 132 7                       // kernel/include/linux/list.h:132:7
	bl	__list_del_entry_valid
.Ltmp288:
	.loc	161 132 6 is_stmt 0             // kernel/include/linux/list.h:132:6
	tbz	w0, #0, .LBB10_10
.Ltmp289:
// %bb.9:
	//DEBUG_VALUE: list_del_init:entry <- $x23
	//DEBUG_VALUE: __list_del_entry:entry <- $x23
	//DEBUG_VALUE: mas_blk_remove_bio_from_counted_list:flags <- $x22
	//DEBUG_VALUE: mas_blk_remove_bio_from_counted_list:lld <- $x20
	//DEBUG_VALUE: mas_blk_busyidle_check_bio_endio:lld <- $x20
	//DEBUG_VALUE: mas_blk_remove_bio_from_counted_list:bio <- $x19
	//DEBUG_VALUE: mas_blk_busyidle_check_bio_endio:bio <- $x19
	.loc	161 135 20 is_stmt 1            // kernel/include/linux/list.h:135:20
	ldp	x9, x8, [x19, #288]
.Ltmp290:
	//DEBUG_VALUE: __list_del:prev <- $x8
	//DEBUG_VALUE: __list_del:next <- $x9
	.loc	161 112 13                      // kernel/include/linux/list.h:112:13
	str	x8, [x9, #8]
.Ltmp291:
	.loc	161 113 2                       // kernel/include/linux/list.h:113:2
	str	x9, [x8]
.Ltmp292:
.LBB10_10:
	//DEBUG_VALUE: list_del_init:entry <- $x23
	//DEBUG_VALUE: mas_blk_remove_bio_from_counted_list:flags <- $x22
	//DEBUG_VALUE: mas_blk_remove_bio_from_counted_list:lld <- $x20
	//DEBUG_VALUE: mas_blk_busyidle_check_bio_endio:lld <- $x20
	//DEBUG_VALUE: mas_blk_remove_bio_from_counted_list:bio <- $x19
	//DEBUG_VALUE: mas_blk_busyidle_check_bio_endio:bio <- $x19
	//DEBUG_VALUE: INIT_LIST_HEAD:list <- $x23
	.loc	160 409 2                       // kernel/include/linux/spinlock.h:409:2
	mov	x0, x21
	mov	x1, x22
.Ltmp293:
	.loc	161 35 2                        // kernel/include/linux/list.h:35:2
	str	x23, [x19, #288]
.Ltmp294:
	.loc	161 36 13                       // kernel/include/linux/list.h:36:13
	str	x23, [x19, #296]
.Ltmp295:
	//DEBUG_VALUE: spin_unlock_irqrestore:flags <- $x22
	//DEBUG_VALUE: spin_unlock_irqrestore:lock <- [DW_OP_plus_uconst 1600, DW_OP_stack_value] $x20
	.loc	160 409 2                       // kernel/include/linux/spinlock.h:409:2
	bl	_raw_spin_unlock_irqrestore
.Ltmp296:
.LBB10_11:
	//DEBUG_VALUE: mas_blk_busyidle_check_bio_endio:lld <- $x20
	//DEBUG_VALUE: mas_blk_busyidle_check_bio_endio:bio <- $x19
	.loc	2 852 2                         // kernel/platform_source/basicplatform/block/mas_blk_busy_idle_notify.c:852:2
	mov	x0, x20
	.loc	2 850 27                        // kernel/platform_source/basicplatform/block/mas_blk_busy_idle_notify.c:850:27
	strb	wzr, [x19, #128]
	.loc	2 852 2                         // kernel/platform_source/basicplatform/block/mas_blk_busy_idle_notify.c:852:2
	bl	blk_idle_count
.Ltmp297:
.LBB10_12:
	//DEBUG_VALUE: mas_blk_busyidle_check_bio_endio:lld <- $x20
	//DEBUG_VALUE: mas_blk_busyidle_check_bio_endio:bio <- $x19
	.loc	2 853 1                         // kernel/platform_source/basicplatform/block/mas_blk_busy_idle_notify.c:853:1
	ldp	x20, x19, [sp, #48]             // 16-byte Folded Reload
.Ltmp298:
	//DEBUG_VALUE: mas_blk_busyidle_check_bio_endio:bio <- [DW_OP_LLVM_entry_value 1] $x0
	ldp	x22, x21, [sp, #32]             // 16-byte Folded Reload
	ldr	x23, [sp, #16]                  // 8-byte Folded Reload
	ldp	x29, x30, [sp], #64             // 16-byte Folded Reload
	ret
.Ltmp299:
.LBB10_13:
	//DEBUG_VALUE: blk_fg_io_idle_count:lld <- $x20
	//DEBUG_VALUE: mas_blk_busyidle_check_bio_endio:lld <- $x20
	//DEBUG_VALUE: mas_blk_fg_io_check_idle:lld <- $x20
	//DEBUG_VALUE: mas_blk_fg_io_check_idle:bio <- $x19
	//DEBUG_VALUE: mas_blk_busyidle_check_bio_endio:bio <- $x19
	.loc	2 386 3                         // kernel/platform_source/basicplatform/block/mas_blk_busy_idle_notify.c:386:3
	adrp	x0, .L.str.13
	adrp	x1, .L__func__.blk_fg_io_idle_count
	add	x0, x0, :lo12:.L.str.13
	add	x1, x1, :lo12:.L__func__.blk_fg_io_idle_count
	bl	printk
.Ltmp300:
	.loc	2 0 3 is_stmt 0                 // kernel/platform_source/basicplatform/block/mas_blk_busy_idle_notify.c:0:3
	b	.LBB10_6
.Ltmp301:
.LBB10_14:
	//DEBUG_VALUE: blk_fg_io_idle_count:lld <- $x20
	//DEBUG_VALUE: mas_blk_busyidle_check_bio_endio:lld <- $x20
	//DEBUG_VALUE: mas_blk_fg_io_check_idle:lld <- $x20
	//DEBUG_VALUE: mas_blk_fg_io_check_idle:bio <- $x19
	//DEBUG_VALUE: mas_blk_busyidle_check_bio_endio:bio <- $x19
	//DEBUG_VALUE: blk_lld_fg_io_idle_notify:lld <- $x20
	.loc	2 370 6 is_stmt 1               // kernel/platform_source/basicplatform/block/mas_blk_busy_idle_notify.c:370:6
	ldr	w8, [x20]
.Ltmp302:
	.loc	2 370 6 is_stmt 0               // kernel/platform_source/basicplatform/block/mas_blk_busy_idle_notify.c:370:6
	cmp	w8, #122                        // =122
	b.ne	.LBB10_6
.Ltmp303:
// %bb.15:
	//DEBUG_VALUE: blk_lld_fg_io_idle_notify:lld <- $x20
	//DEBUG_VALUE: blk_fg_io_idle_count:lld <- $x20
	//DEBUG_VALUE: mas_blk_busyidle_check_bio_endio:lld <- $x20
	//DEBUG_VALUE: mas_blk_fg_io_check_idle:lld <- $x20
	//DEBUG_VALUE: mas_blk_fg_io_check_idle:bio <- $x19
	//DEBUG_VALUE: mas_blk_busyidle_check_bio_endio:bio <- $x19
	.loc	2 371 22 is_stmt 1              // kernel/platform_source/basicplatform/block/mas_blk_busy_idle_notify.c:371:22
	adrp	x8, blk_fg_io_idle_notify_workqueue
	.loc	2 373 35                        // kernel/platform_source/basicplatform/block/mas_blk_busy_idle_notify.c:373:35
	ldr	w0, [x20, #1472]
	//DEBUG_VALUE: msecs_to_jiffies:m <- $w0
	.loc	2 371 22                        // kernel/platform_source/basicplatform/block/mas_blk_busy_idle_notify.c:371:22
	ldr	x21, [x8, :lo12:blk_fg_io_idle_notify_workqueue]
	.loc	2 372 19                        // kernel/platform_source/basicplatform/block/mas_blk_busy_idle_notify.c:372:19
	add	x22, x20, #1376                 // =1376
.Ltmp304:
	//DEBUG_VALUE: msecs_to_jiffies:m <- undef
	.loc	158 370 10                      // kernel/include/linux/jiffies.h:370:10
	bl	__msecs_to_jiffies
.Ltmp305:
	mov	x3, x0
.Ltmp306:
	//DEBUG_VALUE: queue_delayed_work:dwork <- $x22
	//DEBUG_VALUE: queue_delayed_work:delay <- $x3
	//DEBUG_VALUE: queue_delayed_work:wq <- $x21
	.loc	21 528 9                        // kernel/include/linux/workqueue.h:528:9
	mov	w0, #8
	mov	x1, x21
	mov	x2, x22
	bl	queue_delayed_work_on
.Ltmp307:
	.loc	21 0 9 is_stmt 0                // kernel/include/linux/workqueue.h:0:9
	b	.LBB10_6
.Ltmp308:
.Lfunc_end10:
	.size	mas_blk_busyidle_check_bio_endio, .Lfunc_end10-mas_blk_busyidle_check_bio_endio
	.cfi_endproc
                                        // -- End function
	.globl	blk_busyidle_event_subscribe    // -- Begin function blk_busyidle_event_subscribe
	.p2align	2
	.type	blk_busyidle_event_subscribe,@function
blk_busyidle_event_subscribe:           // @blk_busyidle_event_subscribe
.Lfunc_begin11:
	.loc	2 861 0 is_stmt 1               // kernel/platform_source/basicplatform/block/mas_blk_busy_idle_notify.c:861:0
	.cfi_startproc
// %bb.0:
	//DEBUG_VALUE: blk_busyidle_event_subscribe:bdev <- $x0
	//DEBUG_VALUE: blk_busyidle_event_subscribe:event_node <- $x1
	stp	x29, x30, [sp, #-32]!           // 16-byte Folded Spill
	str	x19, [sp, #16]                  // 8-byte Folded Spill
	mov	x29, sp
	.cfi_def_cfa w29, 32
	.cfi_offset w19, -16
	.cfi_offset w30, -24
	.cfi_offset w29, -32
	mov	x8, x0
	mov	w0, #-22
.Ltmp309:
	//DEBUG_VALUE: blk_busyidle_event_subscribe:bdev <- [DW_OP_LLVM_entry_value 1] $x0
	//DEBUG_VALUE: blk_busyidle_event_subscribe:event_node <- $x1
	//DEBUG_VALUE: blk_busyidle_event_subscribe:bdev <- $x8
	.loc	2 862 12 prologue_end           // kernel/platform_source/basicplatform/block/mas_blk_busy_idle_notify.c:862:12
	cbz	x8, .LBB11_5
.Ltmp310:
// %bb.1:
	//DEBUG_VALUE: blk_busyidle_event_subscribe:bdev <- $x8
	//DEBUG_VALUE: blk_busyidle_event_subscribe:event_node <- $x1
	.loc	2 0 12 is_stmt 0                // kernel/platform_source/basicplatform/block/mas_blk_busy_idle_notify.c:0:12
	mov	x19, x1
.Ltmp311:
	//DEBUG_VALUE: blk_busyidle_event_subscribe:event_node <- $x19
	.loc	2 862 12                        // kernel/platform_source/basicplatform/block/mas_blk_busy_idle_notify.c:862:12
	cbz	x1, .LBB11_5
.Ltmp312:
// %bb.2:
	//DEBUG_VALUE: blk_busyidle_event_subscribe:event_node <- $x19
	//DEBUG_VALUE: blk_busyidle_event_subscribe:bdev <- $x8
	//DEBUG_VALUE: bdev_get_queue:bdev <- $x8
	.loc	3 1681 15 is_stmt 1             // kernel/include/linux/blkdev.h:1681:15
	ldr	x8, [x8, #184]
.Ltmp313:
	.loc	3 1681 24 is_stmt 0             // kernel/include/linux/blkdev.h:1681:24
	ldr	x0, [x8, #1072]
.Ltmp314:
	//DEBUG_VALUE: blk_queue_busyidle_event_subscribe:event_node <- $x19
	//DEBUG_VALUE: blk_queue_busyidle_event_subscribe:q <- $x0
	.loc	2 876 9 is_stmt 1               // kernel/platform_source/basicplatform/block/mas_blk_busy_idle_notify.c:876:9
	cbz	x0, .LBB11_4
.Ltmp315:
// %bb.3:
	//DEBUG_VALUE: blk_queue_busyidle_event_subscribe:event_node <- $x19
	//DEBUG_VALUE: blk_busyidle_event_subscribe:event_node <- $x19
	//DEBUG_VALUE: blk_queue_busyidle_event_subscribe:q <- $x0
	.loc	2 880 3                         // kernel/platform_source/basicplatform/block/mas_blk_busy_idle_notify.c:880:3
	bl	mas_blk_get_lld
.Ltmp316:
	.loc	2 879 9                         // kernel/platform_source/basicplatform/block/mas_blk_busy_idle_notify.c:879:9
	mov	x1, x19
	bl	blk_lld_busyidle_event_subscribe
.Ltmp317:
	.loc	2 0 9 is_stmt 0                 // kernel/platform_source/basicplatform/block/mas_blk_busy_idle_notify.c:0:9
	b	.LBB11_5
.Ltmp318:
.LBB11_4:
	//DEBUG_VALUE: blk_queue_busyidle_event_subscribe:event_node <- $x19
	//DEBUG_VALUE: blk_busyidle_event_subscribe:event_node <- $x19
	//DEBUG_VALUE: blk_queue_busyidle_event_subscribe:q <- $x0
	mov	w0, #-22
.Ltmp319:
.LBB11_5:
	.loc	2 867 1 is_stmt 1               // kernel/platform_source/basicplatform/block/mas_blk_busy_idle_notify.c:867:1
	ldr	x19, [sp, #16]                  // 8-byte Folded Reload
	ldp	x29, x30, [sp], #32             // 16-byte Folded Reload
	ret
.Ltmp320:
.Lfunc_end11:
	.size	blk_busyidle_event_subscribe, .Lfunc_end11-blk_busyidle_event_subscribe
	.cfi_endproc
                                        // -- End function
	.globl	blk_queue_busyidle_event_subscribe // -- Begin function blk_queue_busyidle_event_subscribe
	.p2align	2
	.type	blk_queue_busyidle_event_subscribe,@function
blk_queue_busyidle_event_subscribe:     // @blk_queue_busyidle_event_subscribe
.Lfunc_begin12:
	.loc	2 875 0                         // kernel/platform_source/basicplatform/block/mas_blk_busy_idle_notify.c:875:0
	.cfi_startproc
// %bb.0:
	//DEBUG_VALUE: blk_queue_busyidle_event_subscribe:q <- $x0
	//DEBUG_VALUE: blk_queue_busyidle_event_subscribe:event_node <- $x1
	stp	x29, x30, [sp, #-32]!           // 16-byte Folded Spill
	str	x19, [sp, #16]                  // 8-byte Folded Spill
	mov	x29, sp
	.cfi_def_cfa w29, 32
	.cfi_offset w19, -16
	.cfi_offset w30, -24
	.cfi_offset w29, -32
	mov	x8, x0
	mov	w0, #-22
.Ltmp321:
	//DEBUG_VALUE: blk_queue_busyidle_event_subscribe:q <- [DW_OP_LLVM_entry_value 1] $x0
	//DEBUG_VALUE: blk_queue_busyidle_event_subscribe:event_node <- $x1
	//DEBUG_VALUE: blk_queue_busyidle_event_subscribe:q <- $x8
	.loc	2 876 9 prologue_end            // kernel/platform_source/basicplatform/block/mas_blk_busy_idle_notify.c:876:9
	cbz	x8, .LBB12_3
.Ltmp322:
// %bb.1:
	//DEBUG_VALUE: blk_queue_busyidle_event_subscribe:q <- $x8
	//DEBUG_VALUE: blk_queue_busyidle_event_subscribe:event_node <- $x1
	.loc	2 0 9 is_stmt 0                 // kernel/platform_source/basicplatform/block/mas_blk_busy_idle_notify.c:0:9
	mov	x19, x1
.Ltmp323:
	//DEBUG_VALUE: blk_queue_busyidle_event_subscribe:event_node <- $x19
	.loc	2 876 9                         // kernel/platform_source/basicplatform/block/mas_blk_busy_idle_notify.c:876:9
	cbz	x1, .LBB12_3
.Ltmp324:
// %bb.2:
	//DEBUG_VALUE: blk_queue_busyidle_event_subscribe:event_node <- $x19
	//DEBUG_VALUE: blk_queue_busyidle_event_subscribe:q <- $x8
	.loc	2 880 3 is_stmt 1               // kernel/platform_source/basicplatform/block/mas_blk_busy_idle_notify.c:880:3
	mov	x0, x8
	bl	mas_blk_get_lld
.Ltmp325:
	.loc	2 879 9                         // kernel/platform_source/basicplatform/block/mas_blk_busy_idle_notify.c:879:9
	mov	x1, x19
	bl	blk_lld_busyidle_event_subscribe
.Ltmp326:
.LBB12_3:
	.loc	2 882 1                         // kernel/platform_source/basicplatform/block/mas_blk_busy_idle_notify.c:882:1
	ldr	x19, [sp, #16]                  // 8-byte Folded Reload
	ldp	x29, x30, [sp], #32             // 16-byte Folded Reload
	ret
.Ltmp327:
.Lfunc_end12:
	.size	blk_queue_busyidle_event_subscribe, .Lfunc_end12-blk_queue_busyidle_event_subscribe
	.cfi_endproc
                                        // -- End function
	.globl	blk_lld_busyidle_event_subscribe // -- Begin function blk_lld_busyidle_event_subscribe
	.p2align	2
	.type	blk_lld_busyidle_event_subscribe,@function
blk_lld_busyidle_event_subscribe:       // @blk_lld_busyidle_event_subscribe
.Lfunc_begin13:
	.loc	2 890 0                         // kernel/platform_source/basicplatform/block/mas_blk_busy_idle_notify.c:890:0
	.cfi_startproc
// %bb.0:
	//DEBUG_VALUE: blk_lld_busyidle_event_subscribe:lld <- $x0
	//DEBUG_VALUE: blk_lld_busyidle_event_subscribe:event_node <- $x1
	stp	x29, x30, [sp, #-80]!           // 16-byte Folded Spill
	str	x25, [sp, #16]                  // 8-byte Folded Spill
	stp	x24, x23, [sp, #32]             // 16-byte Folded Spill
	stp	x22, x21, [sp, #48]             // 16-byte Folded Spill
	stp	x20, x19, [sp, #64]             // 16-byte Folded Spill
	mov	x29, sp
	.cfi_def_cfa w29, 80
	.cfi_offset w19, -8
	.cfi_offset w20, -16
	.cfi_offset w21, -24
	.cfi_offset w22, -32
	.cfi_offset w23, -40
	.cfi_offset w24, -48
	.cfi_offset w25, -64
	.cfi_offset w30, -72
	.cfi_offset w29, -80
	mov	w22, #-22
	//DEBUG_VALUE: blk_lld_busyidle_event_subscribe:event_node <- $x1
	//DEBUG_VALUE: blk_lld_busyidle_event_subscribe:lld <- $x0
.Ltmp328:
	.loc	2 891 11 prologue_end           // kernel/platform_source/basicplatform/block/mas_blk_busy_idle_notify.c:891:11
	cbz	x0, .LBB13_4
.Ltmp329:
// %bb.1:
	//DEBUG_VALUE: blk_lld_busyidle_event_subscribe:event_node <- $x1
	//DEBUG_VALUE: blk_lld_busyidle_event_subscribe:lld <- $x0
	.loc	2 0 11 is_stmt 0                // kernel/platform_source/basicplatform/block/mas_blk_busy_idle_notify.c:0:11
	mov	x21, x1
.Ltmp330:
	//DEBUG_VALUE: blk_lld_busyidle_event_subscribe:event_node <- $x21
	//DEBUG_VALUE: blk_lld_busyidle_event_subscribe:lld <- $x0
	.loc	2 891 11                        // kernel/platform_source/basicplatform/block/mas_blk_busy_idle_notify.c:891:11
	cbz	x1, .LBB13_4
.Ltmp331:
// %bb.2:
	//DEBUG_VALUE: blk_lld_busyidle_event_subscribe:event_node <- $x21
	//DEBUG_VALUE: blk_lld_busyidle_event_subscribe:lld <- $x0
	.loc	2 894 18 is_stmt 1              // kernel/platform_source/basicplatform/block/mas_blk_busy_idle_notify.c:894:18
	str	x0, [x21, #48]
.Ltmp332:
	//DEBUG_VALUE: index <- 2
	//DEBUG_VALUE: kmalloc:flags <- 3520
	//DEBUG_VALUE: kmalloc:size <- 152
	//DEBUG_VALUE: kzalloc:flags <- 3264
	//DEBUG_VALUE: kzalloc:size <- 152
	//DEBUG_VALUE: mas_blk_busyidle_event_register:blk_idle <- [DW_OP_plus_uconst 1088, DW_OP_stack_value] $x20
	//DEBUG_VALUE: mas_blk_busyidle_event_register:nb <- 0
	//DEBUG_VALUE: mas_blk_busyidle_event_register:ret <- 0
	//DEBUG_VALUE: mas_blk_busyidle_event_register:event_node <- $x21
	//DEBUG_VALUE: mas_blk_busyidle_event_register:lld <- $x20
	.loc	22 566 5                        // kernel/include/linux/slab.h:566:5
	adrp	x8, kmalloc_caches+16
	mov	x20, x0
.Ltmp333:
	//DEBUG_VALUE: blk_lld_busyidle_event_subscribe:lld <- $x20
	//DEBUG_VALUE: blk_lld_busyidle_event_subscribe:lld <- $x20
	ldr	x0, [x8, :lo12:kmalloc_caches+16]
	.loc	22 565 10                       // kernel/include/linux/slab.h:565:10
	mov	w1, #3520
	mov	w2, #152
	bl	kmem_cache_alloc_trace
.Ltmp334:
	//DEBUG_VALUE: mas_blk_busyidle_event_register:nb <- $x0
	.loc	2 240 6                         // kernel/platform_source/basicplatform/block/mas_blk_busy_idle_notify.c:240:6
	cbnz	x0, .LBB13_5
.Ltmp335:
// %bb.3:
	//DEBUG_VALUE: mas_blk_busyidle_event_register:event_node <- $x21
	//DEBUG_VALUE: blk_lld_busyidle_event_subscribe:event_node <- $x21
	//DEBUG_VALUE: blk_lld_busyidle_event_subscribe:lld <- $x20
	//DEBUG_VALUE: mas_blk_busyidle_event_register:nb <- $x0
	//DEBUG_VALUE: mas_blk_busyidle_event_register:ret <- 0
	//DEBUG_VALUE: kzalloc:size <- 152
	//DEBUG_VALUE: kzalloc:flags <- 3264
	//DEBUG_VALUE: kmalloc:size <- 152
	//DEBUG_VALUE: kmalloc:flags <- 3520
	//DEBUG_VALUE: index <- 2
	.loc	2 0 6 is_stmt 0                 // kernel/platform_source/basicplatform/block/mas_blk_busy_idle_notify.c:0:6
	mov	w22, #-12
.Ltmp336:
.LBB13_4:
	.loc	2 896 1 is_stmt 1               // kernel/platform_source/basicplatform/block/mas_blk_busy_idle_notify.c:896:1
	mov	w0, w22
	ldp	x20, x19, [sp, #64]             // 16-byte Folded Reload
	ldp	x22, x21, [sp, #48]             // 16-byte Folded Reload
	ldp	x24, x23, [sp, #32]             // 16-byte Folded Reload
	ldr	x25, [sp, #16]                  // 8-byte Folded Reload
	ldp	x29, x30, [sp], #80             // 16-byte Folded Reload
	ret
.LBB13_5:
.Ltmp337:
	//DEBUG_VALUE: mas_blk_busyidle_event_register:event_node <- $x21
	//DEBUG_VALUE: blk_lld_busyidle_event_subscribe:event_node <- $x21
	//DEBUG_VALUE: blk_lld_busyidle_event_subscribe:lld <- $x20
	//DEBUG_VALUE: mas_blk_busyidle_event_register:nb <- $x0
	//DEBUG_VALUE: mas_blk_busyidle_event_register:ret <- 0
	.loc	2 243 2                         // kernel/platform_source/basicplatform/block/mas_blk_busy_idle_notify.c:243:2
	ldp	x8, x10, [x21]
	ldp	x9, x11, [x21, #16]
	mov	x22, x0
	.loc	2 0 0 is_stmt 0                 // kernel/platform_source/basicplatform/block/mas_blk_busy_idle_notify.c:0:0
	mov	x19, x0
.Ltmp338:
	//DEBUG_VALUE: mas_blk_busyidle_event_register:nb <- $x19
	//DEBUG_VALUE: mas_blk_busyidle_event_register:nb <- $x19
	.loc	2 243 2                         // kernel/platform_source/basicplatform/block/mas_blk_busy_idle_notify.c:243:2
	str	x8, [x22, #88]!
	stp	x10, x9, [x22, #8]
	ldp	x9, x8, [x21, #40]
	ldr	x10, [x21, #32]
	stp	x9, x8, [x22, #40]
	stp	x11, x10, [x22, #24]
.Ltmp339:
	//DEBUG_VALUE: is_valid_event_node:event_node <- $x22
	.loc	2 196 6 is_stmt 1               // kernel/platform_source/basicplatform/block/mas_blk_busy_idle_notify.c:196:6
	cbnz	x10, .LBB13_7
.Ltmp340:
// %bb.6:
	//DEBUG_VALUE: is_valid_event_node:event_node <- $x22
	//DEBUG_VALUE: mas_blk_busyidle_event_register:event_node <- $x21
	//DEBUG_VALUE: blk_lld_busyidle_event_subscribe:event_node <- $x21
	//DEBUG_VALUE: blk_lld_busyidle_event_subscribe:lld <- $x20
	//DEBUG_VALUE: mas_blk_busyidle_event_register:nb <- $x19
	//DEBUG_VALUE: mas_blk_busyidle_event_register:ret <- 0
	.loc	2 0 6 is_stmt 0                 // kernel/platform_source/basicplatform/block/mas_blk_busy_idle_notify.c:0:6
	adrp	x0, .L.str.16
	add	x0, x0, :lo12:.L.str.16
	b	.LBB13_9
.Ltmp341:
.LBB13_7:
	//DEBUG_VALUE: is_valid_event_node:event_node <- $x22
	//DEBUG_VALUE: mas_blk_busyidle_event_register:event_node <- $x21
	//DEBUG_VALUE: blk_lld_busyidle_event_subscribe:event_node <- $x21
	//DEBUG_VALUE: blk_lld_busyidle_event_subscribe:lld <- $x20
	//DEBUG_VALUE: mas_blk_busyidle_event_register:nb <- $x19
	//DEBUG_VALUE: mas_blk_busyidle_event_register:ret <- 0
	.loc	2 201 6 is_stmt 1               // kernel/platform_source/basicplatform/block/mas_blk_busy_idle_notify.c:201:6
	mov	x0, x22
	bl	strlen
.Ltmp342:
	.loc	2 201 41 is_stmt 0              // kernel/platform_source/basicplatform/block/mas_blk_busy_idle_notify.c:201:41
	sub	x8, x0, #1                      // =1
	cmp	x8, #31                         // =31
	b.lo	.LBB13_11
.Ltmp343:
// %bb.8:
	//DEBUG_VALUE: is_valid_event_node:event_node <- $x22
	//DEBUG_VALUE: mas_blk_busyidle_event_register:event_node <- $x21
	//DEBUG_VALUE: blk_lld_busyidle_event_subscribe:event_node <- $x21
	//DEBUG_VALUE: blk_lld_busyidle_event_subscribe:lld <- $x20
	//DEBUG_VALUE: mas_blk_busyidle_event_register:nb <- $x19
	//DEBUG_VALUE: mas_blk_busyidle_event_register:ret <- 0
	.loc	2 0 41                          // kernel/platform_source/basicplatform/block/mas_blk_busy_idle_notify.c:0:41
	adrp	x0, .L.str.17
	add	x0, x0, :lo12:.L.str.17
.Ltmp344:
.LBB13_9:
	//DEBUG_VALUE: is_valid_event_node:event_node <- $x22
	//DEBUG_VALUE: mas_blk_busyidle_event_register:event_node <- $x21
	//DEBUG_VALUE: blk_lld_busyidle_event_subscribe:event_node <- $x21
	//DEBUG_VALUE: blk_lld_busyidle_event_subscribe:lld <- $x20
	//DEBUG_VALUE: mas_blk_busyidle_event_register:nb <- $x19
	//DEBUG_VALUE: mas_blk_busyidle_event_register:ret <- 0
	adrp	x1, .L__func__.is_valid_event_node
	add	x1, x1, :lo12:.L__func__.is_valid_event_node
	bl	printk
.Ltmp345:
	.loc	2 248 3 is_stmt 1               // kernel/platform_source/basicplatform/block/mas_blk_busy_idle_notify.c:248:3
	bl	dump_stack
.Ltmp346:
	.loc	2 0 3 is_stmt 0                 // kernel/platform_source/basicplatform/block/mas_blk_busy_idle_notify.c:0:3
	mov	w22, #-22
.Ltmp347:
	//DEBUG_LABEL: mas_blk_busyidle_event_register:free_notify_nb
	//DEBUG_VALUE: mas_blk_busyidle_event_register:ret <- undef
.LBB13_10:
	//DEBUG_VALUE: blk_lld_busyidle_event_subscribe:lld <- $x20
	//DEBUG_VALUE: mas_blk_busyidle_event_register:nb <- $x19
	.loc	2 287 3 is_stmt 1               // kernel/platform_source/basicplatform/block/mas_blk_busy_idle_notify.c:287:3
	mov	x0, x19
	bl	kfree
.Ltmp348:
	.loc	2 0 3 is_stmt 0                 // kernel/platform_source/basicplatform/block/mas_blk_busy_idle_notify.c:0:3
	b	.LBB13_4
.Ltmp349:
.LBB13_11:
	//DEBUG_VALUE: mas_blk_busyidle_event_register:event_node <- $x21
	//DEBUG_VALUE: blk_lld_busyidle_event_subscribe:event_node <- $x21
	//DEBUG_VALUE: blk_lld_busyidle_event_subscribe:lld <- $x20
	//DEBUG_VALUE: mas_blk_busyidle_event_register:nb <- $x19
	//DEBUG_VALUE: mas_blk_busyidle_event_register:ret <- 0
	.loc	2 254 24 is_stmt 1              // kernel/platform_source/basicplatform/block/mas_blk_busy_idle_notify.c:254:24
	add	x21, x20, #1304                 // =1304
.Ltmp350:
	//DEBUG_VALUE: blk_lld_busyidle_event_subscribe:event_node <- [DW_OP_LLVM_entry_value 1] $x1
	.loc	2 254 2 is_stmt 0               // kernel/platform_source/basicplatform/block/mas_blk_busy_idle_notify.c:254:2
	mov	x0, x21
	bl	mutex_lock
.Ltmp351:
	.loc	2 256 6 is_stmt 1               // kernel/platform_source/basicplatform/block/mas_blk_busy_idle_notify.c:256:6
	ldrb	w8, [x20, #25]
	tbz	w8, #0, .LBB13_13
.Ltmp352:
// %bb.12:
	//DEBUG_VALUE: blk_lld_busyidle_event_subscribe:lld <- $x20
	//DEBUG_VALUE: mas_blk_busyidle_event_register:nb <- $x19
	//DEBUG_VALUE: blk_lld_busyidle_event_subscribe:event_node <- [DW_OP_LLVM_entry_value 1] $x1
	//DEBUG_VALUE: mas_blk_busyidle_event_register:ret <- 0
	.loc	2 257 25                        // kernel/platform_source/basicplatform/block/mas_blk_busy_idle_notify.c:257:25
	add	x0, x20, #1480                  // =1480
	.loc	2 257 3 is_stmt 0               // kernel/platform_source/basicplatform/block/mas_blk_busy_idle_notify.c:257:3
	bl	mutex_lock
.Ltmp353:
.LBB13_13:
	//DEBUG_VALUE: blk_lld_busyidle_event_subscribe:lld <- $x20
	//DEBUG_VALUE: mas_blk_busyidle_event_register:nb <- $x19
	//DEBUG_VALUE: blk_lld_busyidle_event_subscribe:event_node <- [DW_OP_LLVM_entry_value 1] $x1
	//DEBUG_VALUE: mas_blk_busyidle_event_register:ret <- 0
	//DEBUG_VALUE: busyidle_find_subscribed_node:blk_idle <- [DW_OP_plus_uconst 1088, DW_OP_stack_value] $x20
	//DEBUG_VALUE: busyidle_find_subscribed_node:node <- $x22
	//DEBUG_VALUE: busyidle_find_subscribed_node:p <- 0
	.loc	2 0 0                           // kernel/platform_source/basicplatform/block/mas_blk_busy_idle_notify.c:0:0
	ldr	x24, [x20, #1200]
.Ltmp354:
	//DEBUG_VALUE: busyidle_find_subscribed_node:p <- $x24
	.loc	2 184 2 is_stmt 1               // kernel/platform_source/basicplatform/block/mas_blk_busy_idle_notify.c:184:2
	add	x23, x20, #1200                 // =1200
.Ltmp355:
	//DEBUG_VALUE: __mptr <- undef
	//DEBUG_VALUE: busyidle_find_subscribed_node:p <- undef
	.loc	2 0 2 is_stmt 0                 // kernel/platform_source/basicplatform/block/mas_blk_busy_idle_notify.c:0:2
	b	.LBB13_15
.Ltmp356:
.LBB13_14:                              //   in Loop: Header=BB13_15 Depth=1
	//DEBUG_VALUE: busyidle_find_subscribed_node:node <- $x22
	//DEBUG_VALUE: busyidle_find_subscribed_node:blk_idle <- [DW_OP_plus_uconst 1088, DW_OP_stack_value] $x20
	//DEBUG_VALUE: blk_lld_busyidle_event_subscribe:lld <- $x20
	//DEBUG_VALUE: mas_blk_busyidle_event_register:nb <- $x19
	//DEBUG_VALUE: blk_lld_busyidle_event_subscribe:event_node <- [DW_OP_LLVM_entry_value 1] $x1
	//DEBUG_VALUE: mas_blk_busyidle_event_register:ret <- 0
	//DEBUG_VALUE: busyidle_find_subscribed_node:p <- undef
	//DEBUG_VALUE: __mptr <- undef
	ldr	x24, [x24]
.Ltmp357:
	//DEBUG_VALUE: busyidle_find_subscribed_node:p <- $x24
.LBB13_15:                              // =>This Inner Loop Header: Depth=1
	//DEBUG_VALUE: busyidle_find_subscribed_node:node <- $x22
	//DEBUG_VALUE: busyidle_find_subscribed_node:blk_idle <- [DW_OP_plus_uconst 1088, DW_OP_stack_value] $x20
	//DEBUG_VALUE: blk_lld_busyidle_event_subscribe:lld <- $x20
	//DEBUG_VALUE: mas_blk_busyidle_event_register:nb <- $x19
	//DEBUG_VALUE: blk_lld_busyidle_event_subscribe:event_node <- [DW_OP_LLVM_entry_value 1] $x1
	//DEBUG_VALUE: mas_blk_busyidle_event_register:ret <- 0
	.loc	2 184 2                         // kernel/platform_source/basicplatform/block/mas_blk_busy_idle_notify.c:184:2
	cmp	x24, x23
	b.eq	.LBB13_19
.Ltmp358:
// %bb.16:                              //   in Loop: Header=BB13_15 Depth=1
	//DEBUG_VALUE: busyidle_find_subscribed_node:node <- $x22
	//DEBUG_VALUE: busyidle_find_subscribed_node:blk_idle <- [DW_OP_plus_uconst 1088, DW_OP_stack_value] $x20
	//DEBUG_VALUE: blk_lld_busyidle_event_subscribe:lld <- $x20
	//DEBUG_VALUE: mas_blk_busyidle_event_register:nb <- $x19
	//DEBUG_VALUE: blk_lld_busyidle_event_subscribe:event_node <- [DW_OP_LLVM_entry_value 1] $x1
	//DEBUG_VALUE: mas_blk_busyidle_event_register:ret <- 0
	.loc	2 185 33 is_stmt 1              // kernel/platform_source/basicplatform/block/mas_blk_busy_idle_notify.c:185:33
	add	x1, x24, #88                    // =88
	.loc	2 185 8 is_stmt 0               // kernel/platform_source/basicplatform/block/mas_blk_busy_idle_notify.c:185:8
	mov	x0, x22
	bl	strcmp
.Ltmp359:
	.loc	2 186 4 is_stmt 1               // kernel/platform_source/basicplatform/block/mas_blk_busy_idle_notify.c:186:4
	cbnz	w0, .LBB13_14
.Ltmp360:
// %bb.17:                              //   in Loop: Header=BB13_15 Depth=1
	//DEBUG_VALUE: busyidle_find_subscribed_node:node <- $x22
	//DEBUG_VALUE: busyidle_find_subscribed_node:blk_idle <- [DW_OP_plus_uconst 1088, DW_OP_stack_value] $x20
	//DEBUG_VALUE: blk_lld_busyidle_event_subscribe:lld <- $x20
	//DEBUG_VALUE: mas_blk_busyidle_event_register:nb <- $x19
	//DEBUG_VALUE: blk_lld_busyidle_event_subscribe:event_node <- [DW_OP_LLVM_entry_value 1] $x1
	//DEBUG_VALUE: mas_blk_busyidle_event_register:ret <- 0
	.loc	2 186 13 is_stmt 0              // kernel/platform_source/basicplatform/block/mas_blk_busy_idle_notify.c:186:13
	ldr	x8, [x19, #120]
	.loc	2 187 18 is_stmt 1              // kernel/platform_source/basicplatform/block/mas_blk_busy_idle_notify.c:187:18
	ldr	x9, [x24, #120]
.Ltmp361:
	.loc	2 185 7                         // kernel/platform_source/basicplatform/block/mas_blk_busy_idle_notify.c:185:7
	cmp	x8, x9
	b.ne	.LBB13_14
.Ltmp362:
// %bb.18:
	//DEBUG_VALUE: blk_lld_busyidle_event_subscribe:lld <- $x20
	//DEBUG_VALUE: mas_blk_busyidle_event_register:nb <- $x19
	//DEBUG_VALUE: blk_lld_busyidle_event_subscribe:event_node <- [DW_OP_LLVM_entry_value 1] $x1
	//DEBUG_VALUE: mas_blk_busyidle_event_register:ret <- 0
	.loc	2 260 3                         // kernel/platform_source/basicplatform/block/mas_blk_busy_idle_notify.c:260:3
	adrp	x0, .L.str.14
	adrp	x1, .L__func__.mas_blk_busyidle_event_register
	add	x0, x0, :lo12:.L.str.14
	add	x1, x1, :lo12:.L__func__.mas_blk_busyidle_event_register
	mov	x2, x22
	bl	printk
.Ltmp363:
	.loc	2 265 3                         // kernel/platform_source/basicplatform/block/mas_blk_busy_idle_notify.c:265:3
	bl	dump_stack
.Ltmp364:
	//DEBUG_VALUE: mas_blk_busyidle_event_register:ret <- -1
	.loc	2 0 0 is_stmt 0                 // kernel/platform_source/basicplatform/block/mas_blk_busy_idle_notify.c:0:0
	mov	w22, wzr
	b	.LBB13_22
.Ltmp365:
.LBB13_19:
	//DEBUG_VALUE: blk_lld_busyidle_event_subscribe:lld <- $x20
	//DEBUG_VALUE: mas_blk_busyidle_event_register:nb <- $x19
	//DEBUG_VALUE: blk_lld_busyidle_event_subscribe:event_node <- [DW_OP_LLVM_entry_value 1] $x1
	//DEBUG_VALUE: mas_blk_busyidle_event_register:ret <- 0
	//DEBUG_VALUE: setup_busy_idle_notify_nb:nb <- $x19
	.loc	2 213 2 is_stmt 1               // kernel/platform_source/basicplatform/block/mas_blk_busy_idle_notify.c:213:2
	adrp	x1, __cfi_mas_blk_busyidle_handler_latency_check_timer_expire
	add	x0, x19, #16                    // =16
	add	x1, x1, :lo12:__cfi_mas_blk_busyidle_handler_latency_check_timer_expire
	mov	w2, wzr
	mov	x3, xzr
	mov	x4, xzr
	bl	init_timer_key
.Ltmp366:
	.loc	2 220 32                        // kernel/platform_source/basicplatform/block/mas_blk_busy_idle_notify.c:220:32
	adrp	x8, __cfi_mas_blk_busyidle_notify_handler
	add	x8, x8, :lo12:__cfi_mas_blk_busyidle_notify_handler
	mov	x24, x19
	mov	x9, #4294967297
	str	x8, [x24, #64]!
	.loc	2 221 27                        // kernel/platform_source/basicplatform/block/mas_blk_busy_idle_notify.c:221:27
	str	wzr, [x19, #80]
	.loc	2 222 17                        // kernel/platform_source/basicplatform/block/mas_blk_busy_idle_notify.c:222:17
	str	x9, [x19, #144]
.Ltmp367:
	//DEBUG_VALUE: list_add_tail:head <- $x23
	//DEBUG_VALUE: list_add_tail:new <- $x19
	.loc	161 100 24                      // kernel/include/linux/list.h:100:24
	ldr	x25, [x20, #1208]
.Ltmp368:
	//DEBUG_VALUE: __list_add:next <- $x23
	//DEBUG_VALUE: __list_add:new <- $x19
	//DEBUG_VALUE: __list_add:prev <- $x25
	.loc	161 67 7                        // kernel/include/linux/list.h:67:7
	mov	x0, x19
	mov	x2, x23
	mov	x1, x25
	bl	__list_add_valid
.Ltmp369:
	.loc	161 67 6 is_stmt 0              // kernel/include/linux/list.h:67:6
	tbz	w0, #0, .LBB13_21
.Ltmp370:
// %bb.20:
	//DEBUG_VALUE: __list_add:prev <- $x25
	//DEBUG_VALUE: __list_add:next <- $x23
	//DEBUG_VALUE: list_add_tail:head <- $x23
	//DEBUG_VALUE: blk_lld_busyidle_event_subscribe:lld <- $x20
	//DEBUG_VALUE: __list_add:new <- $x19
	//DEBUG_VALUE: list_add_tail:new <- $x19
	//DEBUG_VALUE: mas_blk_busyidle_event_register:nb <- $x19
	//DEBUG_VALUE: blk_lld_busyidle_event_subscribe:event_node <- [DW_OP_LLVM_entry_value 1] $x1
	//DEBUG_VALUE: mas_blk_busyidle_event_register:ret <- 0
	.loc	161 70 13 is_stmt 1             // kernel/include/linux/list.h:70:13
	str	x19, [x20, #1208]
	.loc	161 71 12                       // kernel/include/linux/list.h:71:12
	stp	x23, x25, [x19]
.Ltmp371:
	.loc	161 73 2                        // kernel/include/linux/list.h:73:2
	str	x19, [x25]
.Ltmp372:
.LBB13_21:
	//DEBUG_VALUE: blk_lld_busyidle_event_subscribe:lld <- $x20
	//DEBUG_VALUE: mas_blk_busyidle_event_register:nb <- $x19
	//DEBUG_VALUE: blk_lld_busyidle_event_subscribe:event_node <- [DW_OP_LLVM_entry_value 1] $x1
	//DEBUG_VALUE: mas_blk_busyidle_event_register:ret <- 0
	.loc	2 273 46                        // kernel/platform_source/basicplatform/block/mas_blk_busy_idle_notify.c:273:46
	add	x0, x20, #1216                  // =1216
	.loc	2 273 2 is_stmt 0               // kernel/platform_source/basicplatform/block/mas_blk_busy_idle_notify.c:273:2
	mov	x1, x24
	bl	blocking_notifier_chain_register
.Ltmp373:
	.loc	2 274 2 is_stmt 1               // kernel/platform_source/basicplatform/block/mas_blk_busy_idle_notify.c:274:2
	adrp	x0, .L.str.15
	add	x0, x0, :lo12:.L.str.15
	mov	x1, x22
	bl	printk
.Ltmp374:
	.loc	2 0 2 is_stmt 0                 // kernel/platform_source/basicplatform/block/mas_blk_busy_idle_notify.c:0:2
	mov	w22, #1
.Ltmp375:
.LBB13_22:
	//DEBUG_VALUE: blk_lld_busyidle_event_subscribe:lld <- $x20
	//DEBUG_VALUE: mas_blk_busyidle_event_register:nb <- $x19
	//DEBUG_VALUE: blk_lld_busyidle_event_subscribe:event_node <- [DW_OP_LLVM_entry_value 1] $x1
	//DEBUG_VALUE: mas_blk_busyidle_event_register:ret <- undef
	//DEBUG_LABEL: mas_blk_busyidle_event_register:unlock
	.loc	2 280 6 is_stmt 1               // kernel/platform_source/basicplatform/block/mas_blk_busy_idle_notify.c:280:6
	ldrb	w8, [x20, #25]
	tbz	w8, #0, .LBB13_24
.Ltmp376:
// %bb.23:
	//DEBUG_VALUE: blk_lld_busyidle_event_subscribe:lld <- $x20
	//DEBUG_VALUE: mas_blk_busyidle_event_register:nb <- $x19
	//DEBUG_VALUE: blk_lld_busyidle_event_subscribe:event_node <- [DW_OP_LLVM_entry_value 1] $x1
	.loc	2 281 27                        // kernel/platform_source/basicplatform/block/mas_blk_busy_idle_notify.c:281:27
	add	x0, x20, #1480                  // =1480
	.loc	2 281 3 is_stmt 0               // kernel/platform_source/basicplatform/block/mas_blk_busy_idle_notify.c:281:3
	bl	mutex_unlock
.Ltmp377:
.LBB13_24:
	//DEBUG_VALUE: blk_lld_busyidle_event_subscribe:lld <- $x20
	//DEBUG_VALUE: mas_blk_busyidle_event_register:nb <- $x19
	//DEBUG_VALUE: blk_lld_busyidle_event_subscribe:event_node <- [DW_OP_LLVM_entry_value 1] $x1
	.loc	2 283 2 is_stmt 1               // kernel/platform_source/basicplatform/block/mas_blk_busy_idle_notify.c:283:2
	mov	x0, x21
	bl	mutex_unlock
.Ltmp378:
	//DEBUG_LABEL: mas_blk_busyidle_event_register:free_notify_nb
	//DEBUG_VALUE: mas_blk_busyidle_event_register:ret <- undef
	.loc	2 286 10                        // kernel/platform_source/basicplatform/block/mas_blk_busy_idle_notify.c:286:10
	tbz	w22, #0, .LBB13_26
.Ltmp379:
// %bb.25:
	//DEBUG_VALUE: blk_lld_busyidle_event_subscribe:lld <- $x20
	//DEBUG_VALUE: mas_blk_busyidle_event_register:nb <- $x19
	//DEBUG_VALUE: blk_lld_busyidle_event_subscribe:event_node <- [DW_OP_LLVM_entry_value 1] $x1
	.loc	2 0 0 is_stmt 0                 // kernel/platform_source/basicplatform/block/mas_blk_busy_idle_notify.c:0:0
	mov	w22, wzr
	b	.LBB13_4
.Ltmp380:
.LBB13_26:
	//DEBUG_VALUE: blk_lld_busyidle_event_subscribe:lld <- $x20
	//DEBUG_VALUE: mas_blk_busyidle_event_register:nb <- $x19
	//DEBUG_VALUE: blk_lld_busyidle_event_subscribe:event_node <- [DW_OP_LLVM_entry_value 1] $x1
	mov	w22, #-1
	b	.LBB13_10
.Lfunc_end13:
	.size	blk_lld_busyidle_event_subscribe, .Lfunc_end13-blk_lld_busyidle_event_subscribe
	.cfi_endproc
                                        // -- End function
	.globl	blk_busyidle_event_unsubscribe  // -- Begin function blk_busyidle_event_unsubscribe
	.p2align	2
	.type	blk_busyidle_event_unsubscribe,@function
blk_busyidle_event_unsubscribe:         // @blk_busyidle_event_unsubscribe
.Lfunc_begin14:
	.loc	2 903 0 is_stmt 1               // kernel/platform_source/basicplatform/block/mas_blk_busy_idle_notify.c:903:0
	.cfi_startproc
// %bb.0:
	//DEBUG_VALUE: blk_busyidle_event_unsubscribe:event_node <- $x0
	//DEBUG_VALUE: blk_busyidle_event_unsubscribe:event_node <- $x0
	.loc	2 904 6 prologue_end            // kernel/platform_source/basicplatform/block/mas_blk_busy_idle_notify.c:904:6
	cbz	x0, .LBB14_2
.Ltmp381:
// %bb.1:
	//DEBUG_VALUE: blk_busyidle_event_unsubscribe:event_node <- $x0
	stp	x29, x30, [sp, #-16]!           // 16-byte Folded Spill
	mov	x29, sp
	.cfi_def_cfa w29, 16
	.cfi_offset w30, -8
	.cfi_offset w29, -16
	.loc	2 907 9                         // kernel/platform_source/basicplatform/block/mas_blk_busy_idle_notify.c:907:9
	bl	mas_blk_busyidle_event_unregister
.Ltmp382:
	//DEBUG_VALUE: blk_busyidle_event_unsubscribe:event_node <- [DW_OP_LLVM_entry_value 1] $x0
	.loc	2 0 9 is_stmt 0                 // kernel/platform_source/basicplatform/block/mas_blk_busy_idle_notify.c:0:9
	ldp	x29, x30, [sp], #16             // 16-byte Folded Reload
	.loc	2 908 1 is_stmt 1               // kernel/platform_source/basicplatform/block/mas_blk_busy_idle_notify.c:908:1
	ret
.Ltmp383:
.LBB14_2:
	//DEBUG_VALUE: blk_busyidle_event_unsubscribe:event_node <- $x0
	.loc	2 0 1 is_stmt 0                 // kernel/platform_source/basicplatform/block/mas_blk_busy_idle_notify.c:0:1
	mov	w0, #-22
.Ltmp384:
	//DEBUG_VALUE: blk_busyidle_event_unsubscribe:event_node <- [DW_OP_LLVM_entry_value 1] $x0
	.loc	2 908 1                         // kernel/platform_source/basicplatform/block/mas_blk_busy_idle_notify.c:908:1
	ret
.Ltmp385:
.Lfunc_end14:
	.size	blk_busyidle_event_unsubscribe, .Lfunc_end14-blk_busyidle_event_unsubscribe
	.cfi_endproc
                                        // -- End function
	.p2align	2                               // -- Begin function mas_blk_busyidle_event_unregister
	.type	mas_blk_busyidle_event_unregister,@function
mas_blk_busyidle_event_unregister:      // @mas_blk_busyidle_event_unregister
.Lfunc_begin15:
	.loc	2 296 0 is_stmt 1               // kernel/platform_source/basicplatform/block/mas_blk_busy_idle_notify.c:296:0
	.cfi_startproc
// %bb.0:
	//DEBUG_VALUE: mas_blk_busyidle_event_unregister:event_node <- $x0
	stp	x29, x30, [sp, #-64]!           // 16-byte Folded Spill
	stp	x24, x23, [sp, #16]             // 16-byte Folded Spill
	stp	x22, x21, [sp, #32]             // 16-byte Folded Spill
	stp	x20, x19, [sp, #48]             // 16-byte Folded Spill
	mov	x29, sp
	.cfi_def_cfa w29, 64
	.cfi_offset w19, -8
	.cfi_offset w20, -16
	.cfi_offset w21, -24
	.cfi_offset w22, -32
	.cfi_offset w23, -40
	.cfi_offset w24, -48
	.cfi_offset w30, -56
	.cfi_offset w29, -64
.Ltmp386:
	.loc	2 299 40 prologue_end           // kernel/platform_source/basicplatform/block/mas_blk_busy_idle_notify.c:299:40
	ldr	x23, [x0, #48]
.Ltmp387:
	//DEBUG_VALUE: mas_blk_busyidle_event_unregister:blk_idle <- [DW_OP_plus_uconst 1088, DW_OP_stack_value] $x23
	//DEBUG_VALUE: mas_blk_busyidle_event_unregister:lld <- $x23
	.loc	2 0 40 is_stmt 0                // kernel/platform_source/basicplatform/block/mas_blk_busy_idle_notify.c:0:40
	mov	x21, x0
.Ltmp388:
	//DEBUG_VALUE: mas_blk_busyidle_event_unregister:event_node <- $x21
	//DEBUG_VALUE: mas_blk_busyidle_event_unregister:nb <- 0
	//DEBUG_VALUE: mas_blk_busyidle_event_unregister:ret <- 0
	//DEBUG_VALUE: mas_blk_busyidle_event_unregister:event_node <- $x21
	.loc	2 302 24 is_stmt 1              // kernel/platform_source/basicplatform/block/mas_blk_busy_idle_notify.c:302:24
	add	x19, x23, #1304                 // =1304
	.loc	2 302 2 is_stmt 0               // kernel/platform_source/basicplatform/block/mas_blk_busy_idle_notify.c:302:2
	mov	x0, x19
	bl	mutex_lock
.Ltmp389:
	.loc	2 304 6 is_stmt 1               // kernel/platform_source/basicplatform/block/mas_blk_busy_idle_notify.c:304:6
	ldrb	w8, [x23, #25]
	tbz	w8, #0, .LBB15_2
.Ltmp390:
// %bb.1:
	//DEBUG_VALUE: mas_blk_busyidle_event_unregister:lld <- $x23
	//DEBUG_VALUE: mas_blk_busyidle_event_unregister:blk_idle <- [DW_OP_plus_uconst 1088, DW_OP_stack_value] $x23
	//DEBUG_VALUE: mas_blk_busyidle_event_unregister:event_node <- $x21
	//DEBUG_VALUE: mas_blk_busyidle_event_unregister:ret <- 0
	//DEBUG_VALUE: mas_blk_busyidle_event_unregister:nb <- 0
	.loc	2 305 25                        // kernel/platform_source/basicplatform/block/mas_blk_busy_idle_notify.c:305:25
	add	x0, x23, #1480                  // =1480
	.loc	2 305 3 is_stmt 0               // kernel/platform_source/basicplatform/block/mas_blk_busy_idle_notify.c:305:3
	bl	mutex_lock
.Ltmp391:
.LBB15_2:
	//DEBUG_VALUE: mas_blk_busyidle_event_unregister:lld <- $x23
	//DEBUG_VALUE: mas_blk_busyidle_event_unregister:blk_idle <- [DW_OP_plus_uconst 1088, DW_OP_stack_value] $x23
	//DEBUG_VALUE: mas_blk_busyidle_event_unregister:event_node <- $x21
	//DEBUG_VALUE: mas_blk_busyidle_event_unregister:ret <- 0
	//DEBUG_VALUE: mas_blk_busyidle_event_unregister:nb <- 0
	//DEBUG_VALUE: busyidle_find_subscribed_node:blk_idle <- [DW_OP_plus_uconst 1088, DW_OP_stack_value] $x23
	//DEBUG_VALUE: busyidle_find_subscribed_node:node <- $x21
	//DEBUG_VALUE: busyidle_find_subscribed_node:p <- 0
	.loc	2 0 0                           // kernel/platform_source/basicplatform/block/mas_blk_busy_idle_notify.c:0:0
	ldr	x20, [x23, #1200]
.Ltmp392:
	//DEBUG_VALUE: busyidle_find_subscribed_node:p <- $x20
	.loc	2 184 2 is_stmt 1               // kernel/platform_source/basicplatform/block/mas_blk_busy_idle_notify.c:184:2
	add	x24, x23, #1200                 // =1200
.Ltmp393:
	//DEBUG_VALUE: __mptr <- undef
	//DEBUG_VALUE: busyidle_find_subscribed_node:p <- undef
	.loc	2 0 2 is_stmt 0                 // kernel/platform_source/basicplatform/block/mas_blk_busy_idle_notify.c:0:2
	b	.LBB15_4
.Ltmp394:
.LBB15_3:                               //   in Loop: Header=BB15_4 Depth=1
	//DEBUG_VALUE: busyidle_find_subscribed_node:blk_idle <- [DW_OP_plus_uconst 1088, DW_OP_stack_value] $x23
	//DEBUG_VALUE: mas_blk_busyidle_event_unregister:lld <- $x23
	//DEBUG_VALUE: mas_blk_busyidle_event_unregister:blk_idle <- [DW_OP_plus_uconst 1088, DW_OP_stack_value] $x23
	//DEBUG_VALUE: busyidle_find_subscribed_node:node <- $x21
	//DEBUG_VALUE: mas_blk_busyidle_event_unregister:event_node <- $x21
	//DEBUG_VALUE: mas_blk_busyidle_event_unregister:nb <- $x20
	//DEBUG_VALUE: mas_blk_busyidle_event_unregister:ret <- 0
	//DEBUG_VALUE: busyidle_find_subscribed_node:p <- undef
	//DEBUG_VALUE: __mptr <- undef
	ldr	x20, [x20]
.Ltmp395:
	//DEBUG_VALUE: busyidle_find_subscribed_node:p <- $x20
.LBB15_4:                               // =>This Inner Loop Header: Depth=1
	//DEBUG_VALUE: busyidle_find_subscribed_node:blk_idle <- [DW_OP_plus_uconst 1088, DW_OP_stack_value] $x23
	//DEBUG_VALUE: mas_blk_busyidle_event_unregister:lld <- $x23
	//DEBUG_VALUE: mas_blk_busyidle_event_unregister:blk_idle <- [DW_OP_plus_uconst 1088, DW_OP_stack_value] $x23
	//DEBUG_VALUE: busyidle_find_subscribed_node:node <- $x21
	//DEBUG_VALUE: mas_blk_busyidle_event_unregister:event_node <- $x21
	//DEBUG_VALUE: mas_blk_busyidle_event_unregister:ret <- 0
	.loc	2 184 2                         // kernel/platform_source/basicplatform/block/mas_blk_busy_idle_notify.c:184:2
	cmp	x20, x24
	b.eq	.LBB15_10
.Ltmp396:
// %bb.5:                               //   in Loop: Header=BB15_4 Depth=1
	//DEBUG_VALUE: busyidle_find_subscribed_node:blk_idle <- [DW_OP_plus_uconst 1088, DW_OP_stack_value] $x23
	//DEBUG_VALUE: mas_blk_busyidle_event_unregister:lld <- $x23
	//DEBUG_VALUE: mas_blk_busyidle_event_unregister:blk_idle <- [DW_OP_plus_uconst 1088, DW_OP_stack_value] $x23
	//DEBUG_VALUE: busyidle_find_subscribed_node:node <- $x21
	//DEBUG_VALUE: mas_blk_busyidle_event_unregister:event_node <- $x21
	//DEBUG_VALUE: mas_blk_busyidle_event_unregister:ret <- 0
	//DEBUG_VALUE: mas_blk_busyidle_event_unregister:nb <- $x20
	.loc	2 185 33 is_stmt 1              // kernel/platform_source/basicplatform/block/mas_blk_busy_idle_notify.c:185:33
	add	x22, x20, #88                   // =88
	.loc	2 185 8 is_stmt 0               // kernel/platform_source/basicplatform/block/mas_blk_busy_idle_notify.c:185:8
	mov	x0, x21
	mov	x1, x22
	bl	strcmp
.Ltmp397:
	.loc	2 186 4 is_stmt 1               // kernel/platform_source/basicplatform/block/mas_blk_busy_idle_notify.c:186:4
	cbnz	w0, .LBB15_3
.Ltmp398:
// %bb.6:                               //   in Loop: Header=BB15_4 Depth=1
	//DEBUG_VALUE: busyidle_find_subscribed_node:blk_idle <- [DW_OP_plus_uconst 1088, DW_OP_stack_value] $x23
	//DEBUG_VALUE: mas_blk_busyidle_event_unregister:lld <- $x23
	//DEBUG_VALUE: mas_blk_busyidle_event_unregister:blk_idle <- [DW_OP_plus_uconst 1088, DW_OP_stack_value] $x23
	//DEBUG_VALUE: busyidle_find_subscribed_node:node <- $x21
	//DEBUG_VALUE: mas_blk_busyidle_event_unregister:event_node <- $x21
	//DEBUG_VALUE: mas_blk_busyidle_event_unregister:nb <- $x20
	//DEBUG_VALUE: mas_blk_busyidle_event_unregister:ret <- 0
	.loc	2 186 13 is_stmt 0              // kernel/platform_source/basicplatform/block/mas_blk_busy_idle_notify.c:186:13
	ldr	x8, [x21, #32]
	.loc	2 187 18 is_stmt 1              // kernel/platform_source/basicplatform/block/mas_blk_busy_idle_notify.c:187:18
	ldr	x9, [x20, #120]
.Ltmp399:
	.loc	2 185 7                         // kernel/platform_source/basicplatform/block/mas_blk_busy_idle_notify.c:185:7
	cmp	x8, x9
	b.ne	.LBB15_3
.Ltmp400:
// %bb.7:
	//DEBUG_VALUE: mas_blk_busyidle_event_unregister:lld <- $x23
	//DEBUG_VALUE: mas_blk_busyidle_event_unregister:blk_idle <- [DW_OP_plus_uconst 1088, DW_OP_stack_value] $x23
	//DEBUG_VALUE: mas_blk_busyidle_event_unregister:event_node <- $x21
	//DEBUG_VALUE: mas_blk_busyidle_event_unregister:nb <- $x20
	//DEBUG_VALUE: mas_blk_busyidle_event_unregister:ret <- 0
	//DEBUG_VALUE: mas_blk_busyidle_event_unregister:nb <- $x20
	.loc	2 315 57                        // kernel/platform_source/basicplatform/block/mas_blk_busy_idle_notify.c:315:57
	add	x21, x20, #64                   // =64
.Ltmp401:
	.loc	2 315 48 is_stmt 0              // kernel/platform_source/basicplatform/block/mas_blk_busy_idle_notify.c:315:48
	add	x0, x23, #1216                  // =1216
	.loc	2 315 2                         // kernel/platform_source/basicplatform/block/mas_blk_busy_idle_notify.c:315:2
	mov	x1, x21
	bl	blocking_notifier_chain_unregister
.Ltmp402:
	.loc	2 316 2 is_stmt 1               // kernel/platform_source/basicplatform/block/mas_blk_busy_idle_notify.c:316:2
	adrp	x0, .L.str.19
	add	x0, x0, :lo12:.L.str.19
	mov	x1, x22
	mov	x2, x21
	bl	printk
.Ltmp403:
	//DEBUG_VALUE: __list_del_entry:entry <- $x20
	//DEBUG_VALUE: list_del_init:entry <- $x20
	.loc	161 132 7                       // kernel/include/linux/list.h:132:7
	mov	x0, x20
	bl	__list_del_entry_valid
.Ltmp404:
	.loc	161 132 6 is_stmt 0             // kernel/include/linux/list.h:132:6
	tbz	w0, #0, .LBB15_9
.Ltmp405:
// %bb.8:
	//DEBUG_VALUE: mas_blk_busyidle_event_unregister:lld <- $x23
	//DEBUG_VALUE: mas_blk_busyidle_event_unregister:blk_idle <- [DW_OP_plus_uconst 1088, DW_OP_stack_value] $x23
	//DEBUG_VALUE: list_del_init:entry <- $x20
	//DEBUG_VALUE: __list_del_entry:entry <- $x20
	//DEBUG_VALUE: mas_blk_busyidle_event_unregister:nb <- $x20
	//DEBUG_VALUE: mas_blk_busyidle_event_unregister:ret <- 0
	.loc	161 135 20 is_stmt 1            // kernel/include/linux/list.h:135:20
	ldp	x9, x8, [x20]
.Ltmp406:
	//DEBUG_VALUE: __list_del:prev <- $x8
	//DEBUG_VALUE: __list_del:next <- $x9
	.loc	161 112 13                      // kernel/include/linux/list.h:112:13
	str	x8, [x9, #8]
.Ltmp407:
	.loc	161 113 2                       // kernel/include/linux/list.h:113:2
	str	x9, [x8]
.Ltmp408:
.LBB15_9:
	//DEBUG_VALUE: mas_blk_busyidle_event_unregister:lld <- $x23
	//DEBUG_VALUE: mas_blk_busyidle_event_unregister:blk_idle <- [DW_OP_plus_uconst 1088, DW_OP_stack_value] $x23
	//DEBUG_VALUE: list_del_init:entry <- $x20
	//DEBUG_VALUE: mas_blk_busyidle_event_unregister:nb <- $x20
	//DEBUG_VALUE: mas_blk_busyidle_event_unregister:ret <- 0
	.loc	2 320 2                         // kernel/platform_source/basicplatform/block/mas_blk_busy_idle_notify.c:320:2
	mov	x0, x20
.Ltmp409:
	.loc	161 35 2                        // kernel/include/linux/list.h:35:2
	str	x20, [x20]
.Ltmp410:
	.loc	161 36 13                       // kernel/include/linux/list.h:36:13
	str	x20, [x20, #8]
.Ltmp411:
	.loc	2 320 2                         // kernel/platform_source/basicplatform/block/mas_blk_busy_idle_notify.c:320:2
	bl	kfree
.Ltmp412:
	//DEBUG_VALUE: INIT_LIST_HEAD:list <- undef
	.loc	2 0 0 is_stmt 0                 // kernel/platform_source/basicplatform/block/mas_blk_busy_idle_notify.c:0:0
	mov	w20, wzr
.Ltmp413:
	//DEBUG_VALUE: mas_blk_busyidle_event_unregister:ret <- $w20
	//DEBUG_LABEL: mas_blk_busyidle_event_unregister:out
	.loc	2 324 6 is_stmt 1               // kernel/platform_source/basicplatform/block/mas_blk_busy_idle_notify.c:324:6
	ldrb	w8, [x23, #25]
	tbnz	w8, #0, .LBB15_11
	b	.LBB15_12
.Ltmp414:
.LBB15_10:
	//DEBUG_VALUE: mas_blk_busyidle_event_unregister:lld <- $x23
	//DEBUG_VALUE: mas_blk_busyidle_event_unregister:blk_idle <- [DW_OP_plus_uconst 1088, DW_OP_stack_value] $x23
	//DEBUG_VALUE: mas_blk_busyidle_event_unregister:event_node <- $x21
	//DEBUG_VALUE: mas_blk_busyidle_event_unregister:ret <- 0
	.loc	2 309 3                         // kernel/platform_source/basicplatform/block/mas_blk_busy_idle_notify.c:309:3
	adrp	x0, .L.str.18
	add	x0, x0, :lo12:.L.str.18
	bl	printk
.Ltmp415:
	.loc	2 310 3                         // kernel/platform_source/basicplatform/block/mas_blk_busy_idle_notify.c:310:3
	bl	dump_stack
.Ltmp416:
	.loc	2 0 3 is_stmt 0                 // kernel/platform_source/basicplatform/block/mas_blk_busy_idle_notify.c:0:3
	mov	w20, #-22
.Ltmp417:
	//DEBUG_VALUE: mas_blk_busyidle_event_unregister:ret <- -22
	//DEBUG_VALUE: mas_blk_busyidle_event_unregister:ret <- $w20
	//DEBUG_LABEL: mas_blk_busyidle_event_unregister:out
	.loc	2 324 6 is_stmt 1               // kernel/platform_source/basicplatform/block/mas_blk_busy_idle_notify.c:324:6
	ldrb	w8, [x23, #25]
	tbz	w8, #0, .LBB15_12
.Ltmp418:
.LBB15_11:
	//DEBUG_VALUE: mas_blk_busyidle_event_unregister:lld <- $x23
	//DEBUG_VALUE: mas_blk_busyidle_event_unregister:blk_idle <- [DW_OP_plus_uconst 1088, DW_OP_stack_value] $x23
	//DEBUG_VALUE: mas_blk_busyidle_event_unregister:ret <- $w20
	.loc	2 325 27                        // kernel/platform_source/basicplatform/block/mas_blk_busy_idle_notify.c:325:27
	add	x0, x23, #1480                  // =1480
	.loc	2 325 3 is_stmt 0               // kernel/platform_source/basicplatform/block/mas_blk_busy_idle_notify.c:325:3
	bl	mutex_unlock
.Ltmp419:
.LBB15_12:
	//DEBUG_VALUE: mas_blk_busyidle_event_unregister:lld <- $x23
	//DEBUG_VALUE: mas_blk_busyidle_event_unregister:blk_idle <- [DW_OP_plus_uconst 1088, DW_OP_stack_value] $x23
	//DEBUG_VALUE: mas_blk_busyidle_event_unregister:ret <- $w20
	.loc	2 327 2 is_stmt 1               // kernel/platform_source/basicplatform/block/mas_blk_busy_idle_notify.c:327:2
	mov	x0, x19
	bl	mutex_unlock
.Ltmp420:
	.loc	2 328 2                         // kernel/platform_source/basicplatform/block/mas_blk_busy_idle_notify.c:328:2
	mov	w0, w20
	ldp	x20, x19, [sp, #48]             // 16-byte Folded Reload
.Ltmp421:
	ldp	x22, x21, [sp, #32]             // 16-byte Folded Reload
	ldp	x24, x23, [sp, #16]             // 16-byte Folded Reload
.Ltmp422:
	ldp	x29, x30, [sp], #64             // 16-byte Folded Reload
	ret
.Ltmp423:
.Lfunc_end15:
	.size	mas_blk_busyidle_event_unregister, .Lfunc_end15-mas_blk_busyidle_event_unregister
	.cfi_endproc
                                        // -- End function
	.globl	blk_queue_busyidle_event_unsubscribe // -- Begin function blk_queue_busyidle_event_unsubscribe
	.p2align	2
	.type	blk_queue_busyidle_event_unsubscribe,@function
blk_queue_busyidle_event_unsubscribe:   // @blk_queue_busyidle_event_unsubscribe
.Lfunc_begin16:
	.loc	2 915 0                         // kernel/platform_source/basicplatform/block/mas_blk_busy_idle_notify.c:915:0
	.cfi_startproc
// %bb.0:
	//DEBUG_VALUE: blk_queue_busyidle_event_unsubscribe:event_node <- $x0
	//DEBUG_VALUE: blk_queue_busyidle_event_unsubscribe:event_node <- $x0
	.loc	2 916 6 prologue_end            // kernel/platform_source/basicplatform/block/mas_blk_busy_idle_notify.c:916:6
	cbz	x0, .LBB16_2
.Ltmp424:
// %bb.1:
	//DEBUG_VALUE: blk_queue_busyidle_event_unsubscribe:event_node <- $x0
	stp	x29, x30, [sp, #-16]!           // 16-byte Folded Spill
	mov	x29, sp
	.cfi_def_cfa w29, 16
	.cfi_offset w30, -8
	.cfi_offset w29, -16
	.loc	2 919 9                         // kernel/platform_source/basicplatform/block/mas_blk_busy_idle_notify.c:919:9
	bl	mas_blk_busyidle_event_unregister
.Ltmp425:
	//DEBUG_VALUE: blk_queue_busyidle_event_unsubscribe:event_node <- [DW_OP_LLVM_entry_value 1] $x0
	.loc	2 0 9 is_stmt 0                 // kernel/platform_source/basicplatform/block/mas_blk_busy_idle_notify.c:0:9
	ldp	x29, x30, [sp], #16             // 16-byte Folded Reload
	.loc	2 920 1 is_stmt 1               // kernel/platform_source/basicplatform/block/mas_blk_busy_idle_notify.c:920:1
	ret
.Ltmp426:
.LBB16_2:
	//DEBUG_VALUE: blk_queue_busyidle_event_unsubscribe:event_node <- $x0
	.loc	2 0 1 is_stmt 0                 // kernel/platform_source/basicplatform/block/mas_blk_busy_idle_notify.c:0:1
	mov	w0, #-22
.Ltmp427:
	//DEBUG_VALUE: blk_queue_busyidle_event_unsubscribe:event_node <- [DW_OP_LLVM_entry_value 1] $x0
	.loc	2 920 1                         // kernel/platform_source/basicplatform/block/mas_blk_busy_idle_notify.c:920:1
	ret
.Ltmp428:
.Lfunc_end16:
	.size	blk_queue_busyidle_event_unsubscribe, .Lfunc_end16-blk_queue_busyidle_event_unsubscribe
	.cfi_endproc
                                        // -- End function
	.globl	blk_queue_busyidle_enable       // -- Begin function blk_queue_busyidle_enable
	.p2align	2
	.type	blk_queue_busyidle_enable,@function
blk_queue_busyidle_enable:              // @blk_queue_busyidle_enable
.Lfunc_begin17:
	.loc	2 926 0 is_stmt 1               // kernel/platform_source/basicplatform/block/mas_blk_busy_idle_notify.c:926:0
	.cfi_startproc
// %bb.0:
	//DEBUG_VALUE: blk_queue_busyidle_enable:q <- $x0
	//DEBUG_VALUE: blk_queue_busyidle_enable:enable <- $w1
	//DEBUG_VALUE: blk_queue_busyidle_enable:blk_lld <- 0
	//DEBUG_VALUE: blk_queue_busyidle_enable:enable <- $w1
	//DEBUG_VALUE: blk_queue_busyidle_enable:q <- $x0
	.loc	2 929 6 prologue_end            // kernel/platform_source/basicplatform/block/mas_blk_busy_idle_notify.c:929:6
	cbz	x0, .LBB17_2
.Ltmp429:
// %bb.1:
	//DEBUG_VALUE: blk_queue_busyidle_enable:q <- $x0
	//DEBUG_VALUE: blk_queue_busyidle_enable:enable <- $w1
	//DEBUG_VALUE: blk_queue_busyidle_enable:blk_lld <- 0
	stp	x29, x30, [sp, #-32]!           // 16-byte Folded Spill
	str	x19, [sp, #16]                  // 8-byte Folded Spill
	mov	x29, sp
	.cfi_def_cfa w29, 32
	.cfi_offset w19, -16
	.cfi_offset w30, -24
	.cfi_offset w29, -32
	mov	w19, w1
.Ltmp430:
	//DEBUG_VALUE: blk_queue_busyidle_enable:enable <- $w19
	//DEBUG_VALUE: blk_queue_busyidle_enable:enable <- $w19
	.loc	2 932 12                        // kernel/platform_source/basicplatform/block/mas_blk_busy_idle_notify.c:932:12
	bl	mas_blk_get_lld
.Ltmp431:
	//DEBUG_VALUE: blk_queue_busyidle_enable:q <- [DW_OP_LLVM_entry_value 1] $x0
	//DEBUG_VALUE: blk_queue_busyidle_enable:blk_lld <- $x0
	.loc	2 0 0 is_stmt 0                 // kernel/platform_source/basicplatform/block/mas_blk_busy_idle_notify.c:0:0
	ldr	x8, [x0, #24]
	.loc	2 934 6 is_stmt 1               // kernel/platform_source/basicplatform/block/mas_blk_busy_idle_notify.c:934:6
	cmp	w19, #0                         // =0
	ldr	x19, [sp, #16]                  // 8-byte Folded Reload
.Ltmp432:
	//DEBUG_VALUE: blk_queue_busyidle_enable:enable <- [DW_OP_LLVM_entry_value 1] $w1
	cset	w9, ne
.Ltmp433:
	.loc	2 934 6 is_stmt 0               // kernel/platform_source/basicplatform/block/mas_blk_busy_idle_notify.c:934:6
	bfi	x8, x9, #3, #1
.Ltmp434:
	.loc	2 0 0                           // kernel/platform_source/basicplatform/block/mas_blk_busy_idle_notify.c:0:0
	str	x8, [x0, #24]
	ldp	x29, x30, [sp], #32             // 16-byte Folded Reload
.Ltmp435:
.LBB17_2:
	.loc	2 938 1 is_stmt 1               // kernel/platform_source/basicplatform/block/mas_blk_busy_idle_notify.c:938:1
	ret
.Ltmp436:
.Lfunc_end17:
	.size	blk_queue_busyidle_enable, .Lfunc_end17-blk_queue_busyidle_enable
	.cfi_endproc
                                        // -- End function
	.globl	blk_mq_tagset_busyidle_enable   // -- Begin function blk_mq_tagset_busyidle_enable
	.p2align	2
	.type	blk_mq_tagset_busyidle_enable,@function
blk_mq_tagset_busyidle_enable:          // @blk_mq_tagset_busyidle_enable
.Lfunc_begin18:
	.loc	2 944 0                         // kernel/platform_source/basicplatform/block/mas_blk_busy_idle_notify.c:944:0
	.cfi_startproc
// %bb.0:
	//DEBUG_VALUE: blk_mq_tagset_busyidle_enable:tag_set <- $x0
	//DEBUG_VALUE: blk_mq_tagset_busyidle_enable:tag_set <- $x0
	//DEBUG_VALUE: blk_mq_tagset_busyidle_enable:enable <- $w1
	//DEBUG_VALUE: blk_mq_tagset_busyidle_enable:enable <- $w1
	//DEBUG_VALUE: blk_mq_tagset_busyidle_enable:blk_lld <- 0
	.loc	2 947 6 prologue_end            // kernel/platform_source/basicplatform/block/mas_blk_busy_idle_notify.c:947:6
	cbz	x0, .LBB18_2
.Ltmp437:
// %bb.1:
	//DEBUG_VALUE: blk_mq_tagset_busyidle_enable:tag_set <- $x0
	//DEBUG_VALUE: blk_mq_tagset_busyidle_enable:enable <- $w1
	//DEBUG_VALUE: blk_mq_tagset_busyidle_enable:blk_lld <- 0
	//DEBUG_VALUE: blk_mq_tagset_busyidle_enable:blk_lld <- [DW_OP_plus_uconst 64, DW_OP_stack_value] $x0
	.loc	2 0 0 is_stmt 0                 // kernel/platform_source/basicplatform/block/mas_blk_busy_idle_notify.c:0:0
	ldr	x8, [x0, #88]
	.loc	2 952 6 is_stmt 1               // kernel/platform_source/basicplatform/block/mas_blk_busy_idle_notify.c:952:6
	cmp	w1, #0                          // =0
	cset	w9, ne
.Ltmp438:
	.loc	2 952 6 is_stmt 0               // kernel/platform_source/basicplatform/block/mas_blk_busy_idle_notify.c:952:6
	bfi	x8, x9, #3, #1
.Ltmp439:
	.loc	2 0 0                           // kernel/platform_source/basicplatform/block/mas_blk_busy_idle_notify.c:0:0
	str	x8, [x0, #88]
.Ltmp440:
.LBB18_2:
	//DEBUG_VALUE: blk_mq_tagset_busyidle_enable:tag_set <- $x0
	//DEBUG_VALUE: blk_mq_tagset_busyidle_enable:enable <- $w1
	.loc	2 956 1 is_stmt 1               // kernel/platform_source/basicplatform/block/mas_blk_busy_idle_notify.c:956:1
	ret
.Ltmp441:
.Lfunc_end18:
	.size	blk_mq_tagset_busyidle_enable, .Lfunc_end18-blk_mq_tagset_busyidle_enable
	.cfi_endproc
                                        // -- End function
	.globl	blk_mq_tagset_hw_idle_notify_enable // -- Begin function blk_mq_tagset_hw_idle_notify_enable
	.p2align	2
	.type	blk_mq_tagset_hw_idle_notify_enable,@function
blk_mq_tagset_hw_idle_notify_enable:    // @blk_mq_tagset_hw_idle_notify_enable
.Lfunc_begin19:
	.loc	2 963 0                         // kernel/platform_source/basicplatform/block/mas_blk_busy_idle_notify.c:963:0
	.cfi_startproc
// %bb.0:
	//DEBUG_VALUE: blk_mq_tagset_hw_idle_notify_enable:tag_set <- $x0
	//DEBUG_VALUE: blk_mq_tagset_hw_idle_notify_enable:tag_set <- $x0
	//DEBUG_VALUE: blk_mq_tagset_hw_idle_notify_enable:enable <- $w1
	//DEBUG_VALUE: blk_mq_tagset_hw_idle_notify_enable:enable <- $w1
	//DEBUG_VALUE: blk_mq_tagset_hw_idle_notify_enable:blk_lld <- 0
	.loc	2 966 6 prologue_end            // kernel/platform_source/basicplatform/block/mas_blk_busy_idle_notify.c:966:6
	cbz	x0, .LBB19_2
.Ltmp442:
// %bb.1:
	//DEBUG_VALUE: blk_mq_tagset_hw_idle_notify_enable:tag_set <- $x0
	//DEBUG_VALUE: blk_mq_tagset_hw_idle_notify_enable:enable <- $w1
	//DEBUG_VALUE: blk_mq_tagset_hw_idle_notify_enable:blk_lld <- 0
	//DEBUG_VALUE: blk_mq_tagset_hw_idle_notify_enable:blk_lld <- [DW_OP_plus_uconst 64, DW_OP_stack_value] $x0
	.loc	2 970 41                        // kernel/platform_source/basicplatform/block/mas_blk_busy_idle_notify.c:970:41
	cmp	w1, #0                          // =0
	cset	w8, ne
	.loc	2 970 38 is_stmt 0              // kernel/platform_source/basicplatform/block/mas_blk_busy_idle_notify.c:970:38
	strb	w8, [x0, #1152]
.Ltmp443:
.LBB19_2:
	//DEBUG_VALUE: blk_mq_tagset_hw_idle_notify_enable:tag_set <- $x0
	//DEBUG_VALUE: blk_mq_tagset_hw_idle_notify_enable:enable <- $w1
	.loc	2 971 1 is_stmt 1               // kernel/platform_source/basicplatform/block/mas_blk_busy_idle_notify.c:971:1
	ret
.Ltmp444:
.Lfunc_end19:
	.size	blk_mq_tagset_hw_idle_notify_enable, .Lfunc_end19-blk_mq_tagset_hw_idle_notify_enable
	.cfi_endproc
                                        // -- End function
	.globl	mas_blk_busyidle_state_init     // -- Begin function mas_blk_busyidle_state_init
	.p2align	2
	.type	mas_blk_busyidle_state_init,@function
mas_blk_busyidle_state_init:            // @mas_blk_busyidle_state_init
.Lfunc_begin20:
	.loc	2 1001 0                        // kernel/platform_source/basicplatform/block/mas_blk_busy_idle_notify.c:1001:0
	.cfi_startproc
// %bb.0:
	//DEBUG_VALUE: mas_blk_busyidle_state_init:blk_idle <- $x0
	stp	x29, x30, [sp, #-64]!           // 16-byte Folded Spill
	str	x23, [sp, #16]                  // 8-byte Folded Spill
	stp	x22, x21, [sp, #32]             // 16-byte Folded Spill
	stp	x20, x19, [sp, #48]             // 16-byte Folded Spill
	mov	x29, sp
	.cfi_def_cfa w29, 64
	.cfi_offset w19, -8
	.cfi_offset w20, -16
	.cfi_offset w21, -24
	.cfi_offset w22, -32
	.cfi_offset w23, -48
	.cfi_offset w30, -56
	.cfi_offset w29, -64
.Ltmp445:
	.loc	2 1002 7 prologue_end           // kernel/platform_source/basicplatform/block/mas_blk_busy_idle_notify.c:1002:7
	adrp	x20, blk_idle_notify_workqueue
	ldr	x8, [x20, :lo12:blk_idle_notify_workqueue]
	mov	x19, x0
.Ltmp446:
	//DEBUG_VALUE: mas_blk_busyidle_state_init:blk_idle <- $x19
	//DEBUG_VALUE: mas_blk_busyidle_state_init:blk_idle <- $x19
	.loc	2 1002 6 is_stmt 0              // kernel/platform_source/basicplatform/block/mas_blk_busy_idle_notify.c:1002:6
	cbnz	x8, .LBB20_2
.Ltmp447:
// %bb.1:
	//DEBUG_VALUE: mas_blk_busyidle_state_init:blk_idle <- $x19
	.loc	2 1003 31 is_stmt 1             // kernel/platform_source/basicplatform/block/mas_blk_busy_idle_notify.c:1003:31
	adrp	x0, .L.str.4
	add	x0, x0, :lo12:.L.str.4
	mov	w1, #24
	mov	w2, wzr
	bl	alloc_workqueue
.Ltmp448:
	.loc	2 1003 29 is_stmt 0             // kernel/platform_source/basicplatform/block/mas_blk_busy_idle_notify.c:1003:29
	str	x0, [x20, :lo12:blk_idle_notify_workqueue]
.Ltmp449:
	.loc	2 1006 6 is_stmt 1              // kernel/platform_source/basicplatform/block/mas_blk_busy_idle_notify.c:1006:6
	cbz	x0, .LBB20_6
.Ltmp450:
.LBB20_2:
	//DEBUG_VALUE: mas_blk_busyidle_state_init:blk_idle <- $x19
	.loc	2 976 7                         // kernel/platform_source/basicplatform/block/mas_blk_busy_idle_notify.c:976:7
	adrp	x20, blk_fg_io_idle_notify_workqueue
	ldr	x8, [x20, :lo12:blk_fg_io_idle_notify_workqueue]
.Ltmp451:
	.loc	2 976 6 is_stmt 0               // kernel/platform_source/basicplatform/block/mas_blk_busy_idle_notify.c:976:6
	cbnz	x8, .LBB20_4
.Ltmp452:
// %bb.3:
	//DEBUG_VALUE: mas_blk_busyidle_state_init:blk_idle <- $x19
	.loc	2 977 37 is_stmt 1              // kernel/platform_source/basicplatform/block/mas_blk_busy_idle_notify.c:977:37
	adrp	x0, .L.str.20
	add	x0, x0, :lo12:.L.str.20
	mov	w1, #24
	mov	w2, wzr
	bl	alloc_workqueue
.Ltmp453:
	.loc	2 977 35 is_stmt 0              // kernel/platform_source/basicplatform/block/mas_blk_busy_idle_notify.c:977:35
	str	x0, [x20, :lo12:blk_fg_io_idle_notify_workqueue]
.Ltmp454:
	.loc	2 980 6 is_stmt 1               // kernel/platform_source/basicplatform/block/mas_blk_busy_idle_notify.c:980:6
	cbz	x0, .LBB20_7
.Ltmp455:
.LBB20_4:
	//DEBUG_VALUE: mas_blk_busyidle_state_init:blk_idle <- $x19
	.loc	2 1027 2                        // kernel/platform_source/basicplatform/block/mas_blk_busy_idle_notify.c:1027:2
	adrp	x20, delayed_work_timer_fn
.Ltmp456:
	.loc	2 1027 2 is_stmt 0              // kernel/platform_source/basicplatform/block/mas_blk_busy_idle_notify.c:1027:2
	adrp	x9, __cfi_mas_blk_idle_notify_work
.Ltmp457:
	.loc	2 1027 2                        // kernel/platform_source/basicplatform/block/mas_blk_busy_idle_notify.c:1027:2
	add	x20, x20, :lo12:delayed_work_timer_fn
	mov	w21, #5
	mov	x22, #68719476704
.Ltmp458:
	.loc	2 1027 2                        // kernel/platform_source/basicplatform/block/mas_blk_busy_idle_notify.c:1027:2
	add	x8, x19, #16                    // =16
	add	x9, x9, :lo12:__cfi_mas_blk_idle_notify_work
.Ltmp459:
	.loc	2 1027 2                        // kernel/platform_source/basicplatform/block/mas_blk_busy_idle_notify.c:1027:2
	add	x0, x19, #40                    // =40
	mov	w2, #2097152
	mov	x1, x20
	mov	x3, xzr
	mov	x4, xzr
.Ltmp460:
	.loc	2 1026 33 is_stmt 1             // kernel/platform_source/basicplatform/block/mas_blk_busy_idle_notify.c:1026:33
	str	w21, [x19, #104]
.Ltmp461:
	.loc	2 1027 2                        // kernel/platform_source/basicplatform/block/mas_blk_busy_idle_notify.c:1027:2
	str	x22, [x19, #8]
.Ltmp462:
	//DEBUG_VALUE: INIT_LIST_HEAD:list <- $x8
	.loc	161 35 2                        // kernel/include/linux/list.h:35:2
	str	x8, [x19, #16]
.Ltmp463:
	.loc	161 36 13                       // kernel/include/linux/list.h:36:13
	stp	x8, x9, [x19, #24]
.Ltmp464:
	.loc	2 1027 2                        // kernel/platform_source/basicplatform/block/mas_blk_busy_idle_notify.c:1027:2
	bl	init_timer_key
.Ltmp465:
	//DEBUG_VALUE: atomic_set:i <- 0
	//DEBUG_VALUE: atomic_set:v <- [DW_OP_plus_uconst 208, DW_OP_stack_value] $x19
	.loc	2 1030 2                        // kernel/platform_source/basicplatform/block/mas_blk_busy_idle_notify.c:1030:2
	adrp	x1, .L.str.6
	adrp	x2, mas_blk_busyidle_state_init.__key
	add	x0, x19, #216                   // =216
	add	x1, x1, :lo12:.L.str.6
	add	x2, x2, :lo12:mas_blk_busyidle_state_init.__key
.Ltmp466:
	.loc	159 46 2                        // kernel/include/asm-generic/atomic-instrumented.h:46:2
	str	wzr, [x19, #208]
.Ltmp467:
	.loc	2 1030 2                        // kernel/platform_source/basicplatform/block/mas_blk_busy_idle_notify.c:1030:2
	bl	__mutex_init
.Ltmp468:
	.loc	2 1032 2                        // kernel/platform_source/basicplatform/block/mas_blk_busy_idle_notify.c:1032:2
	adrp	x1, .L.str.8
	adrp	x2, mas_blk_busyidle_state_init.__key.7
.Ltmp469:
	.loc	2 1031 28                       // kernel/platform_source/basicplatform/block/mas_blk_busy_idle_notify.c:1031:28
	add	x8, x19, #112                   // =112
.Ltmp470:
	//DEBUG_VALUE: INIT_LIST_HEAD:list <- $x8
	.loc	2 1032 2                        // kernel/platform_source/basicplatform/block/mas_blk_busy_idle_notify.c:1032:2
	add	x0, x19, #128                   // =128
	add	x1, x1, :lo12:.L.str.8
	add	x2, x2, :lo12:mas_blk_busyidle_state_init.__key.7
.Ltmp471:
	.loc	161 35 2                        // kernel/include/linux/list.h:35:2
	str	x8, [x19, #112]
.Ltmp472:
	.loc	161 36 13                       // kernel/include/linux/list.h:36:13
	str	x8, [x19, #120]
.Ltmp473:
	.loc	2 1032 2                        // kernel/platform_source/basicplatform/block/mas_blk_busy_idle_notify.c:1032:2
	bl	__init_rwsem
.Ltmp474:
	.loc	2 992 2                         // kernel/platform_source/basicplatform/block/mas_blk_busy_idle_notify.c:992:2
	adrp	x9, mas_blk_fg_io_idle_notify_work
	mov	w23, #1
	add	x8, x19, #296                   // =296
	add	x9, x9, :lo12:mas_blk_fg_io_idle_notify_work
.Ltmp475:
	.loc	2 992 2 is_stmt 0               // kernel/platform_source/basicplatform/block/mas_blk_busy_idle_notify.c:992:2
	add	x0, x19, #320                   // =320
	mov	w2, #2097152
	mov	x1, x20
	mov	x3, xzr
	mov	x4, xzr
.Ltmp476:
	.loc	2 1032 2 is_stmt 1              // kernel/platform_source/basicplatform/block/mas_blk_busy_idle_notify.c:1032:2
	str	xzr, [x19, #200]
.Ltmp477:
	.loc	2 991 39                        // kernel/platform_source/basicplatform/block/mas_blk_busy_idle_notify.c:991:39
	str	w21, [x19, #384]
.Ltmp478:
	.loc	2 992 2                         // kernel/platform_source/basicplatform/block/mas_blk_busy_idle_notify.c:992:2
	str	x22, [x19, #288]
.Ltmp479:
	.loc	2 1033 23                       // kernel/platform_source/basicplatform/block/mas_blk_busy_idle_notify.c:1033:23
	str	w23, [x19, #280]
.Ltmp480:
	//DEBUG_VALUE: mas_blk_fg_io_busyidle_state_init:blk_idle <- $x19
	//DEBUG_VALUE: INIT_LIST_HEAD:list <- $x8
	.loc	161 35 2                        // kernel/include/linux/list.h:35:2
	str	x8, [x19, #296]
.Ltmp481:
	.loc	161 36 13                       // kernel/include/linux/list.h:36:13
	stp	x8, x9, [x19, #304]
.Ltmp482:
	.loc	2 992 2                         // kernel/platform_source/basicplatform/block/mas_blk_busy_idle_notify.c:992:2
	bl	init_timer_key
.Ltmp483:
	//DEBUG_VALUE: atomic_set:i <- 0
	//DEBUG_VALUE: atomic_set:v <- [DW_OP_plus_uconst 388, DW_OP_stack_value] $x19
	.loc	2 995 2                         // kernel/platform_source/basicplatform/block/mas_blk_busy_idle_notify.c:995:2
	adrp	x1, .L.str.21
	adrp	x2, mas_blk_fg_io_busyidle_state_init.__key
	add	x0, x19, #392                   // =392
	add	x1, x1, :lo12:.L.str.21
	add	x2, x2, :lo12:mas_blk_fg_io_busyidle_state_init.__key
.Ltmp484:
	.loc	159 46 2                        // kernel/include/asm-generic/atomic-instrumented.h:46:2
	str	wzr, [x19, #388]
.Ltmp485:
	.loc	2 995 2                         // kernel/platform_source/basicplatform/block/mas_blk_busy_idle_notify.c:995:2
	bl	__mutex_init
.Ltmp486:
	.loc	2 1042 2                        // kernel/platform_source/basicplatform/block/mas_blk_busy_idle_notify.c:1042:2
	adrp	x1, .L.str.10
	adrp	x2, mas_blk_busyidle_state_init.__key.9
.Ltmp487:
	.loc	2 1040 28                       // kernel/platform_source/basicplatform/block/mas_blk_busy_idle_notify.c:1040:28
	add	x8, x19, #480                   // =480
	.loc	2 1041 28                       // kernel/platform_source/basicplatform/block/mas_blk_busy_idle_notify.c:1041:28
	add	x9, x19, #496                   // =496
.Ltmp488:
	//DEBUG_VALUE: INIT_LIST_HEAD:list <- $x8
	.loc	160 329 16                      // kernel/include/linux/spinlock.h:329:16
	add	x0, x19, #512                   // =512
.Ltmp489:
	.loc	2 1042 2                        // kernel/platform_source/basicplatform/block/mas_blk_busy_idle_notify.c:1042:2
	add	x1, x1, :lo12:.L.str.10
	add	x2, x2, :lo12:mas_blk_busyidle_state_init.__key.9
	mov	w3, #2
.Ltmp490:
	.loc	2 996 29                        // kernel/platform_source/basicplatform/block/mas_blk_busy_idle_notify.c:996:29
	str	w23, [x19, #456]
.Ltmp491:
	.loc	2 1039 22                       // kernel/platform_source/basicplatform/block/mas_blk_busy_idle_notify.c:1039:22
	stp	xzr, xzr, [x19, #464]
.Ltmp492:
	.loc	161 35 2                        // kernel/include/linux/list.h:35:2
	str	x8, [x19, #480]
.Ltmp493:
	.loc	161 36 13                       // kernel/include/linux/list.h:36:13
	str	x8, [x19, #488]
.Ltmp494:
	//DEBUG_VALUE: INIT_LIST_HEAD:list <- $x9
	.loc	161 35 2                        // kernel/include/linux/list.h:35:2
	str	x9, [x19, #496]
.Ltmp495:
	.loc	161 36 13                       // kernel/include/linux/list.h:36:13
	str	x9, [x19, #504]
.Ltmp496:
	//DEBUG_VALUE: spinlock_check:lock <- [DW_OP_plus_uconst 512, DW_OP_stack_value] $x19
	.loc	2 1042 2                        // kernel/platform_source/basicplatform/block/mas_blk_busy_idle_notify.c:1042:2
	bl	__raw_spin_lock_init
.Ltmp497:
	.loc	2 0 0 is_stmt 0                 // kernel/platform_source/basicplatform/block/mas_blk_busy_idle_notify.c:0:0
	mov	w0, wzr
.Ltmp498:
.LBB20_5:
	//DEBUG_VALUE: mas_blk_busyidle_state_init:blk_idle <- $x19
	.loc	2 1045 1 is_stmt 1              // kernel/platform_source/basicplatform/block/mas_blk_busy_idle_notify.c:1045:1
	ldp	x20, x19, [sp, #48]             // 16-byte Folded Reload
.Ltmp499:
	//DEBUG_VALUE: mas_blk_busyidle_state_init:blk_idle <- [DW_OP_LLVM_entry_value 1] $x0
	ldp	x22, x21, [sp, #32]             // 16-byte Folded Reload
	ldr	x23, [sp, #16]                  // 8-byte Folded Reload
	ldp	x29, x30, [sp], #64             // 16-byte Folded Reload
	ret
.Ltmp500:
.LBB20_6:
	//DEBUG_VALUE: mas_blk_busyidle_state_init:blk_idle <- $x19
	.loc	2 1007 3                        // kernel/platform_source/basicplatform/block/mas_blk_busy_idle_notify.c:1007:3
	adrp	x0, .L.str.5
	adrp	x1, .L__func__.mas_blk_busyidle_state_init
	add	x0, x0, :lo12:.L.str.5
	add	x1, x1, :lo12:.L__func__.mas_blk_busyidle_state_init
	b	.LBB20_8
.Ltmp501:
.LBB20_7:
	//DEBUG_VALUE: mas_blk_busyidle_state_init:blk_idle <- $x19
	.loc	2 981 3                         // kernel/platform_source/basicplatform/block/mas_blk_busy_idle_notify.c:981:3
	adrp	x0, .L.str.5
	adrp	x1, .L__func__.mas_blk_alloc_fg_io_workqueue
	add	x0, x0, :lo12:.L.str.5
	add	x1, x1, :lo12:.L__func__.mas_blk_alloc_fg_io_workqueue
.Ltmp502:
.LBB20_8:
	//DEBUG_VALUE: mas_blk_busyidle_state_init:blk_idle <- $x19
	.loc	2 0 0 is_stmt 0                 // kernel/platform_source/basicplatform/block/mas_blk_busy_idle_notify.c:0:0
	bl	printk
.Ltmp503:
	mov	w0, #-12
	b	.LBB20_5
.Ltmp504:
.Lfunc_end20:
	.size	mas_blk_busyidle_state_init, .Lfunc_end20-mas_blk_busyidle_state_init
	.cfi_endproc
                                        // -- End function
	.p2align	2                               // -- Begin function mas_blk_fg_io_idle_notify_work
	.type	mas_blk_fg_io_idle_notify_work,@function
mas_blk_fg_io_idle_notify_work:         // @mas_blk_fg_io_idle_notify_work
.Lfunc_begin21:
	.loc	2 349 0 is_stmt 1               // kernel/platform_source/basicplatform/block/mas_blk_busy_idle_notify.c:349:0
	.cfi_startproc
// %bb.0:
	//DEBUG_VALUE: mas_blk_fg_io_idle_notify_work:work <- $x0
	stp	x29, x30, [sp, #-48]!           // 16-byte Folded Spill
	str	x21, [sp, #16]                  // 8-byte Folded Spill
	stp	x20, x19, [sp, #32]             // 16-byte Folded Spill
	mov	x29, sp
	.cfi_def_cfa w29, 48
	.cfi_offset w19, -8
	.cfi_offset w20, -16
	.cfi_offset w21, -32
	.cfi_offset w30, -40
	.cfi_offset w29, -48
.Ltmp505:
	//DEBUG_VALUE: __mptr <- $x0
	mov	x21, x0
.Ltmp506:
	//DEBUG_VALUE: __mptr <- undef
	//DEBUG_VALUE: mas_blk_fg_io_idle_notify_work:blk_idle <- undef
	//DEBUG_VALUE: __mptr <- $x21
	//DEBUG_VALUE: mas_blk_fg_io_idle_notify_work:work <- $x21
	.loc	2 355 3 prologue_end            // kernel/platform_source/basicplatform/block/mas_blk_busy_idle_notify.c:355:3
	sub	x0, x0, #1376                   // =1376
.Ltmp507:
	//DEBUG_VALUE: mas_blk_fg_io_idle_notify_work:blk_lld <- $x0
	.loc	2 356 28                        // kernel/platform_source/basicplatform/block/mas_blk_busy_idle_notify.c:356:28
	bl	mas_blk_get_queue_by_lld
.Ltmp508:
	.loc	2 358 24                        // kernel/platform_source/basicplatform/block/mas_blk_busy_idle_notify.c:358:24
	add	x19, x21, #104                  // =104
	.loc	2 356 28                        // kernel/platform_source/basicplatform/block/mas_blk_busy_idle_notify.c:356:28
	mov	x20, x0
.Ltmp509:
	//DEBUG_VALUE: mas_blk_fg_io_idle_notify_work:q <- $x20
	.loc	2 358 2                         // kernel/platform_source/basicplatform/block/mas_blk_busy_idle_notify.c:358:2
	mov	x0, x19
	bl	mutex_lock
.Ltmp510:
	//DEBUG_VALUE: atomic_read:v <- [DW_OP_plus_uconst 388, DW_OP_stack_value] undef
	.loc	159 28 9                        // kernel/include/asm-generic/atomic-instrumented.h:28:9
	ldr	w8, [x21, #100]
.Ltmp511:
	.loc	2 359 49                        // kernel/platform_source/basicplatform/block/mas_blk_busy_idle_notify.c:359:49
	cbnz	w8, .LBB21_3
.Ltmp512:
// %bb.1:
	//DEBUG_VALUE: mas_blk_fg_io_idle_notify_work:work <- $x21
	//DEBUG_VALUE: mas_blk_fg_io_idle_notify_work:q <- $x20
	.loc	2 360 14                        // kernel/platform_source/basicplatform/block/mas_blk_busy_idle_notify.c:360:14
	ldr	w8, [x21, #168]
.Ltmp513:
	.loc	2 359 6                         // kernel/platform_source/basicplatform/block/mas_blk_busy_idle_notify.c:359:6
	cmp	w8, #1                          // =1
	b.eq	.LBB21_3
.Ltmp514:
// %bb.2:
	//DEBUG_VALUE: mas_blk_fg_io_idle_notify_work:work <- $x21
	//DEBUG_VALUE: mas_blk_fg_io_idle_notify_work:q <- $x20
	.loc	2 0 6 is_stmt 0                 // kernel/platform_source/basicplatform/block/mas_blk_busy_idle_notify.c:0:6
	mov	w8, #1
.Ltmp515:
	.loc	2 362 43 is_stmt 1              // kernel/platform_source/basicplatform/block/mas_blk_busy_idle_notify.c:362:43
	sub	x0, x21, #160                   // =160
	.loc	2 362 3 is_stmt 0               // kernel/platform_source/basicplatform/block/mas_blk_busy_idle_notify.c:362:3
	mov	w1, #3
	mov	x2, x20
	.loc	2 361 30 is_stmt 1              // kernel/platform_source/basicplatform/block/mas_blk_busy_idle_notify.c:361:30
	str	w8, [x21, #168]
	.loc	2 362 3                         // kernel/platform_source/basicplatform/block/mas_blk_busy_idle_notify.c:362:3
	bl	blocking_notifier_call_chain
.Ltmp516:
.LBB21_3:
	//DEBUG_VALUE: mas_blk_fg_io_idle_notify_work:work <- $x21
	//DEBUG_VALUE: mas_blk_fg_io_idle_notify_work:q <- $x20
	.loc	2 365 2                         // kernel/platform_source/basicplatform/block/mas_blk_busy_idle_notify.c:365:2
	mov	x0, x19
	bl	mutex_unlock
.Ltmp517:
	.loc	2 366 1                         // kernel/platform_source/basicplatform/block/mas_blk_busy_idle_notify.c:366:1
	ldp	x20, x19, [sp, #32]             // 16-byte Folded Reload
.Ltmp518:
	ldr	x21, [sp, #16]                  // 8-byte Folded Reload
.Ltmp519:
	ldp	x29, x30, [sp], #48             // 16-byte Folded Reload
	ret
.Ltmp520:
.Lfunc_end21:
	.size	mas_blk_fg_io_idle_notify_work, .Lfunc_end21-mas_blk_fg_io_idle_notify_work
	.cfi_endproc
                                        // -- End function
	.type	.L.str,@object                  // @.str
	.section	.rodata.str1.1,"aMS",@progbits,1
.L.str:
	.asciz	"\0013[BLK-IO]%s: %s process time is more than %u ms\n"
	.size	.L.str, 50

	.type	.L__func__.mas_blk_busyidle_handler_latency_check_timer_expire,@object // @__func__.mas_blk_busyidle_handler_latency_check_timer_expire
.L__func__.mas_blk_busyidle_handler_latency_check_timer_expire:
	.asciz	"mas_blk_busyidle_handler_latency_check_timer_expire"
	.size	.L__func__.mas_blk_busyidle_handler_latency_check_timer_expire, 52

	.type	.L.str.1,@object                // @.str.1
.L.str.1:
	.asciz	"\0013[BLK-IO]%s: %s NULL callback\n"
	.size	.L.str.1, 32

	.type	.L__func__.mas_blk_busyidle_notify_handler,@object // @__func__.mas_blk_busyidle_notify_handler
.L__func__.mas_blk_busyidle_notify_handler:
	.asciz	"mas_blk_busyidle_notify_handler"
	.size	.L__func__.mas_blk_busyidle_notify_handler, 32

	.type	.L.str.2,@object                // @.str.2
.L.str.2:
	.asciz	"\0013[BLK-IO]%s: %s error!\n"
	.size	.L.str.2, 25

	.type	.L.str.3,@object                // @.str.3
.L.str.3:
	.asciz	"\0013[BLK-IO]%s: %s busy idle callback cost %lld ms\n"
	.size	.L.str.3, 50

	.type	blk_fg_io_idle_notify_workqueue,@object // @blk_fg_io_idle_notify_workqueue
	.local	blk_fg_io_idle_notify_workqueue
	.comm	blk_fg_io_idle_notify_workqueue,8,8
	.type	blk_idle_notify_workqueue,@object // @blk_idle_notify_workqueue
	.local	blk_idle_notify_workqueue
	.comm	blk_idle_notify_workqueue,8,8
	.type	.L.str.4,@object                // @.str.4
.L.str.4:
	.asciz	"busyidle_notify"
	.size	.L.str.4, 16

	.type	.L.str.5,@object                // @.str.5
.L.str.5:
	.asciz	"\0013[BLK-IO]%s: Failed to alloc workqueue!\n"
	.size	.L.str.5, 42

	.type	.L__func__.mas_blk_busyidle_state_init,@object // @__func__.mas_blk_busyidle_state_init
.L__func__.mas_blk_busyidle_state_init:
	.asciz	"mas_blk_busyidle_state_init"
	.size	.L__func__.mas_blk_busyidle_state_init, 28

	.type	mas_blk_busyidle_state_init.__key,@object // @mas_blk_busyidle_state_init.__key
	.local	mas_blk_busyidle_state_init.__key
	.comm	mas_blk_busyidle_state_init.__key,1,1
	.type	.L.str.6,@object                // @.str.6
.L.str.6:
	.asciz	"&blk_idle->io_count_mutex"
	.size	.L.str.6, 26

	.type	mas_blk_busyidle_state_init.__key.7,@object // @mas_blk_busyidle_state_init.__key.7
	.local	mas_blk_busyidle_state_init.__key.7
	.comm	mas_blk_busyidle_state_init.__key.7,1,1
	.type	.L.str.8,@object                // @.str.8
.L.str.8:
	.asciz	"&(&blk_idle->nh)->rwsem"
	.size	.L.str.8, 24

	.type	mas_blk_busyidle_state_init.__key.9,@object // @mas_blk_busyidle_state_init.__key.9
	.local	mas_blk_busyidle_state_init.__key.9
	.comm	mas_blk_busyidle_state_init.__key.9,1,1
	.type	.L.str.10,@object               // @.str.10
.L.str.10:
	.asciz	"&blk_idle->counted_list_lock"
	.size	.L.str.10, 29

	.type	.L.str.12,@object               // @.str.12
.L.str.12:
	.asciz	"\0013[BLK-IO]%s: io_count has been zero\n"
	.size	.L.str.12, 38

	.type	.L__func__.blk_idle_count,@object // @__func__.blk_idle_count
.L__func__.blk_idle_count:
	.asciz	"blk_idle_count"
	.size	.L__func__.blk_idle_count, 15

	.type	.L.str.13,@object               // @.str.13
.L.str.13:
	.asciz	"\0013[BLK-IO]<%s> io_count has been zero\n"
	.size	.L.str.13, 39

	.type	.L__func__.blk_fg_io_idle_count,@object // @__func__.blk_fg_io_idle_count
.L__func__.blk_fg_io_idle_count:
	.asciz	"blk_fg_io_idle_count"
	.size	.L__func__.blk_fg_io_idle_count, 21

	.type	.L.str.14,@object               // @.str.14
.L.str.14:
	.asciz	"\0013[BLK-IO]%s: %s has been registered already!\n"
	.size	.L.str.14, 47

	.type	.L__func__.mas_blk_busyidle_event_register,@object // @__func__.mas_blk_busyidle_event_register
.L__func__.mas_blk_busyidle_event_register:
	.asciz	"mas_blk_busyidle_event_register"
	.size	.L__func__.mas_blk_busyidle_event_register, 32

	.type	.L.str.15,@object               // @.str.15
.L.str.15:
	.asciz	"\0013[BLK-IO]%s registered to busy idle\n"
	.size	.L.str.15, 38

	.type	.L.str.16,@object               // @.str.16
.L.str.16:
	.asciz	"\0010[BLK-IO]%s: notifier_callback is NULL\n"
	.size	.L.str.16, 41

	.type	.L__func__.is_valid_event_node,@object // @__func__.is_valid_event_node
.L__func__.is_valid_event_node:
	.asciz	"is_valid_event_node"
	.size	.L__func__.is_valid_event_node, 20

	.type	.L.str.17,@object               // @.str.17
.L.str.17:
	.asciz	"\0010[BLK-IO]%s: Invalid subscriber\n"
	.size	.L.str.17, 34

	.type	.L.str.18,@object               // @.str.18
.L.str.18:
	.asciz	"\0013[BLK-IO]Trying to unregister an unregistered event_node!\n"
	.size	.L.str.18, 60

	.type	.L.str.19,@object               // @.str.19
.L.str.19:
	.asciz	"\0013[BLK-IO]%s unregistered from busy idle module 0x%pK\n"
	.size	.L.str.19, 55

	.type	.L.str.20,@object               // @.str.20
.L.str.20:
	.asciz	"fg_busy_idle_notify"
	.size	.L.str.20, 20

	.type	.L__func__.mas_blk_alloc_fg_io_workqueue,@object // @__func__.mas_blk_alloc_fg_io_workqueue
.L__func__.mas_blk_alloc_fg_io_workqueue:
	.asciz	"mas_blk_alloc_fg_io_workqueue"
	.size	.L__func__.mas_blk_alloc_fg_io_workqueue, 30

	.type	mas_blk_fg_io_busyidle_state_init.__key,@object // @mas_blk_fg_io_busyidle_state_init.__key
	.local	mas_blk_fg_io_busyidle_state_init.__key
	.comm	mas_blk_fg_io_busyidle_state_init.__key,1,1
	.type	.L.str.21,@object               // @.str.21
.L.str.21:
	.asciz	"&blk_idle->fg_io_count_mutex"
	.size	.L.str.21, 29
