	.text
	.section	.note.gnu.property,"a",@note
	.p2align	3
	.word	4
	.word	16
	.word	5
	.asciz	"GNU"
	.word	3221225472
	.word	4
	.word	3
	.word	0
.Lsec_end0:
	.text
	.file	"mas_blk_flush.c"
                                        // Start of file scope inline assembly
	.section	.initcall6.init,"a",@progbits
__initcall__kmod_mas_blk_flush__487_292___cfi_mas_blk_flush_init6:
.Ltmp0:
	.word	__cfi_mas_blk_flush_init-.Ltmp0
	.text


                                        // End of file scope inline assembly
	.file	1 "/mnt/disk/jenkins/ci/workspace/chipset_pipeline_release/opensource/component_code/vendor/huawei/extra/build/build_script/kirin_kernel_release" "kernel/platform_source/basicplatform/block/mas_blk_flush.c"
	.file	2 "/mnt/disk/jenkins/ci/workspace/chipset_pipeline_release/opensource/component_code/vendor/huawei/extra/build/build_script/kirin_kernel_release" "kernel/include/linux/types.h"
	.file	3 "/mnt/disk/jenkins/ci/workspace/chipset_pipeline_release/opensource/component_code/vendor/huawei/extra/build/build_script/kirin_kernel_release" "kernel/include/asm-generic/qspinlock_types.h"
	.file	4 "/mnt/disk/jenkins/ci/workspace/chipset_pipeline_release/opensource/component_code/vendor/huawei/extra/build/build_script/kirin_kernel_release" "kernel/include/uapi/asm-generic/int-ll64.h"
	.file	5 "/mnt/disk/jenkins/ci/workspace/chipset_pipeline_release/opensource/component_code/vendor/huawei/extra/build/build_script/kirin_kernel_release" "kernel/include/asm-generic/int-ll64.h"
	.file	6 "/mnt/disk/jenkins/ci/workspace/chipset_pipeline_release/opensource/component_code/vendor/huawei/extra/build/build_script/kirin_kernel_release" "kernel/include/linux/spinlock_types.h"
	.file	7 "/mnt/disk/jenkins/ci/workspace/chipset_pipeline_release/opensource/component_code/vendor/huawei/extra/build/build_script/kirin_kernel_release" "kernel/include/linux/notifier.h"
	.file	8 "/mnt/disk/jenkins/ci/workspace/chipset_pipeline_release/opensource/component_code/vendor/huawei/extra/build/build_script/kirin_kernel_release" "kernel/include/linux/module.h"
	.file	9 "/mnt/disk/jenkins/ci/workspace/chipset_pipeline_release/opensource/component_code/vendor/huawei/extra/build/build_script/kirin_kernel_release" "kernel/include/linux/quota.h"
	.file	10 "/mnt/disk/jenkins/ci/workspace/chipset_pipeline_release/opensource/component_code/vendor/huawei/extra/build/build_script/kirin_kernel_release" "kernel/include/linux/hrtimer.h"
	.file	11 "/mnt/disk/jenkins/ci/workspace/chipset_pipeline_release/opensource/component_code/vendor/huawei/extra/build/build_script/kirin_kernel_release" "kernel/include/linux/mm.h"
	.file	12 "/mnt/disk/jenkins/ci/workspace/chipset_pipeline_release/opensource/component_code/vendor/huawei/extra/build/build_script/kirin_kernel_release" "kernel/include/linux/restart_block.h"
	.file	13 "/mnt/disk/jenkins/ci/workspace/chipset_pipeline_release/opensource/component_code/vendor/huawei/extra/build/build_script/kirin_kernel_release" "kernel/include/linux/blkdev.h"
	.file	14 "/mnt/disk/jenkins/ci/workspace/chipset_pipeline_release/opensource/component_code/vendor/huawei/extra/build/build_script/kirin_kernel_release" "kernel/include/platform_include/basicplatform/linux/mas/mas_blk.h"
	.file	15 "/mnt/disk/jenkins/ci/workspace/chipset_pipeline_release/opensource/component_code/vendor/huawei/extra/build/build_script/kirin_kernel_release" "kernel/include/linux/elevator.h"
	.file	16 "/mnt/disk/jenkins/ci/workspace/chipset_pipeline_release/opensource/component_code/vendor/huawei/extra/build/build_script/kirin_kernel_release" "kernel/include/linux/backing-dev-defs.h"
	.file	17 "/mnt/disk/jenkins/ci/workspace/chipset_pipeline_release/opensource/component_code/vendor/huawei/extra/build/build_script/kirin_kernel_release" "kernel/include/linux/pm.h"
	.file	18 "/mnt/disk/jenkins/ci/workspace/chipset_pipeline_release/opensource/component_code/vendor/huawei/extra/build/build_script/kirin_kernel_release" "kernel/include/linux/migrate_mode.h"
	.file	19 "/mnt/disk/jenkins/ci/workspace/chipset_pipeline_release/opensource/component_code/vendor/huawei/extra/build/build_script/kirin_kernel_release" "kernel/include/linux/memremap.h"
	.file	20 "/mnt/disk/jenkins/ci/workspace/chipset_pipeline_release/opensource/component_code/vendor/huawei/extra/build/build_script/kirin_kernel_release" "kernel/include/linux/fs.h"
	.file	21 "/mnt/disk/jenkins/ci/workspace/chipset_pipeline_release/opensource/component_code/vendor/huawei/extra/build/build_script/kirin_kernel_release" "kernel/include/linux/pid.h"
	.file	22 "/mnt/disk/jenkins/ci/workspace/chipset_pipeline_release/opensource/component_code/vendor/huawei/extra/build/build_script/kirin_kernel_release" "kernel/include/linux/kobject_ns.h"
	.file	23 "/mnt/disk/jenkins/ci/workspace/chipset_pipeline_release/opensource/component_code/vendor/huawei/extra/build/build_script/kirin_kernel_release" "kernel/include/linux/device/driver.h"
	.file	24 "/mnt/disk/jenkins/ci/workspace/chipset_pipeline_release/opensource/component_code/vendor/huawei/extra/build/build_script/kirin_kernel_release" "kernel/include/linux/device.h"
	.file	25 "/mnt/disk/jenkins/ci/workspace/chipset_pipeline_release/opensource/component_code/vendor/huawei/extra/build/build_script/kirin_kernel_release" "kernel/include/linux/stddef.h"
	.file	26 "/mnt/disk/jenkins/ci/workspace/chipset_pipeline_release/opensource/component_code/vendor/huawei/extra/build/build_script/kirin_kernel_release" "kernel/include/linux/blk_types.h"
	.file	27 "/mnt/disk/jenkins/ci/workspace/chipset_pipeline_release/opensource/component_code/vendor/huawei/extra/build/build_script/kirin_kernel_release" "kernel/include/platform_include/basicplatform/linux/powerkey_event.h"
	.file	28 "/mnt/disk/jenkins/ci/workspace/chipset_pipeline_release/opensource/component_code/vendor/huawei/extra/build/build_script/kirin_kernel_release" "kernel/include/linux/workqueue.h"
	.file	29 "/mnt/disk/jenkins/ci/workspace/chipset_pipeline_release/opensource/component_code/vendor/huawei/extra/build/build_script/kirin_kernel_release" "kernel/include/linux/genhd.h"
	.file	30 "/mnt/disk/jenkins/ci/workspace/chipset_pipeline_release/opensource/component_code/vendor/huawei/extra/build/build_script/kirin_kernel_release" "kernel/include/linux/part_stat.h"
	.file	31 "/mnt/disk/jenkins/ci/workspace/chipset_pipeline_release/opensource/component_code/vendor/huawei/extra/build/build_script/kirin_kernel_release" "kernel/include/asm-generic/atomic-long.h"
	.file	32 "/mnt/disk/jenkins/ci/workspace/chipset_pipeline_release/opensource/component_code/vendor/huawei/extra/build/build_script/kirin_kernel_release" "kernel/include/asm-generic/local.h"
	.file	33 "/mnt/disk/jenkins/ci/workspace/chipset_pipeline_release/opensource/component_code/vendor/huawei/extra/build/build_script/kirin_kernel_release" "kernel/include/linux/percpu-refcount.h"
	.file	34 "/mnt/disk/jenkins/ci/workspace/chipset_pipeline_release/opensource/component_code/vendor/huawei/extra/build/build_script/kirin_kernel_release" "kernel/include/linux/kobject.h"
	.file	35 "/mnt/disk/jenkins/ci/workspace/chipset_pipeline_release/opensource/component_code/vendor/huawei/extra/build/build_script/kirin_kernel_release" "kernel/include/uapi/asm-generic/posix_types.h"
	.file	36 "/mnt/disk/jenkins/ci/workspace/chipset_pipeline_release/opensource/component_code/vendor/huawei/extra/build/build_script/kirin_kernel_release" "kernel/include/linux/sysfs.h"
	.file	37 "/mnt/disk/jenkins/ci/workspace/chipset_pipeline_release/opensource/component_code/vendor/huawei/extra/build/build_script/kirin_kernel_release" "kernel/include/linux/llist.h"
	.file	38 "/mnt/disk/jenkins/ci/workspace/chipset_pipeline_release/opensource/component_code/vendor/huawei/extra/build/build_script/kirin_kernel_release" "kernel/include/linux/path.h"
	.file	39 "/mnt/disk/jenkins/ci/workspace/chipset_pipeline_release/opensource/component_code/vendor/huawei/extra/build/build_script/kirin_kernel_release" "kernel/include/linux/dcache.h"
	.file	40 "/mnt/disk/jenkins/ci/workspace/chipset_pipeline_release/opensource/component_code/vendor/huawei/extra/build/build_script/kirin_kernel_release" "kernel/include/linux/seqlock.h"
	.file	41 "/mnt/disk/jenkins/ci/workspace/chipset_pipeline_release/opensource/component_code/vendor/huawei/extra/build/build_script/kirin_kernel_release" "kernel/include/linux/list_bl.h"
	.file	42 "/mnt/disk/jenkins/ci/workspace/chipset_pipeline_release/opensource/component_code/vendor/huawei/extra/build/build_script/kirin_kernel_release" "kernel/include/linux/uidgid.h"
	.file	43 "/mnt/disk/jenkins/ci/workspace/chipset_pipeline_release/opensource/component_code/vendor/huawei/extra/build/build_script/kirin_kernel_release" "kernel/include/linux/delayed_call.h"
	.file	44 "/mnt/disk/jenkins/ci/workspace/chipset_pipeline_release/opensource/component_code/vendor/huawei/extra/build/build_script/kirin_kernel_release" "kernel/include/linux/time64.h"
	.file	45 "/mnt/disk/jenkins/ci/workspace/chipset_pipeline_release/opensource/component_code/vendor/huawei/extra/build/build_script/kirin_kernel_release" "kernel/include/linux/stat.h"
	.file	46 "/mnt/disk/jenkins/ci/workspace/chipset_pipeline_release/opensource/component_code/vendor/huawei/extra/build/build_script/kirin_kernel_release" "kernel/include/linux/completion.h"
	.file	47 "/mnt/disk/jenkins/ci/workspace/chipset_pipeline_release/opensource/component_code/vendor/huawei/extra/build/build_script/kirin_kernel_release" "kernel/include/linux/swait.h"
	.file	48 "/mnt/disk/jenkins/ci/workspace/chipset_pipeline_release/opensource/component_code/vendor/huawei/extra/build/build_script/kirin_kernel_release" "kernel/include/linux/export.h"
	.file	49 "/mnt/disk/jenkins/ci/workspace/chipset_pipeline_release/opensource/component_code/vendor/huawei/extra/build/build_script/kirin_kernel_release" "kernel/include/linux/mutex.h"
	.file	50 "/mnt/disk/jenkins/ci/workspace/chipset_pipeline_release/opensource/component_code/vendor/huawei/extra/build/build_script/kirin_kernel_release" "kernel/include/linux/osq_lock.h"
	.file	51 "/mnt/disk/jenkins/ci/workspace/chipset_pipeline_release/opensource/component_code/vendor/huawei/extra/build/build_script/kirin_kernel_release" "kernel/include/linux/moduleparam.h"
	.file	52 "/mnt/disk/jenkins/ci/workspace/chipset_pipeline_release/opensource/component_code/vendor/huawei/extra/build/build_script/kirin_kernel_release" "kernel/arch/arm64/include/asm/extable.h"
	.file	53 "/mnt/disk/jenkins/ci/workspace/chipset_pipeline_release/opensource/component_code/vendor/huawei/extra/build/build_script/kirin_kernel_release" "kernel/include/linux/rbtree.h"
	.file	54 "/mnt/disk/jenkins/ci/workspace/chipset_pipeline_release/opensource/component_code/vendor/huawei/extra/build/build_script/kirin_kernel_release" "kernel/include/linux/rbtree_latch.h"
	.file	55 "/mnt/disk/jenkins/ci/workspace/chipset_pipeline_release/opensource/component_code/vendor/huawei/extra/build/build_script/kirin_kernel_release" "kernel/arch/arm64/include/asm/module.h"
	.file	56 "/mnt/disk/jenkins/ci/workspace/chipset_pipeline_release/opensource/component_code/vendor/huawei/extra/build/build_script/kirin_kernel_release" "kernel/include/uapi/linux/types.h"
	.file	57 "/mnt/disk/jenkins/ci/workspace/chipset_pipeline_release/opensource/component_code/vendor/huawei/extra/build/build_script/kirin_kernel_release" "kernel/include/uapi/linux/elf.h"
	.file	58 "/mnt/disk/jenkins/ci/workspace/chipset_pipeline_release/opensource/component_code/vendor/huawei/extra/build/build_script/kirin_kernel_release" "kernel/include/asm-generic/bug.h"
	.file	59 "/mnt/disk/jenkins/ci/workspace/chipset_pipeline_release/opensource/component_code/vendor/huawei/extra/build/build_script/kirin_kernel_release" "kernel/include/linux/tracepoint-defs.h"
	.file	60 "/mnt/disk/jenkins/ci/workspace/chipset_pipeline_release/opensource/component_code/vendor/huawei/extra/build/build_script/kirin_kernel_release" "kernel/include/linux/srcutree.h"
	.file	61 "/mnt/disk/jenkins/ci/workspace/chipset_pipeline_release/opensource/component_code/vendor/huawei/extra/build/build_script/kirin_kernel_release" "kernel/include/linux/rcu_segcblist.h"
	.file	62 "/mnt/disk/jenkins/ci/workspace/chipset_pipeline_release/opensource/component_code/vendor/huawei/extra/build/build_script/kirin_kernel_release" "kernel/include/linux/timer.h"
	.file	63 "/mnt/disk/jenkins/ci/workspace/chipset_pipeline_release/opensource/component_code/vendor/huawei/extra/build/build_script/kirin_kernel_release" "kernel/include/linux/tracepoint.h"
	.file	64 "/mnt/disk/jenkins/ci/workspace/chipset_pipeline_release/opensource/component_code/vendor/huawei/extra/build/build_script/kirin_kernel_release" "kernel/include/linux/lockdep_types.h"
	.file	65 "/mnt/disk/jenkins/ci/workspace/chipset_pipeline_release/opensource/component_code/vendor/huawei/extra/build/build_script/kirin_kernel_release" "kernel/include/linux/projid.h"
	.file	66 "/mnt/disk/jenkins/ci/workspace/chipset_pipeline_release/opensource/component_code/vendor/huawei/extra/build/build_script/kirin_kernel_release" "kernel/include/linux/mm_types.h"
	.file	67 "/mnt/disk/jenkins/ci/workspace/chipset_pipeline_release/opensource/component_code/vendor/huawei/extra/build/build_script/kirin_kernel_release" "kernel/include/linux/xarray.h"
	.file	68 "/mnt/disk/jenkins/ci/workspace/chipset_pipeline_release/opensource/component_code/vendor/huawei/extra/build/build_script/kirin_kernel_release" "kernel/include/linux/rwsem.h"
	.file	69 "/mnt/disk/jenkins/ci/workspace/chipset_pipeline_release/opensource/component_code/vendor/huawei/extra/build/build_script/kirin_kernel_release" "kernel/arch/arm64/include/asm/thread_info.h"
	.file	70 "/mnt/disk/jenkins/ci/workspace/chipset_pipeline_release/opensource/component_code/vendor/huawei/extra/build/build_script/kirin_kernel_release" "kernel/include/linux/sched.h"
	.file	71 "/mnt/disk/jenkins/ci/workspace/chipset_pipeline_release/opensource/component_code/vendor/huawei/extra/build/build_script/kirin_kernel_release" "kernel/include/linux/refcount.h"
	.file	72 "/mnt/disk/jenkins/ci/workspace/chipset_pipeline_release/opensource/component_code/vendor/huawei/extra/build/build_script/kirin_kernel_release" "kernel/include/linux/smp_types.h"
	.file	73 "/mnt/disk/jenkins/ci/workspace/chipset_pipeline_release/opensource/component_code/vendor/huawei/extra/build/build_script/kirin_kernel_release" "kernel/include/linux/timerqueue.h"
	.file	74 "/mnt/disk/jenkins/ci/workspace/chipset_pipeline_release/opensource/component_code/vendor/huawei/extra/build/build_script/kirin_kernel_release" "kernel/include/linux/ktime.h"
	.file	75 "/mnt/disk/jenkins/ci/workspace/chipset_pipeline_release/opensource/component_code/vendor/huawei/extra/build/build_script/kirin_kernel_release" "kernel/include/linux/cpumask.h"
	.file	76 "/mnt/disk/jenkins/ci/workspace/chipset_pipeline_release/opensource/component_code/vendor/huawei/extra/build/build_script/kirin_kernel_release" "kernel/include/linux/plist.h"
	.file	77 "/mnt/disk/jenkins/ci/workspace/chipset_pipeline_release/opensource/component_code/vendor/huawei/extra/build/build_script/kirin_kernel_release" "kernel/arch/arm64/include/asm/pgtable-types.h"
	.file	78 "/mnt/disk/jenkins/ci/workspace/chipset_pipeline_release/opensource/component_code/vendor/huawei/extra/build/build_script/kirin_kernel_release" "kernel/include/asm-generic/pgtable-nop4d.h"
	.file	79 "/mnt/disk/jenkins/ci/workspace/chipset_pipeline_release/opensource/component_code/vendor/huawei/extra/build/build_script/kirin_kernel_release" "kernel/include/asm-generic/pgtable-nopud.h"
	.file	80 "/mnt/disk/jenkins/ci/workspace/chipset_pipeline_release/opensource/component_code/vendor/huawei/extra/build/build_script/kirin_kernel_release" "kernel/arch/arm64/include/asm/page.h"
	.file	81 "/mnt/disk/jenkins/ci/workspace/chipset_pipeline_release/opensource/component_code/vendor/huawei/extra/build/build_script/kirin_kernel_release" "kernel/include/asm-generic/qrwlock_types.h"
	.file	82 "/mnt/disk/jenkins/ci/workspace/chipset_pipeline_release/opensource/component_code/vendor/huawei/extra/build/build_script/kirin_kernel_release" "kernel/include/linux/rwlock_types.h"
	.file	83 "/mnt/disk/jenkins/ci/workspace/chipset_pipeline_release/opensource/component_code/vendor/huawei/extra/build/build_script/kirin_kernel_release" "kernel/include/linux/mm_types_task.h"
	.file	84 "/mnt/disk/jenkins/ci/workspace/chipset_pipeline_release/opensource/component_code/vendor/huawei/extra/build/build_script/kirin_kernel_release" "kernel/arch/arm64/include/asm/mmu.h"
	.file	85 "/mnt/disk/jenkins/ci/workspace/chipset_pipeline_release/opensource/component_code/vendor/huawei/extra/build/build_script/kirin_kernel_release" "kernel/include/linux/uprobes.h"
	.file	86 "/mnt/disk/jenkins/ci/workspace/chipset_pipeline_release/opensource/component_code/vendor/huawei/extra/build/build_script/kirin_kernel_release" "kernel/include/linux/xreclaimer_types.h"
	.file	87 "/mnt/disk/jenkins/ci/workspace/chipset_pipeline_release/opensource/component_code/vendor/huawei/extra/build/build_script/kirin_kernel_release" "kernel/include/uapi/linux/time_types.h"
	.file	88 "/mnt/disk/jenkins/ci/workspace/chipset_pipeline_release/opensource/component_code/vendor/huawei/extra/build/build_script/kirin_kernel_release" "kernel/include/vdso/time32.h"
	.file	89 "/mnt/disk/jenkins/ci/workspace/chipset_pipeline_release/opensource/component_code/vendor/huawei/extra/build/build_script/kirin_kernel_release" "kernel/include/uapi/asm-generic/poll.h"
	.file	90 "/mnt/disk/jenkins/ci/workspace/chipset_pipeline_release/opensource/component_code/vendor/huawei/extra/build/build_script/kirin_kernel_release" "kernel/include/linux/wait.h"
	.file	91 "/mnt/disk/jenkins/ci/workspace/chipset_pipeline_release/opensource/component_code/vendor/huawei/extra/build/build_script/kirin_kernel_release" "kernel/include/linux/kref.h"
	.file	92 "/mnt/disk/jenkins/ci/workspace/chipset_pipeline_release/opensource/component_code/vendor/huawei/extra/build/build_script/kirin_kernel_release" "kernel/include/linux/pid_namespace.h"
	.file	93 "/mnt/disk/jenkins/ci/workspace/chipset_pipeline_release/opensource/component_code/vendor/huawei/extra/build/build_script/kirin_kernel_release" "kernel/include/linux/idr.h"
	.file	94 "/mnt/disk/jenkins/ci/workspace/chipset_pipeline_release/opensource/component_code/vendor/huawei/extra/build/build_script/kirin_kernel_release" "kernel/include/linux/ns_common.h"
	.file	95 "/mnt/disk/jenkins/ci/workspace/chipset_pipeline_release/opensource/component_code/vendor/huawei/extra/build/build_script/kirin_kernel_release" "kernel/include/linux/posix-timers.h"
	.file	96 "/mnt/disk/jenkins/ci/workspace/chipset_pipeline_release/opensource/component_code/vendor/huawei/extra/build/build_script/kirin_kernel_release" "kernel/include/linux/cred.h"
	.file	97 "/mnt/disk/jenkins/ci/workspace/chipset_pipeline_release/opensource/component_code/vendor/huawei/extra/build/build_script/kirin_kernel_release" "kernel/include/linux/capability.h"
	.file	98 "/mnt/disk/jenkins/ci/workspace/chipset_pipeline_release/opensource/component_code/vendor/huawei/extra/build/build_script/kirin_kernel_release" "kernel/include/linux/key.h"
	.file	99 "/mnt/disk/jenkins/ci/workspace/chipset_pipeline_release/opensource/component_code/vendor/huawei/extra/build/build_script/kirin_kernel_release" "kernel/include/linux/assoc_array.h"
	.file	100 "/mnt/disk/jenkins/ci/workspace/chipset_pipeline_release/opensource/component_code/vendor/huawei/extra/build/build_script/kirin_kernel_release" "kernel/include/linux/sched/user.h"
	.file	101 "/mnt/disk/jenkins/ci/workspace/chipset_pipeline_release/opensource/component_code/vendor/huawei/extra/build/build_script/kirin_kernel_release" "kernel/include/linux/ratelimit_types.h"
	.file	102 "/mnt/disk/jenkins/ci/workspace/chipset_pipeline_release/opensource/component_code/vendor/huawei/extra/build/build_script/kirin_kernel_release" "kernel/include/linux/nsproxy.h"
	.file	103 "/mnt/disk/jenkins/ci/workspace/chipset_pipeline_release/opensource/component_code/vendor/huawei/extra/build/build_script/kirin_kernel_release" "kernel/include/linux/sched/signal.h"
	.file	104 "/mnt/disk/jenkins/ci/workspace/chipset_pipeline_release/opensource/component_code/vendor/huawei/extra/build/build_script/kirin_kernel_release" "kernel/include/linux/signal_types.h"
	.file	105 "/mnt/disk/jenkins/ci/workspace/chipset_pipeline_release/opensource/component_code/vendor/huawei/extra/build/build_script/kirin_kernel_release" "kernel/include/uapi/asm-generic/signal.h"
	.file	106 "/mnt/disk/jenkins/ci/workspace/chipset_pipeline_release/opensource/component_code/vendor/huawei/extra/build/build_script/kirin_kernel_release" "kernel/include/linux/task_io_accounting.h"
	.file	107 "/mnt/disk/jenkins/ci/workspace/chipset_pipeline_release/opensource/component_code/vendor/huawei/extra/build/build_script/kirin_kernel_release" "kernel/include/uapi/linux/resource.h"
	.file	108 "/mnt/disk/jenkins/ci/workspace/chipset_pipeline_release/opensource/component_code/vendor/huawei/extra/build/build_script/kirin_kernel_release" "kernel/include/uapi/asm-generic/signal-defs.h"
	.file	109 "/mnt/disk/jenkins/ci/workspace/chipset_pipeline_release/opensource/component_code/vendor/huawei/extra/build/build_script/kirin_kernel_release" "kernel/include/linux/seccomp.h"
	.file	110 "/mnt/disk/jenkins/ci/workspace/chipset_pipeline_release/opensource/component_code/vendor/huawei/extra/build/build_script/kirin_kernel_release" "kernel/include/linux/bvec.h"
	.file	111 "/mnt/disk/jenkins/ci/workspace/chipset_pipeline_release/opensource/component_code/vendor/huawei/extra/build/build_script/kirin_kernel_release" "kernel/block/blk-mq.h"
	.file	112 "/mnt/disk/jenkins/ci/workspace/chipset_pipeline_release/opensource/component_code/vendor/huawei/extra/build/build_script/kirin_kernel_release" "kernel/include/linux/blk-mq.h"
	.file	113 "/mnt/disk/jenkins/ci/workspace/chipset_pipeline_release/opensource/component_code/vendor/huawei/extra/build/build_script/kirin_kernel_release" "kernel/block/blk.h"
	.file	114 "/mnt/disk/jenkins/ci/workspace/chipset_pipeline_release/opensource/component_code/vendor/huawei/extra/build/build_script/kirin_kernel_release" "kernel/include/linux/sbitmap.h"
	.file	115 "/mnt/disk/jenkins/ci/workspace/chipset_pipeline_release/opensource/component_code/vendor/huawei/extra/build/build_script/kirin_kernel_release" "kernel/block/blk-mq-tag.h"
	.file	116 "/mnt/disk/jenkins/ci/workspace/chipset_pipeline_release/opensource/component_code/vendor/huawei/extra/build/build_script/kirin_kernel_release" "kernel/include/linux/iocontext.h"
	.file	117 "/mnt/disk/jenkins/ci/workspace/chipset_pipeline_release/opensource/component_code/vendor/huawei/extra/build/build_script/kirin_kernel_release" "kernel/include/linux/smp.h"
	.file	118 "/mnt/disk/jenkins/ci/workspace/chipset_pipeline_release/opensource/component_code/vendor/huawei/extra/build/build_script/kirin_kernel_release" "kernel/include/linux/percpu_counter.h"
	.file	119 "/mnt/disk/jenkins/ci/workspace/chipset_pipeline_release/opensource/component_code/vendor/huawei/extra/build/build_script/kirin_kernel_release" "kernel/include/linux/flex_proportions.h"
	.file	120 "/mnt/disk/jenkins/ci/workspace/chipset_pipeline_release/opensource/component_code/vendor/huawei/extra/build/build_script/kirin_kernel_release" "kernel/block/blk-stat.h"
	.file	121 "/mnt/disk/jenkins/ci/workspace/chipset_pipeline_release/opensource/component_code/vendor/huawei/extra/build/build_script/kirin_kernel_release" "kernel/include/linux/bsg.h"
	.file	122 "/mnt/disk/jenkins/ci/workspace/chipset_pipeline_release/opensource/component_code/vendor/huawei/extra/build/build_script/kirin_kernel_release" "kernel/include/uapi/linux/bsg.h"
	.file	123 "/mnt/disk/jenkins/ci/workspace/chipset_pipeline_release/opensource/component_code/vendor/huawei/extra/build/build_script/kirin_kernel_release" "kernel/include/linux/bio.h"
	.file	124 "/mnt/disk/jenkins/ci/workspace/chipset_pipeline_release/opensource/component_code/vendor/huawei/extra/build/build_script/kirin_kernel_release" "kernel/include/linux/mempool.h"
	.file	125 "/mnt/disk/jenkins/ci/workspace/chipset_pipeline_release/opensource/component_code/vendor/huawei/extra/build/build_script/kirin_kernel_release" "kernel/include/uapi/asm-generic/siginfo.h"
	.file	126 "/mnt/disk/jenkins/ci/workspace/chipset_pipeline_release/opensource/component_code/vendor/huawei/extra/build/build_script/kirin_kernel_release" "kernel/include/linux/nodemask.h"
	.file	127 "/mnt/disk/jenkins/ci/workspace/chipset_pipeline_release/opensource/component_code/vendor/huawei/extra/build/build_script/kirin_kernel_release" "kernel/include/asm-generic/compat.h"
	.file	128 "/mnt/disk/jenkins/ci/workspace/chipset_pipeline_release/opensource/component_code/vendor/huawei/extra/build/build_script/kirin_kernel_release" "kernel/include/linux/compat.h"
	.file	129 "/mnt/disk/jenkins/ci/workspace/chipset_pipeline_release/opensource/component_code/vendor/huawei/extra/build/build_script/kirin_kernel_release" "kernel/arch/arm64/include/asm/tlbbatch.h"
	.file	130 "/mnt/disk/jenkins/ci/workspace/chipset_pipeline_release/opensource/component_code/vendor/huawei/extra/build/build_script/kirin_kernel_release" "kernel/arch/arm64/include/asm/processor.h"
	.file	131 "/mnt/disk/jenkins/ci/workspace/chipset_pipeline_release/opensource/component_code/vendor/huawei/extra/build/build_script/kirin_kernel_release" "kernel/arch/arm64/include/uapi/asm/ptrace.h"
	.file	132 "/mnt/disk/jenkins/ci/workspace/chipset_pipeline_release/opensource/component_code/vendor/huawei/extra/build/build_script/kirin_kernel_release" "kernel/arch/arm64/include/asm/pointer_auth.h"
	.file	133 "/mnt/disk/jenkins/ci/workspace/chipset_pipeline_release/opensource/component_code/vendor/huawei/extra/build/build_script/kirin_kernel_release" "kernel/include/linux/pagemap.h"
	.file	134 "/mnt/disk/jenkins/ci/workspace/chipset_pipeline_release/opensource/component_code/vendor/huawei/extra/build/build_script/kirin_kernel_release" "kernel/include/linux/uio.h"
	.file	135 "/mnt/disk/jenkins/ci/workspace/chipset_pipeline_release/opensource/component_code/vendor/huawei/extra/build/build_script/kirin_kernel_release" "kernel/include/uapi/linux/uio.h"
	.file	136 "/mnt/disk/jenkins/ci/workspace/chipset_pipeline_release/opensource/component_code/vendor/huawei/extra/build/build_script/kirin_kernel_release" "kernel/include/linux/mmzone.h"
	.file	137 "/mnt/disk/jenkins/ci/workspace/chipset_pipeline_release/opensource/component_code/vendor/huawei/extra/build/build_script/kirin_kernel_release" "kernel/include/linux/errseq.h"
	.file	138 "/mnt/disk/jenkins/ci/workspace/chipset_pipeline_release/opensource/component_code/vendor/huawei/extra/build/build_script/kirin_kernel_release" "kernel/include/linux/range.h"
	.file	139 "/mnt/disk/jenkins/ci/workspace/chipset_pipeline_release/opensource/component_code/vendor/huawei/extra/build/build_script/kirin_kernel_release" "kernel/include/linux/shrinker.h"
	.file	140 "/mnt/disk/jenkins/ci/workspace/chipset_pipeline_release/opensource/component_code/vendor/huawei/extra/build/build_script/kirin_kernel_release" "kernel/include/linux/rcu_sync.h"
	.file	141 "/mnt/disk/jenkins/ci/workspace/chipset_pipeline_release/opensource/component_code/vendor/huawei/extra/build/build_script/kirin_kernel_release" "kernel/include/linux/percpu-rwsem.h"
	.file	142 "/mnt/disk/jenkins/ci/workspace/chipset_pipeline_release/opensource/component_code/vendor/huawei/extra/build/build_script/kirin_kernel_release" "kernel/include/linux/rcuwait.h"
	.file	143 "/mnt/disk/jenkins/ci/workspace/chipset_pipeline_release/opensource/component_code/vendor/huawei/extra/build/build_script/kirin_kernel_release" "kernel/include/linux/uuid.h"
	.file	144 "/mnt/disk/jenkins/ci/workspace/chipset_pipeline_release/opensource/component_code/vendor/huawei/extra/build/build_script/kirin_kernel_release" "kernel/include/linux/list_lru.h"
	.file	145 "/mnt/disk/jenkins/ci/workspace/chipset_pipeline_release/opensource/component_code/vendor/huawei/extra/build/build_script/kirin_kernel_release" "kernel/include/linux/poll.h"
	.file	146 "/mnt/disk/jenkins/ci/workspace/chipset_pipeline_release/opensource/component_code/vendor/huawei/extra/build/build_script/kirin_kernel_release" "kernel/include/linux/nfs_fs_i.h"
	.file	147 "/mnt/disk/jenkins/ci/workspace/chipset_pipeline_release/opensource/component_code/vendor/huawei/extra/build/build_script/kirin_kernel_release" "kernel/include/linux/lockref.h"
	.file	148 "/mnt/disk/jenkins/ci/workspace/chipset_pipeline_release/opensource/component_code/vendor/huawei/extra/build/build_script/kirin_kernel_release" "kernel/include/linux/kernfs.h"
	.file	149 "/mnt/disk/jenkins/ci/workspace/chipset_pipeline_release/opensource/component_code/vendor/huawei/extra/build/build_script/kirin_kernel_release" "kernel/include/linux/device/bus.h"
	.file	150 "/mnt/disk/jenkins/ci/workspace/chipset_pipeline_release/opensource/component_code/vendor/huawei/extra/build/build_script/kirin_kernel_release" "kernel/include/linux/pm_wakeup.h"
	.file	151 "/mnt/disk/jenkins/ci/workspace/chipset_pipeline_release/opensource/component_code/vendor/huawei/extra/build/build_script/kirin_kernel_release" "kernel/include/linux/energy_model.h"
	.file	152 "/mnt/disk/jenkins/ci/workspace/chipset_pipeline_release/opensource/component_code/vendor/huawei/extra/build/build_script/kirin_kernel_release" "kernel/arch/arm64/include/asm/device.h"
	.file	153 "/mnt/disk/jenkins/ci/workspace/chipset_pipeline_release/opensource/component_code/vendor/huawei/extra/build/build_script/kirin_kernel_release" "kernel/include/linux/fwnode.h"
	.file	154 "/mnt/disk/jenkins/ci/workspace/chipset_pipeline_release/opensource/component_code/vendor/huawei/extra/build/build_script/kirin_kernel_release" "kernel/include/linux/device/class.h"
	.file	155 "/mnt/disk/jenkins/ci/workspace/chipset_pipeline_release/opensource/component_code/vendor/huawei/extra/build/build_script/kirin_kernel_release" "kernel/include/uapi/linux/blkzoned.h"
	.globl	mas_blk_flush_work_fn           // -- Begin function mas_blk_flush_work_fn
	.p2align	2
	.type	mas_blk_flush_work_fn,@function
mas_blk_flush_work_fn:                  // @mas_blk_flush_work_fn
.Lfunc_begin0:
	.loc	1 41 0                          // kernel/platform_source/basicplatform/block/mas_blk_flush.c:41:0
	.cfi_sections .debug_frame
	.cfi_startproc
// %bb.0:
	//DEBUG_VALUE: mas_blk_flush_work_fn:work <- $x0
	//DEBUG_VALUE: mas_blk_flush_work_fn:work <- $x0
	hint	#25
	.cfi_negate_ra_state
	stp	x29, x30, [sp, #-32]!           // 16-byte Folded Spill
	str	x19, [sp, #16]                  // 8-byte Folded Spill
	mov	x29, sp
	.cfi_def_cfa w29, 32
	.cfi_offset w19, -16
	.cfi_offset w30, -24
	.cfi_offset w29, -32
.Ltmp1:
	//DEBUG_VALUE: __mptr <- $x0
	//DEBUG_VALUE: __mptr <- $x0
	//DEBUG_VALUE: mas_blk_flush_work_fn:member <- [DW_OP_constu 24, DW_OP_minus, DW_OP_stack_value] $x0
	//DEBUG_VALUE: __mptr <- [DW_OP_constu 24, DW_OP_minus, DW_OP_stack_value] $x0
	//DEBUG_VALUE: mas_blk_flush_work_fn:q <- undef
	.loc	1 46 54 prologue_end            // kernel/platform_source/basicplatform/block/mas_blk_flush.c:46:54
	ldur	x0, [x0, #-24]
.Ltmp2:
	//DEBUG_VALUE: mas_blk_flush_work_fn:work <- [DW_OP_LLVM_entry_value 1] $x0
	.loc	1 46 30 is_stmt 0               // kernel/platform_source/basicplatform/block/mas_blk_flush.c:46:30
	mov	w1, wzr
	bl	bdget_disk
.Ltmp3:
	//DEBUG_VALUE: mas_blk_flush_work_fn:bdev <- $x0
	.loc	1 48 6 is_stmt 1                // kernel/platform_source/basicplatform/block/mas_blk_flush.c:48:6
	cbz	x0, .LBB0_4
.Ltmp4:
// %bb.1:
	//DEBUG_VALUE: mas_blk_flush_work_fn:bdev <- $x0
	//DEBUG_VALUE: mas_blk_flush_work_fn:work <- [DW_OP_LLVM_entry_value 1] $x0
	.loc	1 49 13                         // kernel/platform_source/basicplatform/block/mas_blk_flush.c:49:13
	mov	w1, #2
	mov	x2, xzr
.Ltmp5:
	.loc	1 0 0 is_stmt 0                 // kernel/platform_source/basicplatform/block/mas_blk_flush.c:0:0
	mov	x19, x0
.Ltmp6:
	//DEBUG_VALUE: mas_blk_flush_work_fn:bdev <- $x19
	.loc	1 49 13                         // kernel/platform_source/basicplatform/block/mas_blk_flush.c:49:13
	bl	blkdev_get
.Ltmp7:
	//DEBUG_VALUE: ret <- $w0
	.loc	1 50 7 is_stmt 1                // kernel/platform_source/basicplatform/block/mas_blk_flush.c:50:7
	cbnz	w0, .LBB0_5
.Ltmp8:
// %bb.2:
	//DEBUG_VALUE: mas_blk_flush_work_fn:bdev <- $x19
	//DEBUG_VALUE: ret <- $w0
	//DEBUG_VALUE: mas_blk_flush_work_fn:work <- [DW_OP_LLVM_entry_value 1] $x0
	.loc	1 55 9                          // kernel/platform_source/basicplatform/block/mas_blk_flush.c:55:9
	mov	w1, #3264
	mov	x0, x19
.Ltmp9:
	bl	blkdev_issue_flush
.Ltmp10:
	//DEBUG_VALUE: ret <- $w0
	.loc	1 59 7                          // kernel/platform_source/basicplatform/block/mas_blk_flush.c:59:7
	cbnz	w0, .LBB0_6
.Ltmp11:
.LBB0_3:
	//DEBUG_VALUE: mas_blk_flush_work_fn:bdev <- $x19
	//DEBUG_VALUE: mas_blk_flush_work_fn:work <- [DW_OP_LLVM_entry_value 1] $x0
	.loc	1 61 3                          // kernel/platform_source/basicplatform/block/mas_blk_flush.c:61:3
	mov	w1, #2
	mov	x0, x19
	bl	blkdev_put
.Ltmp12:
.LBB0_4:
	//DEBUG_VALUE: mas_blk_flush_work_fn:work <- [DW_OP_LLVM_entry_value 1] $x0
	.loc	1 0 3 is_stmt 0                 // kernel/platform_source/basicplatform/block/mas_blk_flush.c:0:3
	ldr	x19, [sp, #16]                  // 8-byte Folded Reload
	ldp	x29, x30, [sp], #32             // 16-byte Folded Reload
	hint	#29
	ret
.Ltmp13:
.LBB0_5:
	//DEBUG_VALUE: mas_blk_flush_work_fn:bdev <- $x19
	//DEBUG_VALUE: ret <- $w0
	//DEBUG_VALUE: mas_blk_flush_work_fn:work <- [DW_OP_LLVM_entry_value 1] $x0
	.loc	1 51 4 is_stmt 1                // kernel/platform_source/basicplatform/block/mas_blk_flush.c:51:4
	adrp	x0, .L.str
.Ltmp14:
	adrp	x1, .L__func__.mas_blk_flush_work_fn
	add	x0, x0, :lo12:.L.str
	add	x1, x1, :lo12:.L__func__.mas_blk_flush_work_fn
	bl	printk
.Ltmp15:
	.loc	1 0 4 is_stmt 0                 // kernel/platform_source/basicplatform/block/mas_blk_flush.c:0:4
	b	.LBB0_4
.Ltmp16:
.LBB0_6:
	//DEBUG_VALUE: mas_blk_flush_work_fn:bdev <- $x19
	//DEBUG_VALUE: ret <- $w0
	//DEBUG_VALUE: mas_blk_flush_work_fn:work <- [DW_OP_LLVM_entry_value 1] $x0
	.loc	1 60 4 is_stmt 1                // kernel/platform_source/basicplatform/block/mas_blk_flush.c:60:4
	adrp	x0, .L.str.1
.Ltmp17:
	adrp	x1, .L__func__.mas_blk_flush_work_fn
	add	x0, x0, :lo12:.L.str.1
	add	x1, x1, :lo12:.L__func__.mas_blk_flush_work_fn
	bl	printk
.Ltmp18:
	.loc	1 0 4 is_stmt 0                 // kernel/platform_source/basicplatform/block/mas_blk_flush.c:0:4
	b	.LBB0_3
.Ltmp19:
.Lfunc_end0:
	.size	mas_blk_flush_work_fn, .Lfunc_end0-mas_blk_flush_work_fn
	.cfi_endproc
	.file	156 "/mnt/disk/jenkins/ci/workspace/chipset_pipeline_release/opensource/component_code/vendor/huawei/extra/build/build_script/kirin_kernel_release" "kernel/include/linux/printk.h"
                                        // -- End function
	.globl	mas_blk_flush_async_dispatch    // -- Begin function mas_blk_flush_async_dispatch
	.p2align	2
	.type	mas_blk_flush_async_dispatch,@function
mas_blk_flush_async_dispatch:           // @mas_blk_flush_async_dispatch
.Lfunc_begin1:
	.loc	1 70 0 is_stmt 1                // kernel/platform_source/basicplatform/block/mas_blk_flush.c:70:0
	.cfi_startproc
// %bb.0:
	//DEBUG_VALUE: mas_blk_flush_async_dispatch:q <- $x0
	//DEBUG_VALUE: mas_blk_flush_async_dispatch:q <- $x0
	//DEBUG_VALUE: mas_blk_flush_async_dispatch:bio <- $x1
	hint	#25
	.cfi_negate_ra_state
	stp	x29, x30, [sp, #-32]!           // 16-byte Folded Spill
	str	x19, [sp, #16]                  // 8-byte Folded Spill
	mov	x29, sp
	.cfi_def_cfa w29, 32
	.cfi_offset w19, -16
	.cfi_offset w30, -24
	.cfi_offset w29, -32
.Ltmp20:
	//DEBUG_VALUE: mas_blk_flush_async_dispatch:mas_queue <- [DW_OP_plus_uconst 1176, DW_OP_stack_value] $x0
	//DEBUG_VALUE: mas_blk_flush_async_dispatch:mas_queue <- [DW_OP_plus_uconst 1176, DW_OP_stack_value] $x0
	.loc	1 84 6 prologue_end             // kernel/platform_source/basicplatform/block/mas_blk_flush.c:84:6
	ldr	w8, [x0, #1320]
.Ltmp21:
	//DEBUG_VALUE: mas_blk_flush_async_dispatch:bio <- $x1
	.loc	1 84 6 is_stmt 0                // kernel/platform_source/basicplatform/block/mas_blk_flush.c:84:6
	cbz	w8, .LBB1_5
.Ltmp22:
// %bb.1:
	//DEBUG_VALUE: mas_blk_flush_async_dispatch:bio <- $x1
	//DEBUG_VALUE: mas_blk_flush_async_dispatch:mas_queue <- [DW_OP_plus_uconst 1176, DW_OP_stack_value] $x0
	//DEBUG_VALUE: mas_blk_flush_async_dispatch:q <- $x0
	.loc	1 87 6 is_stmt 1                // kernel/platform_source/basicplatform/block/mas_blk_flush.c:87:6
	ldr	w8, [x1, #16]
	tbz	w8, #18, .LBB1_3
.Ltmp23:
// %bb.2:
	//DEBUG_VALUE: mas_blk_flush_async_dispatch:bio <- $x1
	//DEBUG_VALUE: mas_blk_flush_async_dispatch:mas_queue <- [DW_OP_plus_uconst 1176, DW_OP_stack_value] $x0
	//DEBUG_VALUE: mas_blk_flush_async_dispatch:q <- $x0
	ldr	w9, [x1, #40]
.Ltmp24:
	.loc	1 87 6 is_stmt 0                // kernel/platform_source/basicplatform/block/mas_blk_flush.c:87:6
	cbz	w9, .LBB1_7
.Ltmp25:
.LBB1_3:
	//DEBUG_VALUE: mas_blk_flush_async_dispatch:bio <- $x1
	//DEBUG_VALUE: mas_blk_flush_async_dispatch:mas_queue <- [DW_OP_plus_uconst 1176, DW_OP_stack_value] $x0
	//DEBUG_VALUE: mas_blk_flush_async_dispatch:q <- $x0
	//DEBUG_LABEL: mas_blk_flush_async_dispatch:out
	.loc	1 119 6 is_stmt 1               // kernel/platform_source/basicplatform/block/mas_blk_flush.c:119:6
	and	w8, w8, #0xff
.Ltmp26:
	.loc	1 119 6 is_stmt 0               // kernel/platform_source/basicplatform/block/mas_blk_flush.c:119:6
	cmp	w8, #1                          // =1
	b.ne	.LBB1_5
.Ltmp27:
// %bb.4:
	//DEBUG_VALUE: mas_blk_flush_async_dispatch:bio <- $x1
	//DEBUG_VALUE: mas_blk_flush_async_dispatch:mas_queue <- [DW_OP_plus_uconst 1176, DW_OP_stack_value] $x0
	//DEBUG_VALUE: mas_blk_flush_async_dispatch:q <- $x0
	//DEBUG_VALUE: atomic_inc:v <- [DW_OP_plus_uconst 1300, DW_OP_stack_value] $x0
	//DEBUG_VALUE: arch_atomic_inc:v <- [DW_OP_plus_uconst 1300, DW_OP_stack_value] $x0
	//DEBUG_VALUE: arch_atomic_add:i <- 1
	//DEBUG_VALUE: arch_atomic_add:v <- [DW_OP_plus_uconst 1300, DW_OP_stack_value] $x0
	//DEBUG_VALUE: __ll_sc_atomic_add:i <- 1
	//DEBUG_VALUE: __ll_sc_atomic_add:v <- [DW_OP_plus_uconst 1300, DW_OP_stack_value] $x0
	.file	157 "/mnt/disk/jenkins/ci/workspace/chipset_pipeline_release/opensource/component_code/vendor/huawei/extra/build/build_script/kirin_kernel_release" "kernel/arch/arm64/include/asm/atomic_ll_sc.h"
	.loc	157 111 1 is_stmt 1             // kernel/arch/arm64/include/asm/atomic_ll_sc.h:111:1
	add	x8, x0, #1300                   // =1300
	//APP
	// atomic_add
	prfm	pstl1strm, [x8]
.Ltmp28:
	ldxr	w9, [x8]
	add	w9, w9, #1                      // =1
	stxr	w10, w9, [x8]
	cbnz	w10, .Ltmp28

	//NO_APP
.Ltmp29:
	//DEBUG_VALUE: __ll_sc_atomic_add:tmp <- undef
	//DEBUG_VALUE: __ll_sc_atomic_add:result <- undef
.LBB1_5:
	//DEBUG_VALUE: mas_blk_flush_async_dispatch:bio <- $x1
	//DEBUG_VALUE: mas_blk_flush_async_dispatch:mas_queue <- [DW_OP_plus_uconst 1176, DW_OP_stack_value] $x0
	//DEBUG_VALUE: mas_blk_flush_async_dispatch:q <- $x0
	.loc	1 0 0 is_stmt 0                 // kernel/platform_source/basicplatform/block/mas_blk_flush.c:0:0
	mov	w0, wzr
.Ltmp30:
	//DEBUG_VALUE: mas_blk_flush_async_dispatch:q <- [DW_OP_LLVM_entry_value 1] $x0
.LBB1_6:
	//DEBUG_VALUE: mas_blk_flush_async_dispatch:q <- [DW_OP_LLVM_entry_value 1] $x0
	.loc	1 123 1 is_stmt 1               // kernel/platform_source/basicplatform/block/mas_blk_flush.c:123:1
	ldr	x19, [sp, #16]                  // 8-byte Folded Reload
	ldp	x29, x30, [sp], #32             // 16-byte Folded Reload
	hint	#29
	ret
.Ltmp31:
.LBB1_7:
	//DEBUG_VALUE: mas_blk_flush_async_dispatch:bio <- $x1
	//DEBUG_VALUE: mas_blk_flush_async_dispatch:mas_queue <- [DW_OP_plus_uconst 1176, DW_OP_stack_value] $x0
	//DEBUG_VALUE: mas_blk_flush_async_dispatch:q <- $x0
	.loc	1 96 19                         // kernel/platform_source/basicplatform/block/mas_blk_flush.c:96:19
	ldrb	w9, [x1, #130]
.Ltmp32:
	.loc	1 96 6 is_stmt 0                // kernel/platform_source/basicplatform/block/mas_blk_flush.c:96:6
	cbz	w9, .LBB1_9
.Ltmp33:
// %bb.8:
	//DEBUG_VALUE: mas_blk_flush_async_dispatch:bio <- $x1
	//DEBUG_VALUE: mas_blk_flush_async_dispatch:mas_queue <- [DW_OP_plus_uconst 1176, DW_OP_stack_value] $x0
	//DEBUG_VALUE: mas_blk_flush_async_dispatch:q <- $x0
	.loc	1 97 35 is_stmt 1               // kernel/platform_source/basicplatform/block/mas_blk_flush.c:97:35
	add	x19, x0, #1200                  // =1200
	.loc	1 97 3 is_stmt 0                // kernel/platform_source/basicplatform/block/mas_blk_flush.c:97:3
	mov	x0, x19
.Ltmp34:
	//DEBUG_VALUE: mas_blk_flush_async_dispatch:q <- [DW_OP_LLVM_entry_value 1] $x0
	bl	cancel_delayed_work
.Ltmp35:
	//DEBUG_VALUE: mas_blk_flush_async_dispatch:bio <- [DW_OP_LLVM_entry_value 1] $x1
	.loc	1 98 22 is_stmt 1               // kernel/platform_source/basicplatform/block/mas_blk_flush.c:98:22
	adrp	x8, blk_async_flush_workqueue
	ldr	x1, [x8, :lo12:blk_async_flush_workqueue]
.Ltmp36:
	//DEBUG_VALUE: queue_delayed_work:dwork <- $x19
	//DEBUG_VALUE: queue_delayed_work:delay <- 5
	//DEBUG_VALUE: queue_delayed_work:wq <- $x1
	.loc	28 529 9                        // kernel/include/linux/workqueue.h:529:9
	mov	w0, #12
	mov	w3, #5
	mov	x2, x19
	bl	queue_delayed_work_on
.Ltmp37:
	.loc	28 0 9 is_stmt 0                // kernel/include/linux/workqueue.h:0:9
	mov	w0, #1
	b	.LBB1_6
.Ltmp38:
.LBB1_9:
	//DEBUG_VALUE: mas_blk_flush_async_dispatch:bio <- $x1
	//DEBUG_VALUE: mas_blk_flush_async_dispatch:mas_queue <- [DW_OP_plus_uconst 1176, DW_OP_stack_value] $x0
	//DEBUG_VALUE: mas_blk_flush_async_dispatch:q <- $x0
	//DEBUG_VALUE: atomic_read:v <- [DW_OP_plus_uconst 1300, DW_OP_stack_value] $x0
	.file	158 "/mnt/disk/jenkins/ci/workspace/chipset_pipeline_release/opensource/component_code/vendor/huawei/extra/build/build_script/kirin_kernel_release" "kernel/include/asm-generic/atomic-instrumented.h"
	.loc	158 28 9 is_stmt 1              // kernel/include/asm-generic/atomic-instrumented.h:28:9
	ldr	w9, [x0, #1300]
.Ltmp39:
	.loc	1 107 6                         // kernel/platform_source/basicplatform/block/mas_blk_flush.c:107:6
	cbnz	w9, .LBB1_3
.Ltmp40:
// %bb.10:
	//DEBUG_VALUE: mas_blk_flush_async_dispatch:bio <- $x1
	//DEBUG_VALUE: atomic_read:v <- [DW_OP_plus_uconst 1300, DW_OP_stack_value] $x0
	//DEBUG_VALUE: mas_blk_flush_async_dispatch:mas_queue <- [DW_OP_plus_uconst 1176, DW_OP_stack_value] $x0
	//DEBUG_VALUE: mas_blk_flush_async_dispatch:q <- $x0
	.loc	1 0 6 is_stmt 0                 // kernel/platform_source/basicplatform/block/mas_blk_flush.c:0:6
	mov	w0, #1
.Ltmp41:
	//DEBUG_VALUE: mas_blk_flush_async_dispatch:q <- [DW_OP_LLVM_entry_value 1] $x0
	b	.LBB1_6
.Lfunc_end1:
	.size	mas_blk_flush_async_dispatch, .Lfunc_end1-mas_blk_flush_async_dispatch
	.cfi_endproc
	.file	159 "/mnt/disk/jenkins/ci/workspace/chipset_pipeline_release/opensource/component_code/vendor/huawei/extra/build/build_script/kirin_kernel_release" "kernel/arch/arm64/include/asm/atomic.h"
	.file	160 "/mnt/disk/jenkins/ci/workspace/chipset_pipeline_release/opensource/component_code/vendor/huawei/extra/build/build_script/kirin_kernel_release" "kernel/include/linux/atomic-arch-fallback.h"
                                        // -- End function
	.globl	mas_blk_flush_update            // -- Begin function mas_blk_flush_update
	.p2align	2
	.type	mas_blk_flush_update,@function
mas_blk_flush_update:                   // @mas_blk_flush_update
.Lfunc_begin2:
	.loc	1 126 0 is_stmt 1               // kernel/platform_source/basicplatform/block/mas_blk_flush.c:126:0
	.cfi_startproc
// %bb.0:
	.loc	1 127 6 prologue_end            // kernel/platform_source/basicplatform/block/mas_blk_flush.c:127:6
	hint	#34
.Ltmp42:
	//DEBUG_VALUE: mas_blk_flush_update:req <- $x0
	//DEBUG_VALUE: mas_blk_flush_update:req <- $x0
	//DEBUG_VALUE: mas_blk_flush_update:error <- $w1
	//DEBUG_VALUE: mas_blk_flush_update:error <- $w1
	cbnz	w1, .LBB2_2
.Ltmp43:
// %bb.1:
	//DEBUG_VALUE: mas_blk_flush_update:req <- $x0
	//DEBUG_VALUE: mas_blk_flush_update:error <- $w1
	.loc	1 128 20                        // kernel/platform_source/basicplatform/block/mas_blk_flush.c:128:20
	ldr	x8, [x0]
.Ltmp44:
	//DEBUG_VALUE: atomic_set:i <- 0
	//DEBUG_VALUE: atomic_set:v <- [DW_OP_plus_uconst 1300, DW_OP_stack_value] $x8
	.loc	158 46 2                        // kernel/include/asm-generic/atomic-instrumented.h:46:2
	str	wzr, [x8, #1300]
.Ltmp45:
.LBB2_2:
	//DEBUG_VALUE: mas_blk_flush_update:req <- $x0
	//DEBUG_VALUE: mas_blk_flush_update:error <- $w1
	.loc	1 129 1                         // kernel/platform_source/basicplatform/block/mas_blk_flush.c:129:1
	ret
.Ltmp46:
.Lfunc_end2:
	.size	mas_blk_flush_update, .Lfunc_end2-mas_blk_flush_update
	.cfi_endproc
                                        // -- End function
	.globl	blk_power_off_flush             // -- Begin function blk_power_off_flush
	.p2align	2
	.type	blk_power_off_flush,@function
blk_power_off_flush:                    // @blk_power_off_flush
.Lfunc_begin3:
	.loc	1 135 0                         // kernel/platform_source/basicplatform/block/mas_blk_flush.c:135:0
	.cfi_startproc
// %bb.0:
	//DEBUG_VALUE: blk_power_off_flush:emergency <- $w0
	hint	#25
	.cfi_negate_ra_state
	stp	x29, x30, [sp, #-96]!           // 16-byte Folded Spill
	str	x27, [sp, #16]                  // 8-byte Folded Spill
	stp	x26, x25, [sp, #32]             // 16-byte Folded Spill
	stp	x24, x23, [sp, #48]             // 16-byte Folded Spill
	stp	x22, x21, [sp, #64]             // 16-byte Folded Spill
	stp	x20, x19, [sp, #80]             // 16-byte Folded Spill
	mov	x29, sp
	.cfi_def_cfa w29, 96
	.cfi_offset w19, -8
	.cfi_offset w20, -16
	.cfi_offset w21, -24
	.cfi_offset w22, -32
	.cfi_offset w23, -40
	.cfi_offset w24, -48
	.cfi_offset w25, -56
	.cfi_offset w26, -64
	.cfi_offset w27, -80
	.cfi_offset w30, -88
	.cfi_offset w29, -96
	mov	w2, w0
.Ltmp47:
	//DEBUG_VALUE: blk_power_off_flush:blk_lld <- 0
	//DEBUG_VALUE: blk_power_off_flush:q <- 0
	//DEBUG_VALUE: blk_power_off_flush:mas_queue <- 0
	//DEBUG_VALUE: blk_power_off_flush:emergency <- $w2
	.loc	1 141 2 prologue_end            // kernel/platform_source/basicplatform/block/mas_blk_flush.c:141:2
	adrp	x0, .L.str.2
	adrp	x1, .L__func__.blk_power_off_flush
	add	x0, x0, :lo12:.L.str.2
	add	x1, x1, :lo12:.L__func__.blk_power_off_flush
	//DEBUG_VALUE: blk_power_off_flush:emergency <- $w2
	bl	printk
.Ltmp48:
	.loc	1 142 2                         // kernel/platform_source/basicplatform/block/mas_blk_flush.c:142:2
	adrp	x0, all_flush_q_lock
	add	x0, x0, :lo12:all_flush_q_lock
	bl	_raw_spin_lock_irqsave
.Ltmp49:
	.loc	1 0 0 is_stmt 0                 // kernel/platform_source/basicplatform/block/mas_blk_flush.c:0:0
	adrp	x26, all_flush_q_list
	add	x26, x26, :lo12:all_flush_q_list
	ldr	x27, [x26]
.Ltmp50:
	//DEBUG_VALUE: blk_power_off_flush:mas_queue <- [DW_OP_constu 128, DW_OP_minus, DW_OP_stack_value] $x27
	.loc	1 142 2                         // kernel/platform_source/basicplatform/block/mas_blk_flush.c:142:2
	mov	x19, x0
.Ltmp51:
	//DEBUG_VALUE: blk_power_off_flush:flag <- $x19
	//DEBUG_VALUE: blk_power_off_flush:mas_queue <- [DW_OP_constu 128, DW_OP_minus, DW_OP_stack_value] undef
	.loc	1 143 2 is_stmt 1               // kernel/platform_source/basicplatform/block/mas_blk_flush.c:143:2
	cmp	x27, x26
	b.ne	.LBB3_2
.Ltmp52:
.LBB3_1:
	//DEBUG_VALUE: blk_power_off_flush:flag <- $x19
	//DEBUG_VALUE: spin_unlock_irqrestore:flags <- $x19
	.file	161 "/mnt/disk/jenkins/ci/workspace/chipset_pipeline_release/opensource/component_code/vendor/huawei/extra/build/build_script/kirin_kernel_release" "kernel/include/linux/spinlock.h"
	.loc	161 409 2                       // kernel/include/linux/spinlock.h:409:2
	adrp	x0, all_flush_q_lock
	add	x0, x0, :lo12:all_flush_q_lock
.Ltmp53:
	//DEBUG_VALUE: spin_unlock_irqrestore:lock <- $x0
	mov	x1, x19
	bl	_raw_spin_unlock_irqrestore
.Ltmp54:
	.loc	1 163 2                         // kernel/platform_source/basicplatform/block/mas_blk_flush.c:163:2
	adrp	x0, .L.str.5
	adrp	x1, .L__func__.blk_power_off_flush
	add	x0, x0, :lo12:.L.str.5
	add	x1, x1, :lo12:.L__func__.blk_power_off_flush
	bl	printk
.Ltmp55:
	.loc	1 164 1                         // kernel/platform_source/basicplatform/block/mas_blk_flush.c:164:1
	ldp	x20, x19, [sp, #80]             // 16-byte Folded Reload
.Ltmp56:
	ldp	x22, x21, [sp, #64]             // 16-byte Folded Reload
	ldp	x24, x23, [sp, #48]             // 16-byte Folded Reload
	ldp	x26, x25, [sp, #32]             // 16-byte Folded Reload
	ldr	x27, [sp, #16]                  // 8-byte Folded Reload
	ldp	x29, x30, [sp], #96             // 16-byte Folded Reload
	hint	#29
	ret
.LBB3_2:
.Ltmp57:
	//DEBUG_VALUE: blk_power_off_flush:flag <- $x19
	//DEBUG_VALUE: blk_power_off_flush:q <- 0
	//DEBUG_VALUE: blk_power_off_flush:blk_lld <- 0
	.loc	1 0 1 is_stmt 0                 // kernel/platform_source/basicplatform/block/mas_blk_flush.c:0:1
	adrp	x20, .L.str.3
	adrp	x21, .L__func__.blk_power_off_flush
	adrp	x22, .L.str.4
	add	x20, x20, :lo12:.L.str.3
	add	x21, x21, :lo12:.L__func__.blk_power_off_flush
	add	x22, x22, :lo12:.L.str.4
	b	.LBB3_5
.Ltmp58:
.LBB3_3:                                //   in Loop: Header=BB3_5 Depth=1
	//DEBUG_VALUE: blk_power_off_flush:blk_lld <- $x24
	//DEBUG_VALUE: blk_power_off_flush:q <- $x23
	//DEBUG_VALUE: blk_power_off_flush:flag <- $x19
	//DEBUG_VALUE: queue_disk <- $x9
	.loc	1 156 4 is_stmt 1               // kernel/platform_source/basicplatform/block/mas_blk_flush.c:156:4
	mov	x0, x23
	blr	x8
.Ltmp59:
.LBB3_4:                                //   in Loop: Header=BB3_5 Depth=1
	//DEBUG_VALUE: blk_power_off_flush:flag <- $x19
	//DEBUG_VALUE: blk_power_off_flush:mas_queue <- [DW_OP_constu 128, DW_OP_minus, DW_OP_stack_value] undef
	//DEBUG_VALUE: __mptr <- undef
	.loc	1 0 0 is_stmt 0                 // kernel/platform_source/basicplatform/block/mas_blk_flush.c:0:0
	ldr	x27, [x27]
.Ltmp60:
	//DEBUG_VALUE: blk_power_off_flush:mas_queue <- [DW_OP_constu 128, DW_OP_minus, DW_OP_stack_value] $x27
	.loc	1 143 2 is_stmt 1               // kernel/platform_source/basicplatform/block/mas_blk_flush.c:143:2
	cmp	x27, x26
	b.eq	.LBB3_1
.Ltmp61:
.LBB3_5:                                // =>This Inner Loop Header: Depth=1
	//DEBUG_VALUE: blk_power_off_flush:flag <- $x19
	//DEBUG_VALUE: queue_disk <- 0
	.loc	1 146 19                        // kernel/platform_source/basicplatform/block/mas_blk_flush.c:146:19
	ldurb	w8, [x27, #-120]
.Ltmp62:
	.loc	1 146 7 is_stmt 0               // kernel/platform_source/basicplatform/block/mas_blk_flush.c:146:7
	cbz	w8, .LBB3_4
.Ltmp63:
// %bb.6:                               //   in Loop: Header=BB3_5 Depth=1
	//DEBUG_VALUE: blk_power_off_flush:flag <- $x19
	//DEBUG_VALUE: queue_disk <- 0
	//DEBUG_VALUE: __mptr <- [DW_OP_constu 128, DW_OP_minus, DW_OP_stack_value] $x27
	.loc	1 148 31 is_stmt 1              // kernel/platform_source/basicplatform/block/mas_blk_flush.c:148:31
	sub	x23, x27, #1304                 // =1304
.Ltmp64:
	//DEBUG_VALUE: blk_power_off_flush:q <- $x23
	.loc	1 150 13                        // kernel/platform_source/basicplatform/block/mas_blk_flush.c:150:13
	mov	x0, x23
	bl	mas_blk_get_lld
.Ltmp65:
	//DEBUG_VALUE: queue_disk <- undef
	//DEBUG_VALUE: blk_power_off_flush:blk_lld <- $x0
	.loc	1 152 15                        // kernel/platform_source/basicplatform/block/mas_blk_flush.c:152:15
	cbz	x0, .LBB3_4
.Ltmp66:
// %bb.7:                               //   in Loop: Header=BB3_5 Depth=1
	//DEBUG_VALUE: blk_power_off_flush:q <- $x23
	//DEBUG_VALUE: blk_power_off_flush:flag <- $x19
	//DEBUG_VALUE: blk_power_off_flush:blk_lld <- $x0
	.loc	1 152 27 is_stmt 0              // kernel/platform_source/basicplatform/block/mas_blk_flush.c:152:27
	ldr	x8, [x0, #56]
.Ltmp67:
	.loc	1 0 0                           // kernel/platform_source/basicplatform/block/mas_blk_flush.c:0:0
	mov	x24, x0
.Ltmp68:
	//DEBUG_VALUE: blk_power_off_flush:blk_lld <- $x24
	//DEBUG_VALUE: blk_power_off_flush:blk_lld <- $x24
	//DEBUG_VALUE: queue_disk <- undef
	.loc	1 152 7                         // kernel/platform_source/basicplatform/block/mas_blk_flush.c:152:7
	cbz	x8, .LBB3_4
.Ltmp69:
// %bb.8:                               //   in Loop: Header=BB3_5 Depth=1
	//DEBUG_VALUE: blk_power_off_flush:blk_lld <- $x24
	//DEBUG_VALUE: blk_power_off_flush:q <- $x23
	//DEBUG_VALUE: blk_power_off_flush:flag <- $x19
	.loc	1 0 0                           // kernel/platform_source/basicplatform/block/mas_blk_flush.c:0:0
	ldur	x9, [x27, #-128]
.Ltmp70:
	//DEBUG_VALUE: queue_disk <- $x9
	.loc	1 153 8 is_stmt 1               // kernel/platform_source/basicplatform/block/mas_blk_flush.c:153:8
	cbz	x9, .LBB3_3
.Ltmp71:
// %bb.9:                               //   in Loop: Header=BB3_5 Depth=1
	//DEBUG_VALUE: blk_power_off_flush:blk_lld <- $x24
	//DEBUG_VALUE: blk_power_off_flush:q <- $x23
	//DEBUG_VALUE: blk_power_off_flush:flag <- $x19
	//DEBUG_VALUE: queue_disk <- $x9
	.loc	1 154 5                         // kernel/platform_source/basicplatform/block/mas_blk_flush.c:154:5
	add	x25, x9, #12                    // =12
	mov	x0, x20
	mov	x1, x21
	mov	x2, x25
	bl	printk
.Ltmp72:
	.loc	1 156 13                        // kernel/platform_source/basicplatform/block/mas_blk_flush.c:156:13
	ldr	x8, [x24, #56]
	.loc	1 156 4 is_stmt 0               // kernel/platform_source/basicplatform/block/mas_blk_flush.c:156:4
	mov	x0, x23
	blr	x8
.Ltmp73:
	.loc	1 158 5 is_stmt 1               // kernel/platform_source/basicplatform/block/mas_blk_flush.c:158:5
	mov	x0, x22
	mov	x1, x21
	mov	x2, x25
	bl	printk
.Ltmp74:
	.loc	1 0 5 is_stmt 0                 // kernel/platform_source/basicplatform/block/mas_blk_flush.c:0:5
	b	.LBB3_4
.Ltmp75:
.Lfunc_end3:
	.size	blk_power_off_flush, .Lfunc_end3-blk_power_off_flush
	.cfi_endproc
	.file	162 "/mnt/disk/jenkins/ci/workspace/chipset_pipeline_release/opensource/component_code/vendor/huawei/extra/build/build_script/kirin_kernel_release" "kernel/include/linux/spinlock_api_smp.h"
                                        // -- End function
	.globl	mas_blk_flush_list_register     // -- Begin function mas_blk_flush_list_register
	.p2align	2
	.type	mas_blk_flush_list_register,@function
mas_blk_flush_list_register:            // @mas_blk_flush_list_register
.Lfunc_begin4:
	.loc	1 167 0 is_stmt 1               // kernel/platform_source/basicplatform/block/mas_blk_flush.c:167:0
	.cfi_startproc
// %bb.0:
	//DEBUG_VALUE: mas_blk_flush_list_register:lld_list <- $x0
	hint	#25
	.cfi_negate_ra_state
	stp	x29, x30, [sp, #-48]!           // 16-byte Folded Spill
	stp	x22, x21, [sp, #16]             // 16-byte Folded Spill
	stp	x20, x19, [sp, #32]             // 16-byte Folded Spill
	mov	x29, sp
	.cfi_def_cfa w29, 48
	.cfi_offset w19, -8
	.cfi_offset w20, -16
	.cfi_offset w21, -24
	.cfi_offset w22, -32
	.cfi_offset w30, -40
	.cfi_offset w29, -48
	mov	x19, x0
.Ltmp76:
	//DEBUG_VALUE: mas_blk_flush_list_register:lld_list <- $x19
	//DEBUG_VALUE: mas_blk_flush_list_register:lld_list <- $x19
	.loc	1 170 2 prologue_end            // kernel/platform_source/basicplatform/block/mas_blk_flush.c:170:2
	adrp	x0, all_object_lock
	add	x0, x0, :lo12:all_object_lock
	bl	_raw_spin_lock_irqsave
.Ltmp77:
	.file	163 "/mnt/disk/jenkins/ci/workspace/chipset_pipeline_release/opensource/component_code/vendor/huawei/extra/build/build_script/kirin_kernel_release" "kernel/include/linux/list.h"
	.loc	163 86 30                       // kernel/include/linux/list.h:86:30
	adrp	x21, all_object_list
	add	x21, x21, :lo12:all_object_list
.Ltmp78:
	//DEBUG_VALUE: list_add:head <- $x21
	ldr	x22, [x21]
.Ltmp79:
	.loc	1 170 2                         // kernel/platform_source/basicplatform/block/mas_blk_flush.c:170:2
	mov	x20, x0
.Ltmp80:
	//DEBUG_VALUE: list_add:new <- $x19
	//DEBUG_VALUE: mas_blk_flush_list_register:flag <- $x20
	//DEBUG_VALUE: __list_add:new <- $x19
	//DEBUG_VALUE: __list_add:next <- $x22
	//DEBUG_VALUE: __list_add:prev <- $x21
	//DEBUG_VALUE: list_add:head <- $x21
	.loc	163 67 7                        // kernel/include/linux/list.h:67:7
	mov	x0, x19
	mov	x1, x21
	mov	x2, x22
	bl	__list_add_valid
.Ltmp81:
	.loc	163 67 6 is_stmt 0              // kernel/include/linux/list.h:67:6
	tbz	w0, #0, .LBB4_2
.Ltmp82:
// %bb.1:
	//DEBUG_VALUE: __list_add:next <- $x22
	//DEBUG_VALUE: __list_add:prev <- $x21
	//DEBUG_VALUE: list_add:head <- $x21
	//DEBUG_VALUE: mas_blk_flush_list_register:flag <- $x20
	//DEBUG_VALUE: __list_add:new <- $x19
	//DEBUG_VALUE: list_add:new <- $x19
	//DEBUG_VALUE: mas_blk_flush_list_register:lld_list <- $x19
	.loc	163 72 12 is_stmt 1             // kernel/include/linux/list.h:72:12
	adrp	x8, all_object_list
	.loc	163 70 13                       // kernel/include/linux/list.h:70:13
	str	x19, [x22, #8]
	.loc	163 71 12                       // kernel/include/linux/list.h:71:12
	stp	x22, x21, [x19]
.Ltmp83:
	.loc	163 73 2                        // kernel/include/linux/list.h:73:2
	str	x19, [x8, :lo12:all_object_list]
.Ltmp84:
.LBB4_2:
	//DEBUG_VALUE: mas_blk_flush_list_register:flag <- $x20
	//DEBUG_VALUE: mas_blk_flush_list_register:lld_list <- $x19
	//DEBUG_VALUE: spin_unlock_irqrestore:flags <- $x20
	.loc	161 409 2                       // kernel/include/linux/spinlock.h:409:2
	adrp	x0, all_object_lock
	add	x0, x0, :lo12:all_object_lock
.Ltmp85:
	//DEBUG_VALUE: spin_unlock_irqrestore:lock <- $x0
	mov	x1, x20
	bl	_raw_spin_unlock_irqrestore
.Ltmp86:
	.loc	1 173 1                         // kernel/platform_source/basicplatform/block/mas_blk_flush.c:173:1
	ldp	x20, x19, [sp, #32]             // 16-byte Folded Reload
.Ltmp87:
	//DEBUG_VALUE: mas_blk_flush_list_register:lld_list <- [DW_OP_LLVM_entry_value 1] $x0
	ldp	x22, x21, [sp, #16]             // 16-byte Folded Reload
	ldp	x29, x30, [sp], #48             // 16-byte Folded Reload
	hint	#29
	ret
.Ltmp88:
.Lfunc_end4:
	.size	mas_blk_flush_list_register, .Lfunc_end4-mas_blk_flush_list_register
	.cfi_endproc
                                        // -- End function
	.globl	mas_blk_flush_list_unregister   // -- Begin function mas_blk_flush_list_unregister
	.p2align	2
	.type	mas_blk_flush_list_unregister,@function
mas_blk_flush_list_unregister:          // @mas_blk_flush_list_unregister
.Lfunc_begin5:
	.loc	1 176 0                         // kernel/platform_source/basicplatform/block/mas_blk_flush.c:176:0
	.cfi_startproc
// %bb.0:
	//DEBUG_VALUE: mas_blk_flush_list_unregister:lld_list <- $x0
	hint	#25
	.cfi_negate_ra_state
	stp	x29, x30, [sp, #-32]!           // 16-byte Folded Spill
	stp	x20, x19, [sp, #16]             // 16-byte Folded Spill
	mov	x29, sp
	.cfi_def_cfa w29, 32
	.cfi_offset w19, -8
	.cfi_offset w20, -16
	.cfi_offset w30, -24
	.cfi_offset w29, -32
	mov	x19, x0
.Ltmp89:
	//DEBUG_VALUE: mas_blk_flush_list_unregister:lld_list <- $x19
	//DEBUG_VALUE: mas_blk_flush_list_unregister:lld_list <- $x19
	.loc	1 179 2 prologue_end            // kernel/platform_source/basicplatform/block/mas_blk_flush.c:179:2
	adrp	x0, all_object_lock
	add	x0, x0, :lo12:all_object_lock
	bl	_raw_spin_lock_irqsave
.Ltmp90:
	mov	x20, x0
.Ltmp91:
	//DEBUG_VALUE: __list_del_entry:entry <- $x19
	//DEBUG_VALUE: list_del_init:entry <- $x19
	//DEBUG_VALUE: mas_blk_flush_list_unregister:flag <- $x20
	.loc	163 132 7                       // kernel/include/linux/list.h:132:7
	mov	x0, x19
	bl	__list_del_entry_valid
.Ltmp92:
	.loc	163 132 6 is_stmt 0             // kernel/include/linux/list.h:132:6
	tbz	w0, #0, .LBB5_2
.Ltmp93:
// %bb.1:
	//DEBUG_VALUE: mas_blk_flush_list_unregister:flag <- $x20
	//DEBUG_VALUE: list_del_init:entry <- $x19
	//DEBUG_VALUE: __list_del_entry:entry <- $x19
	//DEBUG_VALUE: mas_blk_flush_list_unregister:lld_list <- $x19
	.loc	163 135 20 is_stmt 1            // kernel/include/linux/list.h:135:20
	ldp	x9, x8, [x19]
.Ltmp94:
	//DEBUG_VALUE: __list_del:prev <- $x8
	//DEBUG_VALUE: __list_del:next <- $x9
	.loc	163 112 13                      // kernel/include/linux/list.h:112:13
	str	x8, [x9, #8]
.Ltmp95:
	.loc	163 113 2                       // kernel/include/linux/list.h:113:2
	str	x9, [x8]
.Ltmp96:
.LBB5_2:
	//DEBUG_VALUE: mas_blk_flush_list_unregister:flag <- $x20
	//DEBUG_VALUE: list_del_init:entry <- $x19
	//DEBUG_VALUE: mas_blk_flush_list_unregister:lld_list <- $x19
	//DEBUG_VALUE: INIT_LIST_HEAD:list <- $x19
	.loc	161 409 2                       // kernel/include/linux/spinlock.h:409:2
	adrp	x0, all_object_lock
	add	x0, x0, :lo12:all_object_lock
.Ltmp97:
	//DEBUG_VALUE: spin_unlock_irqrestore:lock <- $x0
	mov	x1, x20
.Ltmp98:
	.loc	163 35 2                        // kernel/include/linux/list.h:35:2
	str	x19, [x19]
.Ltmp99:
	.loc	163 36 13                       // kernel/include/linux/list.h:36:13
	str	x19, [x19, #8]
.Ltmp100:
	//DEBUG_VALUE: spin_unlock_irqrestore:flags <- $x20
	.loc	161 409 2                       // kernel/include/linux/spinlock.h:409:2
	bl	_raw_spin_unlock_irqrestore
.Ltmp101:
	.loc	1 182 1                         // kernel/platform_source/basicplatform/block/mas_blk_flush.c:182:1
	ldp	x20, x19, [sp, #16]             // 16-byte Folded Reload
.Ltmp102:
	//DEBUG_VALUE: mas_blk_flush_list_unregister:lld_list <- [DW_OP_LLVM_entry_value 1] $x0
	ldp	x29, x30, [sp], #32             // 16-byte Folded Reload
	hint	#29
	ret
.Ltmp103:
.Lfunc_end5:
	.size	mas_blk_flush_list_unregister, .Lfunc_end5-mas_blk_flush_list_unregister
	.cfi_endproc
                                        // -- End function
	.globl	mas_blk_order_panic_wait_flush  // -- Begin function mas_blk_order_panic_wait_flush
	.p2align	2
	.type	mas_blk_order_panic_wait_flush,@function
mas_blk_order_panic_wait_flush:         // @mas_blk_order_panic_wait_flush
.Lfunc_begin6:
	.loc	1 185 0                         // kernel/platform_source/basicplatform/block/mas_blk_flush.c:185:0
	.cfi_startproc
// %bb.0:
	hint	#25
	.cfi_negate_ra_state
	stp	x29, x30, [sp, #-96]!           // 16-byte Folded Spill
	stp	x28, x27, [sp, #16]             // 16-byte Folded Spill
	stp	x26, x25, [sp, #32]             // 16-byte Folded Spill
	stp	x24, x23, [sp, #48]             // 16-byte Folded Spill
	stp	x22, x21, [sp, #64]             // 16-byte Folded Spill
	stp	x20, x19, [sp, #80]             // 16-byte Folded Spill
	mov	x29, sp
	.cfi_def_cfa w29, 96
	.cfi_offset w19, -8
	.cfi_offset w20, -16
	.cfi_offset w21, -24
	.cfi_offset w22, -32
	.cfi_offset w23, -40
	.cfi_offset w24, -48
	.cfi_offset w25, -56
	.cfi_offset w26, -64
	.cfi_offset w27, -72
	.cfi_offset w28, -80
	.cfi_offset w30, -88
	.cfi_offset w29, -96
.Ltmp104:
	//DEBUG_VALUE: mas_blk_order_panic_wait_flush:sleep_count <- 200
	//DEBUG_VALUE: mas_blk_order_panic_wait_flush:need_flush <- 0
	//DEBUG_VALUE: mas_blk_order_panic_wait_flush:blk_lld <- 0
	.loc	1 191 2 prologue_end            // kernel/platform_source/basicplatform/block/mas_blk_flush.c:191:2
	adrp	x20, .L__func__.mas_blk_order_panic_wait_flush
	adrp	x0, .L.str.6
	add	x20, x20, :lo12:.L__func__.mas_blk_order_panic_wait_flush
	add	x0, x0, :lo12:.L.str.6
	mov	x1, x20
	bl	printk
.Ltmp105:
	.loc	1 0 2 is_stmt 0                 // kernel/platform_source/basicplatform/block/mas_blk_flush.c:0:2
	adrp	x21, all_object_lock
	adrp	x27, all_object_list
	adrp	x19, .L.str.9
	adrp	x26, .L.str.8
	adrp	x22, .L.str.7
	mov	w25, #200
.Ltmp106:
	//DEBUG_VALUE: mas_blk_order_panic_wait_flush:need_flush <- undef
	add	x21, x21, :lo12:all_object_lock
	add	x27, x27, :lo12:all_object_list
	add	x19, x19, :lo12:.L.str.9
	add	x26, x26, :lo12:.L.str.8
	add	x22, x22, :lo12:.L.str.7
	b	.LBB6_3
.Ltmp107:
.LBB6_1:                                //   in Loop: Header=BB6_3 Depth=1
	//DEBUG_VALUE: mas_blk_order_panic_wait_flush:blk_lld <- [DW_OP_constu 520, DW_OP_minus, DW_OP_stack_value] $x28
	//DEBUG_VALUE: mas_blk_order_panic_wait_flush:flags <- $x23
	//DEBUG_VALUE: mas_blk_order_panic_wait_flush:sleep_count <- $w25
	//DEBUG_VALUE: spin_unlock_irqrestore:flags <- $x23
	//DEBUG_VALUE: spin_unlock_irqrestore:lock <- $x21
	.loc	161 409 2 is_stmt 1             // kernel/include/linux/spinlock.h:409:2
	mov	x0, x21
	mov	x1, x23
	bl	_raw_spin_unlock_irqrestore
.Ltmp108:
	//DEBUG_VALUE: mas_blk_order_panic_wait_flush:sleep_count <- [DW_OP_constu 1, DW_OP_minus, DW_OP_stack_value] $w25
	.loc	1 208 7                         // kernel/platform_source/basicplatform/block/mas_blk_flush.c:208:7
	tbnz	w24, #0, .LBB6_12
.Ltmp109:
// %bb.2:                               //   in Loop: Header=BB6_3 Depth=1
	//DEBUG_VALUE: mas_blk_order_panic_wait_flush:blk_lld <- [DW_OP_constu 520, DW_OP_minus, DW_OP_stack_value] $x28
	//DEBUG_VALUE: mas_blk_order_panic_wait_flush:flags <- $x23
	//DEBUG_VALUE: mas_blk_order_panic_wait_flush:sleep_count <- [DW_OP_constu 1, DW_OP_minus, DW_OP_stack_value] $w25
	.loc	1 213 14                        // kernel/platform_source/basicplatform/block/mas_blk_flush.c:213:14
	subs	w25, w25, #1                    // =1
.Ltmp110:
	//DEBUG_VALUE: mas_blk_order_panic_wait_flush:need_flush <- undef
	//DEBUG_VALUE: mas_blk_order_panic_wait_flush:sleep_count <- [DW_OP_constu 1, DW_OP_minus, DW_OP_stack_value] $w25
	.loc	1 192 2                         // kernel/platform_source/basicplatform/block/mas_blk_flush.c:192:2
	b.eq	.LBB6_13
.Ltmp111:
.LBB6_3:                                // =>This Loop Header: Depth=1
                                        //     Child Loop BB6_7 Depth 2
	//DEBUG_VALUE: mas_blk_order_panic_wait_flush:sleep_count <- $w25
	.loc	1 193 3                         // kernel/platform_source/basicplatform/block/mas_blk_flush.c:193:3
	mov	w0, #35160
	movk	w0, #65, lsl #16
	bl	__const_udelay
.Ltmp112:
	.loc	1 194 3                         // kernel/platform_source/basicplatform/block/mas_blk_flush.c:194:3
	mov	x0, x21
	bl	_raw_spin_lock_irqsave
.Ltmp113:
	.loc	1 0 0 is_stmt 0                 // kernel/platform_source/basicplatform/block/mas_blk_flush.c:0:0
	ldr	x28, [x27]
.Ltmp114:
	//DEBUG_VALUE: mas_blk_order_panic_wait_flush:blk_lld <- [DW_OP_constu 520, DW_OP_minus, DW_OP_stack_value] $x28
	//DEBUG_VALUE: mas_blk_order_panic_wait_flush:need_flush <- undef
	.loc	1 194 3                         // kernel/platform_source/basicplatform/block/mas_blk_flush.c:194:3
	mov	x23, x0
.Ltmp115:
	//DEBUG_VALUE: mas_blk_order_panic_wait_flush:flags <- $x23
	//DEBUG_VALUE: mas_blk_order_panic_wait_flush:blk_lld <- [DW_OP_constu 520, DW_OP_minus, DW_OP_stack_value] undef
	.loc	1 195 3 is_stmt 1               // kernel/platform_source/basicplatform/block/mas_blk_flush.c:195:3
	cmp	x28, x27
	b.eq	.LBB6_11
.Ltmp116:
// %bb.4:                               //   in Loop: Header=BB6_3 Depth=1
	//DEBUG_VALUE: mas_blk_order_panic_wait_flush:flags <- $x23
	//DEBUG_VALUE: mas_blk_order_panic_wait_flush:sleep_count <- $w25
	.loc	1 0 3 is_stmt 0                 // kernel/platform_source/basicplatform/block/mas_blk_flush.c:0:3
	mov	w24, wzr
	b	.LBB6_7
.Ltmp117:
.LBB6_5:                                //   in Loop: Header=BB6_7 Depth=2
	//DEBUG_VALUE: mas_blk_order_panic_wait_flush:flags <- $x23
	//DEBUG_VALUE: mas_blk_order_panic_wait_flush:sleep_count <- $w25
	sub	x0, x28, #520                   // =520
.Ltmp118:
	.loc	1 205 5 is_stmt 1               // kernel/platform_source/basicplatform/block/mas_blk_flush.c:205:5
	bl	ufs_order_panic_wait_datasync_handle
.Ltmp119:
	mov	w24, w0
.Ltmp120:
.LBB6_6:                                //   in Loop: Header=BB6_7 Depth=2
	//DEBUG_VALUE: mas_blk_order_panic_wait_flush:flags <- $x23
	//DEBUG_VALUE: mas_blk_order_panic_wait_flush:sleep_count <- $w25
	//DEBUG_VALUE: mas_blk_order_panic_wait_flush:need_flush <- undef
	//DEBUG_VALUE: mas_blk_order_panic_wait_flush:blk_lld <- [DW_OP_constu 520, DW_OP_minus, DW_OP_stack_value] undef
	//DEBUG_VALUE: __mptr <- undef
	.loc	1 0 0 is_stmt 0                 // kernel/platform_source/basicplatform/block/mas_blk_flush.c:0:0
	ldr	x28, [x28]
.Ltmp121:
	//DEBUG_VALUE: mas_blk_order_panic_wait_flush:blk_lld <- [DW_OP_constu 520, DW_OP_minus, DW_OP_stack_value] $x28
	.loc	1 195 3 is_stmt 1               // kernel/platform_source/basicplatform/block/mas_blk_flush.c:195:3
	cmp	x28, x27
	b.eq	.LBB6_1
.Ltmp122:
.LBB6_7:                                //   Parent Loop BB6_3 Depth=1
                                        // =>  This Inner Loop Header: Depth=2
	//DEBUG_VALUE: mas_blk_order_panic_wait_flush:flags <- $x23
	//DEBUG_VALUE: mas_blk_order_panic_wait_flush:sleep_count <- $w25
	.loc	1 196 17                        // kernel/platform_source/basicplatform/block/mas_blk_flush.c:196:17
	sub	x8, x28, #516                   // =516
	ldr	w2, [x8]
.Ltmp123:
	.loc	1 196 8 is_stmt 0               // kernel/platform_source/basicplatform/block/mas_blk_flush.c:196:8
	cmp	w2, #2                          // =2
	b.ne	.LBB6_10
.Ltmp124:
// %bb.8:                               //   in Loop: Header=BB6_7 Depth=2
	//DEBUG_VALUE: mas_blk_order_panic_wait_flush:flags <- $x23
	//DEBUG_VALUE: mas_blk_order_panic_wait_flush:sleep_count <- $w25
	.loc	1 202 19 is_stmt 1              // kernel/platform_source/basicplatform/block/mas_blk_flush.c:202:19
	sub	x8, x28, #496                   // =496
	ldr	x8, [x8]
	.loc	1 202 28 is_stmt 0              // kernel/platform_source/basicplatform/block/mas_blk_flush.c:202:28
	ands	x8, x8, #0x80
	cset	w9, eq
.Ltmp125:
	.loc	1 202 8                         // kernel/platform_source/basicplatform/block/mas_blk_flush.c:202:8
	orr	w9, w24, w9
	tbz	w9, #0, .LBB6_5
.Ltmp126:
// %bb.9:                               //   in Loop: Header=BB6_7 Depth=2
	//DEBUG_VALUE: mas_blk_order_panic_wait_flush:flags <- $x23
	//DEBUG_VALUE: mas_blk_order_panic_wait_flush:sleep_count <- $w25
	.loc	1 0 8                           // kernel/platform_source/basicplatform/block/mas_blk_flush.c:0:8
	lsr	x8, x8, #7
	orr	w24, w24, w8
	b	.LBB6_6
.Ltmp127:
.LBB6_10:                               //   in Loop: Header=BB6_7 Depth=2
	//DEBUG_VALUE: mas_blk_order_panic_wait_flush:flags <- $x23
	//DEBUG_VALUE: mas_blk_order_panic_wait_flush:sleep_count <- $w25
	.loc	1 197 5 is_stmt 1               // kernel/platform_source/basicplatform/block/mas_blk_flush.c:197:5
	mov	x0, x22
	mov	x1, x20
	bl	printk
.Ltmp128:
	.loc	1 0 5 is_stmt 0                 // kernel/platform_source/basicplatform/block/mas_blk_flush.c:0:5
	b	.LBB6_6
.Ltmp129:
.LBB6_11:                               //   in Loop: Header=BB6_3 Depth=1
	//DEBUG_VALUE: mas_blk_order_panic_wait_flush:flags <- $x23
	//DEBUG_VALUE: mas_blk_order_panic_wait_flush:sleep_count <- $w25
	//DEBUG_VALUE: spin_unlock_irqrestore:flags <- $x23
	//DEBUG_VALUE: spin_unlock_irqrestore:lock <- $x21
	.loc	161 409 2 is_stmt 1             // kernel/include/linux/spinlock.h:409:2
	mov	x0, x21
	mov	x1, x23
	bl	_raw_spin_unlock_irqrestore
.Ltmp130:
	//DEBUG_VALUE: mas_blk_order_panic_wait_flush:sleep_count <- [DW_OP_constu 1, DW_OP_minus, DW_OP_stack_value] $w25
	.loc	1 213 14                        // kernel/platform_source/basicplatform/block/mas_blk_flush.c:213:14
	subs	w25, w25, #1                    // =1
.Ltmp131:
	//DEBUG_VALUE: mas_blk_order_panic_wait_flush:need_flush <- undef
	//DEBUG_VALUE: mas_blk_order_panic_wait_flush:sleep_count <- [DW_OP_constu 1, DW_OP_minus, DW_OP_stack_value] $w25
	.loc	1 0 14 is_stmt 0                // kernel/platform_source/basicplatform/block/mas_blk_flush.c:0:14
	b.ne	.LBB6_3
	b	.LBB6_13
.Ltmp132:
.LBB6_12:
	//DEBUG_VALUE: mas_blk_order_panic_wait_flush:blk_lld <- [DW_OP_constu 520, DW_OP_minus, DW_OP_stack_value] $x28
	//DEBUG_VALUE: spin_unlock_irqrestore:flags <- $x23
	//DEBUG_VALUE: mas_blk_order_panic_wait_flush:flags <- $x23
	//DEBUG_VALUE: spin_unlock_irqrestore:lock <- $x21
	//DEBUG_VALUE: mas_blk_order_panic_wait_flush:sleep_count <- [DW_OP_constu 1, DW_OP_minus, DW_OP_stack_value] $w25
	mov	x19, x26
.Ltmp133:
.LBB6_13:
	//DEBUG_VALUE: mas_blk_order_panic_wait_flush:flags <- $x23
	//DEBUG_VALUE: mas_blk_order_panic_wait_flush:sleep_count <- [DW_OP_constu 1, DW_OP_minus, DW_OP_stack_value] $w25
	mov	w0, #1
	bl	blk_power_off_flush
.Ltmp134:
	adrp	x1, .L__func__.mas_blk_order_panic_wait_flush
	add	x1, x1, :lo12:.L__func__.mas_blk_order_panic_wait_flush
	mov	x0, x19
	bl	printk
.Ltmp135:
	.loc	1 217 1 is_stmt 1               // kernel/platform_source/basicplatform/block/mas_blk_flush.c:217:1
	ldp	x20, x19, [sp, #80]             // 16-byte Folded Reload
	ldp	x22, x21, [sp, #64]             // 16-byte Folded Reload
	ldp	x24, x23, [sp, #48]             // 16-byte Folded Reload
.Ltmp136:
	ldp	x26, x25, [sp, #32]             // 16-byte Folded Reload
.Ltmp137:
	ldp	x28, x27, [sp, #16]             // 16-byte Folded Reload
	ldp	x29, x30, [sp], #96             // 16-byte Folded Reload
	hint	#29
	ret
.Ltmp138:
.Lfunc_end6:
	.size	mas_blk_order_panic_wait_flush, .Lfunc_end6-mas_blk_order_panic_wait_flush
	.cfi_endproc
                                        // -- End function
	.globl	mas_blk_panic_flush             // -- Begin function mas_blk_panic_flush
	.p2align	2
	.type	mas_blk_panic_flush,@function
mas_blk_panic_flush:                    // @mas_blk_panic_flush
.Lfunc_begin7:
	.loc	1 220 0                         // kernel/platform_source/basicplatform/block/mas_blk_flush.c:220:0
	.cfi_startproc
// %bb.0:
	hint	#25
	.cfi_negate_ra_state
	stp	x29, x30, [sp, #-64]!           // 16-byte Folded Spill
	stp	x24, x23, [sp, #16]             // 16-byte Folded Spill
	stp	x22, x21, [sp, #32]             // 16-byte Folded Spill
	stp	x20, x19, [sp, #48]             // 16-byte Folded Spill
	mov	x29, sp
	.cfi_def_cfa w29, 64
	.cfi_offset w19, -8
	.cfi_offset w20, -16
	.cfi_offset w21, -24
	.cfi_offset w22, -32
	.cfi_offset w23, -40
	.cfi_offset w24, -48
	.cfi_offset w30, -56
	.cfi_offset w29, -64
.Ltmp139:
	//DEBUG_VALUE: mas_blk_panic_flush:blk_lld <- 0
	//DEBUG_VALUE: mas_blk_panic_flush:order_enable <- 0
	.loc	1 225 2 prologue_end            // kernel/platform_source/basicplatform/block/mas_blk_flush.c:225:2
	mov	w0, wzr
	bl	blk_power_off_flush
.Ltmp140:
	.loc	1 227 2                         // kernel/platform_source/basicplatform/block/mas_blk_flush.c:227:2
	adrp	x0, all_object_lock
	add	x0, x0, :lo12:all_object_lock
	bl	_raw_spin_lock_irqsave
.Ltmp141:
	.loc	1 0 0 is_stmt 0                 // kernel/platform_source/basicplatform/block/mas_blk_flush.c:0:0
	adrp	x22, all_object_list
	add	x22, x22, :lo12:all_object_list
	ldr	x23, [x22]
.Ltmp142:
	//DEBUG_VALUE: mas_blk_panic_flush:order_enable <- undef
	//DEBUG_VALUE: mas_blk_panic_flush:blk_lld <- [DW_OP_constu 520, DW_OP_minus, DW_OP_stack_value] $x23
	.loc	1 227 2                         // kernel/platform_source/basicplatform/block/mas_blk_flush.c:227:2
	mov	x19, x0
.Ltmp143:
	//DEBUG_VALUE: mas_blk_panic_flush:flags <- $x19
	//DEBUG_VALUE: mas_blk_panic_flush:blk_lld <- [DW_OP_constu 520, DW_OP_minus, DW_OP_stack_value] undef
	.loc	1 228 2 is_stmt 1               // kernel/platform_source/basicplatform/block/mas_blk_flush.c:228:2
	cmp	x23, x22
	b.eq	.LBB7_10
.Ltmp144:
// %bb.1:
	//DEBUG_VALUE: mas_blk_panic_flush:flags <- $x19
	.loc	1 0 2 is_stmt 0                 // kernel/platform_source/basicplatform/block/mas_blk_flush.c:0:2
	adrp	x20, .L.str.7
	adrp	x21, .L__func__.mas_blk_panic_flush
	mov	w24, wzr
	add	x20, x20, :lo12:.L.str.7
	add	x21, x21, :lo12:.L__func__.mas_blk_panic_flush
.Ltmp145:
.LBB7_2:                                // =>This Inner Loop Header: Depth=1
	//DEBUG_VALUE: mas_blk_panic_flush:flags <- $x19
	.loc	1 229 16 is_stmt 1              // kernel/platform_source/basicplatform/block/mas_blk_flush.c:229:16
	sub	x8, x23, #516                   // =516
	ldr	w2, [x8]
.Ltmp146:
	.loc	1 229 7 is_stmt 0               // kernel/platform_source/basicplatform/block/mas_blk_flush.c:229:7
	cmp	w2, #2                          // =2
	b.ne	.LBB7_5
.Ltmp147:
// %bb.3:                               //   in Loop: Header=BB7_2 Depth=1
	//DEBUG_VALUE: mas_blk_panic_flush:flags <- $x19
	.loc	1 235 16 is_stmt 1              // kernel/platform_source/basicplatform/block/mas_blk_flush.c:235:16
	sub	x8, x23, #496                   // =496
.Ltmp148:
	.loc	1 235 7 is_stmt 0               // kernel/platform_source/basicplatform/block/mas_blk_flush.c:235:7
	ldrb	w8, [x8]
	tbnz	w8, #7, .LBB7_6
.Ltmp149:
.LBB7_4:                                //   in Loop: Header=BB7_2 Depth=1
	//DEBUG_VALUE: mas_blk_panic_flush:flags <- $x19
	//DEBUG_VALUE: mas_blk_panic_flush:blk_lld <- [DW_OP_constu 520, DW_OP_minus, DW_OP_stack_value] undef
	//DEBUG_VALUE: mas_blk_panic_flush:order_enable <- undef
	//DEBUG_VALUE: __mptr <- undef
	.loc	1 0 0                           // kernel/platform_source/basicplatform/block/mas_blk_flush.c:0:0
	ldr	x23, [x23]
.Ltmp150:
	//DEBUG_VALUE: mas_blk_panic_flush:blk_lld <- [DW_OP_constu 520, DW_OP_minus, DW_OP_stack_value] $x23
	.loc	1 228 2 is_stmt 1               // kernel/platform_source/basicplatform/block/mas_blk_flush.c:228:2
	cmp	x23, x22
	b.ne	.LBB7_2
	b	.LBB7_8
.Ltmp151:
.LBB7_5:                                //   in Loop: Header=BB7_2 Depth=1
	//DEBUG_VALUE: mas_blk_panic_flush:flags <- $x19
	.loc	1 230 4                         // kernel/platform_source/basicplatform/block/mas_blk_flush.c:230:4
	mov	x0, x20
	mov	x1, x21
	bl	printk
.Ltmp152:
	.loc	1 0 4 is_stmt 0                 // kernel/platform_source/basicplatform/block/mas_blk_flush.c:0:4
	b	.LBB7_4
.Ltmp153:
.LBB7_6:                                //   in Loop: Header=BB7_2 Depth=1
	//DEBUG_VALUE: mas_blk_panic_flush:flags <- $x19
	sub	x0, x23, #520                   // =520
.Ltmp154:
	//DEBUG_VALUE: mas_blk_panic_flush:order_enable <- 1
	.loc	1 237 4 is_stmt 1               // kernel/platform_source/basicplatform/block/mas_blk_flush.c:237:4
	bl	ufs_order_panic_datasync_handle
.Ltmp155:
	//DEBUG_VALUE: __mptr <- undef
	//DEBUG_VALUE: mas_blk_panic_flush:order_enable <- undef
	//DEBUG_VALUE: mas_blk_panic_flush:blk_lld <- [DW_OP_constu 520, DW_OP_minus, DW_OP_stack_value] undef
	.loc	1 0 0 is_stmt 0                 // kernel/platform_source/basicplatform/block/mas_blk_flush.c:0:0
	ldr	x23, [x23]
	mov	w24, #1
	.loc	1 228 2 is_stmt 1               // kernel/platform_source/basicplatform/block/mas_blk_flush.c:228:2
	cmp	x23, x22
	b.ne	.LBB7_2
.Ltmp156:
// %bb.7:
	//DEBUG_VALUE: mas_blk_panic_flush:flags <- $x19
	//DEBUG_VALUE: spin_unlock_irqrestore:flags <- $x19
	.loc	161 409 2                       // kernel/include/linux/spinlock.h:409:2
	adrp	x0, all_object_lock
	add	x0, x0, :lo12:all_object_lock
.Ltmp157:
	//DEBUG_VALUE: spin_unlock_irqrestore:lock <- $x0
	mov	x1, x19
	bl	_raw_spin_unlock_irqrestore
.Ltmp158:
	.loc	161 0 2 is_stmt 0               // kernel/include/linux/spinlock.h:0:2
	b	.LBB7_9
.Ltmp159:
.LBB7_8:
	//DEBUG_VALUE: mas_blk_panic_flush:blk_lld <- [DW_OP_constu 520, DW_OP_minus, DW_OP_stack_value] $x23
	//DEBUG_VALUE: mas_blk_panic_flush:flags <- $x19
	//DEBUG_VALUE: spin_unlock_irqrestore:flags <- $x19
	.loc	161 409 2                       // kernel/include/linux/spinlock.h:409:2
	adrp	x0, all_object_lock
	add	x0, x0, :lo12:all_object_lock
.Ltmp160:
	//DEBUG_VALUE: spin_unlock_irqrestore:lock <- $x0
	mov	x1, x19
	bl	_raw_spin_unlock_irqrestore
.Ltmp161:
	.loc	161 0 2                         // kernel/include/linux/spinlock.h:0:2
	tbz	w24, #0, .LBB7_11
.Ltmp162:
.LBB7_9:
	//DEBUG_VALUE: mas_blk_panic_flush:flags <- $x19
	.loc	1 243 3 is_stmt 1               // kernel/platform_source/basicplatform/block/mas_blk_flush.c:243:3
	bl	mas_blk_order_panic_wait_flush
.Ltmp163:
	.loc	1 0 3 is_stmt 0                 // kernel/platform_source/basicplatform/block/mas_blk_flush.c:0:3
	b	.LBB7_11
.Ltmp164:
.LBB7_10:
	//DEBUG_VALUE: mas_blk_panic_flush:flags <- $x19
	//DEBUG_VALUE: spin_unlock_irqrestore:flags <- $x19
	.loc	161 409 2 is_stmt 1             // kernel/include/linux/spinlock.h:409:2
	adrp	x0, all_object_lock
	add	x0, x0, :lo12:all_object_lock
.Ltmp165:
	//DEBUG_VALUE: spin_unlock_irqrestore:lock <- $x0
	mov	x1, x19
	bl	_raw_spin_unlock_irqrestore
.Ltmp166:
.LBB7_11:
	//DEBUG_VALUE: mas_blk_panic_flush:flags <- $x19
	.loc	1 244 1                         // kernel/platform_source/basicplatform/block/mas_blk_flush.c:244:1
	ldp	x20, x19, [sp, #48]             // 16-byte Folded Reload
.Ltmp167:
	ldp	x22, x21, [sp, #32]             // 16-byte Folded Reload
	ldp	x24, x23, [sp, #16]             // 16-byte Folded Reload
	ldp	x29, x30, [sp], #64             // 16-byte Folded Reload
	hint	#29
	ret
.Ltmp168:
.Lfunc_end7:
	.size	mas_blk_panic_flush, .Lfunc_end7-mas_blk_panic_flush
	.cfi_endproc
                                        // -- End function
	.globl	mas_blk_poweroff_flush_notifier_call // -- Begin function mas_blk_poweroff_flush_notifier_call
	.p2align	2
	.type	mas_blk_poweroff_flush_notifier_call,@function
mas_blk_poweroff_flush_notifier_call:   // @mas_blk_poweroff_flush_notifier_call
.Lfunc_begin8:
	.loc	1 273 0                         // kernel/platform_source/basicplatform/block/mas_blk_flush.c:273:0
	.cfi_startproc
// %bb.0:
	//DEBUG_VALUE: mas_blk_poweroff_flush_notifier_call:powerkey_nb <- $x0
	//DEBUG_VALUE: mas_blk_poweroff_flush_notifier_call:event <- $x1
	//DEBUG_VALUE: mas_blk_poweroff_flush_notifier_call:event <- $x1
	//DEBUG_VALUE: mas_blk_poweroff_flush_notifier_call:data <- $x2
	hint	#25
	.cfi_negate_ra_state
	stp	x29, x30, [sp, #-64]!           // 16-byte Folded Spill
	str	x23, [sp, #16]                  // 8-byte Folded Spill
	stp	x22, x21, [sp, #32]             // 16-byte Folded Spill
	stp	x20, x19, [sp, #48]             // 16-byte Folded Spill
	mov	x29, sp
	.cfi_def_cfa w29, 64
	.cfi_offset w19, -8
	.cfi_offset w20, -16
	.cfi_offset w21, -24
	.cfi_offset w22, -32
	.cfi_offset w23, -48
	.cfi_offset w30, -56
	.cfi_offset w29, -64
.Ltmp169:
	.loc	1 274 6 prologue_end            // kernel/platform_source/basicplatform/block/mas_blk_flush.c:274:6
	cmp	x1, #2                          // =2
	b.eq	.LBB8_3
.Ltmp170:
// %bb.1:
	//DEBUG_VALUE: mas_blk_poweroff_flush_notifier_call:data <- $x2
	//DEBUG_VALUE: mas_blk_poweroff_flush_notifier_call:event <- $x1
	//DEBUG_VALUE: mas_blk_poweroff_flush_notifier_call:powerkey_nb <- $x0
	cmp	x1, #3                          // =3
	b.ne	.LBB8_14
.Ltmp171:
// %bb.2:
	//DEBUG_VALUE: mas_blk_poweroff_flush_notifier_call:data <- $x2
	//DEBUG_VALUE: mas_blk_poweroff_flush_notifier_call:event <- $x1
	//DEBUG_VALUE: mas_blk_poweroff_flush_notifier_call:powerkey_nb <- $x0
	.loc	1 275 3                         // kernel/platform_source/basicplatform/block/mas_blk_flush.c:275:3
	mov	w0, #1
.Ltmp172:
	//DEBUG_VALUE: mas_blk_poweroff_flush_notifier_call:powerkey_nb <- [DW_OP_LLVM_entry_value 1] $x0
	bl	blk_power_off_flush
.Ltmp173:
	//DEBUG_VALUE: mas_blk_poweroff_flush_notifier_call:data <- [DW_OP_LLVM_entry_value 1] $x2
	//DEBUG_VALUE: mas_blk_poweroff_flush_notifier_call:event <- [DW_OP_LLVM_entry_value 1] $x1
	.loc	1 0 3 is_stmt 0                 // kernel/platform_source/basicplatform/block/mas_blk_flush.c:0:3
	b	.LBB8_14
.Ltmp174:
.LBB8_3:
	//DEBUG_VALUE: mas_blk_poweroff_flush_notifier_call:data <- $x2
	//DEBUG_VALUE: mas_blk_poweroff_flush_notifier_call:event <- $x1
	//DEBUG_VALUE: mas_blk_poweroff_flush_notifier_call:powerkey_nb <- $x0
	//DEBUG_VALUE: mas_blk_order_poweroff_proc:blk_lld <- 0
	//DEBUG_VALUE: mas_blk_order_poweroff_proc:tag_set <- 0
	.loc	1 252 2 is_stmt 1               // kernel/platform_source/basicplatform/block/mas_blk_flush.c:252:2
	adrp	x0, all_object_lock
.Ltmp175:
	//DEBUG_VALUE: mas_blk_poweroff_flush_notifier_call:powerkey_nb <- [DW_OP_LLVM_entry_value 1] $x0
	add	x0, x0, :lo12:all_object_lock
	bl	_raw_spin_lock_irqsave
.Ltmp176:
	//DEBUG_VALUE: mas_blk_poweroff_flush_notifier_call:data <- [DW_OP_LLVM_entry_value 1] $x2
	//DEBUG_VALUE: mas_blk_poweroff_flush_notifier_call:event <- [DW_OP_LLVM_entry_value 1] $x1
	.loc	1 0 0 is_stmt 0                 // kernel/platform_source/basicplatform/block/mas_blk_flush.c:0:0
	adrp	x22, all_object_list
	add	x22, x22, :lo12:all_object_list
	ldr	x23, [x22]
.Ltmp177:
	//DEBUG_VALUE: mas_blk_order_poweroff_proc:blk_lld <- [DW_OP_constu 520, DW_OP_minus, DW_OP_stack_value] $x23
	.loc	1 252 2                         // kernel/platform_source/basicplatform/block/mas_blk_flush.c:252:2
	mov	x19, x0
.Ltmp178:
	//DEBUG_VALUE: mas_blk_order_poweroff_proc:flags <- $x19
	//DEBUG_VALUE: mas_blk_order_poweroff_proc:blk_lld <- [DW_OP_constu 520, DW_OP_minus, DW_OP_stack_value] undef
	.loc	1 253 2 is_stmt 1               // kernel/platform_source/basicplatform/block/mas_blk_flush.c:253:2
	cmp	x23, x22
	b.eq	.LBB8_13
.Ltmp179:
// %bb.4:
	//DEBUG_VALUE: mas_blk_order_poweroff_proc:flags <- $x19
	//DEBUG_VALUE: mas_blk_order_poweroff_proc:tag_set <- 0
	//DEBUG_VALUE: mas_blk_poweroff_flush_notifier_call:data <- [DW_OP_LLVM_entry_value 1] $x2
	//DEBUG_VALUE: mas_blk_poweroff_flush_notifier_call:event <- [DW_OP_LLVM_entry_value 1] $x1
	//DEBUG_VALUE: mas_blk_poweroff_flush_notifier_call:powerkey_nb <- [DW_OP_LLVM_entry_value 1] $x0
	.loc	1 0 2 is_stmt 0                 // kernel/platform_source/basicplatform/block/mas_blk_flush.c:0:2
	adrp	x20, .L.str.7
	adrp	x21, .L__func__.mas_blk_order_poweroff_proc
	add	x20, x20, :lo12:.L.str.7
	add	x21, x21, :lo12:.L__func__.mas_blk_order_poweroff_proc
	b	.LBB8_7
.Ltmp180:
.LBB8_5:                                //   in Loop: Header=BB8_7 Depth=1
	//DEBUG_VALUE: mas_blk_order_poweroff_proc:flags <- $x19
	//DEBUG_VALUE: mas_blk_poweroff_flush_notifier_call:data <- [DW_OP_LLVM_entry_value 1] $x2
	//DEBUG_VALUE: mas_blk_poweroff_flush_notifier_call:event <- [DW_OP_LLVM_entry_value 1] $x1
	//DEBUG_VALUE: mas_blk_poweroff_flush_notifier_call:powerkey_nb <- [DW_OP_LLVM_entry_value 1] $x0
	.loc	1 255 4 is_stmt 1               // kernel/platform_source/basicplatform/block/mas_blk_flush.c:255:4
	mov	x0, x20
	mov	x1, x21
	bl	printk
.Ltmp181:
.LBB8_6:                                //   in Loop: Header=BB8_7 Depth=1
	//DEBUG_VALUE: mas_blk_order_poweroff_proc:flags <- $x19
	//DEBUG_VALUE: mas_blk_poweroff_flush_notifier_call:data <- [DW_OP_LLVM_entry_value 1] $x2
	//DEBUG_VALUE: mas_blk_poweroff_flush_notifier_call:event <- [DW_OP_LLVM_entry_value 1] $x1
	//DEBUG_VALUE: mas_blk_poweroff_flush_notifier_call:powerkey_nb <- [DW_OP_LLVM_entry_value 1] $x0
	//DEBUG_VALUE: mas_blk_order_poweroff_proc:blk_lld <- [DW_OP_constu 520, DW_OP_minus, DW_OP_stack_value] undef
	//DEBUG_VALUE: __mptr <- undef
	.loc	1 0 0 is_stmt 0                 // kernel/platform_source/basicplatform/block/mas_blk_flush.c:0:0
	ldr	x23, [x23]
.Ltmp182:
	//DEBUG_VALUE: mas_blk_order_poweroff_proc:blk_lld <- [DW_OP_constu 520, DW_OP_minus, DW_OP_stack_value] $x23
	.loc	1 253 2 is_stmt 1               // kernel/platform_source/basicplatform/block/mas_blk_flush.c:253:2
	cmp	x23, x22
	b.eq	.LBB8_13
.Ltmp183:
.LBB8_7:                                // =>This Inner Loop Header: Depth=1
	//DEBUG_VALUE: mas_blk_order_poweroff_proc:flags <- $x19
	//DEBUG_VALUE: mas_blk_poweroff_flush_notifier_call:data <- [DW_OP_LLVM_entry_value 1] $x2
	//DEBUG_VALUE: mas_blk_poweroff_flush_notifier_call:event <- [DW_OP_LLVM_entry_value 1] $x1
	//DEBUG_VALUE: mas_blk_poweroff_flush_notifier_call:powerkey_nb <- [DW_OP_LLVM_entry_value 1] $x0
	.loc	1 254 16                        // kernel/platform_source/basicplatform/block/mas_blk_flush.c:254:16
	sub	x8, x23, #516                   // =516
	ldr	w2, [x8]
.Ltmp184:
	.loc	1 254 7 is_stmt 0               // kernel/platform_source/basicplatform/block/mas_blk_flush.c:254:7
	cmp	w2, #2                          // =2
	b.ne	.LBB8_5
.Ltmp185:
// %bb.8:                               //   in Loop: Header=BB8_7 Depth=1
	//DEBUG_VALUE: mas_blk_order_poweroff_proc:flags <- $x19
	//DEBUG_VALUE: mas_blk_poweroff_flush_notifier_call:data <- [DW_OP_LLVM_entry_value 1] $x2
	//DEBUG_VALUE: mas_blk_poweroff_flush_notifier_call:event <- [DW_OP_LLVM_entry_value 1] $x1
	//DEBUG_VALUE: mas_blk_poweroff_flush_notifier_call:powerkey_nb <- [DW_OP_LLVM_entry_value 1] $x0
	.loc	1 260 18 is_stmt 1              // kernel/platform_source/basicplatform/block/mas_blk_flush.c:260:18
	sub	x8, x23, #496                   // =496
.Ltmp186:
	.loc	1 260 7 is_stmt 0               // kernel/platform_source/basicplatform/block/mas_blk_flush.c:260:7
	ldrb	w8, [x8]
	tbz	w8, #7, .LBB8_6
.Ltmp187:
// %bb.9:                               //   in Loop: Header=BB8_7 Depth=1
	//DEBUG_VALUE: mas_blk_order_poweroff_proc:flags <- $x19
	//DEBUG_VALUE: mas_blk_poweroff_flush_notifier_call:data <- [DW_OP_LLVM_entry_value 1] $x2
	//DEBUG_VALUE: mas_blk_poweroff_flush_notifier_call:event <- [DW_OP_LLVM_entry_value 1] $x1
	//DEBUG_VALUE: mas_blk_poweroff_flush_notifier_call:powerkey_nb <- [DW_OP_LLVM_entry_value 1] $x0
	.loc	1 262 48 is_stmt 1              // kernel/platform_source/basicplatform/block/mas_blk_flush.c:262:48
	sub	x8, x23, #512                   // =512
	ldr	x8, [x8]
.Ltmp188:
	//DEBUG_VALUE: mas_blk_order_poweroff_proc:tag_set <- $x8
	.loc	1 263 15                        // kernel/platform_source/basicplatform/block/mas_blk_flush.c:263:15
	cbz	x8, .LBB8_6
.Ltmp189:
// %bb.10:                              //   in Loop: Header=BB8_7 Depth=1
	//DEBUG_VALUE: mas_blk_order_poweroff_proc:flags <- $x19
	//DEBUG_VALUE: mas_blk_order_poweroff_proc:tag_set <- $x8
	//DEBUG_VALUE: mas_blk_poweroff_flush_notifier_call:data <- [DW_OP_LLVM_entry_value 1] $x2
	//DEBUG_VALUE: mas_blk_poweroff_flush_notifier_call:event <- [DW_OP_LLVM_entry_value 1] $x1
	//DEBUG_VALUE: mas_blk_poweroff_flush_notifier_call:powerkey_nb <- [DW_OP_LLVM_entry_value 1] $x0
	.loc	1 263 27 is_stmt 0              // kernel/platform_source/basicplatform/block/mas_blk_flush.c:263:27
	ldr	x8, [x8, #624]
.Ltmp190:
	.loc	1 263 42                        // kernel/platform_source/basicplatform/block/mas_blk_flush.c:263:42
	cbz	x8, .LBB8_6
.Ltmp191:
// %bb.11:                              //   in Loop: Header=BB8_7 Depth=1
	//DEBUG_VALUE: mas_blk_order_poweroff_proc:flags <- $x19
	//DEBUG_VALUE: mas_blk_poweroff_flush_notifier_call:data <- [DW_OP_LLVM_entry_value 1] $x2
	//DEBUG_VALUE: mas_blk_poweroff_flush_notifier_call:event <- [DW_OP_LLVM_entry_value 1] $x1
	//DEBUG_VALUE: mas_blk_poweroff_flush_notifier_call:powerkey_nb <- [DW_OP_LLVM_entry_value 1] $x0
	.loc	1 264 30 is_stmt 1              // kernel/platform_source/basicplatform/block/mas_blk_flush.c:264:30
	ldr	x8, [x8, #32]
.Ltmp192:
	.loc	1 263 7                         // kernel/platform_source/basicplatform/block/mas_blk_flush.c:263:7
	cbz	x8, .LBB8_6
.Ltmp193:
// %bb.12:                              //   in Loop: Header=BB8_7 Depth=1
	//DEBUG_VALUE: mas_blk_order_poweroff_proc:flags <- $x19
	//DEBUG_VALUE: mas_blk_poweroff_flush_notifier_call:data <- [DW_OP_LLVM_entry_value 1] $x2
	//DEBUG_VALUE: mas_blk_poweroff_flush_notifier_call:event <- [DW_OP_LLVM_entry_value 1] $x1
	//DEBUG_VALUE: mas_blk_poweroff_flush_notifier_call:powerkey_nb <- [DW_OP_LLVM_entry_value 1] $x0
	.loc	1 0 0 is_stmt 0                 // kernel/platform_source/basicplatform/block/mas_blk_flush.c:0:0
	sub	x0, x23, #520                   // =520
.Ltmp194:
	.loc	1 265 4 is_stmt 1               // kernel/platform_source/basicplatform/block/mas_blk_flush.c:265:4
	blr	x8
.Ltmp195:
	.loc	1 0 4 is_stmt 0                 // kernel/platform_source/basicplatform/block/mas_blk_flush.c:0:4
	b	.LBB8_6
.Ltmp196:
.LBB8_13:
	//DEBUG_VALUE: mas_blk_order_poweroff_proc:flags <- $x19
	//DEBUG_VALUE: mas_blk_poweroff_flush_notifier_call:data <- [DW_OP_LLVM_entry_value 1] $x2
	//DEBUG_VALUE: mas_blk_poweroff_flush_notifier_call:event <- [DW_OP_LLVM_entry_value 1] $x1
	//DEBUG_VALUE: mas_blk_poweroff_flush_notifier_call:powerkey_nb <- [DW_OP_LLVM_entry_value 1] $x0
	//DEBUG_VALUE: spin_unlock_irqrestore:flags <- $x19
	.loc	161 409 2 is_stmt 1             // kernel/include/linux/spinlock.h:409:2
	adrp	x0, all_object_lock
	add	x0, x0, :lo12:all_object_lock
.Ltmp197:
	//DEBUG_VALUE: spin_unlock_irqrestore:lock <- $x0
	mov	x1, x19
	bl	_raw_spin_unlock_irqrestore
.Ltmp198:
.LBB8_14:
	.loc	1 279 2                         // kernel/platform_source/basicplatform/block/mas_blk_flush.c:279:2
	ldp	x20, x19, [sp, #48]             // 16-byte Folded Reload
	ldp	x22, x21, [sp, #32]             // 16-byte Folded Reload
	ldr	x23, [sp, #16]                  // 8-byte Folded Reload
	mov	w0, wzr
	ldp	x29, x30, [sp], #64             // 16-byte Folded Reload
	hint	#29
	ret
.Ltmp199:
.Lfunc_end8:
	.size	mas_blk_poweroff_flush_notifier_call, .Lfunc_end8-mas_blk_poweroff_flush_notifier_call
	.cfi_endproc
                                        // -- End function
	.section	.init.text,"ax",@progbits
	.globl	mas_blk_flush_init              // -- Begin function mas_blk_flush_init
	.p2align	2
	.type	mas_blk_flush_init,@function
mas_blk_flush_init:                     // @mas_blk_flush_init
.Lfunc_begin9:
	.loc	1 288 0                         // kernel/platform_source/basicplatform/block/mas_blk_flush.c:288:0
	.cfi_startproc
// %bb.0:
	hint	#25
	.cfi_negate_ra_state
	stp	x29, x30, [sp, #-16]!           // 16-byte Folded Spill
	mov	x29, sp
	.cfi_def_cfa w29, 16
	.cfi_offset w30, -8
	.cfi_offset w29, -16
.Ltmp200:
	.loc	1 289 9 prologue_end            // kernel/platform_source/basicplatform/block/mas_blk_flush.c:289:9
	adrp	x0, mas_blk_poweroff_flush_nb
	add	x0, x0, :lo12:mas_blk_poweroff_flush_nb
	bl	powerkey_register_notifier
.Ltmp201:
	.loc	1 289 2 is_stmt 0               // kernel/platform_source/basicplatform/block/mas_blk_flush.c:289:2
	ldp	x29, x30, [sp], #16             // 16-byte Folded Reload
	hint	#29
	ret
.Ltmp202:
.Lfunc_end9:
	.size	mas_blk_flush_init, .Lfunc_end9-mas_blk_flush_init
	.cfi_endproc
                                        // -- End function
	.text
	.globl	mas_blk_flush_reduced_queue_unregister // -- Begin function mas_blk_flush_reduced_queue_unregister
	.p2align	2
	.type	mas_blk_flush_reduced_queue_unregister,@function
mas_blk_flush_reduced_queue_unregister: // @mas_blk_flush_reduced_queue_unregister
.Lfunc_begin10:
	.loc	1 304 0 is_stmt 1               // kernel/platform_source/basicplatform/block/mas_blk_flush.c:304:0
	.cfi_startproc
// %bb.0:
	//DEBUG_VALUE: mas_blk_flush_reduced_queue_unregister:q <- $x0
	//DEBUG_VALUE: mas_blk_flush_reduced_queue_unregister:q <- $x0
	hint	#25
	.cfi_negate_ra_state
	stp	x29, x30, [sp, #-48]!           // 16-byte Folded Spill
	str	x21, [sp, #16]                  // 8-byte Folded Spill
	stp	x20, x19, [sp, #32]             // 16-byte Folded Spill
	mov	x29, sp
	.cfi_def_cfa w29, 48
	.cfi_offset w19, -8
	.cfi_offset w20, -16
	.cfi_offset w21, -32
	.cfi_offset w30, -40
	.cfi_offset w29, -48
.Ltmp203:
	//DEBUG_VALUE: mas_blk_flush_reduced_queue_unregister:mas_queue <- [DW_OP_plus_uconst 1176, DW_OP_stack_value] $x0
	//DEBUG_VALUE: mas_blk_flush_reduced_queue_unregister:flush_queue_node <- undef
	//DEBUG_VALUE: mas_blk_flush_reduced_queue_unregister:mas_queue <- [DW_OP_plus_uconst 1176, DW_OP_stack_value] $x0
	.loc	1 309 17 prologue_end           // kernel/platform_source/basicplatform/block/mas_blk_flush.c:309:17
	ldr	w8, [x0, #1320]
.Ltmp204:
	.loc	1 309 6 is_stmt 0               // kernel/platform_source/basicplatform/block/mas_blk_flush.c:309:6
	cbz	w8, .LBB10_6
.Ltmp205:
// %bb.1:
	//DEBUG_VALUE: mas_blk_flush_reduced_queue_unregister:mas_queue <- [DW_OP_plus_uconst 1176, DW_OP_stack_value] $x0
	//DEBUG_VALUE: mas_blk_flush_reduced_queue_unregister:q <- $x0
	.loc	1 0 0                           // kernel/platform_source/basicplatform/block/mas_blk_flush.c:0:0
	add	x21, x0, #1304                  // =1304
.Ltmp206:
	//DEBUG_VALUE: mas_blk_flush_reduced_queue_unregister:flush_queue_node <- $x21
	.loc	1 310 26 is_stmt 1              // kernel/platform_source/basicplatform/block/mas_blk_flush.c:310:26
	ldr	x8, [x21]
	mov	x19, x0
.Ltmp207:
	//DEBUG_VALUE: mas_blk_flush_reduced_queue_unregister:q <- $x19
	//DEBUG_VALUE: mas_blk_flush_reduced_queue_unregister:q <- $x19
	//DEBUG_VALUE: mas_blk_flush_reduced_queue_unregister:mas_queue <- [DW_OP_plus_uconst 1176, DW_OP_stack_value] $x19
	.loc	1 310 31 is_stmt 0              // kernel/platform_source/basicplatform/block/mas_blk_flush.c:310:31
	cbz	x8, .LBB10_6
.Ltmp208:
// %bb.2:
	//DEBUG_VALUE: mas_blk_flush_reduced_queue_unregister:flush_queue_node <- $x21
	//DEBUG_VALUE: mas_blk_flush_reduced_queue_unregister:mas_queue <- [DW_OP_plus_uconst 1176, DW_OP_stack_value] $x19
	//DEBUG_VALUE: mas_blk_flush_reduced_queue_unregister:q <- $x19
	.loc	1 310 53                        // kernel/platform_source/basicplatform/block/mas_blk_flush.c:310:53
	ldr	x8, [x19, #1312]
.Ltmp209:
	.loc	1 310 7                         // kernel/platform_source/basicplatform/block/mas_blk_flush.c:310:7
	cbz	x8, .LBB10_6
.Ltmp210:
// %bb.3:
	//DEBUG_VALUE: mas_blk_flush_reduced_queue_unregister:flush_queue_node <- $x21
	//DEBUG_VALUE: mas_blk_flush_reduced_queue_unregister:mas_queue <- [DW_OP_plus_uconst 1176, DW_OP_stack_value] $x19
	//DEBUG_VALUE: mas_blk_flush_reduced_queue_unregister:q <- $x19
	.loc	1 314 3 is_stmt 1               // kernel/platform_source/basicplatform/block/mas_blk_flush.c:314:3
	adrp	x0, all_flush_q_lock
	add	x0, x0, :lo12:all_flush_q_lock
	bl	_raw_spin_lock_irqsave
.Ltmp211:
	mov	x20, x0
.Ltmp212:
	//DEBUG_VALUE: __list_del_entry:entry <- $x21
	//DEBUG_VALUE: list_del:entry <- $x21
	//DEBUG_VALUE: mas_blk_flush_reduced_queue_unregister:flag <- $x20
	.loc	163 132 7                       // kernel/include/linux/list.h:132:7
	mov	x0, x21
	bl	__list_del_entry_valid
.Ltmp213:
	.loc	163 132 6 is_stmt 0             // kernel/include/linux/list.h:132:6
	tbz	w0, #0, .LBB10_5
.Ltmp214:
// %bb.4:
	//DEBUG_VALUE: list_del:entry <- $x21
	//DEBUG_VALUE: __list_del_entry:entry <- $x21
	//DEBUG_VALUE: mas_blk_flush_reduced_queue_unregister:flush_queue_node <- $x21
	//DEBUG_VALUE: mas_blk_flush_reduced_queue_unregister:flag <- $x20
	//DEBUG_VALUE: mas_blk_flush_reduced_queue_unregister:mas_queue <- [DW_OP_plus_uconst 1176, DW_OP_stack_value] $x19
	//DEBUG_VALUE: mas_blk_flush_reduced_queue_unregister:q <- $x19
	.loc	163 135 20 is_stmt 1            // kernel/include/linux/list.h:135:20
	ldr	x8, [x19, #1312]
	.loc	163 135 33 is_stmt 0            // kernel/include/linux/list.h:135:33
	ldr	x9, [x19, #1304]
.Ltmp215:
	//DEBUG_VALUE: __list_del:prev <- $x8
	//DEBUG_VALUE: __list_del:next <- $x9
	.loc	163 112 13 is_stmt 1            // kernel/include/linux/list.h:112:13
	str	x8, [x9, #8]
.Ltmp216:
	.loc	163 113 2                       // kernel/include/linux/list.h:113:2
	str	x9, [x8]
.Ltmp217:
.LBB10_5:
	//DEBUG_VALUE: list_del:entry <- $x21
	//DEBUG_VALUE: mas_blk_flush_reduced_queue_unregister:flush_queue_node <- $x21
	//DEBUG_VALUE: mas_blk_flush_reduced_queue_unregister:flag <- $x20
	//DEBUG_VALUE: mas_blk_flush_reduced_queue_unregister:mas_queue <- [DW_OP_plus_uconst 1176, DW_OP_stack_value] $x19
	//DEBUG_VALUE: mas_blk_flush_reduced_queue_unregister:q <- $x19
	.loc	163 0 2 is_stmt 0               // kernel/include/linux/list.h:0:2
	mov	x8, #256
	movk	x8, #57005, lsl #48
	mov	w9, #34
.Ltmp218:
	.loc	161 409 2 is_stmt 1             // kernel/include/linux/spinlock.h:409:2
	adrp	x0, all_flush_q_lock
.Ltmp219:
	.loc	163 147 14                      // kernel/include/linux/list.h:147:14
	str	x8, [x19, #1304]
	.loc	163 148 14                      // kernel/include/linux/list.h:148:14
	orr	x8, x8, x9
.Ltmp220:
	.loc	161 409 2                       // kernel/include/linux/spinlock.h:409:2
	add	x0, x0, :lo12:all_flush_q_lock
.Ltmp221:
	//DEBUG_VALUE: spin_unlock_irqrestore:lock <- $x0
	mov	x1, x20
.Ltmp222:
	.loc	163 148 14                      // kernel/include/linux/list.h:148:14
	str	x8, [x19, #1312]
.Ltmp223:
	//DEBUG_VALUE: spin_unlock_irqrestore:flags <- $x20
	.loc	161 409 2                       // kernel/include/linux/spinlock.h:409:2
	bl	_raw_spin_unlock_irqrestore
.Ltmp224:
.LBB10_6:
	.loc	1 318 1                         // kernel/platform_source/basicplatform/block/mas_blk_flush.c:318:1
	ldp	x20, x19, [sp, #32]             // 16-byte Folded Reload
	ldr	x21, [sp, #16]                  // 8-byte Folded Reload
	ldp	x29, x30, [sp], #48             // 16-byte Folded Reload
	hint	#29
	ret
.Ltmp225:
.Lfunc_end10:
	.size	mas_blk_flush_reduced_queue_unregister, .Lfunc_end10-mas_blk_flush_reduced_queue_unregister
	.cfi_endproc
                                        // -- End function
	.globl	blk_mq_tagset_direct_flush_register // -- Begin function blk_mq_tagset_direct_flush_register
	.p2align	2
	.type	blk_mq_tagset_direct_flush_register,@function
blk_mq_tagset_direct_flush_register:    // @blk_mq_tagset_direct_flush_register
.Lfunc_begin11:
	.loc	1 326 0                         // kernel/platform_source/basicplatform/block/mas_blk_flush.c:326:0
	.cfi_startproc
// %bb.0:
	//DEBUG_VALUE: blk_mq_tagset_direct_flush_register:tag_set <- $x0
	//DEBUG_VALUE: blk_mq_tagset_direct_flush_register:tag_set <- $x0
	//DEBUG_VALUE: blk_mq_tagset_direct_flush_register:func <- $x1
	//DEBUG_VALUE: blk_mq_tagset_direct_flush_register:func <- $x1
	hint	#25
	.cfi_negate_ra_state
	stp	x29, x30, [sp, #-16]!           // 16-byte Folded Spill
	mov	x29, sp
	.cfi_def_cfa w29, 16
	.cfi_offset w30, -8
	.cfi_offset w29, -16
.Ltmp226:
	.loc	1 327 6 prologue_end            // kernel/platform_source/basicplatform/block/mas_blk_flush.c:327:6
	cbz	x0, .LBB11_3
.Ltmp227:
// %bb.1:
	//DEBUG_VALUE: blk_mq_tagset_direct_flush_register:func <- $x1
	//DEBUG_VALUE: blk_mq_tagset_direct_flush_register:tag_set <- $x0
	.loc	1 332 29                        // kernel/platform_source/basicplatform/block/mas_blk_flush.c:332:29
	str	x1, [x0, #120]
.Ltmp228:
.LBB11_2:
	.loc	1 333 1                         // kernel/platform_source/basicplatform/block/mas_blk_flush.c:333:1
	ldp	x29, x30, [sp], #16             // 16-byte Folded Reload
	hint	#29
	ret
.LBB11_3:
.Ltmp229:
	//DEBUG_VALUE: blk_mq_tagset_direct_flush_register:func <- $x1
	//DEBUG_VALUE: blk_mq_tagset_direct_flush_register:tag_set <- $x0
	.loc	1 328 3                         // kernel/platform_source/basicplatform/block/mas_blk_flush.c:328:3
	adrp	x0, .L.str.11
.Ltmp230:
	//DEBUG_VALUE: blk_mq_tagset_direct_flush_register:tag_set <- [DW_OP_LLVM_entry_value 1] $x0
	adrp	x1, .L__func__.blk_mq_tagset_direct_flush_register
.Ltmp231:
	//DEBUG_VALUE: blk_mq_tagset_direct_flush_register:func <- [DW_OP_LLVM_entry_value 1] $x1
	add	x0, x0, :lo12:.L.str.11
	add	x1, x1, :lo12:.L__func__.blk_mq_tagset_direct_flush_register
	bl	printk
.Ltmp232:
	.loc	1 0 3 is_stmt 0                 // kernel/platform_source/basicplatform/block/mas_blk_flush.c:0:3
	b	.LBB11_2
.Ltmp233:
.Lfunc_end11:
	.size	blk_mq_tagset_direct_flush_register, .Lfunc_end11-blk_mq_tagset_direct_flush_register
	.cfi_endproc
                                        // -- End function
	.globl	mas_blk_queue_async_flush_init  // -- Begin function mas_blk_queue_async_flush_init
	.p2align	2
	.type	mas_blk_queue_async_flush_init,@function
mas_blk_queue_async_flush_init:         // @mas_blk_queue_async_flush_init
.Lfunc_begin12:
	.loc	1 336 0 is_stmt 1               // kernel/platform_source/basicplatform/block/mas_blk_flush.c:336:0
	.cfi_startproc
// %bb.0:
	//DEBUG_VALUE: mas_blk_queue_async_flush_init:q <- $x0
	hint	#25
	.cfi_negate_ra_state
	stp	x29, x30, [sp, #-64]!           // 16-byte Folded Spill
	str	x23, [sp, #16]                  // 8-byte Folded Spill
	stp	x22, x21, [sp, #32]             // 16-byte Folded Spill
	stp	x20, x19, [sp, #48]             // 16-byte Folded Spill
	mov	x29, sp
	.cfi_def_cfa w29, 64
	.cfi_offset w19, -8
	.cfi_offset w20, -16
	.cfi_offset w21, -24
	.cfi_offset w22, -32
	.cfi_offset w23, -48
	.cfi_offset w30, -56
	.cfi_offset w29, -64
	mov	x19, x0
.Ltmp234:
	//DEBUG_VALUE: mas_blk_queue_async_flush_init:q <- $x19
	.loc	1 337 32 prologue_end           // kernel/platform_source/basicplatform/block/mas_blk_flush.c:337:32
	bl	mas_blk_get_lld
.Ltmp235:
	//DEBUG_VALUE: mas_blk_queue_async_flush_init:flush_queue_node <- undef
	//DEBUG_VALUE: mas_blk_queue_async_flush_init:mas_queue <- [DW_OP_plus_uconst 1176, DW_OP_stack_value] $x19
	//DEBUG_VALUE: mas_blk_queue_async_flush_init:blk_lld <- $x0
	.loc	1 341 6                         // kernel/platform_source/basicplatform/block/mas_blk_flush.c:341:6
	ldrb	w8, [x0, #24]
	tbz	w8, #2, .LBB12_12
.Ltmp236:
// %bb.1:
	//DEBUG_VALUE: mas_blk_queue_async_flush_init:mas_queue <- [DW_OP_plus_uconst 1176, DW_OP_stack_value] $x19
	//DEBUG_VALUE: mas_blk_queue_async_flush_init:q <- $x19
	//DEBUG_VALUE: mas_blk_queue_async_flush_init:blk_lld <- $x0
	.loc	1 344 7                         // kernel/platform_source/basicplatform/block/mas_blk_flush.c:344:7
	adrp	x20, blk_async_flush_workqueue
	ldr	x8, [x20, :lo12:blk_async_flush_workqueue]
.Ltmp237:
	.loc	1 0 0 is_stmt 0                 // kernel/platform_source/basicplatform/block/mas_blk_flush.c:0:0
	mov	x21, x0
.Ltmp238:
	//DEBUG_VALUE: mas_blk_queue_async_flush_init:blk_lld <- $x21
	//DEBUG_VALUE: mas_blk_queue_async_flush_init:blk_lld <- $x21
	//DEBUG_VALUE: mas_blk_queue_async_flush_init:flush_queue_node <- undef
	.loc	1 344 6                         // kernel/platform_source/basicplatform/block/mas_blk_flush.c:344:6
	cbnz	x8, .LBB12_3
.Ltmp239:
// %bb.2:
	//DEBUG_VALUE: mas_blk_queue_async_flush_init:blk_lld <- $x21
	//DEBUG_VALUE: mas_blk_queue_async_flush_init:mas_queue <- [DW_OP_plus_uconst 1176, DW_OP_stack_value] $x19
	//DEBUG_VALUE: mas_blk_queue_async_flush_init:q <- $x19
	.loc	1 346 4 is_stmt 1               // kernel/platform_source/basicplatform/block/mas_blk_flush.c:346:4
	adrp	x0, .L.str.12
	add	x0, x0, :lo12:.L.str.12
	mov	w1, #2
	mov	w2, wzr
	bl	alloc_workqueue
.Ltmp240:
	.loc	1 345 29                        // kernel/platform_source/basicplatform/block/mas_blk_flush.c:345:29
	str	x0, [x20, :lo12:blk_async_flush_workqueue]
.Ltmp241:
	.loc	1 348 6                         // kernel/platform_source/basicplatform/block/mas_blk_flush.c:348:6
	cbz	x0, .LBB12_13
.Ltmp242:
.LBB12_3:
	//DEBUG_VALUE: mas_blk_queue_async_flush_init:blk_lld <- $x21
	//DEBUG_VALUE: mas_blk_queue_async_flush_init:mas_queue <- [DW_OP_plus_uconst 1176, DW_OP_stack_value] $x19
	//DEBUG_VALUE: mas_blk_queue_async_flush_init:q <- $x19
	.loc	158 46 2                        // kernel/include/asm-generic/atomic-instrumented.h:46:2
	str	wzr, [x19, #1300]
.Ltmp243:
	.loc	1 354 25                        // kernel/platform_source/basicplatform/block/mas_blk_flush.c:354:25
	ldr	x8, [x19, #1304]
.Ltmp244:
	.loc	1 0 0 is_stmt 0                 // kernel/platform_source/basicplatform/block/mas_blk_flush.c:0:0
	add	x20, x19, #1304                 // =1304
	//DEBUG_VALUE: atomic_set:i <- 0
	//DEBUG_VALUE: atomic_set:v <- [DW_OP_plus_uconst 1300, DW_OP_stack_value] $x19
.Ltmp245:
	//DEBUG_VALUE: mas_blk_queue_async_flush_init:flush_queue_node <- $x20
	.loc	1 354 30                        // kernel/platform_source/basicplatform/block/mas_blk_flush.c:354:30
	cbnz	x8, .LBB12_6
.Ltmp246:
// %bb.4:
	//DEBUG_VALUE: mas_blk_queue_async_flush_init:blk_lld <- $x21
	//DEBUG_VALUE: mas_blk_queue_async_flush_init:flush_queue_node <- $x20
	//DEBUG_VALUE: mas_blk_queue_async_flush_init:mas_queue <- [DW_OP_plus_uconst 1176, DW_OP_stack_value] $x19
	//DEBUG_VALUE: mas_blk_queue_async_flush_init:q <- $x19
	.loc	1 354 52                        // kernel/platform_source/basicplatform/block/mas_blk_flush.c:354:52
	ldr	x8, [x19, #1312]
.Ltmp247:
	.loc	1 354 6                         // kernel/platform_source/basicplatform/block/mas_blk_flush.c:354:6
	cbnz	x8, .LBB12_6
.Ltmp248:
// %bb.5:
	//DEBUG_VALUE: mas_blk_queue_async_flush_init:blk_lld <- $x21
	//DEBUG_VALUE: mas_blk_queue_async_flush_init:flush_queue_node <- $x20
	//DEBUG_VALUE: mas_blk_queue_async_flush_init:mas_queue <- [DW_OP_plus_uconst 1176, DW_OP_stack_value] $x19
	//DEBUG_VALUE: mas_blk_queue_async_flush_init:q <- $x19
	//DEBUG_VALUE: INIT_LIST_HEAD:list <- $x20
	.loc	163 35 2 is_stmt 1              // kernel/include/linux/list.h:35:2
	str	x20, [x19, #1304]
.Ltmp249:
	.loc	163 36 13                       // kernel/include/linux/list.h:36:13
	str	x20, [x19, #1312]
.Ltmp250:
.LBB12_6:
	//DEBUG_VALUE: mas_blk_queue_async_flush_init:blk_lld <- $x21
	//DEBUG_VALUE: mas_blk_queue_async_flush_init:flush_queue_node <- $x20
	//DEBUG_VALUE: mas_blk_queue_async_flush_init:mas_queue <- [DW_OP_plus_uconst 1176, DW_OP_stack_value] $x19
	//DEBUG_VALUE: mas_blk_queue_async_flush_init:q <- $x19
	.loc	1 357 2                         // kernel/platform_source/basicplatform/block/mas_blk_flush.c:357:2
	adrp	x10, __cfi_mas_blk_flush_work_fn
.Ltmp251:
	.loc	1 357 2 is_stmt 0               // kernel/platform_source/basicplatform/block/mas_blk_flush.c:357:2
	adrp	x1, delayed_work_timer_fn
	mov	x8, #68719476704
.Ltmp252:
	.loc	1 357 2                         // kernel/platform_source/basicplatform/block/mas_blk_flush.c:357:2
	add	x9, x19, #1208                  // =1208
	add	x10, x10, :lo12:__cfi_mas_blk_flush_work_fn
.Ltmp253:
	.loc	1 357 2                         // kernel/platform_source/basicplatform/block/mas_blk_flush.c:357:2
	add	x0, x19, #1232                  // =1232
	add	x1, x1, :lo12:delayed_work_timer_fn
	mov	w2, #2097152
	mov	x3, xzr
	mov	x4, xzr
.Ltmp254:
	.loc	1 357 2                         // kernel/platform_source/basicplatform/block/mas_blk_flush.c:357:2
	str	x8, [x19, #1200]
.Ltmp255:
	//DEBUG_VALUE: INIT_LIST_HEAD:list <- $x9
	.loc	163 35 2 is_stmt 1              // kernel/include/linux/list.h:35:2
	str	x9, [x19, #1208]
.Ltmp256:
	.loc	163 36 13                       // kernel/include/linux/list.h:36:13
	str	x9, [x19, #1216]
.Ltmp257:
	.loc	1 357 2                         // kernel/platform_source/basicplatform/block/mas_blk_flush.c:357:2
	str	x10, [x19, #1224]
.Ltmp258:
	.loc	1 357 2 is_stmt 0               // kernel/platform_source/basicplatform/block/mas_blk_flush.c:357:2
	bl	init_timer_key
.Ltmp259:
	.loc	1 359 15 is_stmt 1              // kernel/platform_source/basicplatform/block/mas_blk_flush.c:359:15
	ldr	x8, [x21, #56]
	.loc	1 359 24 is_stmt 0              // kernel/platform_source/basicplatform/block/mas_blk_flush.c:359:24
	cbz	x8, .LBB12_11
.Ltmp260:
// %bb.7:
	//DEBUG_VALUE: mas_blk_queue_async_flush_init:blk_lld <- $x21
	//DEBUG_VALUE: mas_blk_queue_async_flush_init:flush_queue_node <- $x20
	//DEBUG_VALUE: mas_blk_queue_async_flush_init:mas_queue <- [DW_OP_plus_uconst 1176, DW_OP_stack_value] $x19
	//DEBUG_VALUE: mas_blk_queue_async_flush_init:q <- $x19
	//DEBUG_VALUE: list_empty:head <- $x20
	.loc	163 282 9 is_stmt 1             // kernel/include/linux/list.h:282:9
	ldr	x8, [x20]
.Ltmp261:
	.loc	1 359 6                         // kernel/platform_source/basicplatform/block/mas_blk_flush.c:359:6
	cmp	x8, x20
	b.ne	.LBB12_11
.Ltmp262:
// %bb.8:
	//DEBUG_VALUE: mas_blk_queue_async_flush_init:blk_lld <- $x21
	//DEBUG_VALUE: mas_blk_queue_async_flush_init:flush_queue_node <- $x20
	//DEBUG_VALUE: mas_blk_queue_async_flush_init:mas_queue <- [DW_OP_plus_uconst 1176, DW_OP_stack_value] $x19
	//DEBUG_VALUE: mas_blk_queue_async_flush_init:q <- $x19
	//DEBUG_VALUE: mas_blk_flush_reduced_queue_register:q <- $x19
	.loc	1 298 2                         // kernel/platform_source/basicplatform/block/mas_blk_flush.c:298:2
	adrp	x0, all_flush_q_lock
	add	x0, x0, :lo12:all_flush_q_lock
	bl	_raw_spin_lock_irqsave
.Ltmp263:
	.loc	163 86 30                       // kernel/include/linux/list.h:86:30
	adrp	x22, all_flush_q_list
	add	x22, x22, :lo12:all_flush_q_list
.Ltmp264:
	//DEBUG_VALUE: list_add:head <- $x22
	ldr	x23, [x22]
.Ltmp265:
	.loc	1 298 2                         // kernel/platform_source/basicplatform/block/mas_blk_flush.c:298:2
	mov	x21, x0
.Ltmp266:
	//DEBUG_VALUE: list_add:new <- $x20
	//DEBUG_VALUE: mas_blk_flush_reduced_queue_register:flag <- $x21
	//DEBUG_VALUE: __list_add:new <- $x20
	//DEBUG_VALUE: __list_add:next <- $x23
	//DEBUG_VALUE: __list_add:prev <- $x22
	//DEBUG_VALUE: list_add:head <- $x22
	.loc	163 67 7                        // kernel/include/linux/list.h:67:7
	mov	x0, x20
	mov	x1, x22
	mov	x2, x23
	bl	__list_add_valid
.Ltmp267:
	.loc	163 67 6 is_stmt 0              // kernel/include/linux/list.h:67:6
	tbz	w0, #0, .LBB12_10
.Ltmp268:
// %bb.9:
	//DEBUG_VALUE: __list_add:next <- $x23
	//DEBUG_VALUE: __list_add:prev <- $x22
	//DEBUG_VALUE: list_add:head <- $x22
	//DEBUG_VALUE: mas_blk_flush_reduced_queue_register:flag <- $x21
	//DEBUG_VALUE: __list_add:new <- $x20
	//DEBUG_VALUE: list_add:new <- $x20
	//DEBUG_VALUE: mas_blk_queue_async_flush_init:flush_queue_node <- $x20
	//DEBUG_VALUE: mas_blk_flush_reduced_queue_register:q <- $x19
	//DEBUG_VALUE: mas_blk_queue_async_flush_init:mas_queue <- [DW_OP_plus_uconst 1176, DW_OP_stack_value] $x19
	//DEBUG_VALUE: mas_blk_queue_async_flush_init:q <- $x19
	.loc	163 72 12 is_stmt 1             // kernel/include/linux/list.h:72:12
	adrp	x8, all_flush_q_list
	.loc	163 70 13                       // kernel/include/linux/list.h:70:13
	str	x20, [x23, #8]
	.loc	163 71 12                       // kernel/include/linux/list.h:71:12
	str	x23, [x19, #1304]
	.loc	163 72 12                       // kernel/include/linux/list.h:72:12
	str	x22, [x19, #1312]
.Ltmp269:
	.loc	163 73 2                        // kernel/include/linux/list.h:73:2
	str	x20, [x8, :lo12:all_flush_q_list]
.Ltmp270:
.LBB12_10:
	//DEBUG_VALUE: mas_blk_flush_reduced_queue_register:flag <- $x21
	//DEBUG_VALUE: mas_blk_queue_async_flush_init:flush_queue_node <- $x20
	//DEBUG_VALUE: mas_blk_flush_reduced_queue_register:q <- $x19
	//DEBUG_VALUE: mas_blk_queue_async_flush_init:mas_queue <- [DW_OP_plus_uconst 1176, DW_OP_stack_value] $x19
	//DEBUG_VALUE: mas_blk_queue_async_flush_init:q <- $x19
	//DEBUG_VALUE: spin_unlock_irqrestore:flags <- $x21
	.loc	161 409 2                       // kernel/include/linux/spinlock.h:409:2
	adrp	x0, all_flush_q_lock
	add	x0, x0, :lo12:all_flush_q_lock
.Ltmp271:
	//DEBUG_VALUE: spin_unlock_irqrestore:lock <- $x0
	mov	x1, x21
	bl	_raw_spin_unlock_irqrestore
.Ltmp272:
.LBB12_11:
	//DEBUG_VALUE: mas_blk_queue_async_flush_init:flush_queue_node <- $x20
	//DEBUG_VALUE: mas_blk_queue_async_flush_init:mas_queue <- [DW_OP_plus_uconst 1176, DW_OP_stack_value] $x19
	//DEBUG_VALUE: mas_blk_queue_async_flush_init:q <- $x19
	.loc	161 0 2 is_stmt 0               // kernel/include/linux/spinlock.h:0:2
	mov	w8, #1
	.loc	1 362 28 is_stmt 1              // kernel/platform_source/basicplatform/block/mas_blk_flush.c:362:28
	str	w8, [x19, #1320]
.Ltmp273:
.LBB12_12:
	//DEBUG_VALUE: mas_blk_queue_async_flush_init:mas_queue <- [DW_OP_plus_uconst 1176, DW_OP_stack_value] $x19
	//DEBUG_VALUE: mas_blk_queue_async_flush_init:q <- $x19
	.loc	1 363 1                         // kernel/platform_source/basicplatform/block/mas_blk_flush.c:363:1
	ldp	x20, x19, [sp, #48]             // 16-byte Folded Reload
.Ltmp274:
	//DEBUG_VALUE: mas_blk_queue_async_flush_init:q <- [DW_OP_LLVM_entry_value 1] $x0
	ldp	x22, x21, [sp, #32]             // 16-byte Folded Reload
	ldr	x23, [sp, #16]                  // 8-byte Folded Reload
	ldp	x29, x30, [sp], #64             // 16-byte Folded Reload
	hint	#29
	ret
.Ltmp275:
.LBB12_13:
	//DEBUG_VALUE: mas_blk_queue_async_flush_init:blk_lld <- $x21
	//DEBUG_VALUE: mas_blk_queue_async_flush_init:mas_queue <- [DW_OP_plus_uconst 1176, DW_OP_stack_value] $x19
	//DEBUG_VALUE: mas_blk_queue_async_flush_init:q <- $x19
	.loc	1 349 3                         // kernel/platform_source/basicplatform/block/mas_blk_flush.c:349:3
	adrp	x0, .L.str.13
	adrp	x1, .L__func__.mas_blk_queue_async_flush_init
	add	x0, x0, :lo12:.L.str.13
	add	x1, x1, :lo12:.L__func__.mas_blk_queue_async_flush_init
	bl	printk
.Ltmp276:
	.loc	1 0 3 is_stmt 0                 // kernel/platform_source/basicplatform/block/mas_blk_flush.c:0:3
	b	.LBB12_12
.Ltmp277:
.Lfunc_end12:
	.size	mas_blk_queue_async_flush_init, .Lfunc_end12-mas_blk_queue_async_flush_init
	.cfi_endproc
                                        // -- End function
	.globl	blk_flush_set_async             // -- Begin function blk_flush_set_async
	.p2align	2
	.type	blk_flush_set_async,@function
blk_flush_set_async:                    // @blk_flush_set_async
.Lfunc_begin13:
	.loc	1 369 0 is_stmt 1               // kernel/platform_source/basicplatform/block/mas_blk_flush.c:369:0
	.cfi_startproc
// %bb.0:
	.loc	1 370 6 prologue_end            // kernel/platform_source/basicplatform/block/mas_blk_flush.c:370:6
	hint	#34
.Ltmp278:
	//DEBUG_VALUE: blk_flush_set_async:bio <- $x0
	//DEBUG_VALUE: blk_flush_set_async:bio <- $x0
	cbz	x0, .LBB13_2
.Ltmp279:
// %bb.1:
	//DEBUG_VALUE: blk_flush_set_async:bio <- $x0
	.loc	1 0 6 is_stmt 0                 // kernel/platform_source/basicplatform/block/mas_blk_flush.c:0:6
	mov	w8, #1
.Ltmp280:
	.loc	1 371 31 is_stmt 1              // kernel/platform_source/basicplatform/block/mas_blk_flush.c:371:31
	strb	w8, [x0, #130]
.Ltmp281:
.LBB13_2:
	//DEBUG_VALUE: blk_flush_set_async:bio <- $x0
	.loc	1 372 1                         // kernel/platform_source/basicplatform/block/mas_blk_flush.c:372:1
	ret
.Ltmp282:
.Lfunc_end13:
	.size	blk_flush_set_async, .Lfunc_end13-blk_flush_set_async
	.cfi_endproc
                                        // -- End function
	.globl	blk_queue_direct_flush_register // -- Begin function blk_queue_direct_flush_register
	.p2align	2
	.type	blk_queue_direct_flush_register,@function
blk_queue_direct_flush_register:        // @blk_queue_direct_flush_register
.Lfunc_begin14:
	.loc	1 381 0                         // kernel/platform_source/basicplatform/block/mas_blk_flush.c:381:0
	.cfi_startproc
// %bb.0:
	//DEBUG_VALUE: blk_queue_direct_flush_register:q <- $x0
	//DEBUG_VALUE: blk_queue_direct_flush_register:func <- $x1
	//DEBUG_VALUE: blk_queue_direct_flush_register:func <- $x1
	//DEBUG_VALUE: blk_queue_direct_flush_register:q <- $x0
	hint	#25
	.cfi_negate_ra_state
	stp	x29, x30, [sp, #-64]!           // 16-byte Folded Spill
	str	x23, [sp, #16]                  // 8-byte Folded Spill
	stp	x22, x21, [sp, #32]             // 16-byte Folded Spill
	stp	x20, x19, [sp, #48]             // 16-byte Folded Spill
	mov	x29, sp
	.cfi_def_cfa w29, 64
	.cfi_offset w19, -8
	.cfi_offset w20, -16
	.cfi_offset w21, -24
	.cfi_offset w22, -32
	.cfi_offset w23, -48
	.cfi_offset w30, -56
	.cfi_offset w29, -64
.Ltmp283:
	//DEBUG_VALUE: blk_queue_direct_flush_register:flush_queue_node <- 0
	//DEBUG_VALUE: blk_queue_direct_flush_register:blk_lld <- 0
	.loc	1 385 6 prologue_end            // kernel/platform_source/basicplatform/block/mas_blk_flush.c:385:6
	cbz	x0, .LBB14_15
.Ltmp284:
// %bb.1:
	//DEBUG_VALUE: blk_queue_direct_flush_register:func <- $x1
	//DEBUG_VALUE: blk_queue_direct_flush_register:q <- $x0
	//DEBUG_VALUE: blk_queue_direct_flush_register:blk_lld <- 0
	//DEBUG_VALUE: blk_queue_direct_flush_register:flush_queue_node <- 0
	.loc	1 0 6 is_stmt 0                 // kernel/platform_source/basicplatform/block/mas_blk_flush.c:0:6
	mov	x21, x1
.Ltmp285:
	//DEBUG_VALUE: blk_queue_direct_flush_register:func <- $x21
	//DEBUG_VALUE: blk_queue_direct_flush_register:func <- $x21
	mov	x19, x0
.Ltmp286:
	//DEBUG_VALUE: blk_queue_direct_flush_register:q <- $x19
	.loc	1 390 12 is_stmt 1              // kernel/platform_source/basicplatform/block/mas_blk_flush.c:390:12
	bl	mas_blk_get_lld
.Ltmp287:
	//DEBUG_VALUE: blk_queue_direct_flush_register:blk_lld <- $x0
	.loc	1 392 25                        // kernel/platform_source/basicplatform/block/mas_blk_flush.c:392:25
	ldr	x8, [x19, #1304]
.Ltmp288:
	.loc	1 391 35                        // kernel/platform_source/basicplatform/block/mas_blk_flush.c:391:35
	add	x20, x19, #1304                 // =1304
.Ltmp289:
	//DEBUG_VALUE: blk_queue_direct_flush_register:flush_queue_node <- $x20
	.loc	1 392 30                        // kernel/platform_source/basicplatform/block/mas_blk_flush.c:392:30
	cbnz	x8, .LBB14_3
.Ltmp290:
// %bb.2:
	//DEBUG_VALUE: blk_queue_direct_flush_register:func <- $x21
	//DEBUG_VALUE: blk_queue_direct_flush_register:flush_queue_node <- $x20
	//DEBUG_VALUE: blk_queue_direct_flush_register:q <- $x19
	//DEBUG_VALUE: blk_queue_direct_flush_register:blk_lld <- $x0
	.loc	1 392 52 is_stmt 0              // kernel/platform_source/basicplatform/block/mas_blk_flush.c:392:52
	ldr	x8, [x19, #1312]
.Ltmp291:
	.loc	1 392 6                         // kernel/platform_source/basicplatform/block/mas_blk_flush.c:392:6
	cbz	x8, .LBB14_6
.Ltmp292:
.LBB14_3:
	//DEBUG_VALUE: blk_queue_direct_flush_register:func <- $x21
	//DEBUG_VALUE: blk_queue_direct_flush_register:flush_queue_node <- $x20
	//DEBUG_VALUE: blk_queue_direct_flush_register:q <- $x19
	//DEBUG_VALUE: blk_queue_direct_flush_register:blk_lld <- $x0
	.loc	1 395 6 is_stmt 1               // kernel/platform_source/basicplatform/block/mas_blk_flush.c:395:6
	cbz	x21, .LBB14_7
.Ltmp293:
.LBB14_4:
	//DEBUG_VALUE: blk_queue_direct_flush_register:func <- $x21
	//DEBUG_VALUE: blk_queue_direct_flush_register:flush_queue_node <- $x20
	//DEBUG_VALUE: blk_queue_direct_flush_register:q <- $x19
	//DEBUG_VALUE: blk_queue_direct_flush_register:blk_lld <- $x0
	.loc	1 396 21                        // kernel/platform_source/basicplatform/block/mas_blk_flush.c:396:21
	str	x21, [x0, #56]
.Ltmp294:
	//DEBUG_VALUE: mas_blk_flush_reduced_queue_register:q <- $x19
	.loc	1 298 2                         // kernel/platform_source/basicplatform/block/mas_blk_flush.c:298:2
	adrp	x0, all_flush_q_lock
.Ltmp295:
	add	x0, x0, :lo12:all_flush_q_lock
	bl	_raw_spin_lock_irqsave
.Ltmp296:
	.loc	163 86 30                       // kernel/include/linux/list.h:86:30
	adrp	x22, all_flush_q_list
	add	x22, x22, :lo12:all_flush_q_list
.Ltmp297:
	//DEBUG_VALUE: list_add:head <- $x22
	ldr	x23, [x22]
.Ltmp298:
	.loc	1 298 2                         // kernel/platform_source/basicplatform/block/mas_blk_flush.c:298:2
	mov	x21, x0
.Ltmp299:
	//DEBUG_VALUE: blk_queue_direct_flush_register:func <- [DW_OP_LLVM_entry_value 1] $x1
	//DEBUG_VALUE: list_add:new <- $x20
	//DEBUG_VALUE: mas_blk_flush_reduced_queue_register:flag <- $x21
	//DEBUG_VALUE: __list_add:new <- $x20
	//DEBUG_VALUE: __list_add:next <- $x23
	//DEBUG_VALUE: __list_add:prev <- $x22
	//DEBUG_VALUE: list_add:head <- $x22
	.loc	163 67 7                        // kernel/include/linux/list.h:67:7
	mov	x0, x20
	mov	x1, x22
	mov	x2, x23
	bl	__list_add_valid
.Ltmp300:
	.loc	163 67 6 is_stmt 0              // kernel/include/linux/list.h:67:6
	tbz	w0, #0, .LBB14_13
.Ltmp301:
// %bb.5:
	//DEBUG_VALUE: __list_add:next <- $x23
	//DEBUG_VALUE: __list_add:prev <- $x22
	//DEBUG_VALUE: list_add:head <- $x22
	//DEBUG_VALUE: mas_blk_flush_reduced_queue_register:flag <- $x21
	//DEBUG_VALUE: __list_add:new <- $x20
	//DEBUG_VALUE: list_add:new <- $x20
	//DEBUG_VALUE: blk_queue_direct_flush_register:flush_queue_node <- $x20
	//DEBUG_VALUE: mas_blk_flush_reduced_queue_register:q <- $x19
	//DEBUG_VALUE: blk_queue_direct_flush_register:q <- $x19
	//DEBUG_VALUE: blk_queue_direct_flush_register:func <- [DW_OP_LLVM_entry_value 1] $x1
	.loc	163 72 12 is_stmt 1             // kernel/include/linux/list.h:72:12
	adrp	x8, all_flush_q_list
	.loc	163 70 13                       // kernel/include/linux/list.h:70:13
	str	x20, [x23, #8]
	.loc	163 71 12                       // kernel/include/linux/list.h:71:12
	str	x23, [x19, #1304]
	.loc	163 72 12                       // kernel/include/linux/list.h:72:12
	str	x22, [x19, #1312]
.Ltmp302:
	.loc	163 73 2                        // kernel/include/linux/list.h:73:2
	str	x20, [x8, :lo12:all_flush_q_list]
	b	.LBB14_13
.Ltmp303:
.LBB14_6:
	//DEBUG_VALUE: blk_queue_direct_flush_register:func <- $x21
	//DEBUG_VALUE: blk_queue_direct_flush_register:flush_queue_node <- $x20
	//DEBUG_VALUE: blk_queue_direct_flush_register:q <- $x19
	//DEBUG_VALUE: blk_queue_direct_flush_register:blk_lld <- $x0
	//DEBUG_VALUE: INIT_LIST_HEAD:list <- $x20
	.loc	163 35 2                        // kernel/include/linux/list.h:35:2
	str	x20, [x19, #1304]
.Ltmp304:
	.loc	163 36 13                       // kernel/include/linux/list.h:36:13
	str	x20, [x19, #1312]
.Ltmp305:
	.loc	1 395 6                         // kernel/platform_source/basicplatform/block/mas_blk_flush.c:395:6
	cbnz	x21, .LBB14_4
.Ltmp306:
.LBB14_7:
	//DEBUG_VALUE: blk_queue_direct_flush_register:func <- $x21
	//DEBUG_VALUE: blk_queue_direct_flush_register:flush_queue_node <- $x20
	//DEBUG_VALUE: blk_queue_direct_flush_register:q <- $x19
	//DEBUG_VALUE: blk_queue_direct_flush_register:blk_lld <- $x0
	.loc	1 399 21                        // kernel/platform_source/basicplatform/block/mas_blk_flush.c:399:21
	str	xzr, [x0, #56]
.Ltmp307:
	//DEBUG_VALUE: mas_blk_flush_reduced_queue_unregister:flush_queue_node <- $x20
	//DEBUG_VALUE: mas_blk_flush_reduced_queue_unregister:mas_queue <- [DW_OP_plus_uconst 1176, DW_OP_stack_value] $x19
	//DEBUG_VALUE: mas_blk_flush_reduced_queue_unregister:q <- $x19
	.loc	1 309 17                        // kernel/platform_source/basicplatform/block/mas_blk_flush.c:309:17
	ldr	w8, [x19, #1320]
.Ltmp308:
	.loc	1 309 6 is_stmt 0               // kernel/platform_source/basicplatform/block/mas_blk_flush.c:309:6
	cbz	w8, .LBB14_14
.Ltmp309:
// %bb.8:
	//DEBUG_VALUE: blk_queue_direct_flush_register:func <- $x21
	//DEBUG_VALUE: mas_blk_flush_reduced_queue_unregister:flush_queue_node <- $x20
	//DEBUG_VALUE: blk_queue_direct_flush_register:flush_queue_node <- $x20
	//DEBUG_VALUE: mas_blk_flush_reduced_queue_unregister:q <- $x19
	//DEBUG_VALUE: mas_blk_flush_reduced_queue_unregister:mas_queue <- [DW_OP_plus_uconst 1176, DW_OP_stack_value] $x19
	//DEBUG_VALUE: blk_queue_direct_flush_register:q <- $x19
	//DEBUG_VALUE: blk_queue_direct_flush_register:blk_lld <- $x0
	.loc	1 310 26 is_stmt 1              // kernel/platform_source/basicplatform/block/mas_blk_flush.c:310:26
	ldr	x8, [x20]
	.loc	1 310 31 is_stmt 0              // kernel/platform_source/basicplatform/block/mas_blk_flush.c:310:31
	cbz	x8, .LBB14_14
.Ltmp310:
// %bb.9:
	//DEBUG_VALUE: blk_queue_direct_flush_register:func <- $x21
	//DEBUG_VALUE: mas_blk_flush_reduced_queue_unregister:flush_queue_node <- $x20
	//DEBUG_VALUE: blk_queue_direct_flush_register:flush_queue_node <- $x20
	//DEBUG_VALUE: mas_blk_flush_reduced_queue_unregister:q <- $x19
	//DEBUG_VALUE: mas_blk_flush_reduced_queue_unregister:mas_queue <- [DW_OP_plus_uconst 1176, DW_OP_stack_value] $x19
	//DEBUG_VALUE: blk_queue_direct_flush_register:q <- $x19
	//DEBUG_VALUE: blk_queue_direct_flush_register:blk_lld <- $x0
	.loc	1 310 53                        // kernel/platform_source/basicplatform/block/mas_blk_flush.c:310:53
	ldr	x8, [x19, #1312]
.Ltmp311:
	.loc	1 310 7                         // kernel/platform_source/basicplatform/block/mas_blk_flush.c:310:7
	cbz	x8, .LBB14_14
.Ltmp312:
// %bb.10:
	//DEBUG_VALUE: blk_queue_direct_flush_register:func <- $x21
	//DEBUG_VALUE: mas_blk_flush_reduced_queue_unregister:flush_queue_node <- $x20
	//DEBUG_VALUE: blk_queue_direct_flush_register:flush_queue_node <- $x20
	//DEBUG_VALUE: mas_blk_flush_reduced_queue_unregister:q <- $x19
	//DEBUG_VALUE: mas_blk_flush_reduced_queue_unregister:mas_queue <- [DW_OP_plus_uconst 1176, DW_OP_stack_value] $x19
	//DEBUG_VALUE: blk_queue_direct_flush_register:q <- $x19
	//DEBUG_VALUE: blk_queue_direct_flush_register:blk_lld <- $x0
	.loc	1 314 3 is_stmt 1               // kernel/platform_source/basicplatform/block/mas_blk_flush.c:314:3
	adrp	x0, all_flush_q_lock
.Ltmp313:
	add	x0, x0, :lo12:all_flush_q_lock
	bl	_raw_spin_lock_irqsave
.Ltmp314:
	mov	x21, x0
.Ltmp315:
	//DEBUG_VALUE: blk_queue_direct_flush_register:func <- [DW_OP_LLVM_entry_value 1] $x1
	//DEBUG_VALUE: __list_del_entry:entry <- $x20
	//DEBUG_VALUE: list_del:entry <- $x20
	//DEBUG_VALUE: mas_blk_flush_reduced_queue_unregister:flag <- $x21
	.loc	163 132 7                       // kernel/include/linux/list.h:132:7
	mov	x0, x20
	bl	__list_del_entry_valid
.Ltmp316:
	.loc	163 132 6 is_stmt 0             // kernel/include/linux/list.h:132:6
	tbz	w0, #0, .LBB14_12
.Ltmp317:
// %bb.11:
	//DEBUG_VALUE: mas_blk_flush_reduced_queue_unregister:flag <- $x21
	//DEBUG_VALUE: list_del:entry <- $x20
	//DEBUG_VALUE: __list_del_entry:entry <- $x20
	//DEBUG_VALUE: mas_blk_flush_reduced_queue_unregister:flush_queue_node <- $x20
	//DEBUG_VALUE: blk_queue_direct_flush_register:flush_queue_node <- $x20
	//DEBUG_VALUE: mas_blk_flush_reduced_queue_unregister:q <- $x19
	//DEBUG_VALUE: mas_blk_flush_reduced_queue_unregister:mas_queue <- [DW_OP_plus_uconst 1176, DW_OP_stack_value] $x19
	//DEBUG_VALUE: blk_queue_direct_flush_register:q <- $x19
	//DEBUG_VALUE: blk_queue_direct_flush_register:func <- [DW_OP_LLVM_entry_value 1] $x1
	.loc	163 135 20 is_stmt 1            // kernel/include/linux/list.h:135:20
	ldr	x8, [x19, #1312]
	.loc	163 135 33 is_stmt 0            // kernel/include/linux/list.h:135:33
	ldr	x9, [x19, #1304]
.Ltmp318:
	//DEBUG_VALUE: __list_del:prev <- $x8
	//DEBUG_VALUE: __list_del:next <- $x9
	.loc	163 112 13 is_stmt 1            // kernel/include/linux/list.h:112:13
	str	x8, [x9, #8]
.Ltmp319:
	.loc	163 113 2                       // kernel/include/linux/list.h:113:2
	str	x9, [x8]
.Ltmp320:
.LBB14_12:
	//DEBUG_VALUE: mas_blk_flush_reduced_queue_unregister:flag <- $x21
	//DEBUG_VALUE: list_del:entry <- $x20
	//DEBUG_VALUE: mas_blk_flush_reduced_queue_unregister:flush_queue_node <- $x20
	//DEBUG_VALUE: blk_queue_direct_flush_register:flush_queue_node <- $x20
	//DEBUG_VALUE: mas_blk_flush_reduced_queue_unregister:q <- $x19
	//DEBUG_VALUE: mas_blk_flush_reduced_queue_unregister:mas_queue <- [DW_OP_plus_uconst 1176, DW_OP_stack_value] $x19
	//DEBUG_VALUE: blk_queue_direct_flush_register:q <- $x19
	//DEBUG_VALUE: blk_queue_direct_flush_register:func <- [DW_OP_LLVM_entry_value 1] $x1
	.loc	163 0 2 is_stmt 0               // kernel/include/linux/list.h:0:2
	mov	x8, #256
	movk	x8, #57005, lsl #48
	mov	w9, #34
	.loc	163 147 14 is_stmt 1            // kernel/include/linux/list.h:147:14
	str	x8, [x19, #1304]
	.loc	163 148 14                      // kernel/include/linux/list.h:148:14
	orr	x8, x8, x9
	str	x8, [x19, #1312]
.Ltmp321:
	//DEBUG_VALUE: spin_unlock_irqrestore:flags <- $x21
.LBB14_13:
	//DEBUG_VALUE: blk_queue_direct_flush_register:flush_queue_node <- $x20
	//DEBUG_VALUE: blk_queue_direct_flush_register:q <- $x19
	//DEBUG_VALUE: blk_queue_direct_flush_register:func <- [DW_OP_LLVM_entry_value 1] $x1
	.loc	1 0 0 is_stmt 0                 // kernel/platform_source/basicplatform/block/mas_blk_flush.c:0:0
	adrp	x0, all_flush_q_lock
	add	x0, x0, :lo12:all_flush_q_lock
.Ltmp322:
	//DEBUG_VALUE: spin_unlock_irqrestore:lock <- $x0
	mov	x1, x21
	bl	_raw_spin_unlock_irqrestore
.Ltmp323:
.LBB14_14:
	.loc	1 402 1 is_stmt 1               // kernel/platform_source/basicplatform/block/mas_blk_flush.c:402:1
	ldp	x20, x19, [sp, #48]             // 16-byte Folded Reload
	ldp	x22, x21, [sp, #32]             // 16-byte Folded Reload
	ldr	x23, [sp, #16]                  // 8-byte Folded Reload
	ldp	x29, x30, [sp], #64             // 16-byte Folded Reload
	hint	#29
	ret
.LBB14_15:
.Ltmp324:
	//DEBUG_VALUE: blk_queue_direct_flush_register:func <- $x1
	//DEBUG_VALUE: blk_queue_direct_flush_register:q <- $x0
	//DEBUG_VALUE: blk_queue_direct_flush_register:blk_lld <- 0
	//DEBUG_VALUE: blk_queue_direct_flush_register:flush_queue_node <- 0
	.loc	1 386 3                         // kernel/platform_source/basicplatform/block/mas_blk_flush.c:386:3
	adrp	x0, .L.str.14
.Ltmp325:
	//DEBUG_VALUE: blk_queue_direct_flush_register:q <- [DW_OP_LLVM_entry_value 1] $x0
	adrp	x1, .L__func__.blk_queue_direct_flush_register
.Ltmp326:
	//DEBUG_VALUE: blk_queue_direct_flush_register:func <- [DW_OP_LLVM_entry_value 1] $x1
	add	x0, x0, :lo12:.L.str.14
	add	x1, x1, :lo12:.L__func__.blk_queue_direct_flush_register
	bl	printk
.Ltmp327:
	.loc	1 0 3 is_stmt 0                 // kernel/platform_source/basicplatform/block/mas_blk_flush.c:0:3
	b	.LBB14_14
.Ltmp328:
.Lfunc_end14:
	.size	blk_queue_direct_flush_register, .Lfunc_end14-blk_queue_direct_flush_register
	.cfi_endproc
                                        // -- End function
	.globl	blk_queue_flush_reduce_config   // -- Begin function blk_queue_flush_reduce_config
	.p2align	2
	.type	blk_queue_flush_reduce_config,@function
blk_queue_flush_reduce_config:          // @blk_queue_flush_reduce_config
.Lfunc_begin15:
	.loc	1 409 0 is_stmt 1               // kernel/platform_source/basicplatform/block/mas_blk_flush.c:409:0
	.cfi_startproc
// %bb.0:
	//DEBUG_VALUE: blk_queue_flush_reduce_config:q <- $x0
	//DEBUG_VALUE: blk_queue_flush_reduce_config:flush_reduce_enable <- [DW_OP_LLVM_convert 1 7, DW_OP_LLVM_convert 8 7, DW_OP_stack_value] $w1
	//DEBUG_VALUE: blk_queue_flush_reduce_config:flush_reduce_enable <- [DW_OP_LLVM_convert 1 7, DW_OP_LLVM_convert 8 7, DW_OP_stack_value] $w1
	//DEBUG_VALUE: blk_queue_flush_reduce_config:q <- $x0
	hint	#25
	.cfi_negate_ra_state
	stp	x29, x30, [sp, #-32]!           // 16-byte Folded Spill
	stp	x20, x19, [sp, #16]             // 16-byte Folded Spill
	mov	x29, sp
	.cfi_def_cfa w29, 32
	.cfi_offset w19, -8
	.cfi_offset w20, -16
	.cfi_offset w30, -24
	.cfi_offset w29, -32
.Ltmp329:
	//DEBUG_VALUE: blk_queue_flush_reduce_config:blk_lld <- 0
	.loc	1 412 6 prologue_end            // kernel/platform_source/basicplatform/block/mas_blk_flush.c:412:6
	cbz	x0, .LBB15_3
.Ltmp330:
// %bb.1:
	//DEBUG_VALUE: blk_queue_flush_reduce_config:q <- $x0
	//DEBUG_VALUE: blk_queue_flush_reduce_config:flush_reduce_enable <- [DW_OP_LLVM_convert 1 7, DW_OP_LLVM_convert 8 7, DW_OP_stack_value] $w1
	//DEBUG_VALUE: blk_queue_flush_reduce_config:blk_lld <- 0
	.loc	1 0 6 is_stmt 0                 // kernel/platform_source/basicplatform/block/mas_blk_flush.c:0:6
	mov	w20, w1
.Ltmp331:
	//DEBUG_VALUE: blk_queue_flush_reduce_config:flush_reduce_enable <- [DW_OP_LLVM_convert 1 7, DW_OP_LLVM_convert 8 7, DW_OP_stack_value] $w20
	//DEBUG_VALUE: blk_queue_flush_reduce_config:flush_reduce_enable <- [DW_OP_LLVM_convert 1 7, DW_OP_LLVM_convert 8 7, DW_OP_stack_value] $w20
	mov	x19, x0
.Ltmp332:
	//DEBUG_VALUE: blk_queue_flush_reduce_config:q <- $x19
	.loc	1 417 12 is_stmt 1              // kernel/platform_source/basicplatform/block/mas_blk_flush.c:417:12
	bl	mas_blk_get_lld
.Ltmp333:
	//DEBUG_VALUE: blk_queue_flush_reduce_config:blk_lld <- $x0
	.loc	1 0 0 is_stmt 0                 // kernel/platform_source/basicplatform/block/mas_blk_flush.c:0:0
	ldr	x8, [x0, #24]
.Ltmp334:
	.loc	1 418 6 is_stmt 1               // kernel/platform_source/basicplatform/block/mas_blk_flush.c:418:6
	tst	w20, #0x1
	mov	w9, #4
	csel	x9, x9, xzr, ne
	and	x8, x8, #0xfffffffffffffffb
	orr	x8, x8, x9
.Ltmp335:
	.loc	1 0 0 is_stmt 0                 // kernel/platform_source/basicplatform/block/mas_blk_flush.c:0:0
	str	x8, [x0, #24]
.Ltmp336:
	.loc	1 423 2 is_stmt 1               // kernel/platform_source/basicplatform/block/mas_blk_flush.c:423:2
	mov	x0, x19
.Ltmp337:
	bl	mas_blk_queue_async_flush_init
.Ltmp338:
.LBB15_2:
	.loc	1 424 1                         // kernel/platform_source/basicplatform/block/mas_blk_flush.c:424:1
	ldp	x20, x19, [sp, #16]             // 16-byte Folded Reload
	ldp	x29, x30, [sp], #32             // 16-byte Folded Reload
	hint	#29
	ret
.LBB15_3:
.Ltmp339:
	//DEBUG_VALUE: blk_queue_flush_reduce_config:q <- $x0
	//DEBUG_VALUE: blk_queue_flush_reduce_config:flush_reduce_enable <- [DW_OP_LLVM_convert 1 7, DW_OP_LLVM_convert 8 7, DW_OP_stack_value] $w1
	//DEBUG_VALUE: blk_queue_flush_reduce_config:blk_lld <- 0
	.loc	1 413 3                         // kernel/platform_source/basicplatform/block/mas_blk_flush.c:413:3
	adrp	x0, .L.str.14
.Ltmp340:
	//DEBUG_VALUE: blk_queue_flush_reduce_config:q <- [DW_OP_LLVM_entry_value 1] $x0
	adrp	x1, .L__func__.blk_queue_flush_reduce_config
.Ltmp341:
	add	x0, x0, :lo12:.L.str.14
	add	x1, x1, :lo12:.L__func__.blk_queue_flush_reduce_config
	bl	printk
.Ltmp342:
	.loc	1 0 3 is_stmt 0                 // kernel/platform_source/basicplatform/block/mas_blk_flush.c:0:3
	b	.LBB15_2
.Ltmp343:
.Lfunc_end15:
	.size	blk_queue_flush_reduce_config, .Lfunc_end15-blk_queue_flush_reduce_config
	.cfi_endproc
                                        // -- End function
	.globl	blk_mq_tagset_flush_reduce_config // -- Begin function blk_mq_tagset_flush_reduce_config
	.p2align	2
	.type	blk_mq_tagset_flush_reduce_config,@function
blk_mq_tagset_flush_reduce_config:      // @blk_mq_tagset_flush_reduce_config
.Lfunc_begin16:
	.loc	1 432 0 is_stmt 1               // kernel/platform_source/basicplatform/block/mas_blk_flush.c:432:0
	.cfi_startproc
// %bb.0:
	//DEBUG_VALUE: blk_mq_tagset_flush_reduce_config:tag_set <- $x0
	//DEBUG_VALUE: blk_mq_tagset_flush_reduce_config:tag_set <- $x0
	//DEBUG_VALUE: blk_mq_tagset_flush_reduce_config:flush_reduce_enable <- [DW_OP_LLVM_convert 1 7, DW_OP_LLVM_convert 8 7, DW_OP_stack_value] $w1
	//DEBUG_VALUE: blk_mq_tagset_flush_reduce_config:flush_reduce_enable <- [DW_OP_LLVM_convert 1 7, DW_OP_LLVM_convert 8 7, DW_OP_stack_value] $w1
	hint	#25
	.cfi_negate_ra_state
	stp	x29, x30, [sp, #-16]!           // 16-byte Folded Spill
	mov	x29, sp
	.cfi_def_cfa w29, 16
	.cfi_offset w30, -8
	.cfi_offset w29, -16
.Ltmp344:
	.loc	1 433 6 prologue_end            // kernel/platform_source/basicplatform/block/mas_blk_flush.c:433:6
	cbz	x0, .LBB16_6
.Ltmp345:
// %bb.1:
	//DEBUG_VALUE: blk_mq_tagset_flush_reduce_config:tag_set <- $x0
	//DEBUG_VALUE: blk_mq_tagset_flush_reduce_config:flush_reduce_enable <- [DW_OP_LLVM_convert 1 7, DW_OP_LLVM_convert 8 7, DW_OP_stack_value] $w1
	//DEBUG_VALUE: blk_mq_tagset_flush_reduce_config:flush_reduce_enable <- [DW_OP_LLVM_convert 1 7, DW_OP_LLVM_convert 8 7, DW_OP_stack_value] $w1
	.loc	1 0 0 is_stmt 0                 // kernel/platform_source/basicplatform/block/mas_blk_flush.c:0:0
	ldr	x8, [x0, #88]
.Ltmp346:
	.loc	1 438 6 is_stmt 1               // kernel/platform_source/basicplatform/block/mas_blk_flush.c:438:6
	tbz	w1, #0, .LBB16_3
.Ltmp347:
// %bb.2:
	//DEBUG_VALUE: blk_mq_tagset_flush_reduce_config:tag_set <- $x0
	//DEBUG_VALUE: blk_mq_tagset_flush_reduce_config:flush_reduce_enable <- [DW_OP_LLVM_convert 1 7, DW_OP_LLVM_convert 8 7, DW_OP_stack_value] $w1
	.loc	1 439 30                        // kernel/platform_source/basicplatform/block/mas_blk_flush.c:439:30
	orr	x8, x8, #0x4
	b	.LBB16_4
.Ltmp348:
.LBB16_3:
	//DEBUG_VALUE: blk_mq_tagset_flush_reduce_config:tag_set <- $x0
	//DEBUG_VALUE: blk_mq_tagset_flush_reduce_config:flush_reduce_enable <- [DW_OP_LLVM_convert 1 7, DW_OP_LLVM_convert 8 7, DW_OP_stack_value] $w1
	.loc	1 441 30                        // kernel/platform_source/basicplatform/block/mas_blk_flush.c:441:30
	and	x8, x8, #0xfffffffffffffffb
.Ltmp349:
.LBB16_4:
	//DEBUG_VALUE: blk_mq_tagset_flush_reduce_config:tag_set <- $x0
	//DEBUG_VALUE: blk_mq_tagset_flush_reduce_config:flush_reduce_enable <- [DW_OP_LLVM_convert 1 7, DW_OP_LLVM_convert 8 7, DW_OP_stack_value] $w1
	.loc	1 0 0 is_stmt 0                 // kernel/platform_source/basicplatform/block/mas_blk_flush.c:0:0
	str	x8, [x0, #88]
.Ltmp350:
.LBB16_5:
	.loc	1 442 1 is_stmt 1               // kernel/platform_source/basicplatform/block/mas_blk_flush.c:442:1
	ldp	x29, x30, [sp], #16             // 16-byte Folded Reload
	hint	#29
	ret
.LBB16_6:
.Ltmp351:
	//DEBUG_VALUE: blk_mq_tagset_flush_reduce_config:tag_set <- $x0
	//DEBUG_VALUE: blk_mq_tagset_flush_reduce_config:flush_reduce_enable <- [DW_OP_LLVM_convert 1 7, DW_OP_LLVM_convert 8 7, DW_OP_stack_value] $w1
	.loc	1 434 3                         // kernel/platform_source/basicplatform/block/mas_blk_flush.c:434:3
	adrp	x0, .L.str.11
.Ltmp352:
	//DEBUG_VALUE: blk_mq_tagset_flush_reduce_config:tag_set <- [DW_OP_LLVM_entry_value 1] $x0
	adrp	x1, .L__func__.blk_mq_tagset_flush_reduce_config
.Ltmp353:
	add	x0, x0, :lo12:.L.str.11
	add	x1, x1, :lo12:.L__func__.blk_mq_tagset_flush_reduce_config
	bl	printk
.Ltmp354:
	.loc	1 0 3 is_stmt 0                 // kernel/platform_source/basicplatform/block/mas_blk_flush.c:0:3
	b	.LBB16_5
.Ltmp355:
.Lfunc_end16:
	.size	blk_mq_tagset_flush_reduce_config, .Lfunc_end16-blk_mq_tagset_flush_reduce_config
	.cfi_endproc
                                        // -- End function
	.globl	blk_flush_async_support         // -- Begin function blk_flush_async_support
	.p2align	2
	.type	blk_flush_async_support,@function
blk_flush_async_support:                // @blk_flush_async_support
.Lfunc_begin17:
	.loc	1 448 0 is_stmt 1               // kernel/platform_source/basicplatform/block/mas_blk_flush.c:448:0
	.cfi_startproc
// %bb.0:
	//DEBUG_VALUE: blk_flush_async_support:bi_bdev <- $x0
	//DEBUG_VALUE: blk_flush_async_support:bi_bdev <- $x0
	hint	#25
	.cfi_negate_ra_state
	stp	x29, x30, [sp, #-16]!           // 16-byte Folded Spill
	mov	x29, sp
	.cfi_def_cfa w29, 16
	.cfi_offset w30, -8
	.cfi_offset w29, -16
.Ltmp356:
	//DEBUG_VALUE: blk_flush_async_support:q <- 0
	.loc	1 451 6 prologue_end            // kernel/platform_source/basicplatform/block/mas_blk_flush.c:451:6
	cbz	x0, .LBB17_3
.Ltmp357:
// %bb.1:
	//DEBUG_VALUE: blk_flush_async_support:bi_bdev <- $x0
	//DEBUG_VALUE: blk_flush_async_support:q <- 0
	//DEBUG_VALUE: bdev_get_queue:bdev <- $x0
	.loc	13 1757 15                      // kernel/include/linux/blkdev.h:1757:15
	ldr	x8, [x0, #176]
	.loc	13 1757 24 is_stmt 0            // kernel/include/linux/blkdev.h:1757:24
	ldr	x8, [x8, #1064]
.Ltmp358:
	//DEBUG_VALUE: blk_flush_async_support:q <- $x8
	.loc	1 457 6 is_stmt 1               // kernel/platform_source/basicplatform/block/mas_blk_flush.c:457:6
	cbz	x8, .LBB17_4
.Ltmp359:
// %bb.2:
	//DEBUG_VALUE: blk_flush_async_support:q <- $x8
	//DEBUG_VALUE: blk_flush_async_support:bi_bdev <- $x0
	.loc	1 458 23                        // kernel/platform_source/basicplatform/block/mas_blk_flush.c:458:23
	ldr	w0, [x8, #1320]
.Ltmp360:
	//DEBUG_VALUE: blk_flush_async_support:bi_bdev <- [DW_OP_LLVM_entry_value 1] $x0
	.loc	1 0 23 is_stmt 0                // kernel/platform_source/basicplatform/block/mas_blk_flush.c:0:23
	b	.LBB17_5
.Ltmp361:
.LBB17_3:
	//DEBUG_VALUE: blk_flush_async_support:bi_bdev <- $x0
	//DEBUG_VALUE: blk_flush_async_support:q <- 0
	.loc	1 452 3 is_stmt 1               // kernel/platform_source/basicplatform/block/mas_blk_flush.c:452:3
	adrp	x0, .L.str.15
.Ltmp362:
	//DEBUG_VALUE: blk_flush_async_support:bi_bdev <- [DW_OP_LLVM_entry_value 1] $x0
	adrp	x1, .L__func__.blk_flush_async_support
	add	x0, x0, :lo12:.L.str.15
	add	x1, x1, :lo12:.L__func__.blk_flush_async_support
	bl	printk
.Ltmp363:
.LBB17_4:
	.loc	1 0 0 is_stmt 0                 // kernel/platform_source/basicplatform/block/mas_blk_flush.c:0:0
	mov	w0, wzr
.LBB17_5:
	.loc	1 461 1 is_stmt 1               // kernel/platform_source/basicplatform/block/mas_blk_flush.c:461:1
	ldp	x29, x30, [sp], #16             // 16-byte Folded Reload
	hint	#29
	ret
.Ltmp364:
.Lfunc_end17:
	.size	blk_flush_async_support, .Lfunc_end17-blk_flush_async_support
	.cfi_endproc
                                        // -- End function
	.type	.L.str,@object                  // @.str
	.section	.rodata.str1.1,"aMS",@progbits,1
.L.str:
	.asciz	"\0013[BLK-IO]%s: blkdev_get fail!\n"
	.size	.L.str, 32

	.type	.L__func__.mas_blk_flush_work_fn,@object // @__func__.mas_blk_flush_work_fn
.L__func__.mas_blk_flush_work_fn:
	.asciz	"mas_blk_flush_work_fn"
	.size	.L__func__.mas_blk_flush_work_fn, 22

	.type	.L.str.1,@object                // @.str.1
.L.str.1:
	.asciz	"\0013[BLK-IO]%s: blkdev_issue_flush fail!\n"
	.size	.L.str.1, 40

	.type	blk_async_flush_workqueue,@object // @blk_async_flush_workqueue
	.local	blk_async_flush_workqueue
	.comm	blk_async_flush_workqueue,8,8
	.type	.L.str.2,@object                // @.str.2
.L.str.2:
	.asciz	"\0013[BLK-IO]%s: emergency = %d\n"
	.size	.L.str.2, 30

	.type	.L__func__.blk_power_off_flush,@object // @__func__.blk_power_off_flush
.L__func__.blk_power_off_flush:
	.asciz	"blk_power_off_flush"
	.size	.L__func__.blk_power_off_flush, 20

	.type	all_flush_q_lock,@object        // @all_flush_q_lock
	.data
	.p2align	3
all_flush_q_lock:
	.zero	4
	.word	3735899821                      // 0xdead4ead
	.word	4294967295                      // 0xffffffff
	.zero	4
	.xword	-1
	.size	all_flush_q_lock, 24

	.type	all_flush_q_list,@object        // @all_flush_q_list
	.p2align	3
all_flush_q_list:
	.xword	all_flush_q_list
	.xword	all_flush_q_list
	.size	all_flush_q_list, 16

	.type	.L.str.3,@object                // @.str.3
	.section	.rodata.str1.1,"aMS",@progbits,1
.L.str.3:
	.asciz	"\0013[BLK-IO]%s: emergency flush on %s\n"
	.size	.L.str.3, 37

	.type	.L.str.4,@object                // @.str.4
.L.str.4:
	.asciz	"\0013[BLK-IO]%s: emergency flush on %s done!\n"
	.size	.L.str.4, 43

	.type	.L.str.5,@object                // @.str.5
.L.str.5:
	.asciz	"\0013[BLK-IO]%s: done!\n"
	.size	.L.str.5, 21

	.type	all_object_lock,@object         // @all_object_lock
	.data
	.p2align	3
all_object_lock:
	.zero	4
	.word	3735899821                      // 0xdead4ead
	.word	4294967295                      // 0xffffffff
	.zero	4
	.xword	-1
	.size	all_object_lock, 24

	.type	all_object_list,@object         // @all_object_list
	.p2align	3
all_object_list:
	.xword	all_object_list
	.xword	all_object_list
	.size	all_object_list, 16

	.type	.L.str.6,@object                // @.str.6
	.section	.rodata.str1.1,"aMS",@progbits,1
.L.str.6:
	.asciz	"\0013[BLK-IO]<%s> start\n"
	.size	.L.str.6, 22

	.type	.L__func__.mas_blk_order_panic_wait_flush,@object // @__func__.mas_blk_order_panic_wait_flush
.L__func__.mas_blk_order_panic_wait_flush:
	.asciz	"mas_blk_order_panic_wait_flush"
	.size	.L__func__.mas_blk_order_panic_wait_flush, 31

	.type	.L.str.7,@object                // @.str.7
.L.str.7:
	.asciz	"\0013[BLK-IO]<%s> type = %d\n"
	.size	.L.str.7, 26

	.type	.L.str.8,@object                // @.str.8
.L.str.8:
	.asciz	"\0013[BLK-IO]<%s> normal end\n"
	.size	.L.str.8, 27

	.type	.L.str.9,@object                // @.str.9
.L.str.9:
	.asciz	"\0013[BLK-IO]<%s> timeout end\n"
	.size	.L.str.9, 28

	.type	.L__func__.mas_blk_panic_flush,@object // @__func__.mas_blk_panic_flush
.L__func__.mas_blk_panic_flush:
	.asciz	"mas_blk_panic_flush"
	.size	.L__func__.mas_blk_panic_flush, 20

	.type	mas_blk_poweroff_flush_nb,@object // @mas_blk_poweroff_flush_nb
	.data
	.p2align	3
mas_blk_poweroff_flush_nb:
	.xword	__cfi_mas_blk_poweroff_flush_notifier_call
	.xword	0
	.word	0                               // 0x0
	.zero	4
	.size	mas_blk_poweroff_flush_nb, 24

	.type	__UNIQUE_ID___addressable___cfi_mas_blk_flush_init488,@object // @__UNIQUE_ID___addressable___cfi_mas_blk_flush_init488
	.section	.discard.addressable,"aw",@progbits
	.p2align	3
__UNIQUE_ID___addressable___cfi_mas_blk_flush_init488:
	.xword	__cfi_mas_blk_flush_init
	.size	__UNIQUE_ID___addressable___cfi_mas_blk_flush_init488, 8

	.type	.L.str.11,@object               // @.str.11
	.section	.rodata.str1.1,"aMS",@progbits,1
.L.str.11:
	.asciz	"\0013[BLK-IO]%s: tag_set is NULL!\n"
	.size	.L.str.11, 32

	.type	.L__func__.blk_mq_tagset_direct_flush_register,@object // @__func__.blk_mq_tagset_direct_flush_register
.L__func__.blk_mq_tagset_direct_flush_register:
	.asciz	"blk_mq_tagset_direct_flush_register"
	.size	.L__func__.blk_mq_tagset_direct_flush_register, 36

	.type	.L.str.12,@object               // @.str.12
.L.str.12:
	.asciz	"async_flush"
	.size	.L.str.12, 12

	.type	.L.str.13,@object               // @.str.13
.L.str.13:
	.asciz	"\0013[BLK-IO]%s: Failed to alloc workqueue!\n"
	.size	.L.str.13, 42

	.type	.L__func__.mas_blk_queue_async_flush_init,@object // @__func__.mas_blk_queue_async_flush_init
.L__func__.mas_blk_queue_async_flush_init:
	.asciz	"mas_blk_queue_async_flush_init"
	.size	.L__func__.mas_blk_queue_async_flush_init, 31

	.type	.L.str.14,@object               // @.str.14
.L.str.14:
	.asciz	"\0013[BLK-IO]%s: q is NULL!\n"
	.size	.L.str.14, 26

	.type	.L__func__.blk_queue_direct_flush_register,@object // @__func__.blk_queue_direct_flush_register
.L__func__.blk_queue_direct_flush_register:
	.asciz	"blk_queue_direct_flush_register"
	.size	.L__func__.blk_queue_direct_flush_register, 32

	.type	.L__func__.blk_queue_flush_reduce_config,@object // @__func__.blk_queue_flush_reduce_config
.L__func__.blk_queue_flush_reduce_config:
	.asciz	"blk_queue_flush_reduce_config"
	.size	.L__func__.blk_queue_flush_reduce_config, 30

	.type	.L__func__.blk_mq_tagset_flush_reduce_config,@object // @__func__.blk_mq_tagset_flush_reduce_config
.L__func__.blk_mq_tagset_flush_reduce_config:
	.asciz	"blk_mq_tagset_flush_reduce_config"
	.size	.L__func__.blk_mq_tagset_flush_reduce_config, 34

	.type	.L.str.15,@object               // @.str.15
.L.str.15:
	.asciz	"\0013[BLK-IO]%s: bi_bdev is NULL!\n"
	.size	.L.str.15, 32

	.type	.L__func__.blk_flush_async_support,@object // @__func__.blk_flush_async_support
.L__func__.blk_flush_async_support:
	.asciz	"blk_flush_async_support"
	.size	.L__func__.blk_flush_async_support, 24

	.type	.L__func__.mas_blk_order_poweroff_proc,@object // @__func__.mas_blk_order_poweroff_proc
.L__func__.mas_blk_order_poweroff_proc:
	.asciz	"mas_blk_order_poweroff_proc"
	.size	.L__func__.mas_blk_order_poweroff_proc, 28
